
div-01.riscv:     file format elf32-littleriscv

Sections:
Idx Name          Size      VMA       LMA       File off  Algn
  0 .text.init    00003144  00000200  00000200  00000200  2**5
                  CONTENTS, ALLOC, LOAD, READONLY, CODE
  1 .text         00000008  00003344  00003344  00003344  2**2
                  CONTENTS, ALLOC, LOAD, READONLY, CODE
  2 .data         00000004  00003350  00003350  00003350  2**4
                  CONTENTS, ALLOC, LOAD, DATA
  3 .tohost       00000108  00003400  00003400  00003400  2**8
                  CONTENTS, ALLOC, LOAD, DATA
  4 .io_buf       00000b04  00006000  00006000  00004000  2**8
                  CONTENTS, ALLOC, LOAD, READONLY, DATA
  5 .riscv.attributes 00000031  00000000  00000000  00004b04  2**0
                  CONTENTS, READONLY

Disassembly of section .text.init:

00000200 <rvtest_code_begin>:
     200:	00006117          	auipc	sp,0x6
     204:	e0010113          	addi	sp,sp,-512 # 6000 <begin_signature>

00000208 <inst_0>:
     208:	00000013          	nop
     20c:	00040d37          	lui	s10,0x40
     210:	03a04033          	div	zero,zero,s10
     214:	00012023          	sw	zero,0(sp)

00000218 <inst_1>:
     218:	10000893          	li	a7,256
     21c:	10000893          	li	a7,256
     220:	0318c9b3          	div	s3,a7,a7
     224:	01312223          	sw	s3,4(sp)

00000228 <inst_2>:
     228:	ffffed37          	lui	s10,0xffffe
     22c:	fffd0d13          	addi	s10,s10,-1 # ffffdfff <_end+0xffff74fb>
     230:	fff00593          	li	a1,-1
     234:	02bd45b3          	div	a1,s10,a1
     238:	00b12423          	sw	a1,8(sp)

0000023c <inst_3>:
     23c:	fef00f13          	li	t5,-17
     240:	000102b7          	lui	t0,0x10
     244:	025f4933          	div	s2,t5,t0
     248:	01212623          	sw	s2,12(sp)

0000024c <inst_4>:
     24c:	00080537          	lui	a0,0x80
     250:	00080537          	lui	a0,0x80
     254:	02a54533          	div	a0,a0,a0
     258:	00a12823          	sw	a0,16(sp)

0000025c <inst_5>:
     25c:	eff00e93          	li	t4,-257
     260:	80000cb7          	lui	s9,0x80000
     264:	039ec833          	div	a6,t4,s9
     268:	01012a23          	sw	a6,20(sp)

0000026c <inst_6>:
     26c:	08000213          	li	tp,128
     270:	00000013          	nop
     274:	020248b3          	div	a7,tp,zero
     278:	01112c23          	sw	a7,24(sp)

0000027c <inst_7>:
     27c:	55555fb7          	lui	t6,0x55555
     280:	555f8f93          	addi	t6,t6,1365 # 55555555 <_end+0x5554ea51>
     284:	80000a37          	lui	s4,0x80000
     288:	fffa0a13          	addi	s4,s4,-1 # 7fffffff <_end+0x7fff94fb>
     28c:	034fc633          	div	a2,t6,s4
     290:	00c12e23          	sw	a2,28(sp)

00000294 <inst_8>:
     294:	ffff56b7          	lui	a3,0xffff5
     298:	afd68693          	addi	a3,a3,-1283 # ffff4afd <_end+0xfffedff9>
     29c:	00100e93          	li	t4,1
     2a0:	03d6cab3          	div	s5,a3,t4
     2a4:	03512023          	sw	s5,32(sp)

000002a8 <inst_9>:
     2a8:	80000a37          	lui	s4,0x80000
     2ac:	fff00f37          	lui	t5,0xfff00
     2b0:	ffff0f13          	addi	t5,t5,-1 # ffefffff <_end+0xffef94fb>
     2b4:	03ea4fb3          	div	t6,s4,t5
     2b8:	03f12223          	sw	t6,36(sp)

000002bc <inst_10>:
     2bc:	00000393          	li	t2,0
     2c0:	ff700693          	li	a3,-9
     2c4:	02d3ca33          	div	s4,t2,a3
     2c8:	03412423          	sw	s4,40(sp)

000002cc <inst_11>:
     2cc:	800002b7          	lui	t0,0x80000
     2d0:	fff28293          	addi	t0,t0,-1 # 7fffffff <_end+0x7fff94fb>
     2d4:	80000737          	lui	a4,0x80000
     2d8:	fff70713          	addi	a4,a4,-1 # 7fffffff <_end+0x7fff94fb>
     2dc:	02e2c233          	div	tp,t0,a4
     2e0:	02412623          	sw	tp,44(sp)

000002e4 <inst_12>:
     2e4:	00100313          	li	t1,1
     2e8:	00500b93          	li	s7,5
     2ec:	037340b3          	div	ra,t1,s7
     2f0:	02112823          	sw	ra,48(sp)

000002f4 <inst_13>:
     2f4:	ffb00b13          	li	s6,-5
     2f8:	00200313          	li	t1,2
     2fc:	026b4c33          	div	s8,s6,t1
     300:	03812a23          	sw	s8,52(sp)

00000304 <inst_14>:
     304:	ff800d93          	li	s11,-8
     308:	00400c13          	li	s8,4
     30c:	038dc3b3          	div	t2,s11,s8
     310:	02712c23          	sw	t2,56(sp)

00000314 <inst_15>:
     314:	00000c93          	li	s9,0
     318:	00800493          	li	s1,8
     31c:	029cceb3          	div	t4,s9,s1
     320:	03d12e23          	sw	t4,60(sp)

00000324 <inst_16>:
     324:	00004e37          	lui	t3,0x4
     328:	01000193          	li	gp,16
     32c:	023e44b3          	div	s1,t3,gp
     330:	04912023          	sw	s1,64(sp)
     334:	00006897          	auipc	a7,0x6
     338:	d1088893          	addi	a7,a7,-752 # 6044 <signature_x17_0>

0000033c <inst_17>:
     33c:	33333ab7          	lui	s5,0x33333
     340:	332a8a93          	addi	s5,s5,818 # 33333332 <_end+0x3332c82e>
     344:	02000f93          	li	t6,32
     348:	03facdb3          	div	s11,s5,t6
     34c:	01b8a023          	sw	s11,0(a7)

00000350 <inst_18>:
     350:	666664b7          	lui	s1,0x66666
     354:	66648493          	addi	s1,s1,1638 # 66666666 <_end+0x6665fb62>
     358:	04000093          	li	ra,64
     35c:	0214c733          	div	a4,s1,ra
     360:	00e8a223          	sw	a4,4(a7)

00000364 <inst_19>:
     364:	01000413          	li	s0,16
     368:	08000e13          	li	t3,128
     36c:	03c446b3          	div	a3,s0,t3
     370:	00d8a423          	sw	a3,8(a7)

00000374 <inst_20>:
     374:	0000b137          	lui	sp,0xb
     378:	50510113          	addi	sp,sp,1285 # b505 <_end+0x4a01>
     37c:	10000793          	li	a5,256
     380:	02f14333          	div	t1,sp,a5
     384:	0068a623          	sw	t1,12(a7)

00000388 <inst_21>:
     388:	dff00593          	li	a1,-513
     38c:	20000113          	li	sp,512
     390:	0225c2b3          	div	t0,a1,sp
     394:	0058a823          	sw	t0,16(a7)

00000398 <inst_22>:
     398:	00400c37          	lui	s8,0x400
     39c:	40000213          	li	tp,1024
     3a0:	024c4e33          	div	t3,s8,tp
     3a4:	01c8aa23          	sw	t3,20(a7)

000003a8 <inst_23>:
     3a8:	aaaab637          	lui	a2,0xaaaab
     3ac:	aab60613          	addi	a2,a2,-1365 # aaaaaaab <_end+0xaaaa3fa7>
     3b0:	00001837          	lui	a6,0x1
     3b4:	80080813          	addi	a6,a6,-2048 # 800 <inst_81+0x4>
     3b8:	03064b33          	div	s6,a2,a6
     3bc:	0168ac23          	sw	s6,24(a7)

000003c0 <inst_24>:
     3c0:	555551b7          	lui	gp,0x55555
     3c4:	55618193          	addi	gp,gp,1366 # 55555556 <_end+0x5554ea52>
     3c8:	000019b7          	lui	s3,0x1
     3cc:	0331c7b3          	div	a5,gp,s3
     3d0:	00f8ae23          	sw	a5,28(a7)

000003d4 <inst_25>:
     3d4:	aaaabbb7          	lui	s7,0xaaaab
     3d8:	aabb8b93          	addi	s7,s7,-1365 # aaaaaaab <_end+0xaaaa3fa7>
     3dc:	00002db7          	lui	s11,0x2
     3e0:	03bbcf33          	div	t5,s7,s11
     3e4:	03e8a023          	sw	t5,32(a7)

000003e8 <inst_26>:
     3e8:	40000837          	lui	a6,0x40000
     3ec:	00004637          	lui	a2,0x4
     3f0:	02c841b3          	div	gp,a6,a2
     3f4:	0238a223          	sw	gp,36(a7)

000003f8 <inst_27>:
     3f8:	00020737          	lui	a4,0x20
     3fc:	00008ab7          	lui	s5,0x8
     400:	03574133          	div	sp,a4,s5
     404:	0228a423          	sw	sp,40(a7)

00000408 <inst_28>:
     408:	00100793          	li	a5,1
     40c:	00020937          	lui	s2,0x20
     410:	0327c433          	div	s0,a5,s2
     414:	0288a623          	sw	s0,44(a7)

00000418 <inst_29>:
     418:	00400913          	li	s2,4
     41c:	00100437          	lui	s0,0x100
     420:	02894d33          	div	s10,s2,s0
     424:	03a8a823          	sw	s10,48(a7)

00000428 <inst_30>:
     428:	c00009b7          	lui	s3,0xc0000
     42c:	fff98993          	addi	s3,s3,-1 # bfffffff <_end+0xbfff94fb>
     430:	002003b7          	lui	t2,0x200
     434:	0279ccb3          	div	s9,s3,t2
     438:	0398aa23          	sw	s9,52(a7)

0000043c <inst_31>:
     43c:	ff600093          	li	ra,-10
     440:	00400b37          	lui	s6,0x400
     444:	0360cbb3          	div	s7,ra,s6
     448:	0378ac23          	sw	s7,56(a7)

0000044c <inst_32>:
     44c:	0000b537          	lui	a0,0xb
     450:	50350513          	addi	a0,a0,1283 # b503 <_end+0x49ff>
     454:	008005b7          	lui	a1,0x800
     458:	02b54633          	div	a2,a0,a1
     45c:	02c8ae23          	sw	a2,60(a7)
     460:	00006097          	auipc	ra,0x6
     464:	c2408093          	addi	ra,ra,-988 # 6084 <signature_x1_0>

00000468 <inst_33>:
     468:	ffa00513          	li	a0,-6
     46c:	010005b7          	lui	a1,0x1000
     470:	02b54633          	div	a2,a0,a1
     474:	00c0a023          	sw	a2,0(ra)

00000478 <inst_34>:
     478:	00001537          	lui	a0,0x1
     47c:	020005b7          	lui	a1,0x2000
     480:	02b54633          	div	a2,a0,a1
     484:	00c0a223          	sw	a2,4(ra)

00000488 <inst_35>:
     488:	33333537          	lui	a0,0x33333
     48c:	33250513          	addi	a0,a0,818 # 33333332 <_end+0x3332c82e>
     490:	040005b7          	lui	a1,0x4000
     494:	02b54633          	div	a2,a0,a1
     498:	00c0a423          	sw	a2,8(ra)

0000049c <inst_36>:
     49c:	ffb00513          	li	a0,-5
     4a0:	080005b7          	lui	a1,0x8000
     4a4:	02b54633          	div	a2,a0,a1
     4a8:	00c0a623          	sw	a2,12(ra)

000004ac <inst_37>:
     4ac:	0000b537          	lui	a0,0xb
     4b0:	50550513          	addi	a0,a0,1285 # b505 <_end+0x4a01>
     4b4:	100005b7          	lui	a1,0x10000
     4b8:	02b54633          	div	a2,a0,a1
     4bc:	00c0a823          	sw	a2,16(ra)

000004c0 <inst_38>:
     4c0:	00500513          	li	a0,5
     4c4:	200005b7          	lui	a1,0x20000
     4c8:	02b54633          	div	a2,a0,a1
     4cc:	00c0aa23          	sw	a2,20(ra)

000004d0 <inst_39>:
     4d0:	00400513          	li	a0,4
     4d4:	400005b7          	lui	a1,0x40000
     4d8:	02b54633          	div	a2,a0,a1
     4dc:	00c0ac23          	sw	a2,24(ra)

000004e0 <inst_40>:
     4e0:	00020537          	lui	a0,0x20
     4e4:	ffe00593          	li	a1,-2
     4e8:	02b54633          	div	a2,a0,a1
     4ec:	00c0ae23          	sw	a2,28(ra)

000004f0 <inst_41>:
     4f0:	00001537          	lui	a0,0x1
     4f4:	ffb00593          	li	a1,-5
     4f8:	02b54633          	div	a2,a0,a1
     4fc:	02c0a023          	sw	a2,32(ra)

00000500 <inst_42>:
     500:	33333537          	lui	a0,0x33333
     504:	33450513          	addi	a0,a0,820 # 33333334 <_end+0x3332c830>
     508:	fef00593          	li	a1,-17
     50c:	02b54633          	div	a2,a0,a1
     510:	02c0a223          	sw	a2,36(ra)

00000514 <inst_43>:
     514:	fffc0537          	lui	a0,0xfffc0
     518:	fff50513          	addi	a0,a0,-1 # fffbffff <_end+0xfffb94fb>
     51c:	fdf00593          	li	a1,-33
     520:	02b54633          	div	a2,a0,a1
     524:	02c0a423          	sw	a2,40(ra)

00000528 <inst_44>:
     528:	10000537          	lui	a0,0x10000
     52c:	fbf00593          	li	a1,-65
     530:	02b54633          	div	a2,a0,a1
     534:	02c0a623          	sw	a2,44(ra)

00000538 <inst_45>:
     538:	00008537          	lui	a0,0x8
     53c:	f7f00593          	li	a1,-129
     540:	02b54633          	div	a2,a0,a1
     544:	02c0a823          	sw	a2,48(ra)

00000548 <inst_46>:
     548:	fffc0537          	lui	a0,0xfffc0
     54c:	fff50513          	addi	a0,a0,-1 # fffbffff <_end+0xfffb94fb>
     550:	eff00593          	li	a1,-257
     554:	02b54633          	div	a2,a0,a1
     558:	02c0aa23          	sw	a2,52(ra)

0000055c <inst_47>:
     55c:	00800537          	lui	a0,0x800
     560:	dff00593          	li	a1,-513
     564:	02b54633          	div	a2,a0,a1
     568:	02c0ac23          	sw	a2,56(ra)

0000056c <inst_48>:
     56c:	55555537          	lui	a0,0x55555
     570:	55550513          	addi	a0,a0,1365 # 55555555 <_end+0x5554ea51>
     574:	bff00593          	li	a1,-1025
     578:	02b54633          	div	a2,a0,a1
     57c:	02c0ae23          	sw	a2,60(ra)

00000580 <inst_49>:
     580:	0000b537          	lui	a0,0xb
     584:	50450513          	addi	a0,a0,1284 # b504 <_end+0x4a00>
     588:	fffff5b7          	lui	a1,0xfffff
     58c:	7ff58593          	addi	a1,a1,2047 # fffff7ff <_end+0xffff8cfb>
     590:	02b54633          	div	a2,a0,a1
     594:	04c0a023          	sw	a2,64(ra)

00000598 <inst_50>:
     598:	c0000537          	lui	a0,0xc0000
     59c:	fffff5b7          	lui	a1,0xfffff
     5a0:	fff58593          	addi	a1,a1,-1 # ffffefff <_end+0xffff84fb>
     5a4:	02b54633          	div	a2,a0,a1
     5a8:	04c0a223          	sw	a2,68(ra)

000005ac <inst_51>:
     5ac:	ffc00537          	lui	a0,0xffc00
     5b0:	fff50513          	addi	a0,a0,-1 # ffbfffff <_end+0xffbf94fb>
     5b4:	ffffe5b7          	lui	a1,0xffffe
     5b8:	fff58593          	addi	a1,a1,-1 # ffffdfff <_end+0xffff74fb>
     5bc:	02b54633          	div	a2,a0,a1
     5c0:	04c0a423          	sw	a2,72(ra)

000005c4 <inst_52>:
     5c4:	00200513          	li	a0,2
     5c8:	ffffc5b7          	lui	a1,0xffffc
     5cc:	fff58593          	addi	a1,a1,-1 # ffffbfff <_end+0xffff54fb>
     5d0:	02b54633          	div	a2,a0,a1
     5d4:	04c0a623          	sw	a2,76(ra)

000005d8 <inst_53>:
     5d8:	40000537          	lui	a0,0x40000
     5dc:	fff50513          	addi	a0,a0,-1 # 3fffffff <_end+0x3fff94fb>
     5e0:	ffff85b7          	lui	a1,0xffff8
     5e4:	fff58593          	addi	a1,a1,-1 # ffff7fff <_end+0xffff14fb>
     5e8:	02b54633          	div	a2,a0,a1
     5ec:	04c0a823          	sw	a2,80(ra)

000005f0 <inst_54>:
     5f0:	80000537          	lui	a0,0x80000
     5f4:	ffff05b7          	lui	a1,0xffff0
     5f8:	fff58593          	addi	a1,a1,-1 # fffeffff <_end+0xfffe94fb>
     5fc:	02b54633          	div	a2,a0,a1
     600:	04c0aa23          	sw	a2,84(ra)

00000604 <inst_55>:
     604:	ffe00513          	li	a0,-2
     608:	fffe05b7          	lui	a1,0xfffe0
     60c:	fff58593          	addi	a1,a1,-1 # fffdffff <_end+0xfffd94fb>
     610:	02b54633          	div	a2,a0,a1
     614:	04c0ac23          	sw	a2,88(ra)

00000618 <inst_56>:
     618:	fe000537          	lui	a0,0xfe000
     61c:	fff50513          	addi	a0,a0,-1 # fdffffff <_end+0xfdff94fb>
     620:	fffc05b7          	lui	a1,0xfffc0
     624:	fff58593          	addi	a1,a1,-1 # fffbffff <_end+0xfffb94fb>
     628:	02b54633          	div	a2,a0,a1
     62c:	04c0ae23          	sw	a2,92(ra)

00000630 <inst_57>:
     630:	00000513          	li	a0,0
     634:	fff805b7          	lui	a1,0xfff80
     638:	fff58593          	addi	a1,a1,-1 # fff7ffff <_end+0xfff794fb>
     63c:	02b54633          	div	a2,a0,a1
     640:	06c0a023          	sw	a2,96(ra)

00000644 <inst_58>:
     644:	c0000537          	lui	a0,0xc0000
     648:	ffe005b7          	lui	a1,0xffe00
     64c:	fff58593          	addi	a1,a1,-1 # ffdfffff <_end+0xffdf94fb>
     650:	02b54633          	div	a2,a0,a1
     654:	06c0a223          	sw	a2,100(ra)

00000658 <inst_59>:
     658:	bff00513          	li	a0,-1025
     65c:	ffc005b7          	lui	a1,0xffc00
     660:	fff58593          	addi	a1,a1,-1 # ffbfffff <_end+0xffbf94fb>
     664:	02b54633          	div	a2,a0,a1
     668:	06c0a423          	sw	a2,104(ra)

0000066c <inst_60>:
     66c:	02000513          	li	a0,32
     670:	ff8005b7          	lui	a1,0xff800
     674:	fff58593          	addi	a1,a1,-1 # ff7fffff <_end+0xff7f94fb>
     678:	02b54633          	div	a2,a0,a1
     67c:	06c0a623          	sw	a2,108(ra)

00000680 <inst_61>:
     680:	00300513          	li	a0,3
     684:	ff0005b7          	lui	a1,0xff000
     688:	fff58593          	addi	a1,a1,-1 # feffffff <_end+0xfeff94fb>
     68c:	02b54633          	div	a2,a0,a1
     690:	06c0a823          	sw	a2,112(ra)

00000694 <inst_62>:
     694:	55555537          	lui	a0,0x55555
     698:	55550513          	addi	a0,a0,1365 # 55555555 <_end+0x5554ea51>
     69c:	fe0005b7          	lui	a1,0xfe000
     6a0:	fff58593          	addi	a1,a1,-1 # fdffffff <_end+0xfdff94fb>
     6a4:	02b54633          	div	a2,a0,a1
     6a8:	06c0aa23          	sw	a2,116(ra)

000006ac <inst_63>:
     6ac:	00000513          	li	a0,0
     6b0:	fc0005b7          	lui	a1,0xfc000
     6b4:	fff58593          	addi	a1,a1,-1 # fbffffff <_end+0xfbff94fb>
     6b8:	02b54633          	div	a2,a0,a1
     6bc:	06c0ac23          	sw	a2,120(ra)

000006c0 <inst_64>:
     6c0:	ff000537          	lui	a0,0xff000
     6c4:	fff50513          	addi	a0,a0,-1 # feffffff <_end+0xfeff94fb>
     6c8:	f80005b7          	lui	a1,0xf8000
     6cc:	fff58593          	addi	a1,a1,-1 # f7ffffff <_end+0xf7ff94fb>
     6d0:	02b54633          	div	a2,a0,a1
     6d4:	06c0ae23          	sw	a2,124(ra)

000006d8 <inst_65>:
     6d8:	08000513          	li	a0,128
     6dc:	f00005b7          	lui	a1,0xf0000
     6e0:	fff58593          	addi	a1,a1,-1 # efffffff <_end+0xefff94fb>
     6e4:	02b54633          	div	a2,a0,a1
     6e8:	08c0a023          	sw	a2,128(ra)

000006ec <inst_66>:
     6ec:	fff00513          	li	a0,-1
     6f0:	e00005b7          	lui	a1,0xe0000
     6f4:	fff58593          	addi	a1,a1,-1 # dfffffff <_end+0xdfff94fb>
     6f8:	02b54633          	div	a2,a0,a1
     6fc:	08c0a223          	sw	a2,132(ra)

00000700 <inst_67>:
     700:	ff600513          	li	a0,-10
     704:	c00005b7          	lui	a1,0xc0000
     708:	fff58593          	addi	a1,a1,-1 # bfffffff <_end+0xbfff94fb>
     70c:	02b54633          	div	a2,a0,a1
     710:	08c0a423          	sw	a2,136(ra)

00000714 <inst_68>:
     714:	00300513          	li	a0,3
     718:	555555b7          	lui	a1,0x55555
     71c:	55558593          	addi	a1,a1,1365 # 55555555 <_end+0x5554ea51>
     720:	02b54633          	div	a2,a0,a1
     724:	08c0a623          	sw	a2,140(ra)

00000728 <inst_69>:
     728:	fdf00513          	li	a0,-33
     72c:	aaaab5b7          	lui	a1,0xaaaab
     730:	aaa58593          	addi	a1,a1,-1366 # aaaaaaaa <_end+0xaaaa3fa6>
     734:	02b54633          	div	a2,a0,a1
     738:	08c0a823          	sw	a2,144(ra)

0000073c <inst_70>:
     73c:	00800513          	li	a0,8
     740:	ffc00593          	li	a1,-4
     744:	02b54633          	div	a2,a0,a1
     748:	08c0aa23          	sw	a2,148(ra)

0000074c <inst_71>:
     74c:	04000513          	li	a0,64
     750:	10000593          	li	a1,256
     754:	02b54633          	div	a2,a0,a1
     758:	08c0ac23          	sw	a2,152(ra)

0000075c <inst_72>:
     75c:	20000513          	li	a0,512
     760:	fef00593          	li	a1,-17
     764:	02b54633          	div	a2,a0,a1
     768:	08c0ae23          	sw	a2,156(ra)

0000076c <inst_73>:
     76c:	40000513          	li	a0,1024
     770:	000805b7          	lui	a1,0x80
     774:	02b54633          	div	a2,a0,a1
     778:	0ac0a023          	sw	a2,160(ra)

0000077c <inst_74>:
     77c:	00001537          	lui	a0,0x1
     780:	80050513          	addi	a0,a0,-2048 # 800 <inst_81+0x4>
     784:	ffff55b7          	lui	a1,0xffff5
     788:	afc58593          	addi	a1,a1,-1284 # ffff4afc <_end+0xfffedff8>
     78c:	02b54633          	div	a2,a0,a1
     790:	0ac0a223          	sw	a2,164(ra)

00000794 <inst_75>:
     794:	00002537          	lui	a0,0x2
     798:	004005b7          	lui	a1,0x400
     79c:	02b54633          	div	a2,a0,a1
     7a0:	0ac0a423          	sw	a2,168(ra)

000007a4 <inst_76>:
     7a4:	00010537          	lui	a0,0x10
     7a8:	fff005b7          	lui	a1,0xfff00
     7ac:	fff58593          	addi	a1,a1,-1 # ffefffff <_end+0xffef94fb>
     7b0:	02b54633          	div	a2,a0,a1
     7b4:	0ac0a623          	sw	a2,172(ra)

000007b8 <inst_77>:
     7b8:	00040537          	lui	a0,0x40
     7bc:	00200593          	li	a1,2
     7c0:	02b54633          	div	a2,a0,a1
     7c4:	0ac0a823          	sw	a2,176(ra)

000007c8 <inst_78>:
     7c8:	00100537          	lui	a0,0x100
     7cc:	800005b7          	lui	a1,0x80000
     7d0:	02b54633          	div	a2,a0,a1
     7d4:	0ac0aa23          	sw	a2,180(ra)

000007d8 <inst_79>:
     7d8:	00200537          	lui	a0,0x200
     7dc:	40000593          	li	a1,1024
     7e0:	02b54633          	div	a2,a0,a1
     7e4:	0ac0ac23          	sw	a2,184(ra)

000007e8 <inst_80>:
     7e8:	01000537          	lui	a0,0x1000
     7ec:	aaaab5b7          	lui	a1,0xaaaab
     7f0:	aab58593          	addi	a1,a1,-1365 # aaaaaaab <_end+0xaaaa3fa7>
     7f4:	02b54633          	div	a2,a0,a1
     7f8:	0ac0ae23          	sw	a2,188(ra)

000007fc <inst_81>:
     7fc:	02000537          	lui	a0,0x2000
     800:	fdf00593          	li	a1,-33
     804:	02b54633          	div	a2,a0,a1
     808:	0cc0a023          	sw	a2,192(ra)

0000080c <inst_82>:
     80c:	04000537          	lui	a0,0x4000
     810:	040005b7          	lui	a1,0x4000
     814:	02b54633          	div	a2,a0,a1
     818:	0cc0a223          	sw	a2,196(ra)

0000081c <inst_83>:
     81c:	08000537          	lui	a0,0x8000
     820:	0000b5b7          	lui	a1,0xb
     824:	50358593          	addi	a1,a1,1283 # b503 <_end+0x49ff>
     828:	02b54633          	div	a2,a0,a1
     82c:	0cc0a423          	sw	a2,200(ra)

00000830 <inst_84>:
     830:	20000537          	lui	a0,0x20000
     834:	000015b7          	lui	a1,0x1
     838:	80058593          	addi	a1,a1,-2048 # 800 <inst_81+0x4>
     83c:	02b54633          	div	a2,a0,a1
     840:	0cc0a623          	sw	a2,204(ra)

00000844 <inst_85>:
     844:	ffd00513          	li	a0,-3
     848:	100005b7          	lui	a1,0x10000
     84c:	02b54633          	div	a2,a0,a1
     850:	0cc0a823          	sw	a2,208(ra)

00000854 <inst_86>:
     854:	ff700513          	li	a0,-9
     858:	002005b7          	lui	a1,0x200
     85c:	02b54633          	div	a2,a0,a1
     860:	0cc0aa23          	sw	a2,212(ra)

00000864 <inst_87>:
     864:	fbf00513          	li	a0,-65
     868:	400005b7          	lui	a1,0x40000
     86c:	02b54633          	div	a2,a0,a1
     870:	0cc0ac23          	sw	a2,216(ra)

00000874 <inst_88>:
     874:	f7f00513          	li	a0,-129
     878:	080005b7          	lui	a1,0x8000
     87c:	02b54633          	div	a2,a0,a1
     880:	0cc0ae23          	sw	a2,220(ra)

00000884 <inst_89>:
     884:	fffff537          	lui	a0,0xfffff
     888:	7ff50513          	addi	a0,a0,2047 # fffff7ff <_end+0xffff8cfb>
     88c:	000805b7          	lui	a1,0x80
     890:	02b54633          	div	a2,a0,a1
     894:	0ec0a023          	sw	a2,224(ra)

00000898 <inst_90>:
     898:	fffff537          	lui	a0,0xfffff
     89c:	fff50513          	addi	a0,a0,-1 # ffffefff <_end+0xffff84fb>
     8a0:	00600593          	li	a1,6
     8a4:	02b54633          	div	a2,a0,a1
     8a8:	0ec0a223          	sw	a2,228(ra)

000008ac <inst_91>:
     8ac:	ffffc537          	lui	a0,0xffffc
     8b0:	fff50513          	addi	a0,a0,-1 # ffffbfff <_end+0xffff54fb>
     8b4:	10000593          	li	a1,256
     8b8:	02b54633          	div	a2,a0,a1
     8bc:	0ec0a423          	sw	a2,232(ra)

000008c0 <inst_92>:
     8c0:	ffff8537          	lui	a0,0xffff8
     8c4:	fff50513          	addi	a0,a0,-1 # ffff7fff <_end+0xffff14fb>
     8c8:	ffd00593          	li	a1,-3
     8cc:	02b54633          	div	a2,a0,a1
     8d0:	0ec0a623          	sw	a2,236(ra)

000008d4 <inst_93>:
     8d4:	ffff0537          	lui	a0,0xffff0
     8d8:	fff50513          	addi	a0,a0,-1 # fffeffff <_end+0xfffe94fb>
     8dc:	ffc00593          	li	a1,-4
     8e0:	02b54633          	div	a2,a0,a1
     8e4:	0ec0a823          	sw	a2,240(ra)

000008e8 <inst_94>:
     8e8:	fffe0537          	lui	a0,0xfffe0
     8ec:	fff50513          	addi	a0,a0,-1 # fffdffff <_end+0xfffd94fb>
     8f0:	00400593          	li	a1,4
     8f4:	02b54633          	div	a2,a0,a1
     8f8:	0ec0aa23          	sw	a2,244(ra)

000008fc <inst_95>:
     8fc:	fff80537          	lui	a0,0xfff80
     900:	fff50513          	addi	a0,a0,-1 # fff7ffff <_end+0xfff794fb>
     904:	fc0005b7          	lui	a1,0xfc000
     908:	fff58593          	addi	a1,a1,-1 # fbffffff <_end+0xfbff94fb>
     90c:	02b54633          	div	a2,a0,a1
     910:	0ec0ac23          	sw	a2,248(ra)

00000914 <inst_96>:
     914:	fff00537          	lui	a0,0xfff00
     918:	fff50513          	addi	a0,a0,-1 # ffefffff <_end+0xffef94fb>
     91c:	fdf00593          	li	a1,-33
     920:	02b54633          	div	a2,a0,a1
     924:	0ec0ae23          	sw	a2,252(ra)

00000928 <inst_97>:
     928:	ffe00537          	lui	a0,0xffe00
     92c:	fff50513          	addi	a0,a0,-1 # ffdfffff <_end+0xffdf94fb>
     930:	ffff85b7          	lui	a1,0xffff8
     934:	fff58593          	addi	a1,a1,-1 # ffff7fff <_end+0xffff14fb>
     938:	02b54633          	div	a2,a0,a1
     93c:	10c0a023          	sw	a2,256(ra)

00000940 <inst_98>:
     940:	ff800537          	lui	a0,0xff800
     944:	fff50513          	addi	a0,a0,-1 # ff7fffff <_end+0xff7f94fb>
     948:	f80005b7          	lui	a1,0xf8000
     94c:	fff58593          	addi	a1,a1,-1 # f7ffffff <_end+0xf7ff94fb>
     950:	02b54633          	div	a2,a0,a1
     954:	10c0a223          	sw	a2,260(ra)

00000958 <inst_99>:
     958:	fc000537          	lui	a0,0xfc000
     95c:	fff50513          	addi	a0,a0,-1 # fbffffff <_end+0xfbff94fb>
     960:	fdf00593          	li	a1,-33
     964:	02b54633          	div	a2,a0,a1
     968:	10c0a423          	sw	a2,264(ra)

0000096c <inst_100>:
     96c:	f8000537          	lui	a0,0xf8000
     970:	fff50513          	addi	a0,a0,-1 # f7ffffff <_end+0xf7ff94fb>
     974:	200005b7          	lui	a1,0x20000
     978:	02b54633          	div	a2,a0,a1
     97c:	10c0a623          	sw	a2,268(ra)

00000980 <inst_101>:
     980:	f0000537          	lui	a0,0xf0000
     984:	fff50513          	addi	a0,a0,-1 # efffffff <_end+0xefff94fb>
     988:	dff00593          	li	a1,-513
     98c:	02b54633          	div	a2,a0,a1
     990:	10c0a823          	sw	a2,272(ra)

00000994 <inst_102>:
     994:	e0000537          	lui	a0,0xe0000
     998:	fff50513          	addi	a0,a0,-1 # dfffffff <_end+0xdfff94fb>
     99c:	008005b7          	lui	a1,0x800
     9a0:	02b54633          	div	a2,a0,a1
     9a4:	10c0aa23          	sw	a2,276(ra)

000009a8 <inst_103>:
     9a8:	aaaab537          	lui	a0,0xaaaab
     9ac:	aaa50513          	addi	a0,a0,-1366 # aaaaaaaa <_end+0xaaaa3fa6>
     9b0:	ffd00593          	li	a1,-3
     9b4:	02b54633          	div	a2,a0,a1
     9b8:	10c0ac23          	sw	a2,280(ra)

000009bc <inst_104>:
     9bc:	00300513          	li	a0,3
     9c0:	00300593          	li	a1,3
     9c4:	02b54633          	div	a2,a0,a1
     9c8:	10c0ae23          	sw	a2,284(ra)

000009cc <inst_105>:
     9cc:	00300513          	li	a0,3
     9d0:	aaaab5b7          	lui	a1,0xaaaab
     9d4:	aaa58593          	addi	a1,a1,-1366 # aaaaaaaa <_end+0xaaaa3fa6>
     9d8:	02b54633          	div	a2,a0,a1
     9dc:	12c0a023          	sw	a2,288(ra)

000009e0 <inst_106>:
     9e0:	00300513          	li	a0,3
     9e4:	00500593          	li	a1,5
     9e8:	02b54633          	div	a2,a0,a1
     9ec:	12c0a223          	sw	a2,292(ra)

000009f0 <inst_107>:
     9f0:	00300513          	li	a0,3
     9f4:	333335b7          	lui	a1,0x33333
     9f8:	33358593          	addi	a1,a1,819 # 33333333 <_end+0x3332c82f>
     9fc:	02b54633          	div	a2,a0,a1
     a00:	12c0a423          	sw	a2,296(ra)

00000a04 <inst_108>:
     a04:	00300513          	li	a0,3
     a08:	666665b7          	lui	a1,0x66666
     a0c:	66658593          	addi	a1,a1,1638 # 66666666 <_end+0x6665fb62>
     a10:	02b54633          	div	a2,a0,a1
     a14:	12c0a623          	sw	a2,300(ra)

00000a18 <inst_109>:
     a18:	00300513          	li	a0,3
     a1c:	ffff55b7          	lui	a1,0xffff5
     a20:	afc58593          	addi	a1,a1,-1284 # ffff4afc <_end+0xfffedff8>
     a24:	02b54633          	div	a2,a0,a1
     a28:	12c0a823          	sw	a2,304(ra)

00000a2c <inst_110>:
     a2c:	00300513          	li	a0,3
     a30:	0000b5b7          	lui	a1,0xb
     a34:	50458593          	addi	a1,a1,1284 # b504 <_end+0x4a00>
     a38:	02b54633          	div	a2,a0,a1
     a3c:	12c0aa23          	sw	a2,308(ra)

00000a40 <inst_111>:
     a40:	00300513          	li	a0,3
     a44:	00200593          	li	a1,2
     a48:	02b54633          	div	a2,a0,a1
     a4c:	12c0ac23          	sw	a2,312(ra)

00000a50 <inst_112>:
     a50:	00300513          	li	a0,3
     a54:	555555b7          	lui	a1,0x55555
     a58:	55458593          	addi	a1,a1,1364 # 55555554 <_end+0x5554ea50>
     a5c:	02b54633          	div	a2,a0,a1
     a60:	12c0ae23          	sw	a2,316(ra)

00000a64 <inst_113>:
     a64:	00300513          	li	a0,3
     a68:	00000593          	li	a1,0
     a6c:	02b54633          	div	a2,a0,a1
     a70:	14c0a023          	sw	a2,320(ra)

00000a74 <inst_114>:
     a74:	00300513          	li	a0,3
     a78:	00400593          	li	a1,4
     a7c:	02b54633          	div	a2,a0,a1
     a80:	14c0a223          	sw	a2,324(ra)

00000a84 <inst_115>:
     a84:	00300513          	li	a0,3
     a88:	333335b7          	lui	a1,0x33333
     a8c:	33258593          	addi	a1,a1,818 # 33333332 <_end+0x3332c82e>
     a90:	02b54633          	div	a2,a0,a1
     a94:	14c0a423          	sw	a2,328(ra)

00000a98 <inst_116>:
     a98:	00300513          	li	a0,3
     a9c:	666665b7          	lui	a1,0x66666
     aa0:	66558593          	addi	a1,a1,1637 # 66666665 <_end+0x6665fb61>
     aa4:	02b54633          	div	a2,a0,a1
     aa8:	14c0a623          	sw	a2,332(ra)

00000aac <inst_117>:
     aac:	00300513          	li	a0,3
     ab0:	0000b5b7          	lui	a1,0xb
     ab4:	50358593          	addi	a1,a1,1283 # b503 <_end+0x49ff>
     ab8:	02b54633          	div	a2,a0,a1
     abc:	14c0a823          	sw	a2,336(ra)

00000ac0 <inst_118>:
     ac0:	00300513          	li	a0,3
     ac4:	555555b7          	lui	a1,0x55555
     ac8:	55658593          	addi	a1,a1,1366 # 55555556 <_end+0x5554ea52>
     acc:	02b54633          	div	a2,a0,a1
     ad0:	14c0aa23          	sw	a2,340(ra)

00000ad4 <inst_119>:
     ad4:	00300513          	li	a0,3
     ad8:	aaaab5b7          	lui	a1,0xaaaab
     adc:	aab58593          	addi	a1,a1,-1365 # aaaaaaab <_end+0xaaaa3fa7>
     ae0:	02b54633          	div	a2,a0,a1
     ae4:	14c0ac23          	sw	a2,344(ra)

00000ae8 <inst_120>:
     ae8:	00300513          	li	a0,3
     aec:	00600593          	li	a1,6
     af0:	02b54633          	div	a2,a0,a1
     af4:	14c0ae23          	sw	a2,348(ra)

00000af8 <inst_121>:
     af8:	00300513          	li	a0,3
     afc:	333335b7          	lui	a1,0x33333
     b00:	33458593          	addi	a1,a1,820 # 33333334 <_end+0x3332c830>
     b04:	02b54633          	div	a2,a0,a1
     b08:	16c0a023          	sw	a2,352(ra)

00000b0c <inst_122>:
     b0c:	00300513          	li	a0,3
     b10:	666665b7          	lui	a1,0x66666
     b14:	66758593          	addi	a1,a1,1639 # 66666667 <_end+0x6665fb63>
     b18:	02b54633          	div	a2,a0,a1
     b1c:	16c0a223          	sw	a2,356(ra)

00000b20 <inst_123>:
     b20:	00300513          	li	a0,3
     b24:	ffff55b7          	lui	a1,0xffff5
     b28:	afd58593          	addi	a1,a1,-1283 # ffff4afd <_end+0xfffedff9>
     b2c:	02b54633          	div	a2,a0,a1
     b30:	16c0a423          	sw	a2,360(ra)

00000b34 <inst_124>:
     b34:	00300513          	li	a0,3
     b38:	0000b5b7          	lui	a1,0xb
     b3c:	50558593          	addi	a1,a1,1285 # b505 <_end+0x4a01>
     b40:	02b54633          	div	a2,a0,a1
     b44:	16c0a623          	sw	a2,364(ra)

00000b48 <inst_125>:
     b48:	55555537          	lui	a0,0x55555
     b4c:	55550513          	addi	a0,a0,1365 # 55555555 <_end+0x5554ea51>
     b50:	00300593          	li	a1,3
     b54:	02b54633          	div	a2,a0,a1
     b58:	16c0a823          	sw	a2,368(ra)

00000b5c <inst_126>:
     b5c:	55555537          	lui	a0,0x55555
     b60:	55550513          	addi	a0,a0,1365 # 55555555 <_end+0x5554ea51>
     b64:	555555b7          	lui	a1,0x55555
     b68:	55558593          	addi	a1,a1,1365 # 55555555 <_end+0x5554ea51>
     b6c:	02b54633          	div	a2,a0,a1
     b70:	16c0aa23          	sw	a2,372(ra)

00000b74 <inst_127>:
     b74:	55555537          	lui	a0,0x55555
     b78:	55550513          	addi	a0,a0,1365 # 55555555 <_end+0x5554ea51>
     b7c:	aaaab5b7          	lui	a1,0xaaaab
     b80:	aaa58593          	addi	a1,a1,-1366 # aaaaaaaa <_end+0xaaaa3fa6>
     b84:	02b54633          	div	a2,a0,a1
     b88:	16c0ac23          	sw	a2,376(ra)

00000b8c <inst_128>:
     b8c:	55555537          	lui	a0,0x55555
     b90:	55550513          	addi	a0,a0,1365 # 55555555 <_end+0x5554ea51>
     b94:	00500593          	li	a1,5
     b98:	02b54633          	div	a2,a0,a1
     b9c:	16c0ae23          	sw	a2,380(ra)

00000ba0 <inst_129>:
     ba0:	55555537          	lui	a0,0x55555
     ba4:	55550513          	addi	a0,a0,1365 # 55555555 <_end+0x5554ea51>
     ba8:	333335b7          	lui	a1,0x33333
     bac:	33358593          	addi	a1,a1,819 # 33333333 <_end+0x3332c82f>
     bb0:	02b54633          	div	a2,a0,a1
     bb4:	18c0a023          	sw	a2,384(ra)

00000bb8 <inst_130>:
     bb8:	55555537          	lui	a0,0x55555
     bbc:	55550513          	addi	a0,a0,1365 # 55555555 <_end+0x5554ea51>
     bc0:	666665b7          	lui	a1,0x66666
     bc4:	66658593          	addi	a1,a1,1638 # 66666666 <_end+0x6665fb62>
     bc8:	02b54633          	div	a2,a0,a1
     bcc:	18c0a223          	sw	a2,388(ra)

00000bd0 <inst_131>:
     bd0:	55555537          	lui	a0,0x55555
     bd4:	55550513          	addi	a0,a0,1365 # 55555555 <_end+0x5554ea51>
     bd8:	ffff55b7          	lui	a1,0xffff5
     bdc:	afc58593          	addi	a1,a1,-1284 # ffff4afc <_end+0xfffedff8>
     be0:	02b54633          	div	a2,a0,a1
     be4:	18c0a423          	sw	a2,392(ra)

00000be8 <inst_132>:
     be8:	55555537          	lui	a0,0x55555
     bec:	55550513          	addi	a0,a0,1365 # 55555555 <_end+0x5554ea51>
     bf0:	0000b5b7          	lui	a1,0xb
     bf4:	50458593          	addi	a1,a1,1284 # b504 <_end+0x4a00>
     bf8:	02b54633          	div	a2,a0,a1
     bfc:	18c0a623          	sw	a2,396(ra)

00000c00 <inst_133>:
     c00:	55555537          	lui	a0,0x55555
     c04:	55550513          	addi	a0,a0,1365 # 55555555 <_end+0x5554ea51>
     c08:	00200593          	li	a1,2
     c0c:	02b54633          	div	a2,a0,a1
     c10:	18c0a823          	sw	a2,400(ra)

00000c14 <inst_134>:
     c14:	55555537          	lui	a0,0x55555
     c18:	55550513          	addi	a0,a0,1365 # 55555555 <_end+0x5554ea51>
     c1c:	555555b7          	lui	a1,0x55555
     c20:	55458593          	addi	a1,a1,1364 # 55555554 <_end+0x5554ea50>
     c24:	02b54633          	div	a2,a0,a1
     c28:	18c0aa23          	sw	a2,404(ra)

00000c2c <inst_135>:
     c2c:	55555537          	lui	a0,0x55555
     c30:	55550513          	addi	a0,a0,1365 # 55555555 <_end+0x5554ea51>
     c34:	00000593          	li	a1,0
     c38:	02b54633          	div	a2,a0,a1
     c3c:	18c0ac23          	sw	a2,408(ra)

00000c40 <inst_136>:
     c40:	55555537          	lui	a0,0x55555
     c44:	55550513          	addi	a0,a0,1365 # 55555555 <_end+0x5554ea51>
     c48:	00400593          	li	a1,4
     c4c:	02b54633          	div	a2,a0,a1
     c50:	18c0ae23          	sw	a2,412(ra)

00000c54 <inst_137>:
     c54:	55555537          	lui	a0,0x55555
     c58:	55550513          	addi	a0,a0,1365 # 55555555 <_end+0x5554ea51>
     c5c:	333335b7          	lui	a1,0x33333
     c60:	33258593          	addi	a1,a1,818 # 33333332 <_end+0x3332c82e>
     c64:	02b54633          	div	a2,a0,a1
     c68:	1ac0a023          	sw	a2,416(ra)

00000c6c <inst_138>:
     c6c:	55555537          	lui	a0,0x55555
     c70:	55550513          	addi	a0,a0,1365 # 55555555 <_end+0x5554ea51>
     c74:	666665b7          	lui	a1,0x66666
     c78:	66558593          	addi	a1,a1,1637 # 66666665 <_end+0x6665fb61>
     c7c:	02b54633          	div	a2,a0,a1
     c80:	1ac0a223          	sw	a2,420(ra)

00000c84 <inst_139>:
     c84:	55555537          	lui	a0,0x55555
     c88:	55550513          	addi	a0,a0,1365 # 55555555 <_end+0x5554ea51>
     c8c:	0000b5b7          	lui	a1,0xb
     c90:	50358593          	addi	a1,a1,1283 # b503 <_end+0x49ff>
     c94:	02b54633          	div	a2,a0,a1
     c98:	1ac0a423          	sw	a2,424(ra)

00000c9c <inst_140>:
     c9c:	55555537          	lui	a0,0x55555
     ca0:	55550513          	addi	a0,a0,1365 # 55555555 <_end+0x5554ea51>
     ca4:	555555b7          	lui	a1,0x55555
     ca8:	55658593          	addi	a1,a1,1366 # 55555556 <_end+0x5554ea52>
     cac:	02b54633          	div	a2,a0,a1
     cb0:	1ac0a623          	sw	a2,428(ra)

00000cb4 <inst_141>:
     cb4:	55555537          	lui	a0,0x55555
     cb8:	55550513          	addi	a0,a0,1365 # 55555555 <_end+0x5554ea51>
     cbc:	aaaab5b7          	lui	a1,0xaaaab
     cc0:	aab58593          	addi	a1,a1,-1365 # aaaaaaab <_end+0xaaaa3fa7>
     cc4:	02b54633          	div	a2,a0,a1
     cc8:	1ac0a823          	sw	a2,432(ra)

00000ccc <inst_142>:
     ccc:	55555537          	lui	a0,0x55555
     cd0:	55550513          	addi	a0,a0,1365 # 55555555 <_end+0x5554ea51>
     cd4:	00600593          	li	a1,6
     cd8:	02b54633          	div	a2,a0,a1
     cdc:	1ac0aa23          	sw	a2,436(ra)

00000ce0 <inst_143>:
     ce0:	55555537          	lui	a0,0x55555
     ce4:	55550513          	addi	a0,a0,1365 # 55555555 <_end+0x5554ea51>
     ce8:	333335b7          	lui	a1,0x33333
     cec:	33458593          	addi	a1,a1,820 # 33333334 <_end+0x3332c830>
     cf0:	02b54633          	div	a2,a0,a1
     cf4:	1ac0ac23          	sw	a2,440(ra)

00000cf8 <inst_144>:
     cf8:	55555537          	lui	a0,0x55555
     cfc:	55550513          	addi	a0,a0,1365 # 55555555 <_end+0x5554ea51>
     d00:	666665b7          	lui	a1,0x66666
     d04:	66758593          	addi	a1,a1,1639 # 66666667 <_end+0x6665fb63>
     d08:	02b54633          	div	a2,a0,a1
     d0c:	1ac0ae23          	sw	a2,444(ra)

00000d10 <inst_145>:
     d10:	55555537          	lui	a0,0x55555
     d14:	55550513          	addi	a0,a0,1365 # 55555555 <_end+0x5554ea51>
     d18:	ffff55b7          	lui	a1,0xffff5
     d1c:	afd58593          	addi	a1,a1,-1283 # ffff4afd <_end+0xfffedff9>
     d20:	02b54633          	div	a2,a0,a1
     d24:	1cc0a023          	sw	a2,448(ra)

00000d28 <inst_146>:
     d28:	55555537          	lui	a0,0x55555
     d2c:	55550513          	addi	a0,a0,1365 # 55555555 <_end+0x5554ea51>
     d30:	0000b5b7          	lui	a1,0xb
     d34:	50558593          	addi	a1,a1,1285 # b505 <_end+0x4a01>
     d38:	02b54633          	div	a2,a0,a1
     d3c:	1cc0a223          	sw	a2,452(ra)

00000d40 <inst_147>:
     d40:	aaaab537          	lui	a0,0xaaaab
     d44:	aaa50513          	addi	a0,a0,-1366 # aaaaaaaa <_end+0xaaaa3fa6>
     d48:	00300593          	li	a1,3
     d4c:	02b54633          	div	a2,a0,a1
     d50:	1cc0a423          	sw	a2,456(ra)

00000d54 <inst_148>:
     d54:	aaaab537          	lui	a0,0xaaaab
     d58:	aaa50513          	addi	a0,a0,-1366 # aaaaaaaa <_end+0xaaaa3fa6>
     d5c:	555555b7          	lui	a1,0x55555
     d60:	55558593          	addi	a1,a1,1365 # 55555555 <_end+0x5554ea51>
     d64:	02b54633          	div	a2,a0,a1
     d68:	1cc0a623          	sw	a2,460(ra)

00000d6c <inst_149>:
     d6c:	aaaab537          	lui	a0,0xaaaab
     d70:	aaa50513          	addi	a0,a0,-1366 # aaaaaaaa <_end+0xaaaa3fa6>
     d74:	aaaab5b7          	lui	a1,0xaaaab
     d78:	aaa58593          	addi	a1,a1,-1366 # aaaaaaaa <_end+0xaaaa3fa6>
     d7c:	02b54633          	div	a2,a0,a1
     d80:	1cc0a823          	sw	a2,464(ra)

00000d84 <inst_150>:
     d84:	aaaab537          	lui	a0,0xaaaab
     d88:	aaa50513          	addi	a0,a0,-1366 # aaaaaaaa <_end+0xaaaa3fa6>
     d8c:	00500593          	li	a1,5
     d90:	02b54633          	div	a2,a0,a1
     d94:	1cc0aa23          	sw	a2,468(ra)

00000d98 <inst_151>:
     d98:	aaaab537          	lui	a0,0xaaaab
     d9c:	aaa50513          	addi	a0,a0,-1366 # aaaaaaaa <_end+0xaaaa3fa6>
     da0:	333335b7          	lui	a1,0x33333
     da4:	33358593          	addi	a1,a1,819 # 33333333 <_end+0x3332c82f>
     da8:	02b54633          	div	a2,a0,a1
     dac:	1cc0ac23          	sw	a2,472(ra)

00000db0 <inst_152>:
     db0:	aaaab537          	lui	a0,0xaaaab
     db4:	aaa50513          	addi	a0,a0,-1366 # aaaaaaaa <_end+0xaaaa3fa6>
     db8:	666665b7          	lui	a1,0x66666
     dbc:	66658593          	addi	a1,a1,1638 # 66666666 <_end+0x6665fb62>
     dc0:	02b54633          	div	a2,a0,a1
     dc4:	1cc0ae23          	sw	a2,476(ra)

00000dc8 <inst_153>:
     dc8:	aaaab537          	lui	a0,0xaaaab
     dcc:	aaa50513          	addi	a0,a0,-1366 # aaaaaaaa <_end+0xaaaa3fa6>
     dd0:	ffff55b7          	lui	a1,0xffff5
     dd4:	afc58593          	addi	a1,a1,-1284 # ffff4afc <_end+0xfffedff8>
     dd8:	02b54633          	div	a2,a0,a1
     ddc:	1ec0a023          	sw	a2,480(ra)

00000de0 <inst_154>:
     de0:	aaaab537          	lui	a0,0xaaaab
     de4:	aaa50513          	addi	a0,a0,-1366 # aaaaaaaa <_end+0xaaaa3fa6>
     de8:	0000b5b7          	lui	a1,0xb
     dec:	50458593          	addi	a1,a1,1284 # b504 <_end+0x4a00>
     df0:	02b54633          	div	a2,a0,a1
     df4:	1ec0a223          	sw	a2,484(ra)

00000df8 <inst_155>:
     df8:	aaaab537          	lui	a0,0xaaaab
     dfc:	aaa50513          	addi	a0,a0,-1366 # aaaaaaaa <_end+0xaaaa3fa6>
     e00:	00200593          	li	a1,2
     e04:	02b54633          	div	a2,a0,a1
     e08:	1ec0a423          	sw	a2,488(ra)

00000e0c <inst_156>:
     e0c:	aaaab537          	lui	a0,0xaaaab
     e10:	aaa50513          	addi	a0,a0,-1366 # aaaaaaaa <_end+0xaaaa3fa6>
     e14:	555555b7          	lui	a1,0x55555
     e18:	55458593          	addi	a1,a1,1364 # 55555554 <_end+0x5554ea50>
     e1c:	02b54633          	div	a2,a0,a1
     e20:	1ec0a623          	sw	a2,492(ra)

00000e24 <inst_157>:
     e24:	aaaab537          	lui	a0,0xaaaab
     e28:	aaa50513          	addi	a0,a0,-1366 # aaaaaaaa <_end+0xaaaa3fa6>
     e2c:	00000593          	li	a1,0
     e30:	02b54633          	div	a2,a0,a1
     e34:	1ec0a823          	sw	a2,496(ra)

00000e38 <inst_158>:
     e38:	aaaab537          	lui	a0,0xaaaab
     e3c:	aaa50513          	addi	a0,a0,-1366 # aaaaaaaa <_end+0xaaaa3fa6>
     e40:	00400593          	li	a1,4
     e44:	02b54633          	div	a2,a0,a1
     e48:	1ec0aa23          	sw	a2,500(ra)

00000e4c <inst_159>:
     e4c:	aaaab537          	lui	a0,0xaaaab
     e50:	aaa50513          	addi	a0,a0,-1366 # aaaaaaaa <_end+0xaaaa3fa6>
     e54:	333335b7          	lui	a1,0x33333
     e58:	33258593          	addi	a1,a1,818 # 33333332 <_end+0x3332c82e>
     e5c:	02b54633          	div	a2,a0,a1
     e60:	1ec0ac23          	sw	a2,504(ra)

00000e64 <inst_160>:
     e64:	aaaab537          	lui	a0,0xaaaab
     e68:	aaa50513          	addi	a0,a0,-1366 # aaaaaaaa <_end+0xaaaa3fa6>
     e6c:	666665b7          	lui	a1,0x66666
     e70:	66558593          	addi	a1,a1,1637 # 66666665 <_end+0x6665fb61>
     e74:	02b54633          	div	a2,a0,a1
     e78:	1ec0ae23          	sw	a2,508(ra)

00000e7c <inst_161>:
     e7c:	aaaab537          	lui	a0,0xaaaab
     e80:	aaa50513          	addi	a0,a0,-1366 # aaaaaaaa <_end+0xaaaa3fa6>
     e84:	0000b5b7          	lui	a1,0xb
     e88:	50358593          	addi	a1,a1,1283 # b503 <_end+0x49ff>
     e8c:	02b54633          	div	a2,a0,a1
     e90:	20c0a023          	sw	a2,512(ra)

00000e94 <inst_162>:
     e94:	aaaab537          	lui	a0,0xaaaab
     e98:	aaa50513          	addi	a0,a0,-1366 # aaaaaaaa <_end+0xaaaa3fa6>
     e9c:	555555b7          	lui	a1,0x55555
     ea0:	55658593          	addi	a1,a1,1366 # 55555556 <_end+0x5554ea52>
     ea4:	02b54633          	div	a2,a0,a1
     ea8:	20c0a223          	sw	a2,516(ra)

00000eac <inst_163>:
     eac:	aaaab537          	lui	a0,0xaaaab
     eb0:	aaa50513          	addi	a0,a0,-1366 # aaaaaaaa <_end+0xaaaa3fa6>
     eb4:	aaaab5b7          	lui	a1,0xaaaab
     eb8:	aab58593          	addi	a1,a1,-1365 # aaaaaaab <_end+0xaaaa3fa7>
     ebc:	02b54633          	div	a2,a0,a1
     ec0:	20c0a423          	sw	a2,520(ra)

00000ec4 <inst_164>:
     ec4:	aaaab537          	lui	a0,0xaaaab
     ec8:	aaa50513          	addi	a0,a0,-1366 # aaaaaaaa <_end+0xaaaa3fa6>
     ecc:	00600593          	li	a1,6
     ed0:	02b54633          	div	a2,a0,a1
     ed4:	20c0a623          	sw	a2,524(ra)

00000ed8 <inst_165>:
     ed8:	aaaab537          	lui	a0,0xaaaab
     edc:	aaa50513          	addi	a0,a0,-1366 # aaaaaaaa <_end+0xaaaa3fa6>
     ee0:	333335b7          	lui	a1,0x33333
     ee4:	33458593          	addi	a1,a1,820 # 33333334 <_end+0x3332c830>
     ee8:	02b54633          	div	a2,a0,a1
     eec:	20c0a823          	sw	a2,528(ra)

00000ef0 <inst_166>:
     ef0:	aaaab537          	lui	a0,0xaaaab
     ef4:	aaa50513          	addi	a0,a0,-1366 # aaaaaaaa <_end+0xaaaa3fa6>
     ef8:	666665b7          	lui	a1,0x66666
     efc:	66758593          	addi	a1,a1,1639 # 66666667 <_end+0x6665fb63>
     f00:	02b54633          	div	a2,a0,a1
     f04:	20c0aa23          	sw	a2,532(ra)

00000f08 <inst_167>:
     f08:	aaaab537          	lui	a0,0xaaaab
     f0c:	aaa50513          	addi	a0,a0,-1366 # aaaaaaaa <_end+0xaaaa3fa6>
     f10:	ffff55b7          	lui	a1,0xffff5
     f14:	afd58593          	addi	a1,a1,-1283 # ffff4afd <_end+0xfffedff9>
     f18:	02b54633          	div	a2,a0,a1
     f1c:	20c0ac23          	sw	a2,536(ra)

00000f20 <inst_168>:
     f20:	aaaab537          	lui	a0,0xaaaab
     f24:	aaa50513          	addi	a0,a0,-1366 # aaaaaaaa <_end+0xaaaa3fa6>
     f28:	0000b5b7          	lui	a1,0xb
     f2c:	50558593          	addi	a1,a1,1285 # b505 <_end+0x4a01>
     f30:	02b54633          	div	a2,a0,a1
     f34:	20c0ae23          	sw	a2,540(ra)

00000f38 <inst_169>:
     f38:	00500513          	li	a0,5
     f3c:	00300593          	li	a1,3
     f40:	02b54633          	div	a2,a0,a1
     f44:	22c0a023          	sw	a2,544(ra)

00000f48 <inst_170>:
     f48:	00500513          	li	a0,5
     f4c:	555555b7          	lui	a1,0x55555
     f50:	55558593          	addi	a1,a1,1365 # 55555555 <_end+0x5554ea51>
     f54:	02b54633          	div	a2,a0,a1
     f58:	22c0a223          	sw	a2,548(ra)

00000f5c <inst_171>:
     f5c:	00500513          	li	a0,5
     f60:	aaaab5b7          	lui	a1,0xaaaab
     f64:	aaa58593          	addi	a1,a1,-1366 # aaaaaaaa <_end+0xaaaa3fa6>
     f68:	02b54633          	div	a2,a0,a1
     f6c:	22c0a423          	sw	a2,552(ra)

00000f70 <inst_172>:
     f70:	00500513          	li	a0,5
     f74:	00500593          	li	a1,5
     f78:	02b54633          	div	a2,a0,a1
     f7c:	22c0a623          	sw	a2,556(ra)

00000f80 <inst_173>:
     f80:	00500513          	li	a0,5
     f84:	333335b7          	lui	a1,0x33333
     f88:	33358593          	addi	a1,a1,819 # 33333333 <_end+0x3332c82f>
     f8c:	02b54633          	div	a2,a0,a1
     f90:	22c0a823          	sw	a2,560(ra)

00000f94 <inst_174>:
     f94:	00500513          	li	a0,5
     f98:	666665b7          	lui	a1,0x66666
     f9c:	66658593          	addi	a1,a1,1638 # 66666666 <_end+0x6665fb62>
     fa0:	02b54633          	div	a2,a0,a1
     fa4:	22c0aa23          	sw	a2,564(ra)

00000fa8 <inst_175>:
     fa8:	00500513          	li	a0,5
     fac:	ffff55b7          	lui	a1,0xffff5
     fb0:	afc58593          	addi	a1,a1,-1284 # ffff4afc <_end+0xfffedff8>
     fb4:	02b54633          	div	a2,a0,a1
     fb8:	22c0ac23          	sw	a2,568(ra)

00000fbc <inst_176>:
     fbc:	00500513          	li	a0,5
     fc0:	0000b5b7          	lui	a1,0xb
     fc4:	50458593          	addi	a1,a1,1284 # b504 <_end+0x4a00>
     fc8:	02b54633          	div	a2,a0,a1
     fcc:	22c0ae23          	sw	a2,572(ra)

00000fd0 <inst_177>:
     fd0:	00500513          	li	a0,5
     fd4:	00200593          	li	a1,2
     fd8:	02b54633          	div	a2,a0,a1
     fdc:	24c0a023          	sw	a2,576(ra)

00000fe0 <inst_178>:
     fe0:	00500513          	li	a0,5
     fe4:	555555b7          	lui	a1,0x55555
     fe8:	55458593          	addi	a1,a1,1364 # 55555554 <_end+0x5554ea50>
     fec:	02b54633          	div	a2,a0,a1
     ff0:	24c0a223          	sw	a2,580(ra)

00000ff4 <inst_179>:
     ff4:	00500513          	li	a0,5
     ff8:	00000593          	li	a1,0
     ffc:	02b54633          	div	a2,a0,a1
    1000:	24c0a423          	sw	a2,584(ra)

00001004 <inst_180>:
    1004:	00500513          	li	a0,5
    1008:	00400593          	li	a1,4
    100c:	02b54633          	div	a2,a0,a1
    1010:	24c0a623          	sw	a2,588(ra)

00001014 <inst_181>:
    1014:	00500513          	li	a0,5
    1018:	333335b7          	lui	a1,0x33333
    101c:	33258593          	addi	a1,a1,818 # 33333332 <_end+0x3332c82e>
    1020:	02b54633          	div	a2,a0,a1
    1024:	24c0a823          	sw	a2,592(ra)

00001028 <inst_182>:
    1028:	00500513          	li	a0,5
    102c:	666665b7          	lui	a1,0x66666
    1030:	66558593          	addi	a1,a1,1637 # 66666665 <_end+0x6665fb61>
    1034:	02b54633          	div	a2,a0,a1
    1038:	24c0aa23          	sw	a2,596(ra)

0000103c <inst_183>:
    103c:	00500513          	li	a0,5
    1040:	0000b5b7          	lui	a1,0xb
    1044:	50358593          	addi	a1,a1,1283 # b503 <_end+0x49ff>
    1048:	02b54633          	div	a2,a0,a1
    104c:	24c0ac23          	sw	a2,600(ra)

00001050 <inst_184>:
    1050:	00500513          	li	a0,5
    1054:	555555b7          	lui	a1,0x55555
    1058:	55658593          	addi	a1,a1,1366 # 55555556 <_end+0x5554ea52>
    105c:	02b54633          	div	a2,a0,a1
    1060:	24c0ae23          	sw	a2,604(ra)

00001064 <inst_185>:
    1064:	00500513          	li	a0,5
    1068:	aaaab5b7          	lui	a1,0xaaaab
    106c:	aab58593          	addi	a1,a1,-1365 # aaaaaaab <_end+0xaaaa3fa7>
    1070:	02b54633          	div	a2,a0,a1
    1074:	26c0a023          	sw	a2,608(ra)

00001078 <inst_186>:
    1078:	00500513          	li	a0,5
    107c:	00600593          	li	a1,6
    1080:	02b54633          	div	a2,a0,a1
    1084:	26c0a223          	sw	a2,612(ra)

00001088 <inst_187>:
    1088:	00500513          	li	a0,5
    108c:	333335b7          	lui	a1,0x33333
    1090:	33458593          	addi	a1,a1,820 # 33333334 <_end+0x3332c830>
    1094:	02b54633          	div	a2,a0,a1
    1098:	26c0a423          	sw	a2,616(ra)

0000109c <inst_188>:
    109c:	00500513          	li	a0,5
    10a0:	666665b7          	lui	a1,0x66666
    10a4:	66758593          	addi	a1,a1,1639 # 66666667 <_end+0x6665fb63>
    10a8:	02b54633          	div	a2,a0,a1
    10ac:	26c0a623          	sw	a2,620(ra)

000010b0 <inst_189>:
    10b0:	00500513          	li	a0,5
    10b4:	ffff55b7          	lui	a1,0xffff5
    10b8:	afd58593          	addi	a1,a1,-1283 # ffff4afd <_end+0xfffedff9>
    10bc:	02b54633          	div	a2,a0,a1
    10c0:	26c0a823          	sw	a2,624(ra)

000010c4 <inst_190>:
    10c4:	00500513          	li	a0,5
    10c8:	0000b5b7          	lui	a1,0xb
    10cc:	50558593          	addi	a1,a1,1285 # b505 <_end+0x4a01>
    10d0:	02b54633          	div	a2,a0,a1
    10d4:	26c0aa23          	sw	a2,628(ra)

000010d8 <inst_191>:
    10d8:	33333537          	lui	a0,0x33333
    10dc:	33350513          	addi	a0,a0,819 # 33333333 <_end+0x3332c82f>
    10e0:	00300593          	li	a1,3
    10e4:	02b54633          	div	a2,a0,a1
    10e8:	26c0ac23          	sw	a2,632(ra)

000010ec <inst_192>:
    10ec:	33333537          	lui	a0,0x33333
    10f0:	33350513          	addi	a0,a0,819 # 33333333 <_end+0x3332c82f>
    10f4:	555555b7          	lui	a1,0x55555
    10f8:	55558593          	addi	a1,a1,1365 # 55555555 <_end+0x5554ea51>
    10fc:	02b54633          	div	a2,a0,a1
    1100:	26c0ae23          	sw	a2,636(ra)

00001104 <inst_193>:
    1104:	33333537          	lui	a0,0x33333
    1108:	33350513          	addi	a0,a0,819 # 33333333 <_end+0x3332c82f>
    110c:	aaaab5b7          	lui	a1,0xaaaab
    1110:	aaa58593          	addi	a1,a1,-1366 # aaaaaaaa <_end+0xaaaa3fa6>
    1114:	02b54633          	div	a2,a0,a1
    1118:	28c0a023          	sw	a2,640(ra)

0000111c <inst_194>:
    111c:	33333537          	lui	a0,0x33333
    1120:	33350513          	addi	a0,a0,819 # 33333333 <_end+0x3332c82f>
    1124:	00500593          	li	a1,5
    1128:	02b54633          	div	a2,a0,a1
    112c:	28c0a223          	sw	a2,644(ra)

00001130 <inst_195>:
    1130:	33333537          	lui	a0,0x33333
    1134:	33350513          	addi	a0,a0,819 # 33333333 <_end+0x3332c82f>
    1138:	333335b7          	lui	a1,0x33333
    113c:	33358593          	addi	a1,a1,819 # 33333333 <_end+0x3332c82f>
    1140:	02b54633          	div	a2,a0,a1
    1144:	28c0a423          	sw	a2,648(ra)

00001148 <inst_196>:
    1148:	33333537          	lui	a0,0x33333
    114c:	33350513          	addi	a0,a0,819 # 33333333 <_end+0x3332c82f>
    1150:	666665b7          	lui	a1,0x66666
    1154:	66658593          	addi	a1,a1,1638 # 66666666 <_end+0x6665fb62>
    1158:	02b54633          	div	a2,a0,a1
    115c:	28c0a623          	sw	a2,652(ra)

00001160 <inst_197>:
    1160:	33333537          	lui	a0,0x33333
    1164:	33350513          	addi	a0,a0,819 # 33333333 <_end+0x3332c82f>
    1168:	ffff55b7          	lui	a1,0xffff5
    116c:	afc58593          	addi	a1,a1,-1284 # ffff4afc <_end+0xfffedff8>
    1170:	02b54633          	div	a2,a0,a1
    1174:	28c0a823          	sw	a2,656(ra)

00001178 <inst_198>:
    1178:	33333537          	lui	a0,0x33333
    117c:	33350513          	addi	a0,a0,819 # 33333333 <_end+0x3332c82f>
    1180:	0000b5b7          	lui	a1,0xb
    1184:	50458593          	addi	a1,a1,1284 # b504 <_end+0x4a00>
    1188:	02b54633          	div	a2,a0,a1
    118c:	28c0aa23          	sw	a2,660(ra)

00001190 <inst_199>:
    1190:	33333537          	lui	a0,0x33333
    1194:	33350513          	addi	a0,a0,819 # 33333333 <_end+0x3332c82f>
    1198:	00200593          	li	a1,2
    119c:	02b54633          	div	a2,a0,a1
    11a0:	28c0ac23          	sw	a2,664(ra)

000011a4 <inst_200>:
    11a4:	33333537          	lui	a0,0x33333
    11a8:	33350513          	addi	a0,a0,819 # 33333333 <_end+0x3332c82f>
    11ac:	555555b7          	lui	a1,0x55555
    11b0:	55458593          	addi	a1,a1,1364 # 55555554 <_end+0x5554ea50>
    11b4:	02b54633          	div	a2,a0,a1
    11b8:	28c0ae23          	sw	a2,668(ra)

000011bc <inst_201>:
    11bc:	33333537          	lui	a0,0x33333
    11c0:	33350513          	addi	a0,a0,819 # 33333333 <_end+0x3332c82f>
    11c4:	00000593          	li	a1,0
    11c8:	02b54633          	div	a2,a0,a1
    11cc:	2ac0a023          	sw	a2,672(ra)

000011d0 <inst_202>:
    11d0:	33333537          	lui	a0,0x33333
    11d4:	33350513          	addi	a0,a0,819 # 33333333 <_end+0x3332c82f>
    11d8:	00400593          	li	a1,4
    11dc:	02b54633          	div	a2,a0,a1
    11e0:	2ac0a223          	sw	a2,676(ra)

000011e4 <inst_203>:
    11e4:	33333537          	lui	a0,0x33333
    11e8:	33350513          	addi	a0,a0,819 # 33333333 <_end+0x3332c82f>
    11ec:	333335b7          	lui	a1,0x33333
    11f0:	33258593          	addi	a1,a1,818 # 33333332 <_end+0x3332c82e>
    11f4:	02b54633          	div	a2,a0,a1
    11f8:	2ac0a423          	sw	a2,680(ra)

000011fc <inst_204>:
    11fc:	33333537          	lui	a0,0x33333
    1200:	33350513          	addi	a0,a0,819 # 33333333 <_end+0x3332c82f>
    1204:	666665b7          	lui	a1,0x66666
    1208:	66558593          	addi	a1,a1,1637 # 66666665 <_end+0x6665fb61>
    120c:	02b54633          	div	a2,a0,a1
    1210:	2ac0a623          	sw	a2,684(ra)

00001214 <inst_205>:
    1214:	33333537          	lui	a0,0x33333
    1218:	33350513          	addi	a0,a0,819 # 33333333 <_end+0x3332c82f>
    121c:	0000b5b7          	lui	a1,0xb
    1220:	50358593          	addi	a1,a1,1283 # b503 <_end+0x49ff>
    1224:	02b54633          	div	a2,a0,a1
    1228:	2ac0a823          	sw	a2,688(ra)

0000122c <inst_206>:
    122c:	33333537          	lui	a0,0x33333
    1230:	33350513          	addi	a0,a0,819 # 33333333 <_end+0x3332c82f>
    1234:	555555b7          	lui	a1,0x55555
    1238:	55658593          	addi	a1,a1,1366 # 55555556 <_end+0x5554ea52>
    123c:	02b54633          	div	a2,a0,a1
    1240:	2ac0aa23          	sw	a2,692(ra)

00001244 <inst_207>:
    1244:	33333537          	lui	a0,0x33333
    1248:	33350513          	addi	a0,a0,819 # 33333333 <_end+0x3332c82f>
    124c:	aaaab5b7          	lui	a1,0xaaaab
    1250:	aab58593          	addi	a1,a1,-1365 # aaaaaaab <_end+0xaaaa3fa7>
    1254:	02b54633          	div	a2,a0,a1
    1258:	2ac0ac23          	sw	a2,696(ra)

0000125c <inst_208>:
    125c:	33333537          	lui	a0,0x33333
    1260:	33350513          	addi	a0,a0,819 # 33333333 <_end+0x3332c82f>
    1264:	00600593          	li	a1,6
    1268:	02b54633          	div	a2,a0,a1
    126c:	2ac0ae23          	sw	a2,700(ra)

00001270 <inst_209>:
    1270:	33333537          	lui	a0,0x33333
    1274:	33350513          	addi	a0,a0,819 # 33333333 <_end+0x3332c82f>
    1278:	333335b7          	lui	a1,0x33333
    127c:	33458593          	addi	a1,a1,820 # 33333334 <_end+0x3332c830>
    1280:	02b54633          	div	a2,a0,a1
    1284:	2cc0a023          	sw	a2,704(ra)

00001288 <inst_210>:
    1288:	33333537          	lui	a0,0x33333
    128c:	33350513          	addi	a0,a0,819 # 33333333 <_end+0x3332c82f>
    1290:	666665b7          	lui	a1,0x66666
    1294:	66758593          	addi	a1,a1,1639 # 66666667 <_end+0x6665fb63>
    1298:	02b54633          	div	a2,a0,a1
    129c:	2cc0a223          	sw	a2,708(ra)

000012a0 <inst_211>:
    12a0:	33333537          	lui	a0,0x33333
    12a4:	33350513          	addi	a0,a0,819 # 33333333 <_end+0x3332c82f>
    12a8:	ffff55b7          	lui	a1,0xffff5
    12ac:	afd58593          	addi	a1,a1,-1283 # ffff4afd <_end+0xfffedff9>
    12b0:	02b54633          	div	a2,a0,a1
    12b4:	2cc0a423          	sw	a2,712(ra)

000012b8 <inst_212>:
    12b8:	33333537          	lui	a0,0x33333
    12bc:	33350513          	addi	a0,a0,819 # 33333333 <_end+0x3332c82f>
    12c0:	0000b5b7          	lui	a1,0xb
    12c4:	50558593          	addi	a1,a1,1285 # b505 <_end+0x4a01>
    12c8:	02b54633          	div	a2,a0,a1
    12cc:	2cc0a623          	sw	a2,716(ra)

000012d0 <inst_213>:
    12d0:	66666537          	lui	a0,0x66666
    12d4:	66650513          	addi	a0,a0,1638 # 66666666 <_end+0x6665fb62>
    12d8:	00300593          	li	a1,3
    12dc:	02b54633          	div	a2,a0,a1
    12e0:	2cc0a823          	sw	a2,720(ra)

000012e4 <inst_214>:
    12e4:	66666537          	lui	a0,0x66666
    12e8:	66650513          	addi	a0,a0,1638 # 66666666 <_end+0x6665fb62>
    12ec:	555555b7          	lui	a1,0x55555
    12f0:	55558593          	addi	a1,a1,1365 # 55555555 <_end+0x5554ea51>
    12f4:	02b54633          	div	a2,a0,a1
    12f8:	2cc0aa23          	sw	a2,724(ra)

000012fc <inst_215>:
    12fc:	66666537          	lui	a0,0x66666
    1300:	66650513          	addi	a0,a0,1638 # 66666666 <_end+0x6665fb62>
    1304:	aaaab5b7          	lui	a1,0xaaaab
    1308:	aaa58593          	addi	a1,a1,-1366 # aaaaaaaa <_end+0xaaaa3fa6>
    130c:	02b54633          	div	a2,a0,a1
    1310:	2cc0ac23          	sw	a2,728(ra)

00001314 <inst_216>:
    1314:	66666537          	lui	a0,0x66666
    1318:	66650513          	addi	a0,a0,1638 # 66666666 <_end+0x6665fb62>
    131c:	00500593          	li	a1,5
    1320:	02b54633          	div	a2,a0,a1
    1324:	2cc0ae23          	sw	a2,732(ra)

00001328 <inst_217>:
    1328:	66666537          	lui	a0,0x66666
    132c:	66650513          	addi	a0,a0,1638 # 66666666 <_end+0x6665fb62>
    1330:	333335b7          	lui	a1,0x33333
    1334:	33358593          	addi	a1,a1,819 # 33333333 <_end+0x3332c82f>
    1338:	02b54633          	div	a2,a0,a1
    133c:	2ec0a023          	sw	a2,736(ra)

00001340 <inst_218>:
    1340:	66666537          	lui	a0,0x66666
    1344:	66650513          	addi	a0,a0,1638 # 66666666 <_end+0x6665fb62>
    1348:	666665b7          	lui	a1,0x66666
    134c:	66658593          	addi	a1,a1,1638 # 66666666 <_end+0x6665fb62>
    1350:	02b54633          	div	a2,a0,a1
    1354:	2ec0a223          	sw	a2,740(ra)

00001358 <inst_219>:
    1358:	66666537          	lui	a0,0x66666
    135c:	66650513          	addi	a0,a0,1638 # 66666666 <_end+0x6665fb62>
    1360:	ffff55b7          	lui	a1,0xffff5
    1364:	afc58593          	addi	a1,a1,-1284 # ffff4afc <_end+0xfffedff8>
    1368:	02b54633          	div	a2,a0,a1
    136c:	2ec0a423          	sw	a2,744(ra)

00001370 <inst_220>:
    1370:	66666537          	lui	a0,0x66666
    1374:	66650513          	addi	a0,a0,1638 # 66666666 <_end+0x6665fb62>
    1378:	0000b5b7          	lui	a1,0xb
    137c:	50458593          	addi	a1,a1,1284 # b504 <_end+0x4a00>
    1380:	02b54633          	div	a2,a0,a1
    1384:	2ec0a623          	sw	a2,748(ra)

00001388 <inst_221>:
    1388:	66666537          	lui	a0,0x66666
    138c:	66650513          	addi	a0,a0,1638 # 66666666 <_end+0x6665fb62>
    1390:	00200593          	li	a1,2
    1394:	02b54633          	div	a2,a0,a1
    1398:	2ec0a823          	sw	a2,752(ra)

0000139c <inst_222>:
    139c:	66666537          	lui	a0,0x66666
    13a0:	66650513          	addi	a0,a0,1638 # 66666666 <_end+0x6665fb62>
    13a4:	555555b7          	lui	a1,0x55555
    13a8:	55458593          	addi	a1,a1,1364 # 55555554 <_end+0x5554ea50>
    13ac:	02b54633          	div	a2,a0,a1
    13b0:	2ec0aa23          	sw	a2,756(ra)

000013b4 <inst_223>:
    13b4:	66666537          	lui	a0,0x66666
    13b8:	66650513          	addi	a0,a0,1638 # 66666666 <_end+0x6665fb62>
    13bc:	00000593          	li	a1,0
    13c0:	02b54633          	div	a2,a0,a1
    13c4:	2ec0ac23          	sw	a2,760(ra)

000013c8 <inst_224>:
    13c8:	66666537          	lui	a0,0x66666
    13cc:	66650513          	addi	a0,a0,1638 # 66666666 <_end+0x6665fb62>
    13d0:	00400593          	li	a1,4
    13d4:	02b54633          	div	a2,a0,a1
    13d8:	2ec0ae23          	sw	a2,764(ra)

000013dc <inst_225>:
    13dc:	66666537          	lui	a0,0x66666
    13e0:	66650513          	addi	a0,a0,1638 # 66666666 <_end+0x6665fb62>
    13e4:	333335b7          	lui	a1,0x33333
    13e8:	33258593          	addi	a1,a1,818 # 33333332 <_end+0x3332c82e>
    13ec:	02b54633          	div	a2,a0,a1
    13f0:	30c0a023          	sw	a2,768(ra)

000013f4 <inst_226>:
    13f4:	66666537          	lui	a0,0x66666
    13f8:	66650513          	addi	a0,a0,1638 # 66666666 <_end+0x6665fb62>
    13fc:	666665b7          	lui	a1,0x66666
    1400:	66558593          	addi	a1,a1,1637 # 66666665 <_end+0x6665fb61>
    1404:	02b54633          	div	a2,a0,a1
    1408:	30c0a223          	sw	a2,772(ra)

0000140c <inst_227>:
    140c:	66666537          	lui	a0,0x66666
    1410:	66650513          	addi	a0,a0,1638 # 66666666 <_end+0x6665fb62>
    1414:	0000b5b7          	lui	a1,0xb
    1418:	50358593          	addi	a1,a1,1283 # b503 <_end+0x49ff>
    141c:	02b54633          	div	a2,a0,a1
    1420:	30c0a423          	sw	a2,776(ra)

00001424 <inst_228>:
    1424:	66666537          	lui	a0,0x66666
    1428:	66650513          	addi	a0,a0,1638 # 66666666 <_end+0x6665fb62>
    142c:	555555b7          	lui	a1,0x55555
    1430:	55658593          	addi	a1,a1,1366 # 55555556 <_end+0x5554ea52>
    1434:	02b54633          	div	a2,a0,a1
    1438:	30c0a623          	sw	a2,780(ra)

0000143c <inst_229>:
    143c:	66666537          	lui	a0,0x66666
    1440:	66650513          	addi	a0,a0,1638 # 66666666 <_end+0x6665fb62>
    1444:	aaaab5b7          	lui	a1,0xaaaab
    1448:	aab58593          	addi	a1,a1,-1365 # aaaaaaab <_end+0xaaaa3fa7>
    144c:	02b54633          	div	a2,a0,a1
    1450:	30c0a823          	sw	a2,784(ra)

00001454 <inst_230>:
    1454:	66666537          	lui	a0,0x66666
    1458:	66650513          	addi	a0,a0,1638 # 66666666 <_end+0x6665fb62>
    145c:	00600593          	li	a1,6
    1460:	02b54633          	div	a2,a0,a1
    1464:	30c0aa23          	sw	a2,788(ra)

00001468 <inst_231>:
    1468:	66666537          	lui	a0,0x66666
    146c:	66650513          	addi	a0,a0,1638 # 66666666 <_end+0x6665fb62>
    1470:	333335b7          	lui	a1,0x33333
    1474:	33458593          	addi	a1,a1,820 # 33333334 <_end+0x3332c830>
    1478:	02b54633          	div	a2,a0,a1
    147c:	30c0ac23          	sw	a2,792(ra)

00001480 <inst_232>:
    1480:	66666537          	lui	a0,0x66666
    1484:	66650513          	addi	a0,a0,1638 # 66666666 <_end+0x6665fb62>
    1488:	666665b7          	lui	a1,0x66666
    148c:	66758593          	addi	a1,a1,1639 # 66666667 <_end+0x6665fb63>
    1490:	02b54633          	div	a2,a0,a1
    1494:	30c0ae23          	sw	a2,796(ra)

00001498 <inst_233>:
    1498:	66666537          	lui	a0,0x66666
    149c:	66650513          	addi	a0,a0,1638 # 66666666 <_end+0x6665fb62>
    14a0:	ffff55b7          	lui	a1,0xffff5
    14a4:	afd58593          	addi	a1,a1,-1283 # ffff4afd <_end+0xfffedff9>
    14a8:	02b54633          	div	a2,a0,a1
    14ac:	32c0a023          	sw	a2,800(ra)

000014b0 <inst_234>:
    14b0:	66666537          	lui	a0,0x66666
    14b4:	66650513          	addi	a0,a0,1638 # 66666666 <_end+0x6665fb62>
    14b8:	0000b5b7          	lui	a1,0xb
    14bc:	50558593          	addi	a1,a1,1285 # b505 <_end+0x4a01>
    14c0:	02b54633          	div	a2,a0,a1
    14c4:	32c0a223          	sw	a2,804(ra)

000014c8 <inst_235>:
    14c8:	ffff5537          	lui	a0,0xffff5
    14cc:	afc50513          	addi	a0,a0,-1284 # ffff4afc <_end+0xfffedff8>
    14d0:	00300593          	li	a1,3
    14d4:	02b54633          	div	a2,a0,a1
    14d8:	32c0a423          	sw	a2,808(ra)

000014dc <inst_236>:
    14dc:	ffff5537          	lui	a0,0xffff5
    14e0:	afc50513          	addi	a0,a0,-1284 # ffff4afc <_end+0xfffedff8>
    14e4:	555555b7          	lui	a1,0x55555
    14e8:	55558593          	addi	a1,a1,1365 # 55555555 <_end+0x5554ea51>
    14ec:	02b54633          	div	a2,a0,a1
    14f0:	32c0a623          	sw	a2,812(ra)

000014f4 <inst_237>:
    14f4:	ffff5537          	lui	a0,0xffff5
    14f8:	afc50513          	addi	a0,a0,-1284 # ffff4afc <_end+0xfffedff8>
    14fc:	aaaab5b7          	lui	a1,0xaaaab
    1500:	aaa58593          	addi	a1,a1,-1366 # aaaaaaaa <_end+0xaaaa3fa6>
    1504:	02b54633          	div	a2,a0,a1
    1508:	32c0a823          	sw	a2,816(ra)

0000150c <inst_238>:
    150c:	ffff5537          	lui	a0,0xffff5
    1510:	afc50513          	addi	a0,a0,-1284 # ffff4afc <_end+0xfffedff8>
    1514:	00500593          	li	a1,5
    1518:	02b54633          	div	a2,a0,a1
    151c:	32c0aa23          	sw	a2,820(ra)

00001520 <inst_239>:
    1520:	ffff5537          	lui	a0,0xffff5
    1524:	afc50513          	addi	a0,a0,-1284 # ffff4afc <_end+0xfffedff8>
    1528:	333335b7          	lui	a1,0x33333
    152c:	33358593          	addi	a1,a1,819 # 33333333 <_end+0x3332c82f>
    1530:	02b54633          	div	a2,a0,a1
    1534:	32c0ac23          	sw	a2,824(ra)

00001538 <inst_240>:
    1538:	ffff5537          	lui	a0,0xffff5
    153c:	afc50513          	addi	a0,a0,-1284 # ffff4afc <_end+0xfffedff8>
    1540:	666665b7          	lui	a1,0x66666
    1544:	66658593          	addi	a1,a1,1638 # 66666666 <_end+0x6665fb62>
    1548:	02b54633          	div	a2,a0,a1
    154c:	32c0ae23          	sw	a2,828(ra)

00001550 <inst_241>:
    1550:	ffff5537          	lui	a0,0xffff5
    1554:	afc50513          	addi	a0,a0,-1284 # ffff4afc <_end+0xfffedff8>
    1558:	ffff55b7          	lui	a1,0xffff5
    155c:	afc58593          	addi	a1,a1,-1284 # ffff4afc <_end+0xfffedff8>
    1560:	02b54633          	div	a2,a0,a1
    1564:	34c0a023          	sw	a2,832(ra)

00001568 <inst_242>:
    1568:	ffff5537          	lui	a0,0xffff5
    156c:	afc50513          	addi	a0,a0,-1284 # ffff4afc <_end+0xfffedff8>
    1570:	0000b5b7          	lui	a1,0xb
    1574:	50458593          	addi	a1,a1,1284 # b504 <_end+0x4a00>
    1578:	02b54633          	div	a2,a0,a1
    157c:	34c0a223          	sw	a2,836(ra)

00001580 <inst_243>:
    1580:	ffff5537          	lui	a0,0xffff5
    1584:	afc50513          	addi	a0,a0,-1284 # ffff4afc <_end+0xfffedff8>
    1588:	00200593          	li	a1,2
    158c:	02b54633          	div	a2,a0,a1
    1590:	34c0a423          	sw	a2,840(ra)

00001594 <inst_244>:
    1594:	ffff5537          	lui	a0,0xffff5
    1598:	afc50513          	addi	a0,a0,-1284 # ffff4afc <_end+0xfffedff8>
    159c:	555555b7          	lui	a1,0x55555
    15a0:	55458593          	addi	a1,a1,1364 # 55555554 <_end+0x5554ea50>
    15a4:	02b54633          	div	a2,a0,a1
    15a8:	34c0a623          	sw	a2,844(ra)

000015ac <inst_245>:
    15ac:	ffff5537          	lui	a0,0xffff5
    15b0:	afc50513          	addi	a0,a0,-1284 # ffff4afc <_end+0xfffedff8>
    15b4:	00000593          	li	a1,0
    15b8:	02b54633          	div	a2,a0,a1
    15bc:	34c0a823          	sw	a2,848(ra)

000015c0 <inst_246>:
    15c0:	ffff5537          	lui	a0,0xffff5
    15c4:	afc50513          	addi	a0,a0,-1284 # ffff4afc <_end+0xfffedff8>
    15c8:	00400593          	li	a1,4
    15cc:	02b54633          	div	a2,a0,a1
    15d0:	34c0aa23          	sw	a2,852(ra)

000015d4 <inst_247>:
    15d4:	ffff5537          	lui	a0,0xffff5
    15d8:	afc50513          	addi	a0,a0,-1284 # ffff4afc <_end+0xfffedff8>
    15dc:	333335b7          	lui	a1,0x33333
    15e0:	33258593          	addi	a1,a1,818 # 33333332 <_end+0x3332c82e>
    15e4:	02b54633          	div	a2,a0,a1
    15e8:	34c0ac23          	sw	a2,856(ra)

000015ec <inst_248>:
    15ec:	ffff5537          	lui	a0,0xffff5
    15f0:	afc50513          	addi	a0,a0,-1284 # ffff4afc <_end+0xfffedff8>
    15f4:	666665b7          	lui	a1,0x66666
    15f8:	66558593          	addi	a1,a1,1637 # 66666665 <_end+0x6665fb61>
    15fc:	02b54633          	div	a2,a0,a1
    1600:	34c0ae23          	sw	a2,860(ra)

00001604 <inst_249>:
    1604:	ffff5537          	lui	a0,0xffff5
    1608:	afc50513          	addi	a0,a0,-1284 # ffff4afc <_end+0xfffedff8>
    160c:	0000b5b7          	lui	a1,0xb
    1610:	50358593          	addi	a1,a1,1283 # b503 <_end+0x49ff>
    1614:	02b54633          	div	a2,a0,a1
    1618:	36c0a023          	sw	a2,864(ra)

0000161c <inst_250>:
    161c:	ffff5537          	lui	a0,0xffff5
    1620:	afc50513          	addi	a0,a0,-1284 # ffff4afc <_end+0xfffedff8>
    1624:	555555b7          	lui	a1,0x55555
    1628:	55658593          	addi	a1,a1,1366 # 55555556 <_end+0x5554ea52>
    162c:	02b54633          	div	a2,a0,a1
    1630:	36c0a223          	sw	a2,868(ra)

00001634 <inst_251>:
    1634:	ffff5537          	lui	a0,0xffff5
    1638:	afc50513          	addi	a0,a0,-1284 # ffff4afc <_end+0xfffedff8>
    163c:	aaaab5b7          	lui	a1,0xaaaab
    1640:	aab58593          	addi	a1,a1,-1365 # aaaaaaab <_end+0xaaaa3fa7>
    1644:	02b54633          	div	a2,a0,a1
    1648:	36c0a423          	sw	a2,872(ra)

0000164c <inst_252>:
    164c:	ffff5537          	lui	a0,0xffff5
    1650:	afc50513          	addi	a0,a0,-1284 # ffff4afc <_end+0xfffedff8>
    1654:	00600593          	li	a1,6
    1658:	02b54633          	div	a2,a0,a1
    165c:	36c0a623          	sw	a2,876(ra)

00001660 <inst_253>:
    1660:	ffff5537          	lui	a0,0xffff5
    1664:	afc50513          	addi	a0,a0,-1284 # ffff4afc <_end+0xfffedff8>
    1668:	333335b7          	lui	a1,0x33333
    166c:	33458593          	addi	a1,a1,820 # 33333334 <_end+0x3332c830>
    1670:	02b54633          	div	a2,a0,a1
    1674:	36c0a823          	sw	a2,880(ra)

00001678 <inst_254>:
    1678:	ffff5537          	lui	a0,0xffff5
    167c:	afc50513          	addi	a0,a0,-1284 # ffff4afc <_end+0xfffedff8>
    1680:	666665b7          	lui	a1,0x66666
    1684:	66758593          	addi	a1,a1,1639 # 66666667 <_end+0x6665fb63>
    1688:	02b54633          	div	a2,a0,a1
    168c:	36c0aa23          	sw	a2,884(ra)

00001690 <inst_255>:
    1690:	ffff5537          	lui	a0,0xffff5
    1694:	afc50513          	addi	a0,a0,-1284 # ffff4afc <_end+0xfffedff8>
    1698:	ffff55b7          	lui	a1,0xffff5
    169c:	afd58593          	addi	a1,a1,-1283 # ffff4afd <_end+0xfffedff9>
    16a0:	02b54633          	div	a2,a0,a1
    16a4:	36c0ac23          	sw	a2,888(ra)

000016a8 <inst_256>:
    16a8:	ffff5537          	lui	a0,0xffff5
    16ac:	afc50513          	addi	a0,a0,-1284 # ffff4afc <_end+0xfffedff8>
    16b0:	0000b5b7          	lui	a1,0xb
    16b4:	50558593          	addi	a1,a1,1285 # b505 <_end+0x4a01>
    16b8:	02b54633          	div	a2,a0,a1
    16bc:	36c0ae23          	sw	a2,892(ra)

000016c0 <inst_257>:
    16c0:	0000b537          	lui	a0,0xb
    16c4:	50450513          	addi	a0,a0,1284 # b504 <_end+0x4a00>
    16c8:	00300593          	li	a1,3
    16cc:	02b54633          	div	a2,a0,a1
    16d0:	38c0a023          	sw	a2,896(ra)

000016d4 <inst_258>:
    16d4:	0000b537          	lui	a0,0xb
    16d8:	50450513          	addi	a0,a0,1284 # b504 <_end+0x4a00>
    16dc:	555555b7          	lui	a1,0x55555
    16e0:	55558593          	addi	a1,a1,1365 # 55555555 <_end+0x5554ea51>
    16e4:	02b54633          	div	a2,a0,a1
    16e8:	38c0a223          	sw	a2,900(ra)

000016ec <inst_259>:
    16ec:	0000b537          	lui	a0,0xb
    16f0:	50450513          	addi	a0,a0,1284 # b504 <_end+0x4a00>
    16f4:	aaaab5b7          	lui	a1,0xaaaab
    16f8:	aaa58593          	addi	a1,a1,-1366 # aaaaaaaa <_end+0xaaaa3fa6>
    16fc:	02b54633          	div	a2,a0,a1
    1700:	38c0a423          	sw	a2,904(ra)

00001704 <inst_260>:
    1704:	0000b537          	lui	a0,0xb
    1708:	50450513          	addi	a0,a0,1284 # b504 <_end+0x4a00>
    170c:	00500593          	li	a1,5
    1710:	02b54633          	div	a2,a0,a1
    1714:	38c0a623          	sw	a2,908(ra)

00001718 <inst_261>:
    1718:	0000b537          	lui	a0,0xb
    171c:	50450513          	addi	a0,a0,1284 # b504 <_end+0x4a00>
    1720:	333335b7          	lui	a1,0x33333
    1724:	33358593          	addi	a1,a1,819 # 33333333 <_end+0x3332c82f>
    1728:	02b54633          	div	a2,a0,a1
    172c:	38c0a823          	sw	a2,912(ra)

00001730 <inst_262>:
    1730:	0000b537          	lui	a0,0xb
    1734:	50450513          	addi	a0,a0,1284 # b504 <_end+0x4a00>
    1738:	666665b7          	lui	a1,0x66666
    173c:	66658593          	addi	a1,a1,1638 # 66666666 <_end+0x6665fb62>
    1740:	02b54633          	div	a2,a0,a1
    1744:	38c0aa23          	sw	a2,916(ra)

00001748 <inst_263>:
    1748:	0000b537          	lui	a0,0xb
    174c:	50450513          	addi	a0,a0,1284 # b504 <_end+0x4a00>
    1750:	ffff55b7          	lui	a1,0xffff5
    1754:	afc58593          	addi	a1,a1,-1284 # ffff4afc <_end+0xfffedff8>
    1758:	02b54633          	div	a2,a0,a1
    175c:	38c0ac23          	sw	a2,920(ra)

00001760 <inst_264>:
    1760:	0000b537          	lui	a0,0xb
    1764:	50450513          	addi	a0,a0,1284 # b504 <_end+0x4a00>
    1768:	0000b5b7          	lui	a1,0xb
    176c:	50458593          	addi	a1,a1,1284 # b504 <_end+0x4a00>
    1770:	02b54633          	div	a2,a0,a1
    1774:	38c0ae23          	sw	a2,924(ra)

00001778 <inst_265>:
    1778:	0000b537          	lui	a0,0xb
    177c:	50450513          	addi	a0,a0,1284 # b504 <_end+0x4a00>
    1780:	00200593          	li	a1,2
    1784:	02b54633          	div	a2,a0,a1
    1788:	3ac0a023          	sw	a2,928(ra)

0000178c <inst_266>:
    178c:	0000b537          	lui	a0,0xb
    1790:	50450513          	addi	a0,a0,1284 # b504 <_end+0x4a00>
    1794:	555555b7          	lui	a1,0x55555
    1798:	55458593          	addi	a1,a1,1364 # 55555554 <_end+0x5554ea50>
    179c:	02b54633          	div	a2,a0,a1
    17a0:	3ac0a223          	sw	a2,932(ra)

000017a4 <inst_267>:
    17a4:	0000b537          	lui	a0,0xb
    17a8:	50450513          	addi	a0,a0,1284 # b504 <_end+0x4a00>
    17ac:	00000593          	li	a1,0
    17b0:	02b54633          	div	a2,a0,a1
    17b4:	3ac0a423          	sw	a2,936(ra)

000017b8 <inst_268>:
    17b8:	0000b537          	lui	a0,0xb
    17bc:	50450513          	addi	a0,a0,1284 # b504 <_end+0x4a00>
    17c0:	00400593          	li	a1,4
    17c4:	02b54633          	div	a2,a0,a1
    17c8:	3ac0a623          	sw	a2,940(ra)

000017cc <inst_269>:
    17cc:	0000b537          	lui	a0,0xb
    17d0:	50450513          	addi	a0,a0,1284 # b504 <_end+0x4a00>
    17d4:	333335b7          	lui	a1,0x33333
    17d8:	33258593          	addi	a1,a1,818 # 33333332 <_end+0x3332c82e>
    17dc:	02b54633          	div	a2,a0,a1
    17e0:	3ac0a823          	sw	a2,944(ra)

000017e4 <inst_270>:
    17e4:	0000b537          	lui	a0,0xb
    17e8:	50450513          	addi	a0,a0,1284 # b504 <_end+0x4a00>
    17ec:	666665b7          	lui	a1,0x66666
    17f0:	66558593          	addi	a1,a1,1637 # 66666665 <_end+0x6665fb61>
    17f4:	02b54633          	div	a2,a0,a1
    17f8:	3ac0aa23          	sw	a2,948(ra)

000017fc <inst_271>:
    17fc:	0000b537          	lui	a0,0xb
    1800:	50450513          	addi	a0,a0,1284 # b504 <_end+0x4a00>
    1804:	0000b5b7          	lui	a1,0xb
    1808:	50358593          	addi	a1,a1,1283 # b503 <_end+0x49ff>
    180c:	02b54633          	div	a2,a0,a1
    1810:	3ac0ac23          	sw	a2,952(ra)

00001814 <inst_272>:
    1814:	0000b537          	lui	a0,0xb
    1818:	50450513          	addi	a0,a0,1284 # b504 <_end+0x4a00>
    181c:	555555b7          	lui	a1,0x55555
    1820:	55658593          	addi	a1,a1,1366 # 55555556 <_end+0x5554ea52>
    1824:	02b54633          	div	a2,a0,a1
    1828:	3ac0ae23          	sw	a2,956(ra)

0000182c <inst_273>:
    182c:	0000b537          	lui	a0,0xb
    1830:	50450513          	addi	a0,a0,1284 # b504 <_end+0x4a00>
    1834:	aaaab5b7          	lui	a1,0xaaaab
    1838:	aab58593          	addi	a1,a1,-1365 # aaaaaaab <_end+0xaaaa3fa7>
    183c:	02b54633          	div	a2,a0,a1
    1840:	3cc0a023          	sw	a2,960(ra)

00001844 <inst_274>:
    1844:	0000b537          	lui	a0,0xb
    1848:	50450513          	addi	a0,a0,1284 # b504 <_end+0x4a00>
    184c:	00600593          	li	a1,6
    1850:	02b54633          	div	a2,a0,a1
    1854:	3cc0a223          	sw	a2,964(ra)

00001858 <inst_275>:
    1858:	0000b537          	lui	a0,0xb
    185c:	50450513          	addi	a0,a0,1284 # b504 <_end+0x4a00>
    1860:	333335b7          	lui	a1,0x33333
    1864:	33458593          	addi	a1,a1,820 # 33333334 <_end+0x3332c830>
    1868:	02b54633          	div	a2,a0,a1
    186c:	3cc0a423          	sw	a2,968(ra)

00001870 <inst_276>:
    1870:	0000b537          	lui	a0,0xb
    1874:	50450513          	addi	a0,a0,1284 # b504 <_end+0x4a00>
    1878:	666665b7          	lui	a1,0x66666
    187c:	66758593          	addi	a1,a1,1639 # 66666667 <_end+0x6665fb63>
    1880:	02b54633          	div	a2,a0,a1
    1884:	3cc0a623          	sw	a2,972(ra)

00001888 <inst_277>:
    1888:	0000b537          	lui	a0,0xb
    188c:	50450513          	addi	a0,a0,1284 # b504 <_end+0x4a00>
    1890:	ffff55b7          	lui	a1,0xffff5
    1894:	afd58593          	addi	a1,a1,-1283 # ffff4afd <_end+0xfffedff9>
    1898:	02b54633          	div	a2,a0,a1
    189c:	3cc0a823          	sw	a2,976(ra)

000018a0 <inst_278>:
    18a0:	0000b537          	lui	a0,0xb
    18a4:	50450513          	addi	a0,a0,1284 # b504 <_end+0x4a00>
    18a8:	0000b5b7          	lui	a1,0xb
    18ac:	50558593          	addi	a1,a1,1285 # b505 <_end+0x4a01>
    18b0:	02b54633          	div	a2,a0,a1
    18b4:	3cc0aa23          	sw	a2,980(ra)

000018b8 <inst_279>:
    18b8:	00200513          	li	a0,2
    18bc:	00300593          	li	a1,3
    18c0:	02b54633          	div	a2,a0,a1
    18c4:	3cc0ac23          	sw	a2,984(ra)

000018c8 <inst_280>:
    18c8:	00200513          	li	a0,2
    18cc:	555555b7          	lui	a1,0x55555
    18d0:	55558593          	addi	a1,a1,1365 # 55555555 <_end+0x5554ea51>
    18d4:	02b54633          	div	a2,a0,a1
    18d8:	3cc0ae23          	sw	a2,988(ra)

000018dc <inst_281>:
    18dc:	00200513          	li	a0,2
    18e0:	aaaab5b7          	lui	a1,0xaaaab
    18e4:	aaa58593          	addi	a1,a1,-1366 # aaaaaaaa <_end+0xaaaa3fa6>
    18e8:	02b54633          	div	a2,a0,a1
    18ec:	3ec0a023          	sw	a2,992(ra)

000018f0 <inst_282>:
    18f0:	00200513          	li	a0,2
    18f4:	00500593          	li	a1,5
    18f8:	02b54633          	div	a2,a0,a1
    18fc:	3ec0a223          	sw	a2,996(ra)

00001900 <inst_283>:
    1900:	00200513          	li	a0,2
    1904:	333335b7          	lui	a1,0x33333
    1908:	33358593          	addi	a1,a1,819 # 33333333 <_end+0x3332c82f>
    190c:	02b54633          	div	a2,a0,a1
    1910:	3ec0a423          	sw	a2,1000(ra)

00001914 <inst_284>:
    1914:	00200513          	li	a0,2
    1918:	666665b7          	lui	a1,0x66666
    191c:	66658593          	addi	a1,a1,1638 # 66666666 <_end+0x6665fb62>
    1920:	02b54633          	div	a2,a0,a1
    1924:	3ec0a623          	sw	a2,1004(ra)

00001928 <inst_285>:
    1928:	00200513          	li	a0,2
    192c:	ffff55b7          	lui	a1,0xffff5
    1930:	afc58593          	addi	a1,a1,-1284 # ffff4afc <_end+0xfffedff8>
    1934:	02b54633          	div	a2,a0,a1
    1938:	3ec0a823          	sw	a2,1008(ra)

0000193c <inst_286>:
    193c:	00200513          	li	a0,2
    1940:	0000b5b7          	lui	a1,0xb
    1944:	50458593          	addi	a1,a1,1284 # b504 <_end+0x4a00>
    1948:	02b54633          	div	a2,a0,a1
    194c:	3ec0aa23          	sw	a2,1012(ra)

00001950 <inst_287>:
    1950:	00200513          	li	a0,2
    1954:	00200593          	li	a1,2
    1958:	02b54633          	div	a2,a0,a1
    195c:	3ec0ac23          	sw	a2,1016(ra)

00001960 <inst_288>:
    1960:	00200513          	li	a0,2
    1964:	555555b7          	lui	a1,0x55555
    1968:	55458593          	addi	a1,a1,1364 # 55555554 <_end+0x5554ea50>
    196c:	02b54633          	div	a2,a0,a1
    1970:	3ec0ae23          	sw	a2,1020(ra)

00001974 <inst_289>:
    1974:	00200513          	li	a0,2
    1978:	00000593          	li	a1,0
    197c:	02b54633          	div	a2,a0,a1
    1980:	40c0a023          	sw	a2,1024(ra)

00001984 <inst_290>:
    1984:	00200513          	li	a0,2
    1988:	00400593          	li	a1,4
    198c:	02b54633          	div	a2,a0,a1
    1990:	40c0a223          	sw	a2,1028(ra)

00001994 <inst_291>:
    1994:	00200513          	li	a0,2
    1998:	333335b7          	lui	a1,0x33333
    199c:	33258593          	addi	a1,a1,818 # 33333332 <_end+0x3332c82e>
    19a0:	02b54633          	div	a2,a0,a1
    19a4:	40c0a423          	sw	a2,1032(ra)

000019a8 <inst_292>:
    19a8:	00200513          	li	a0,2
    19ac:	666665b7          	lui	a1,0x66666
    19b0:	66558593          	addi	a1,a1,1637 # 66666665 <_end+0x6665fb61>
    19b4:	02b54633          	div	a2,a0,a1
    19b8:	40c0a623          	sw	a2,1036(ra)

000019bc <inst_293>:
    19bc:	00200513          	li	a0,2
    19c0:	0000b5b7          	lui	a1,0xb
    19c4:	50358593          	addi	a1,a1,1283 # b503 <_end+0x49ff>
    19c8:	02b54633          	div	a2,a0,a1
    19cc:	40c0a823          	sw	a2,1040(ra)

000019d0 <inst_294>:
    19d0:	00200513          	li	a0,2
    19d4:	555555b7          	lui	a1,0x55555
    19d8:	55658593          	addi	a1,a1,1366 # 55555556 <_end+0x5554ea52>
    19dc:	02b54633          	div	a2,a0,a1
    19e0:	40c0aa23          	sw	a2,1044(ra)

000019e4 <inst_295>:
    19e4:	00200513          	li	a0,2
    19e8:	aaaab5b7          	lui	a1,0xaaaab
    19ec:	aab58593          	addi	a1,a1,-1365 # aaaaaaab <_end+0xaaaa3fa7>
    19f0:	02b54633          	div	a2,a0,a1
    19f4:	40c0ac23          	sw	a2,1048(ra)

000019f8 <inst_296>:
    19f8:	00200513          	li	a0,2
    19fc:	00600593          	li	a1,6
    1a00:	02b54633          	div	a2,a0,a1
    1a04:	40c0ae23          	sw	a2,1052(ra)

00001a08 <inst_297>:
    1a08:	00200513          	li	a0,2
    1a0c:	333335b7          	lui	a1,0x33333
    1a10:	33458593          	addi	a1,a1,820 # 33333334 <_end+0x3332c830>
    1a14:	02b54633          	div	a2,a0,a1
    1a18:	42c0a023          	sw	a2,1056(ra)

00001a1c <inst_298>:
    1a1c:	00200513          	li	a0,2
    1a20:	666665b7          	lui	a1,0x66666
    1a24:	66758593          	addi	a1,a1,1639 # 66666667 <_end+0x6665fb63>
    1a28:	02b54633          	div	a2,a0,a1
    1a2c:	42c0a223          	sw	a2,1060(ra)

00001a30 <inst_299>:
    1a30:	00200513          	li	a0,2
    1a34:	ffff55b7          	lui	a1,0xffff5
    1a38:	afd58593          	addi	a1,a1,-1283 # ffff4afd <_end+0xfffedff9>
    1a3c:	02b54633          	div	a2,a0,a1
    1a40:	42c0a423          	sw	a2,1064(ra)

00001a44 <inst_300>:
    1a44:	00200513          	li	a0,2
    1a48:	0000b5b7          	lui	a1,0xb
    1a4c:	50558593          	addi	a1,a1,1285 # b505 <_end+0x4a01>
    1a50:	02b54633          	div	a2,a0,a1
    1a54:	42c0a623          	sw	a2,1068(ra)

00001a58 <inst_301>:
    1a58:	55555537          	lui	a0,0x55555
    1a5c:	55450513          	addi	a0,a0,1364 # 55555554 <_end+0x5554ea50>
    1a60:	00300593          	li	a1,3
    1a64:	02b54633          	div	a2,a0,a1
    1a68:	42c0a823          	sw	a2,1072(ra)

00001a6c <inst_302>:
    1a6c:	55555537          	lui	a0,0x55555
    1a70:	55450513          	addi	a0,a0,1364 # 55555554 <_end+0x5554ea50>
    1a74:	555555b7          	lui	a1,0x55555
    1a78:	55558593          	addi	a1,a1,1365 # 55555555 <_end+0x5554ea51>
    1a7c:	02b54633          	div	a2,a0,a1
    1a80:	42c0aa23          	sw	a2,1076(ra)

00001a84 <inst_303>:
    1a84:	55555537          	lui	a0,0x55555
    1a88:	55450513          	addi	a0,a0,1364 # 55555554 <_end+0x5554ea50>
    1a8c:	aaaab5b7          	lui	a1,0xaaaab
    1a90:	aaa58593          	addi	a1,a1,-1366 # aaaaaaaa <_end+0xaaaa3fa6>
    1a94:	02b54633          	div	a2,a0,a1
    1a98:	42c0ac23          	sw	a2,1080(ra)

00001a9c <inst_304>:
    1a9c:	55555537          	lui	a0,0x55555
    1aa0:	55450513          	addi	a0,a0,1364 # 55555554 <_end+0x5554ea50>
    1aa4:	00500593          	li	a1,5
    1aa8:	02b54633          	div	a2,a0,a1
    1aac:	42c0ae23          	sw	a2,1084(ra)

00001ab0 <inst_305>:
    1ab0:	55555537          	lui	a0,0x55555
    1ab4:	55450513          	addi	a0,a0,1364 # 55555554 <_end+0x5554ea50>
    1ab8:	333335b7          	lui	a1,0x33333
    1abc:	33358593          	addi	a1,a1,819 # 33333333 <_end+0x3332c82f>
    1ac0:	02b54633          	div	a2,a0,a1
    1ac4:	44c0a023          	sw	a2,1088(ra)

00001ac8 <inst_306>:
    1ac8:	55555537          	lui	a0,0x55555
    1acc:	55450513          	addi	a0,a0,1364 # 55555554 <_end+0x5554ea50>
    1ad0:	666665b7          	lui	a1,0x66666
    1ad4:	66658593          	addi	a1,a1,1638 # 66666666 <_end+0x6665fb62>
    1ad8:	02b54633          	div	a2,a0,a1
    1adc:	44c0a223          	sw	a2,1092(ra)

00001ae0 <inst_307>:
    1ae0:	55555537          	lui	a0,0x55555
    1ae4:	55450513          	addi	a0,a0,1364 # 55555554 <_end+0x5554ea50>
    1ae8:	ffff55b7          	lui	a1,0xffff5
    1aec:	afc58593          	addi	a1,a1,-1284 # ffff4afc <_end+0xfffedff8>
    1af0:	02b54633          	div	a2,a0,a1
    1af4:	44c0a423          	sw	a2,1096(ra)

00001af8 <inst_308>:
    1af8:	55555537          	lui	a0,0x55555
    1afc:	55450513          	addi	a0,a0,1364 # 55555554 <_end+0x5554ea50>
    1b00:	0000b5b7          	lui	a1,0xb
    1b04:	50458593          	addi	a1,a1,1284 # b504 <_end+0x4a00>
    1b08:	02b54633          	div	a2,a0,a1
    1b0c:	44c0a623          	sw	a2,1100(ra)

00001b10 <inst_309>:
    1b10:	55555537          	lui	a0,0x55555
    1b14:	55450513          	addi	a0,a0,1364 # 55555554 <_end+0x5554ea50>
    1b18:	00200593          	li	a1,2
    1b1c:	02b54633          	div	a2,a0,a1
    1b20:	44c0a823          	sw	a2,1104(ra)

00001b24 <inst_310>:
    1b24:	55555537          	lui	a0,0x55555
    1b28:	55450513          	addi	a0,a0,1364 # 55555554 <_end+0x5554ea50>
    1b2c:	555555b7          	lui	a1,0x55555
    1b30:	55458593          	addi	a1,a1,1364 # 55555554 <_end+0x5554ea50>
    1b34:	02b54633          	div	a2,a0,a1
    1b38:	44c0aa23          	sw	a2,1108(ra)

00001b3c <inst_311>:
    1b3c:	55555537          	lui	a0,0x55555
    1b40:	55450513          	addi	a0,a0,1364 # 55555554 <_end+0x5554ea50>
    1b44:	00000593          	li	a1,0
    1b48:	02b54633          	div	a2,a0,a1
    1b4c:	44c0ac23          	sw	a2,1112(ra)

00001b50 <inst_312>:
    1b50:	55555537          	lui	a0,0x55555
    1b54:	55450513          	addi	a0,a0,1364 # 55555554 <_end+0x5554ea50>
    1b58:	00400593          	li	a1,4
    1b5c:	02b54633          	div	a2,a0,a1
    1b60:	44c0ae23          	sw	a2,1116(ra)

00001b64 <inst_313>:
    1b64:	55555537          	lui	a0,0x55555
    1b68:	55450513          	addi	a0,a0,1364 # 55555554 <_end+0x5554ea50>
    1b6c:	333335b7          	lui	a1,0x33333
    1b70:	33258593          	addi	a1,a1,818 # 33333332 <_end+0x3332c82e>
    1b74:	02b54633          	div	a2,a0,a1
    1b78:	46c0a023          	sw	a2,1120(ra)

00001b7c <inst_314>:
    1b7c:	55555537          	lui	a0,0x55555
    1b80:	55450513          	addi	a0,a0,1364 # 55555554 <_end+0x5554ea50>
    1b84:	666665b7          	lui	a1,0x66666
    1b88:	66558593          	addi	a1,a1,1637 # 66666665 <_end+0x6665fb61>
    1b8c:	02b54633          	div	a2,a0,a1
    1b90:	46c0a223          	sw	a2,1124(ra)

00001b94 <inst_315>:
    1b94:	55555537          	lui	a0,0x55555
    1b98:	55450513          	addi	a0,a0,1364 # 55555554 <_end+0x5554ea50>
    1b9c:	0000b5b7          	lui	a1,0xb
    1ba0:	50358593          	addi	a1,a1,1283 # b503 <_end+0x49ff>
    1ba4:	02b54633          	div	a2,a0,a1
    1ba8:	46c0a423          	sw	a2,1128(ra)

00001bac <inst_316>:
    1bac:	55555537          	lui	a0,0x55555
    1bb0:	55450513          	addi	a0,a0,1364 # 55555554 <_end+0x5554ea50>
    1bb4:	555555b7          	lui	a1,0x55555
    1bb8:	55658593          	addi	a1,a1,1366 # 55555556 <_end+0x5554ea52>
    1bbc:	02b54633          	div	a2,a0,a1
    1bc0:	46c0a623          	sw	a2,1132(ra)

00001bc4 <inst_317>:
    1bc4:	55555537          	lui	a0,0x55555
    1bc8:	55450513          	addi	a0,a0,1364 # 55555554 <_end+0x5554ea50>
    1bcc:	aaaab5b7          	lui	a1,0xaaaab
    1bd0:	aab58593          	addi	a1,a1,-1365 # aaaaaaab <_end+0xaaaa3fa7>
    1bd4:	02b54633          	div	a2,a0,a1
    1bd8:	46c0a823          	sw	a2,1136(ra)

00001bdc <inst_318>:
    1bdc:	55555537          	lui	a0,0x55555
    1be0:	55450513          	addi	a0,a0,1364 # 55555554 <_end+0x5554ea50>
    1be4:	00600593          	li	a1,6
    1be8:	02b54633          	div	a2,a0,a1
    1bec:	46c0aa23          	sw	a2,1140(ra)

00001bf0 <inst_319>:
    1bf0:	55555537          	lui	a0,0x55555
    1bf4:	55450513          	addi	a0,a0,1364 # 55555554 <_end+0x5554ea50>
    1bf8:	333335b7          	lui	a1,0x33333
    1bfc:	33458593          	addi	a1,a1,820 # 33333334 <_end+0x3332c830>
    1c00:	02b54633          	div	a2,a0,a1
    1c04:	46c0ac23          	sw	a2,1144(ra)

00001c08 <inst_320>:
    1c08:	55555537          	lui	a0,0x55555
    1c0c:	55450513          	addi	a0,a0,1364 # 55555554 <_end+0x5554ea50>
    1c10:	666665b7          	lui	a1,0x66666
    1c14:	66758593          	addi	a1,a1,1639 # 66666667 <_end+0x6665fb63>
    1c18:	02b54633          	div	a2,a0,a1
    1c1c:	46c0ae23          	sw	a2,1148(ra)

00001c20 <inst_321>:
    1c20:	55555537          	lui	a0,0x55555
    1c24:	55450513          	addi	a0,a0,1364 # 55555554 <_end+0x5554ea50>
    1c28:	ffff55b7          	lui	a1,0xffff5
    1c2c:	afd58593          	addi	a1,a1,-1283 # ffff4afd <_end+0xfffedff9>
    1c30:	02b54633          	div	a2,a0,a1
    1c34:	48c0a023          	sw	a2,1152(ra)

00001c38 <inst_322>:
    1c38:	55555537          	lui	a0,0x55555
    1c3c:	55450513          	addi	a0,a0,1364 # 55555554 <_end+0x5554ea50>
    1c40:	0000b5b7          	lui	a1,0xb
    1c44:	50558593          	addi	a1,a1,1285 # b505 <_end+0x4a01>
    1c48:	02b54633          	div	a2,a0,a1
    1c4c:	48c0a223          	sw	a2,1156(ra)

00001c50 <inst_323>:
    1c50:	00000513          	li	a0,0
    1c54:	00300593          	li	a1,3
    1c58:	02b54633          	div	a2,a0,a1
    1c5c:	48c0a423          	sw	a2,1160(ra)

00001c60 <inst_324>:
    1c60:	00000513          	li	a0,0
    1c64:	555555b7          	lui	a1,0x55555
    1c68:	55558593          	addi	a1,a1,1365 # 55555555 <_end+0x5554ea51>
    1c6c:	02b54633          	div	a2,a0,a1
    1c70:	48c0a623          	sw	a2,1164(ra)

00001c74 <inst_325>:
    1c74:	00000513          	li	a0,0
    1c78:	aaaab5b7          	lui	a1,0xaaaab
    1c7c:	aaa58593          	addi	a1,a1,-1366 # aaaaaaaa <_end+0xaaaa3fa6>
    1c80:	02b54633          	div	a2,a0,a1
    1c84:	48c0a823          	sw	a2,1168(ra)

00001c88 <inst_326>:
    1c88:	00000513          	li	a0,0
    1c8c:	00500593          	li	a1,5
    1c90:	02b54633          	div	a2,a0,a1
    1c94:	48c0aa23          	sw	a2,1172(ra)

00001c98 <inst_327>:
    1c98:	00000513          	li	a0,0
    1c9c:	333335b7          	lui	a1,0x33333
    1ca0:	33358593          	addi	a1,a1,819 # 33333333 <_end+0x3332c82f>
    1ca4:	02b54633          	div	a2,a0,a1
    1ca8:	48c0ac23          	sw	a2,1176(ra)

00001cac <inst_328>:
    1cac:	00000513          	li	a0,0
    1cb0:	666665b7          	lui	a1,0x66666
    1cb4:	66658593          	addi	a1,a1,1638 # 66666666 <_end+0x6665fb62>
    1cb8:	02b54633          	div	a2,a0,a1
    1cbc:	48c0ae23          	sw	a2,1180(ra)

00001cc0 <inst_329>:
    1cc0:	00000513          	li	a0,0
    1cc4:	ffff55b7          	lui	a1,0xffff5
    1cc8:	afc58593          	addi	a1,a1,-1284 # ffff4afc <_end+0xfffedff8>
    1ccc:	02b54633          	div	a2,a0,a1
    1cd0:	4ac0a023          	sw	a2,1184(ra)

00001cd4 <inst_330>:
    1cd4:	00000513          	li	a0,0
    1cd8:	0000b5b7          	lui	a1,0xb
    1cdc:	50458593          	addi	a1,a1,1284 # b504 <_end+0x4a00>
    1ce0:	02b54633          	div	a2,a0,a1
    1ce4:	4ac0a223          	sw	a2,1188(ra)

00001ce8 <inst_331>:
    1ce8:	00000513          	li	a0,0
    1cec:	00200593          	li	a1,2
    1cf0:	02b54633          	div	a2,a0,a1
    1cf4:	4ac0a423          	sw	a2,1192(ra)

00001cf8 <inst_332>:
    1cf8:	aaaab537          	lui	a0,0xaaaab
    1cfc:	aab50513          	addi	a0,a0,-1365 # aaaaaaab <_end+0xaaaa3fa7>
    1d00:	aaaab5b7          	lui	a1,0xaaaab
    1d04:	aab58593          	addi	a1,a1,-1365 # aaaaaaab <_end+0xaaaa3fa7>
    1d08:	02b54633          	div	a2,a0,a1
    1d0c:	4ac0a623          	sw	a2,1196(ra)

00001d10 <inst_333>:
    1d10:	aaaab537          	lui	a0,0xaaaab
    1d14:	aab50513          	addi	a0,a0,-1365 # aaaaaaab <_end+0xaaaa3fa7>
    1d18:	00600593          	li	a1,6
    1d1c:	02b54633          	div	a2,a0,a1
    1d20:	4ac0a823          	sw	a2,1200(ra)

00001d24 <inst_334>:
    1d24:	aaaab537          	lui	a0,0xaaaab
    1d28:	aab50513          	addi	a0,a0,-1365 # aaaaaaab <_end+0xaaaa3fa7>
    1d2c:	333335b7          	lui	a1,0x33333
    1d30:	33458593          	addi	a1,a1,820 # 33333334 <_end+0x3332c830>
    1d34:	02b54633          	div	a2,a0,a1
    1d38:	4ac0aa23          	sw	a2,1204(ra)

00001d3c <inst_335>:
    1d3c:	aaaab537          	lui	a0,0xaaaab
    1d40:	aab50513          	addi	a0,a0,-1365 # aaaaaaab <_end+0xaaaa3fa7>
    1d44:	666665b7          	lui	a1,0x66666
    1d48:	66758593          	addi	a1,a1,1639 # 66666667 <_end+0x6665fb63>
    1d4c:	02b54633          	div	a2,a0,a1
    1d50:	4ac0ac23          	sw	a2,1208(ra)

00001d54 <inst_336>:
    1d54:	aaaab537          	lui	a0,0xaaaab
    1d58:	aab50513          	addi	a0,a0,-1365 # aaaaaaab <_end+0xaaaa3fa7>
    1d5c:	ffff55b7          	lui	a1,0xffff5
    1d60:	afd58593          	addi	a1,a1,-1283 # ffff4afd <_end+0xfffedff9>
    1d64:	02b54633          	div	a2,a0,a1
    1d68:	4ac0ae23          	sw	a2,1212(ra)

00001d6c <inst_337>:
    1d6c:	aaaab537          	lui	a0,0xaaaab
    1d70:	aab50513          	addi	a0,a0,-1365 # aaaaaaab <_end+0xaaaa3fa7>
    1d74:	0000b5b7          	lui	a1,0xb
    1d78:	50558593          	addi	a1,a1,1285 # b505 <_end+0x4a01>
    1d7c:	02b54633          	div	a2,a0,a1
    1d80:	4cc0a023          	sw	a2,1216(ra)

00001d84 <inst_338>:
    1d84:	00600513          	li	a0,6
    1d88:	00300593          	li	a1,3
    1d8c:	02b54633          	div	a2,a0,a1
    1d90:	4cc0a223          	sw	a2,1220(ra)

00001d94 <inst_339>:
    1d94:	00600513          	li	a0,6
    1d98:	555555b7          	lui	a1,0x55555
    1d9c:	55558593          	addi	a1,a1,1365 # 55555555 <_end+0x5554ea51>
    1da0:	02b54633          	div	a2,a0,a1
    1da4:	4cc0a423          	sw	a2,1224(ra)

00001da8 <inst_340>:
    1da8:	00600513          	li	a0,6
    1dac:	aaaab5b7          	lui	a1,0xaaaab
    1db0:	aaa58593          	addi	a1,a1,-1366 # aaaaaaaa <_end+0xaaaa3fa6>
    1db4:	02b54633          	div	a2,a0,a1
    1db8:	4cc0a623          	sw	a2,1228(ra)

00001dbc <inst_341>:
    1dbc:	00600513          	li	a0,6
    1dc0:	00500593          	li	a1,5
    1dc4:	02b54633          	div	a2,a0,a1
    1dc8:	4cc0a823          	sw	a2,1232(ra)

00001dcc <inst_342>:
    1dcc:	00600513          	li	a0,6
    1dd0:	333335b7          	lui	a1,0x33333
    1dd4:	33358593          	addi	a1,a1,819 # 33333333 <_end+0x3332c82f>
    1dd8:	02b54633          	div	a2,a0,a1
    1ddc:	4cc0aa23          	sw	a2,1236(ra)

00001de0 <inst_343>:
    1de0:	00600513          	li	a0,6
    1de4:	666665b7          	lui	a1,0x66666
    1de8:	66658593          	addi	a1,a1,1638 # 66666666 <_end+0x6665fb62>
    1dec:	02b54633          	div	a2,a0,a1
    1df0:	4cc0ac23          	sw	a2,1240(ra)

00001df4 <inst_344>:
    1df4:	00600513          	li	a0,6
    1df8:	ffff55b7          	lui	a1,0xffff5
    1dfc:	afc58593          	addi	a1,a1,-1284 # ffff4afc <_end+0xfffedff8>
    1e00:	02b54633          	div	a2,a0,a1
    1e04:	4cc0ae23          	sw	a2,1244(ra)

00001e08 <inst_345>:
    1e08:	00600513          	li	a0,6
    1e0c:	0000b5b7          	lui	a1,0xb
    1e10:	50458593          	addi	a1,a1,1284 # b504 <_end+0x4a00>
    1e14:	02b54633          	div	a2,a0,a1
    1e18:	4ec0a023          	sw	a2,1248(ra)

00001e1c <inst_346>:
    1e1c:	00600513          	li	a0,6
    1e20:	00200593          	li	a1,2
    1e24:	02b54633          	div	a2,a0,a1
    1e28:	4ec0a223          	sw	a2,1252(ra)

00001e2c <inst_347>:
    1e2c:	00600513          	li	a0,6
    1e30:	555555b7          	lui	a1,0x55555
    1e34:	55458593          	addi	a1,a1,1364 # 55555554 <_end+0x5554ea50>
    1e38:	02b54633          	div	a2,a0,a1
    1e3c:	4ec0a423          	sw	a2,1256(ra)

00001e40 <inst_348>:
    1e40:	00600513          	li	a0,6
    1e44:	00000593          	li	a1,0
    1e48:	02b54633          	div	a2,a0,a1
    1e4c:	4ec0a623          	sw	a2,1260(ra)

00001e50 <inst_349>:
    1e50:	00600513          	li	a0,6
    1e54:	00400593          	li	a1,4
    1e58:	02b54633          	div	a2,a0,a1
    1e5c:	4ec0a823          	sw	a2,1264(ra)

00001e60 <inst_350>:
    1e60:	00600513          	li	a0,6
    1e64:	333335b7          	lui	a1,0x33333
    1e68:	33258593          	addi	a1,a1,818 # 33333332 <_end+0x3332c82e>
    1e6c:	02b54633          	div	a2,a0,a1
    1e70:	4ec0aa23          	sw	a2,1268(ra)

00001e74 <inst_351>:
    1e74:	00600513          	li	a0,6
    1e78:	666665b7          	lui	a1,0x66666
    1e7c:	66558593          	addi	a1,a1,1637 # 66666665 <_end+0x6665fb61>
    1e80:	02b54633          	div	a2,a0,a1
    1e84:	4ec0ac23          	sw	a2,1272(ra)

00001e88 <inst_352>:
    1e88:	00600513          	li	a0,6
    1e8c:	0000b5b7          	lui	a1,0xb
    1e90:	50358593          	addi	a1,a1,1283 # b503 <_end+0x49ff>
    1e94:	02b54633          	div	a2,a0,a1
    1e98:	4ec0ae23          	sw	a2,1276(ra)

00001e9c <inst_353>:
    1e9c:	00600513          	li	a0,6
    1ea0:	555555b7          	lui	a1,0x55555
    1ea4:	55658593          	addi	a1,a1,1366 # 55555556 <_end+0x5554ea52>
    1ea8:	02b54633          	div	a2,a0,a1
    1eac:	50c0a023          	sw	a2,1280(ra)

00001eb0 <inst_354>:
    1eb0:	00600513          	li	a0,6
    1eb4:	aaaab5b7          	lui	a1,0xaaaab
    1eb8:	aab58593          	addi	a1,a1,-1365 # aaaaaaab <_end+0xaaaa3fa7>
    1ebc:	02b54633          	div	a2,a0,a1
    1ec0:	50c0a223          	sw	a2,1284(ra)

00001ec4 <inst_355>:
    1ec4:	00600513          	li	a0,6
    1ec8:	00600593          	li	a1,6
    1ecc:	02b54633          	div	a2,a0,a1
    1ed0:	50c0a423          	sw	a2,1288(ra)

00001ed4 <inst_356>:
    1ed4:	00600513          	li	a0,6
    1ed8:	333335b7          	lui	a1,0x33333
    1edc:	33458593          	addi	a1,a1,820 # 33333334 <_end+0x3332c830>
    1ee0:	02b54633          	div	a2,a0,a1
    1ee4:	50c0a623          	sw	a2,1292(ra)

00001ee8 <inst_357>:
    1ee8:	00600513          	li	a0,6
    1eec:	666665b7          	lui	a1,0x66666
    1ef0:	66758593          	addi	a1,a1,1639 # 66666667 <_end+0x6665fb63>
    1ef4:	02b54633          	div	a2,a0,a1
    1ef8:	50c0a823          	sw	a2,1296(ra)

00001efc <inst_358>:
    1efc:	00600513          	li	a0,6
    1f00:	ffff55b7          	lui	a1,0xffff5
    1f04:	afd58593          	addi	a1,a1,-1283 # ffff4afd <_end+0xfffedff9>
    1f08:	02b54633          	div	a2,a0,a1
    1f0c:	50c0aa23          	sw	a2,1300(ra)

00001f10 <inst_359>:
    1f10:	00600513          	li	a0,6
    1f14:	0000b5b7          	lui	a1,0xb
    1f18:	50558593          	addi	a1,a1,1285 # b505 <_end+0x4a01>
    1f1c:	02b54633          	div	a2,a0,a1
    1f20:	50c0ac23          	sw	a2,1304(ra)

00001f24 <inst_360>:
    1f24:	33333537          	lui	a0,0x33333
    1f28:	33450513          	addi	a0,a0,820 # 33333334 <_end+0x3332c830>
    1f2c:	00300593          	li	a1,3
    1f30:	02b54633          	div	a2,a0,a1
    1f34:	50c0ae23          	sw	a2,1308(ra)

00001f38 <inst_361>:
    1f38:	33333537          	lui	a0,0x33333
    1f3c:	33450513          	addi	a0,a0,820 # 33333334 <_end+0x3332c830>
    1f40:	555555b7          	lui	a1,0x55555
    1f44:	55558593          	addi	a1,a1,1365 # 55555555 <_end+0x5554ea51>
    1f48:	02b54633          	div	a2,a0,a1
    1f4c:	52c0a023          	sw	a2,1312(ra)

00001f50 <inst_362>:
    1f50:	33333537          	lui	a0,0x33333
    1f54:	33450513          	addi	a0,a0,820 # 33333334 <_end+0x3332c830>
    1f58:	aaaab5b7          	lui	a1,0xaaaab
    1f5c:	aaa58593          	addi	a1,a1,-1366 # aaaaaaaa <_end+0xaaaa3fa6>
    1f60:	02b54633          	div	a2,a0,a1
    1f64:	52c0a223          	sw	a2,1316(ra)

00001f68 <inst_363>:
    1f68:	33333537          	lui	a0,0x33333
    1f6c:	33450513          	addi	a0,a0,820 # 33333334 <_end+0x3332c830>
    1f70:	00500593          	li	a1,5
    1f74:	02b54633          	div	a2,a0,a1
    1f78:	52c0a423          	sw	a2,1320(ra)

00001f7c <inst_364>:
    1f7c:	33333537          	lui	a0,0x33333
    1f80:	33450513          	addi	a0,a0,820 # 33333334 <_end+0x3332c830>
    1f84:	333335b7          	lui	a1,0x33333
    1f88:	33358593          	addi	a1,a1,819 # 33333333 <_end+0x3332c82f>
    1f8c:	02b54633          	div	a2,a0,a1
    1f90:	52c0a623          	sw	a2,1324(ra)

00001f94 <inst_365>:
    1f94:	33333537          	lui	a0,0x33333
    1f98:	33450513          	addi	a0,a0,820 # 33333334 <_end+0x3332c830>
    1f9c:	666665b7          	lui	a1,0x66666
    1fa0:	66658593          	addi	a1,a1,1638 # 66666666 <_end+0x6665fb62>
    1fa4:	02b54633          	div	a2,a0,a1
    1fa8:	52c0a823          	sw	a2,1328(ra)

00001fac <inst_366>:
    1fac:	33333537          	lui	a0,0x33333
    1fb0:	33450513          	addi	a0,a0,820 # 33333334 <_end+0x3332c830>
    1fb4:	ffff55b7          	lui	a1,0xffff5
    1fb8:	afc58593          	addi	a1,a1,-1284 # ffff4afc <_end+0xfffedff8>
    1fbc:	02b54633          	div	a2,a0,a1
    1fc0:	52c0aa23          	sw	a2,1332(ra)

00001fc4 <inst_367>:
    1fc4:	33333537          	lui	a0,0x33333
    1fc8:	33450513          	addi	a0,a0,820 # 33333334 <_end+0x3332c830>
    1fcc:	0000b5b7          	lui	a1,0xb
    1fd0:	50458593          	addi	a1,a1,1284 # b504 <_end+0x4a00>
    1fd4:	02b54633          	div	a2,a0,a1
    1fd8:	52c0ac23          	sw	a2,1336(ra)

00001fdc <inst_368>:
    1fdc:	33333537          	lui	a0,0x33333
    1fe0:	33450513          	addi	a0,a0,820 # 33333334 <_end+0x3332c830>
    1fe4:	00200593          	li	a1,2
    1fe8:	02b54633          	div	a2,a0,a1
    1fec:	52c0ae23          	sw	a2,1340(ra)

00001ff0 <inst_369>:
    1ff0:	33333537          	lui	a0,0x33333
    1ff4:	33450513          	addi	a0,a0,820 # 33333334 <_end+0x3332c830>
    1ff8:	555555b7          	lui	a1,0x55555
    1ffc:	55458593          	addi	a1,a1,1364 # 55555554 <_end+0x5554ea50>
    2000:	02b54633          	div	a2,a0,a1
    2004:	54c0a023          	sw	a2,1344(ra)

00002008 <inst_370>:
    2008:	33333537          	lui	a0,0x33333
    200c:	33450513          	addi	a0,a0,820 # 33333334 <_end+0x3332c830>
    2010:	00000593          	li	a1,0
    2014:	02b54633          	div	a2,a0,a1
    2018:	54c0a223          	sw	a2,1348(ra)

0000201c <inst_371>:
    201c:	33333537          	lui	a0,0x33333
    2020:	33450513          	addi	a0,a0,820 # 33333334 <_end+0x3332c830>
    2024:	00400593          	li	a1,4
    2028:	02b54633          	div	a2,a0,a1
    202c:	54c0a423          	sw	a2,1352(ra)

00002030 <inst_372>:
    2030:	33333537          	lui	a0,0x33333
    2034:	33450513          	addi	a0,a0,820 # 33333334 <_end+0x3332c830>
    2038:	333335b7          	lui	a1,0x33333
    203c:	33258593          	addi	a1,a1,818 # 33333332 <_end+0x3332c82e>
    2040:	02b54633          	div	a2,a0,a1
    2044:	54c0a623          	sw	a2,1356(ra)

00002048 <inst_373>:
    2048:	33333537          	lui	a0,0x33333
    204c:	33450513          	addi	a0,a0,820 # 33333334 <_end+0x3332c830>
    2050:	666665b7          	lui	a1,0x66666
    2054:	66558593          	addi	a1,a1,1637 # 66666665 <_end+0x6665fb61>
    2058:	02b54633          	div	a2,a0,a1
    205c:	54c0a823          	sw	a2,1360(ra)

00002060 <inst_374>:
    2060:	33333537          	lui	a0,0x33333
    2064:	33450513          	addi	a0,a0,820 # 33333334 <_end+0x3332c830>
    2068:	0000b5b7          	lui	a1,0xb
    206c:	50358593          	addi	a1,a1,1283 # b503 <_end+0x49ff>
    2070:	02b54633          	div	a2,a0,a1
    2074:	54c0aa23          	sw	a2,1364(ra)

00002078 <inst_375>:
    2078:	33333537          	lui	a0,0x33333
    207c:	33450513          	addi	a0,a0,820 # 33333334 <_end+0x3332c830>
    2080:	555555b7          	lui	a1,0x55555
    2084:	55658593          	addi	a1,a1,1366 # 55555556 <_end+0x5554ea52>
    2088:	02b54633          	div	a2,a0,a1
    208c:	54c0ac23          	sw	a2,1368(ra)

00002090 <inst_376>:
    2090:	33333537          	lui	a0,0x33333
    2094:	33450513          	addi	a0,a0,820 # 33333334 <_end+0x3332c830>
    2098:	aaaab5b7          	lui	a1,0xaaaab
    209c:	aab58593          	addi	a1,a1,-1365 # aaaaaaab <_end+0xaaaa3fa7>
    20a0:	02b54633          	div	a2,a0,a1
    20a4:	54c0ae23          	sw	a2,1372(ra)

000020a8 <inst_377>:
    20a8:	33333537          	lui	a0,0x33333
    20ac:	33450513          	addi	a0,a0,820 # 33333334 <_end+0x3332c830>
    20b0:	00600593          	li	a1,6
    20b4:	02b54633          	div	a2,a0,a1
    20b8:	56c0a023          	sw	a2,1376(ra)

000020bc <inst_378>:
    20bc:	33333537          	lui	a0,0x33333
    20c0:	33450513          	addi	a0,a0,820 # 33333334 <_end+0x3332c830>
    20c4:	333335b7          	lui	a1,0x33333
    20c8:	33458593          	addi	a1,a1,820 # 33333334 <_end+0x3332c830>
    20cc:	02b54633          	div	a2,a0,a1
    20d0:	56c0a223          	sw	a2,1380(ra)

000020d4 <inst_379>:
    20d4:	33333537          	lui	a0,0x33333
    20d8:	33450513          	addi	a0,a0,820 # 33333334 <_end+0x3332c830>
    20dc:	666665b7          	lui	a1,0x66666
    20e0:	66758593          	addi	a1,a1,1639 # 66666667 <_end+0x6665fb63>
    20e4:	02b54633          	div	a2,a0,a1
    20e8:	56c0a423          	sw	a2,1384(ra)

000020ec <inst_380>:
    20ec:	33333537          	lui	a0,0x33333
    20f0:	33450513          	addi	a0,a0,820 # 33333334 <_end+0x3332c830>
    20f4:	ffff55b7          	lui	a1,0xffff5
    20f8:	afd58593          	addi	a1,a1,-1283 # ffff4afd <_end+0xfffedff9>
    20fc:	02b54633          	div	a2,a0,a1
    2100:	56c0a623          	sw	a2,1388(ra)

00002104 <inst_381>:
    2104:	33333537          	lui	a0,0x33333
    2108:	33450513          	addi	a0,a0,820 # 33333334 <_end+0x3332c830>
    210c:	0000b5b7          	lui	a1,0xb
    2110:	50558593          	addi	a1,a1,1285 # b505 <_end+0x4a01>
    2114:	02b54633          	div	a2,a0,a1
    2118:	56c0a823          	sw	a2,1392(ra)

0000211c <inst_382>:
    211c:	66666537          	lui	a0,0x66666
    2120:	66750513          	addi	a0,a0,1639 # 66666667 <_end+0x6665fb63>
    2124:	00300593          	li	a1,3
    2128:	02b54633          	div	a2,a0,a1
    212c:	56c0aa23          	sw	a2,1396(ra)

00002130 <inst_383>:
    2130:	66666537          	lui	a0,0x66666
    2134:	66750513          	addi	a0,a0,1639 # 66666667 <_end+0x6665fb63>
    2138:	555555b7          	lui	a1,0x55555
    213c:	55558593          	addi	a1,a1,1365 # 55555555 <_end+0x5554ea51>
    2140:	02b54633          	div	a2,a0,a1
    2144:	56c0ac23          	sw	a2,1400(ra)

00002148 <inst_384>:
    2148:	66666537          	lui	a0,0x66666
    214c:	66750513          	addi	a0,a0,1639 # 66666667 <_end+0x6665fb63>
    2150:	aaaab5b7          	lui	a1,0xaaaab
    2154:	aaa58593          	addi	a1,a1,-1366 # aaaaaaaa <_end+0xaaaa3fa6>
    2158:	02b54633          	div	a2,a0,a1
    215c:	56c0ae23          	sw	a2,1404(ra)

00002160 <inst_385>:
    2160:	66666537          	lui	a0,0x66666
    2164:	66750513          	addi	a0,a0,1639 # 66666667 <_end+0x6665fb63>
    2168:	00500593          	li	a1,5
    216c:	02b54633          	div	a2,a0,a1
    2170:	58c0a023          	sw	a2,1408(ra)

00002174 <inst_386>:
    2174:	66666537          	lui	a0,0x66666
    2178:	66750513          	addi	a0,a0,1639 # 66666667 <_end+0x6665fb63>
    217c:	333335b7          	lui	a1,0x33333
    2180:	33358593          	addi	a1,a1,819 # 33333333 <_end+0x3332c82f>
    2184:	02b54633          	div	a2,a0,a1
    2188:	58c0a223          	sw	a2,1412(ra)

0000218c <inst_387>:
    218c:	66666537          	lui	a0,0x66666
    2190:	66750513          	addi	a0,a0,1639 # 66666667 <_end+0x6665fb63>
    2194:	666665b7          	lui	a1,0x66666
    2198:	66658593          	addi	a1,a1,1638 # 66666666 <_end+0x6665fb62>
    219c:	02b54633          	div	a2,a0,a1
    21a0:	58c0a423          	sw	a2,1416(ra)

000021a4 <inst_388>:
    21a4:	66666537          	lui	a0,0x66666
    21a8:	66750513          	addi	a0,a0,1639 # 66666667 <_end+0x6665fb63>
    21ac:	ffff55b7          	lui	a1,0xffff5
    21b0:	afc58593          	addi	a1,a1,-1284 # ffff4afc <_end+0xfffedff8>
    21b4:	02b54633          	div	a2,a0,a1
    21b8:	58c0a623          	sw	a2,1420(ra)

000021bc <inst_389>:
    21bc:	66666537          	lui	a0,0x66666
    21c0:	66750513          	addi	a0,a0,1639 # 66666667 <_end+0x6665fb63>
    21c4:	0000b5b7          	lui	a1,0xb
    21c8:	50458593          	addi	a1,a1,1284 # b504 <_end+0x4a00>
    21cc:	02b54633          	div	a2,a0,a1
    21d0:	58c0a823          	sw	a2,1424(ra)

000021d4 <inst_390>:
    21d4:	66666537          	lui	a0,0x66666
    21d8:	66750513          	addi	a0,a0,1639 # 66666667 <_end+0x6665fb63>
    21dc:	00200593          	li	a1,2
    21e0:	02b54633          	div	a2,a0,a1
    21e4:	58c0aa23          	sw	a2,1428(ra)

000021e8 <inst_391>:
    21e8:	66666537          	lui	a0,0x66666
    21ec:	66750513          	addi	a0,a0,1639 # 66666667 <_end+0x6665fb63>
    21f0:	555555b7          	lui	a1,0x55555
    21f4:	55458593          	addi	a1,a1,1364 # 55555554 <_end+0x5554ea50>
    21f8:	02b54633          	div	a2,a0,a1
    21fc:	58c0ac23          	sw	a2,1432(ra)

00002200 <inst_392>:
    2200:	66666537          	lui	a0,0x66666
    2204:	66750513          	addi	a0,a0,1639 # 66666667 <_end+0x6665fb63>
    2208:	00000593          	li	a1,0
    220c:	02b54633          	div	a2,a0,a1
    2210:	58c0ae23          	sw	a2,1436(ra)

00002214 <inst_393>:
    2214:	66666537          	lui	a0,0x66666
    2218:	66750513          	addi	a0,a0,1639 # 66666667 <_end+0x6665fb63>
    221c:	00400593          	li	a1,4
    2220:	02b54633          	div	a2,a0,a1
    2224:	5ac0a023          	sw	a2,1440(ra)

00002228 <inst_394>:
    2228:	66666537          	lui	a0,0x66666
    222c:	66750513          	addi	a0,a0,1639 # 66666667 <_end+0x6665fb63>
    2230:	333335b7          	lui	a1,0x33333
    2234:	33258593          	addi	a1,a1,818 # 33333332 <_end+0x3332c82e>
    2238:	02b54633          	div	a2,a0,a1
    223c:	5ac0a223          	sw	a2,1444(ra)

00002240 <inst_395>:
    2240:	66666537          	lui	a0,0x66666
    2244:	66750513          	addi	a0,a0,1639 # 66666667 <_end+0x6665fb63>
    2248:	666665b7          	lui	a1,0x66666
    224c:	66558593          	addi	a1,a1,1637 # 66666665 <_end+0x6665fb61>
    2250:	02b54633          	div	a2,a0,a1
    2254:	5ac0a423          	sw	a2,1448(ra)

00002258 <inst_396>:
    2258:	66666537          	lui	a0,0x66666
    225c:	66750513          	addi	a0,a0,1639 # 66666667 <_end+0x6665fb63>
    2260:	0000b5b7          	lui	a1,0xb
    2264:	50358593          	addi	a1,a1,1283 # b503 <_end+0x49ff>
    2268:	02b54633          	div	a2,a0,a1
    226c:	5ac0a623          	sw	a2,1452(ra)

00002270 <inst_397>:
    2270:	66666537          	lui	a0,0x66666
    2274:	66750513          	addi	a0,a0,1639 # 66666667 <_end+0x6665fb63>
    2278:	555555b7          	lui	a1,0x55555
    227c:	55658593          	addi	a1,a1,1366 # 55555556 <_end+0x5554ea52>
    2280:	02b54633          	div	a2,a0,a1
    2284:	5ac0a823          	sw	a2,1456(ra)

00002288 <inst_398>:
    2288:	66666537          	lui	a0,0x66666
    228c:	66750513          	addi	a0,a0,1639 # 66666667 <_end+0x6665fb63>
    2290:	aaaab5b7          	lui	a1,0xaaaab
    2294:	aab58593          	addi	a1,a1,-1365 # aaaaaaab <_end+0xaaaa3fa7>
    2298:	02b54633          	div	a2,a0,a1
    229c:	5ac0aa23          	sw	a2,1460(ra)

000022a0 <inst_399>:
    22a0:	66666537          	lui	a0,0x66666
    22a4:	66750513          	addi	a0,a0,1639 # 66666667 <_end+0x6665fb63>
    22a8:	00600593          	li	a1,6
    22ac:	02b54633          	div	a2,a0,a1
    22b0:	5ac0ac23          	sw	a2,1464(ra)

000022b4 <inst_400>:
    22b4:	66666537          	lui	a0,0x66666
    22b8:	66750513          	addi	a0,a0,1639 # 66666667 <_end+0x6665fb63>
    22bc:	333335b7          	lui	a1,0x33333
    22c0:	33458593          	addi	a1,a1,820 # 33333334 <_end+0x3332c830>
    22c4:	02b54633          	div	a2,a0,a1
    22c8:	5ac0ae23          	sw	a2,1468(ra)

000022cc <inst_401>:
    22cc:	66666537          	lui	a0,0x66666
    22d0:	66750513          	addi	a0,a0,1639 # 66666667 <_end+0x6665fb63>
    22d4:	666665b7          	lui	a1,0x66666
    22d8:	66758593          	addi	a1,a1,1639 # 66666667 <_end+0x6665fb63>
    22dc:	02b54633          	div	a2,a0,a1
    22e0:	5cc0a023          	sw	a2,1472(ra)

000022e4 <inst_402>:
    22e4:	66666537          	lui	a0,0x66666
    22e8:	66750513          	addi	a0,a0,1639 # 66666667 <_end+0x6665fb63>
    22ec:	ffff55b7          	lui	a1,0xffff5
    22f0:	afd58593          	addi	a1,a1,-1283 # ffff4afd <_end+0xfffedff9>
    22f4:	02b54633          	div	a2,a0,a1
    22f8:	5cc0a223          	sw	a2,1476(ra)

000022fc <inst_403>:
    22fc:	66666537          	lui	a0,0x66666
    2300:	66750513          	addi	a0,a0,1639 # 66666667 <_end+0x6665fb63>
    2304:	0000b5b7          	lui	a1,0xb
    2308:	50558593          	addi	a1,a1,1285 # b505 <_end+0x4a01>
    230c:	02b54633          	div	a2,a0,a1
    2310:	5cc0a423          	sw	a2,1480(ra)

00002314 <inst_404>:
    2314:	ffff5537          	lui	a0,0xffff5
    2318:	afd50513          	addi	a0,a0,-1283 # ffff4afd <_end+0xfffedff9>
    231c:	00300593          	li	a1,3
    2320:	02b54633          	div	a2,a0,a1
    2324:	5cc0a623          	sw	a2,1484(ra)

00002328 <inst_405>:
    2328:	ffff5537          	lui	a0,0xffff5
    232c:	afd50513          	addi	a0,a0,-1283 # ffff4afd <_end+0xfffedff9>
    2330:	555555b7          	lui	a1,0x55555
    2334:	55558593          	addi	a1,a1,1365 # 55555555 <_end+0x5554ea51>
    2338:	02b54633          	div	a2,a0,a1
    233c:	5cc0a823          	sw	a2,1488(ra)

00002340 <inst_406>:
    2340:	ffff5537          	lui	a0,0xffff5
    2344:	afd50513          	addi	a0,a0,-1283 # ffff4afd <_end+0xfffedff9>
    2348:	aaaab5b7          	lui	a1,0xaaaab
    234c:	aaa58593          	addi	a1,a1,-1366 # aaaaaaaa <_end+0xaaaa3fa6>
    2350:	02b54633          	div	a2,a0,a1
    2354:	5cc0aa23          	sw	a2,1492(ra)

00002358 <inst_407>:
    2358:	ffff5537          	lui	a0,0xffff5
    235c:	afd50513          	addi	a0,a0,-1283 # ffff4afd <_end+0xfffedff9>
    2360:	00500593          	li	a1,5
    2364:	02b54633          	div	a2,a0,a1
    2368:	5cc0ac23          	sw	a2,1496(ra)

0000236c <inst_408>:
    236c:	ffff5537          	lui	a0,0xffff5
    2370:	afd50513          	addi	a0,a0,-1283 # ffff4afd <_end+0xfffedff9>
    2374:	333335b7          	lui	a1,0x33333
    2378:	33358593          	addi	a1,a1,819 # 33333333 <_end+0x3332c82f>
    237c:	02b54633          	div	a2,a0,a1
    2380:	5cc0ae23          	sw	a2,1500(ra)

00002384 <inst_409>:
    2384:	ffff5537          	lui	a0,0xffff5
    2388:	afd50513          	addi	a0,a0,-1283 # ffff4afd <_end+0xfffedff9>
    238c:	666665b7          	lui	a1,0x66666
    2390:	66658593          	addi	a1,a1,1638 # 66666666 <_end+0x6665fb62>
    2394:	02b54633          	div	a2,a0,a1
    2398:	5ec0a023          	sw	a2,1504(ra)

0000239c <inst_410>:
    239c:	ffff5537          	lui	a0,0xffff5
    23a0:	afd50513          	addi	a0,a0,-1283 # ffff4afd <_end+0xfffedff9>
    23a4:	ffff55b7          	lui	a1,0xffff5
    23a8:	afc58593          	addi	a1,a1,-1284 # ffff4afc <_end+0xfffedff8>
    23ac:	02b54633          	div	a2,a0,a1
    23b0:	5ec0a223          	sw	a2,1508(ra)

000023b4 <inst_411>:
    23b4:	ffff5537          	lui	a0,0xffff5
    23b8:	afd50513          	addi	a0,a0,-1283 # ffff4afd <_end+0xfffedff9>
    23bc:	0000b5b7          	lui	a1,0xb
    23c0:	50458593          	addi	a1,a1,1284 # b504 <_end+0x4a00>
    23c4:	02b54633          	div	a2,a0,a1
    23c8:	5ec0a423          	sw	a2,1512(ra)

000023cc <inst_412>:
    23cc:	ffff5537          	lui	a0,0xffff5
    23d0:	afd50513          	addi	a0,a0,-1283 # ffff4afd <_end+0xfffedff9>
    23d4:	00200593          	li	a1,2
    23d8:	02b54633          	div	a2,a0,a1
    23dc:	5ec0a623          	sw	a2,1516(ra)

000023e0 <inst_413>:
    23e0:	ffff5537          	lui	a0,0xffff5
    23e4:	afd50513          	addi	a0,a0,-1283 # ffff4afd <_end+0xfffedff9>
    23e8:	555555b7          	lui	a1,0x55555
    23ec:	55458593          	addi	a1,a1,1364 # 55555554 <_end+0x5554ea50>
    23f0:	02b54633          	div	a2,a0,a1
    23f4:	5ec0a823          	sw	a2,1520(ra)

000023f8 <inst_414>:
    23f8:	ffff5537          	lui	a0,0xffff5
    23fc:	afd50513          	addi	a0,a0,-1283 # ffff4afd <_end+0xfffedff9>
    2400:	00000593          	li	a1,0
    2404:	02b54633          	div	a2,a0,a1
    2408:	5ec0aa23          	sw	a2,1524(ra)

0000240c <inst_415>:
    240c:	ffff5537          	lui	a0,0xffff5
    2410:	afd50513          	addi	a0,a0,-1283 # ffff4afd <_end+0xfffedff9>
    2414:	00400593          	li	a1,4
    2418:	02b54633          	div	a2,a0,a1
    241c:	5ec0ac23          	sw	a2,1528(ra)

00002420 <inst_416>:
    2420:	ffff5537          	lui	a0,0xffff5
    2424:	afd50513          	addi	a0,a0,-1283 # ffff4afd <_end+0xfffedff9>
    2428:	333335b7          	lui	a1,0x33333
    242c:	33258593          	addi	a1,a1,818 # 33333332 <_end+0x3332c82e>
    2430:	02b54633          	div	a2,a0,a1
    2434:	5ec0ae23          	sw	a2,1532(ra)

00002438 <inst_417>:
    2438:	ffff5537          	lui	a0,0xffff5
    243c:	afd50513          	addi	a0,a0,-1283 # ffff4afd <_end+0xfffedff9>
    2440:	666665b7          	lui	a1,0x66666
    2444:	66558593          	addi	a1,a1,1637 # 66666665 <_end+0x6665fb61>
    2448:	02b54633          	div	a2,a0,a1
    244c:	60c0a023          	sw	a2,1536(ra)

00002450 <inst_418>:
    2450:	ffff5537          	lui	a0,0xffff5
    2454:	afd50513          	addi	a0,a0,-1283 # ffff4afd <_end+0xfffedff9>
    2458:	0000b5b7          	lui	a1,0xb
    245c:	50358593          	addi	a1,a1,1283 # b503 <_end+0x49ff>
    2460:	02b54633          	div	a2,a0,a1
    2464:	60c0a223          	sw	a2,1540(ra)

00002468 <inst_419>:
    2468:	ffff5537          	lui	a0,0xffff5
    246c:	afd50513          	addi	a0,a0,-1283 # ffff4afd <_end+0xfffedff9>
    2470:	555555b7          	lui	a1,0x55555
    2474:	55658593          	addi	a1,a1,1366 # 55555556 <_end+0x5554ea52>
    2478:	02b54633          	div	a2,a0,a1
    247c:	60c0a423          	sw	a2,1544(ra)

00002480 <inst_420>:
    2480:	ffff5537          	lui	a0,0xffff5
    2484:	afd50513          	addi	a0,a0,-1283 # ffff4afd <_end+0xfffedff9>
    2488:	aaaab5b7          	lui	a1,0xaaaab
    248c:	aab58593          	addi	a1,a1,-1365 # aaaaaaab <_end+0xaaaa3fa7>
    2490:	02b54633          	div	a2,a0,a1
    2494:	60c0a623          	sw	a2,1548(ra)

00002498 <inst_421>:
    2498:	ffff5537          	lui	a0,0xffff5
    249c:	afd50513          	addi	a0,a0,-1283 # ffff4afd <_end+0xfffedff9>
    24a0:	00600593          	li	a1,6
    24a4:	02b54633          	div	a2,a0,a1
    24a8:	60c0a823          	sw	a2,1552(ra)

000024ac <inst_422>:
    24ac:	ffff5537          	lui	a0,0xffff5
    24b0:	afd50513          	addi	a0,a0,-1283 # ffff4afd <_end+0xfffedff9>
    24b4:	333335b7          	lui	a1,0x33333
    24b8:	33458593          	addi	a1,a1,820 # 33333334 <_end+0x3332c830>
    24bc:	02b54633          	div	a2,a0,a1
    24c0:	60c0aa23          	sw	a2,1556(ra)

000024c4 <inst_423>:
    24c4:	ffff5537          	lui	a0,0xffff5
    24c8:	afd50513          	addi	a0,a0,-1283 # ffff4afd <_end+0xfffedff9>
    24cc:	666665b7          	lui	a1,0x66666
    24d0:	66758593          	addi	a1,a1,1639 # 66666667 <_end+0x6665fb63>
    24d4:	02b54633          	div	a2,a0,a1
    24d8:	60c0ac23          	sw	a2,1560(ra)

000024dc <inst_424>:
    24dc:	ffff5537          	lui	a0,0xffff5
    24e0:	afd50513          	addi	a0,a0,-1283 # ffff4afd <_end+0xfffedff9>
    24e4:	ffff55b7          	lui	a1,0xffff5
    24e8:	afd58593          	addi	a1,a1,-1283 # ffff4afd <_end+0xfffedff9>
    24ec:	02b54633          	div	a2,a0,a1
    24f0:	60c0ae23          	sw	a2,1564(ra)

000024f4 <inst_425>:
    24f4:	ffff5537          	lui	a0,0xffff5
    24f8:	afd50513          	addi	a0,a0,-1283 # ffff4afd <_end+0xfffedff9>
    24fc:	0000b5b7          	lui	a1,0xb
    2500:	50558593          	addi	a1,a1,1285 # b505 <_end+0x4a01>
    2504:	02b54633          	div	a2,a0,a1
    2508:	62c0a023          	sw	a2,1568(ra)

0000250c <inst_426>:
    250c:	0000b537          	lui	a0,0xb
    2510:	50550513          	addi	a0,a0,1285 # b505 <_end+0x4a01>
    2514:	00300593          	li	a1,3
    2518:	02b54633          	div	a2,a0,a1
    251c:	62c0a223          	sw	a2,1572(ra)

00002520 <inst_427>:
    2520:	0000b537          	lui	a0,0xb
    2524:	50550513          	addi	a0,a0,1285 # b505 <_end+0x4a01>
    2528:	555555b7          	lui	a1,0x55555
    252c:	55558593          	addi	a1,a1,1365 # 55555555 <_end+0x5554ea51>
    2530:	02b54633          	div	a2,a0,a1
    2534:	62c0a423          	sw	a2,1576(ra)

00002538 <inst_428>:
    2538:	0000b537          	lui	a0,0xb
    253c:	50550513          	addi	a0,a0,1285 # b505 <_end+0x4a01>
    2540:	aaaab5b7          	lui	a1,0xaaaab
    2544:	aaa58593          	addi	a1,a1,-1366 # aaaaaaaa <_end+0xaaaa3fa6>
    2548:	02b54633          	div	a2,a0,a1
    254c:	62c0a623          	sw	a2,1580(ra)

00002550 <inst_429>:
    2550:	0000b537          	lui	a0,0xb
    2554:	50550513          	addi	a0,a0,1285 # b505 <_end+0x4a01>
    2558:	00500593          	li	a1,5
    255c:	02b54633          	div	a2,a0,a1
    2560:	62c0a823          	sw	a2,1584(ra)

00002564 <inst_430>:
    2564:	0000b537          	lui	a0,0xb
    2568:	50550513          	addi	a0,a0,1285 # b505 <_end+0x4a01>
    256c:	333335b7          	lui	a1,0x33333
    2570:	33358593          	addi	a1,a1,819 # 33333333 <_end+0x3332c82f>
    2574:	02b54633          	div	a2,a0,a1
    2578:	62c0aa23          	sw	a2,1588(ra)

0000257c <inst_431>:
    257c:	0000b537          	lui	a0,0xb
    2580:	50550513          	addi	a0,a0,1285 # b505 <_end+0x4a01>
    2584:	666665b7          	lui	a1,0x66666
    2588:	66658593          	addi	a1,a1,1638 # 66666666 <_end+0x6665fb62>
    258c:	02b54633          	div	a2,a0,a1
    2590:	62c0ac23          	sw	a2,1592(ra)

00002594 <inst_432>:
    2594:	0000b537          	lui	a0,0xb
    2598:	50550513          	addi	a0,a0,1285 # b505 <_end+0x4a01>
    259c:	ffff55b7          	lui	a1,0xffff5
    25a0:	afc58593          	addi	a1,a1,-1284 # ffff4afc <_end+0xfffedff8>
    25a4:	02b54633          	div	a2,a0,a1
    25a8:	62c0ae23          	sw	a2,1596(ra)

000025ac <inst_433>:
    25ac:	0000b537          	lui	a0,0xb
    25b0:	50550513          	addi	a0,a0,1285 # b505 <_end+0x4a01>
    25b4:	0000b5b7          	lui	a1,0xb
    25b8:	50458593          	addi	a1,a1,1284 # b504 <_end+0x4a00>
    25bc:	02b54633          	div	a2,a0,a1
    25c0:	64c0a023          	sw	a2,1600(ra)

000025c4 <inst_434>:
    25c4:	0000b537          	lui	a0,0xb
    25c8:	50550513          	addi	a0,a0,1285 # b505 <_end+0x4a01>
    25cc:	00200593          	li	a1,2
    25d0:	02b54633          	div	a2,a0,a1
    25d4:	64c0a223          	sw	a2,1604(ra)

000025d8 <inst_435>:
    25d8:	0000b537          	lui	a0,0xb
    25dc:	50550513          	addi	a0,a0,1285 # b505 <_end+0x4a01>
    25e0:	555555b7          	lui	a1,0x55555
    25e4:	55458593          	addi	a1,a1,1364 # 55555554 <_end+0x5554ea50>
    25e8:	02b54633          	div	a2,a0,a1
    25ec:	64c0a423          	sw	a2,1608(ra)

000025f0 <inst_436>:
    25f0:	0000b537          	lui	a0,0xb
    25f4:	50550513          	addi	a0,a0,1285 # b505 <_end+0x4a01>
    25f8:	00000593          	li	a1,0
    25fc:	02b54633          	div	a2,a0,a1
    2600:	64c0a623          	sw	a2,1612(ra)

00002604 <inst_437>:
    2604:	0000b537          	lui	a0,0xb
    2608:	50550513          	addi	a0,a0,1285 # b505 <_end+0x4a01>
    260c:	00400593          	li	a1,4
    2610:	02b54633          	div	a2,a0,a1
    2614:	64c0a823          	sw	a2,1616(ra)

00002618 <inst_438>:
    2618:	0000b537          	lui	a0,0xb
    261c:	50550513          	addi	a0,a0,1285 # b505 <_end+0x4a01>
    2620:	333335b7          	lui	a1,0x33333
    2624:	33258593          	addi	a1,a1,818 # 33333332 <_end+0x3332c82e>
    2628:	02b54633          	div	a2,a0,a1
    262c:	64c0aa23          	sw	a2,1620(ra)

00002630 <inst_439>:
    2630:	0000b537          	lui	a0,0xb
    2634:	50550513          	addi	a0,a0,1285 # b505 <_end+0x4a01>
    2638:	666665b7          	lui	a1,0x66666
    263c:	66558593          	addi	a1,a1,1637 # 66666665 <_end+0x6665fb61>
    2640:	02b54633          	div	a2,a0,a1
    2644:	64c0ac23          	sw	a2,1624(ra)

00002648 <inst_440>:
    2648:	0000b537          	lui	a0,0xb
    264c:	50550513          	addi	a0,a0,1285 # b505 <_end+0x4a01>
    2650:	0000b5b7          	lui	a1,0xb
    2654:	50358593          	addi	a1,a1,1283 # b503 <_end+0x49ff>
    2658:	02b54633          	div	a2,a0,a1
    265c:	64c0ae23          	sw	a2,1628(ra)

00002660 <inst_441>:
    2660:	0000b537          	lui	a0,0xb
    2664:	50550513          	addi	a0,a0,1285 # b505 <_end+0x4a01>
    2668:	555555b7          	lui	a1,0x55555
    266c:	55658593          	addi	a1,a1,1366 # 55555556 <_end+0x5554ea52>
    2670:	02b54633          	div	a2,a0,a1
    2674:	66c0a023          	sw	a2,1632(ra)

00002678 <inst_442>:
    2678:	0000b537          	lui	a0,0xb
    267c:	50550513          	addi	a0,a0,1285 # b505 <_end+0x4a01>
    2680:	aaaab5b7          	lui	a1,0xaaaab
    2684:	aab58593          	addi	a1,a1,-1365 # aaaaaaab <_end+0xaaaa3fa7>
    2688:	02b54633          	div	a2,a0,a1
    268c:	66c0a223          	sw	a2,1636(ra)

00002690 <inst_443>:
    2690:	0000b537          	lui	a0,0xb
    2694:	50550513          	addi	a0,a0,1285 # b505 <_end+0x4a01>
    2698:	00600593          	li	a1,6
    269c:	02b54633          	div	a2,a0,a1
    26a0:	66c0a423          	sw	a2,1640(ra)

000026a4 <inst_444>:
    26a4:	0000b537          	lui	a0,0xb
    26a8:	50550513          	addi	a0,a0,1285 # b505 <_end+0x4a01>
    26ac:	333335b7          	lui	a1,0x33333
    26b0:	33458593          	addi	a1,a1,820 # 33333334 <_end+0x3332c830>
    26b4:	02b54633          	div	a2,a0,a1
    26b8:	66c0a623          	sw	a2,1644(ra)

000026bc <inst_445>:
    26bc:	0000b537          	lui	a0,0xb
    26c0:	50550513          	addi	a0,a0,1285 # b505 <_end+0x4a01>
    26c4:	666665b7          	lui	a1,0x66666
    26c8:	66758593          	addi	a1,a1,1639 # 66666667 <_end+0x6665fb63>
    26cc:	02b54633          	div	a2,a0,a1
    26d0:	66c0a823          	sw	a2,1648(ra)

000026d4 <inst_446>:
    26d4:	0000b537          	lui	a0,0xb
    26d8:	50550513          	addi	a0,a0,1285 # b505 <_end+0x4a01>
    26dc:	ffff55b7          	lui	a1,0xffff5
    26e0:	afd58593          	addi	a1,a1,-1283 # ffff4afd <_end+0xfffedff9>
    26e4:	02b54633          	div	a2,a0,a1
    26e8:	66c0aa23          	sw	a2,1652(ra)

000026ec <inst_447>:
    26ec:	0000b537          	lui	a0,0xb
    26f0:	50550513          	addi	a0,a0,1285 # b505 <_end+0x4a01>
    26f4:	0000b5b7          	lui	a1,0xb
    26f8:	50558593          	addi	a1,a1,1285 # b505 <_end+0x4a01>
    26fc:	02b54633          	div	a2,a0,a1
    2700:	66c0ac23          	sw	a2,1656(ra)

00002704 <inst_448>:
    2704:	00000513          	li	a0,0
    2708:	555555b7          	lui	a1,0x55555
    270c:	55458593          	addi	a1,a1,1364 # 55555554 <_end+0x5554ea50>
    2710:	02b54633          	div	a2,a0,a1
    2714:	66c0ae23          	sw	a2,1660(ra)

00002718 <inst_449>:
    2718:	00000513          	li	a0,0
    271c:	00000593          	li	a1,0
    2720:	02b54633          	div	a2,a0,a1
    2724:	68c0a023          	sw	a2,1664(ra)

00002728 <inst_450>:
    2728:	00000513          	li	a0,0
    272c:	00400593          	li	a1,4
    2730:	02b54633          	div	a2,a0,a1
    2734:	68c0a223          	sw	a2,1668(ra)

00002738 <inst_451>:
    2738:	00000513          	li	a0,0
    273c:	333335b7          	lui	a1,0x33333
    2740:	33258593          	addi	a1,a1,818 # 33333332 <_end+0x3332c82e>
    2744:	02b54633          	div	a2,a0,a1
    2748:	68c0a423          	sw	a2,1672(ra)

0000274c <inst_452>:
    274c:	00000513          	li	a0,0
    2750:	666665b7          	lui	a1,0x66666
    2754:	66558593          	addi	a1,a1,1637 # 66666665 <_end+0x6665fb61>
    2758:	02b54633          	div	a2,a0,a1
    275c:	68c0a623          	sw	a2,1676(ra)

00002760 <inst_453>:
    2760:	00000513          	li	a0,0
    2764:	0000b5b7          	lui	a1,0xb
    2768:	50358593          	addi	a1,a1,1283 # b503 <_end+0x49ff>
    276c:	02b54633          	div	a2,a0,a1
    2770:	68c0a823          	sw	a2,1680(ra)

00002774 <inst_454>:
    2774:	00000513          	li	a0,0
    2778:	555555b7          	lui	a1,0x55555
    277c:	55658593          	addi	a1,a1,1366 # 55555556 <_end+0x5554ea52>
    2780:	02b54633          	div	a2,a0,a1
    2784:	68c0aa23          	sw	a2,1684(ra)

00002788 <inst_455>:
    2788:	00000513          	li	a0,0
    278c:	aaaab5b7          	lui	a1,0xaaaab
    2790:	aab58593          	addi	a1,a1,-1365 # aaaaaaab <_end+0xaaaa3fa7>
    2794:	02b54633          	div	a2,a0,a1
    2798:	68c0ac23          	sw	a2,1688(ra)

0000279c <inst_456>:
    279c:	00000513          	li	a0,0
    27a0:	00600593          	li	a1,6
    27a4:	02b54633          	div	a2,a0,a1
    27a8:	68c0ae23          	sw	a2,1692(ra)

000027ac <inst_457>:
    27ac:	00000513          	li	a0,0
    27b0:	333335b7          	lui	a1,0x33333
    27b4:	33458593          	addi	a1,a1,820 # 33333334 <_end+0x3332c830>
    27b8:	02b54633          	div	a2,a0,a1
    27bc:	6ac0a023          	sw	a2,1696(ra)

000027c0 <inst_458>:
    27c0:	00000513          	li	a0,0
    27c4:	666665b7          	lui	a1,0x66666
    27c8:	66758593          	addi	a1,a1,1639 # 66666667 <_end+0x6665fb63>
    27cc:	02b54633          	div	a2,a0,a1
    27d0:	6ac0a223          	sw	a2,1700(ra)

000027d4 <inst_459>:
    27d4:	00000513          	li	a0,0
    27d8:	ffff55b7          	lui	a1,0xffff5
    27dc:	afd58593          	addi	a1,a1,-1283 # ffff4afd <_end+0xfffedff9>
    27e0:	02b54633          	div	a2,a0,a1
    27e4:	6ac0a423          	sw	a2,1704(ra)

000027e8 <inst_460>:
    27e8:	00000513          	li	a0,0
    27ec:	0000b5b7          	lui	a1,0xb
    27f0:	50558593          	addi	a1,a1,1285 # b505 <_end+0x4a01>
    27f4:	02b54633          	div	a2,a0,a1
    27f8:	6ac0a623          	sw	a2,1708(ra)

000027fc <inst_461>:
    27fc:	00400513          	li	a0,4
    2800:	00300593          	li	a1,3
    2804:	02b54633          	div	a2,a0,a1
    2808:	6ac0a823          	sw	a2,1712(ra)

0000280c <inst_462>:
    280c:	00400513          	li	a0,4
    2810:	555555b7          	lui	a1,0x55555
    2814:	55558593          	addi	a1,a1,1365 # 55555555 <_end+0x5554ea51>
    2818:	02b54633          	div	a2,a0,a1
    281c:	6ac0aa23          	sw	a2,1716(ra)

00002820 <inst_463>:
    2820:	00400513          	li	a0,4
    2824:	aaaab5b7          	lui	a1,0xaaaab
    2828:	aaa58593          	addi	a1,a1,-1366 # aaaaaaaa <_end+0xaaaa3fa6>
    282c:	02b54633          	div	a2,a0,a1
    2830:	6ac0ac23          	sw	a2,1720(ra)

00002834 <inst_464>:
    2834:	00400513          	li	a0,4
    2838:	00500593          	li	a1,5
    283c:	02b54633          	div	a2,a0,a1
    2840:	6ac0ae23          	sw	a2,1724(ra)

00002844 <inst_465>:
    2844:	00400513          	li	a0,4
    2848:	333335b7          	lui	a1,0x33333
    284c:	33358593          	addi	a1,a1,819 # 33333333 <_end+0x3332c82f>
    2850:	02b54633          	div	a2,a0,a1
    2854:	6cc0a023          	sw	a2,1728(ra)

00002858 <inst_466>:
    2858:	00400513          	li	a0,4
    285c:	666665b7          	lui	a1,0x66666
    2860:	66658593          	addi	a1,a1,1638 # 66666666 <_end+0x6665fb62>
    2864:	02b54633          	div	a2,a0,a1
    2868:	6cc0a223          	sw	a2,1732(ra)

0000286c <inst_467>:
    286c:	00400513          	li	a0,4
    2870:	ffff55b7          	lui	a1,0xffff5
    2874:	afc58593          	addi	a1,a1,-1284 # ffff4afc <_end+0xfffedff8>
    2878:	02b54633          	div	a2,a0,a1
    287c:	6cc0a423          	sw	a2,1736(ra)

00002880 <inst_468>:
    2880:	00400513          	li	a0,4
    2884:	0000b5b7          	lui	a1,0xb
    2888:	50458593          	addi	a1,a1,1284 # b504 <_end+0x4a00>
    288c:	02b54633          	div	a2,a0,a1
    2890:	6cc0a623          	sw	a2,1740(ra)

00002894 <inst_469>:
    2894:	00400513          	li	a0,4
    2898:	00200593          	li	a1,2
    289c:	02b54633          	div	a2,a0,a1
    28a0:	6cc0a823          	sw	a2,1744(ra)

000028a4 <inst_470>:
    28a4:	00400513          	li	a0,4
    28a8:	555555b7          	lui	a1,0x55555
    28ac:	55458593          	addi	a1,a1,1364 # 55555554 <_end+0x5554ea50>
    28b0:	02b54633          	div	a2,a0,a1
    28b4:	6cc0aa23          	sw	a2,1748(ra)

000028b8 <inst_471>:
    28b8:	00400513          	li	a0,4
    28bc:	00000593          	li	a1,0
    28c0:	02b54633          	div	a2,a0,a1
    28c4:	6cc0ac23          	sw	a2,1752(ra)

000028c8 <inst_472>:
    28c8:	00400513          	li	a0,4
    28cc:	00400593          	li	a1,4
    28d0:	02b54633          	div	a2,a0,a1
    28d4:	6cc0ae23          	sw	a2,1756(ra)

000028d8 <inst_473>:
    28d8:	00400513          	li	a0,4
    28dc:	333335b7          	lui	a1,0x33333
    28e0:	33258593          	addi	a1,a1,818 # 33333332 <_end+0x3332c82e>
    28e4:	02b54633          	div	a2,a0,a1
    28e8:	6ec0a023          	sw	a2,1760(ra)

000028ec <inst_474>:
    28ec:	00400513          	li	a0,4
    28f0:	666665b7          	lui	a1,0x66666
    28f4:	66558593          	addi	a1,a1,1637 # 66666665 <_end+0x6665fb61>
    28f8:	02b54633          	div	a2,a0,a1
    28fc:	6ec0a223          	sw	a2,1764(ra)

00002900 <inst_475>:
    2900:	00400513          	li	a0,4
    2904:	0000b5b7          	lui	a1,0xb
    2908:	50358593          	addi	a1,a1,1283 # b503 <_end+0x49ff>
    290c:	02b54633          	div	a2,a0,a1
    2910:	6ec0a423          	sw	a2,1768(ra)

00002914 <inst_476>:
    2914:	00400513          	li	a0,4
    2918:	555555b7          	lui	a1,0x55555
    291c:	55658593          	addi	a1,a1,1366 # 55555556 <_end+0x5554ea52>
    2920:	02b54633          	div	a2,a0,a1
    2924:	6ec0a623          	sw	a2,1772(ra)

00002928 <inst_477>:
    2928:	00400513          	li	a0,4
    292c:	aaaab5b7          	lui	a1,0xaaaab
    2930:	aab58593          	addi	a1,a1,-1365 # aaaaaaab <_end+0xaaaa3fa7>
    2934:	02b54633          	div	a2,a0,a1
    2938:	6ec0a823          	sw	a2,1776(ra)

0000293c <inst_478>:
    293c:	00400513          	li	a0,4
    2940:	00600593          	li	a1,6
    2944:	02b54633          	div	a2,a0,a1
    2948:	6ec0aa23          	sw	a2,1780(ra)

0000294c <inst_479>:
    294c:	00400513          	li	a0,4
    2950:	333335b7          	lui	a1,0x33333
    2954:	33458593          	addi	a1,a1,820 # 33333334 <_end+0x3332c830>
    2958:	02b54633          	div	a2,a0,a1
    295c:	6ec0ac23          	sw	a2,1784(ra)

00002960 <inst_480>:
    2960:	00400513          	li	a0,4
    2964:	666665b7          	lui	a1,0x66666
    2968:	66758593          	addi	a1,a1,1639 # 66666667 <_end+0x6665fb63>
    296c:	02b54633          	div	a2,a0,a1
    2970:	6ec0ae23          	sw	a2,1788(ra)

00002974 <inst_481>:
    2974:	00400513          	li	a0,4
    2978:	ffff55b7          	lui	a1,0xffff5
    297c:	afd58593          	addi	a1,a1,-1283 # ffff4afd <_end+0xfffedff9>
    2980:	02b54633          	div	a2,a0,a1
    2984:	70c0a023          	sw	a2,1792(ra)

00002988 <inst_482>:
    2988:	00400513          	li	a0,4
    298c:	0000b5b7          	lui	a1,0xb
    2990:	50558593          	addi	a1,a1,1285 # b505 <_end+0x4a01>
    2994:	02b54633          	div	a2,a0,a1
    2998:	70c0a223          	sw	a2,1796(ra)

0000299c <inst_483>:
    299c:	33333537          	lui	a0,0x33333
    29a0:	33250513          	addi	a0,a0,818 # 33333332 <_end+0x3332c82e>
    29a4:	00300593          	li	a1,3
    29a8:	02b54633          	div	a2,a0,a1
    29ac:	70c0a423          	sw	a2,1800(ra)

000029b0 <inst_484>:
    29b0:	33333537          	lui	a0,0x33333
    29b4:	33250513          	addi	a0,a0,818 # 33333332 <_end+0x3332c82e>
    29b8:	555555b7          	lui	a1,0x55555
    29bc:	55558593          	addi	a1,a1,1365 # 55555555 <_end+0x5554ea51>
    29c0:	02b54633          	div	a2,a0,a1
    29c4:	70c0a623          	sw	a2,1804(ra)

000029c8 <inst_485>:
    29c8:	33333537          	lui	a0,0x33333
    29cc:	33250513          	addi	a0,a0,818 # 33333332 <_end+0x3332c82e>
    29d0:	aaaab5b7          	lui	a1,0xaaaab
    29d4:	aaa58593          	addi	a1,a1,-1366 # aaaaaaaa <_end+0xaaaa3fa6>
    29d8:	02b54633          	div	a2,a0,a1
    29dc:	70c0a823          	sw	a2,1808(ra)

000029e0 <inst_486>:
    29e0:	33333537          	lui	a0,0x33333
    29e4:	33250513          	addi	a0,a0,818 # 33333332 <_end+0x3332c82e>
    29e8:	00500593          	li	a1,5
    29ec:	02b54633          	div	a2,a0,a1
    29f0:	70c0aa23          	sw	a2,1812(ra)

000029f4 <inst_487>:
    29f4:	33333537          	lui	a0,0x33333
    29f8:	33250513          	addi	a0,a0,818 # 33333332 <_end+0x3332c82e>
    29fc:	333335b7          	lui	a1,0x33333
    2a00:	33358593          	addi	a1,a1,819 # 33333333 <_end+0x3332c82f>
    2a04:	02b54633          	div	a2,a0,a1
    2a08:	70c0ac23          	sw	a2,1816(ra)

00002a0c <inst_488>:
    2a0c:	33333537          	lui	a0,0x33333
    2a10:	33250513          	addi	a0,a0,818 # 33333332 <_end+0x3332c82e>
    2a14:	666665b7          	lui	a1,0x66666
    2a18:	66658593          	addi	a1,a1,1638 # 66666666 <_end+0x6665fb62>
    2a1c:	02b54633          	div	a2,a0,a1
    2a20:	70c0ae23          	sw	a2,1820(ra)

00002a24 <inst_489>:
    2a24:	33333537          	lui	a0,0x33333
    2a28:	33250513          	addi	a0,a0,818 # 33333332 <_end+0x3332c82e>
    2a2c:	ffff55b7          	lui	a1,0xffff5
    2a30:	afc58593          	addi	a1,a1,-1284 # ffff4afc <_end+0xfffedff8>
    2a34:	02b54633          	div	a2,a0,a1
    2a38:	72c0a023          	sw	a2,1824(ra)

00002a3c <inst_490>:
    2a3c:	33333537          	lui	a0,0x33333
    2a40:	33250513          	addi	a0,a0,818 # 33333332 <_end+0x3332c82e>
    2a44:	0000b5b7          	lui	a1,0xb
    2a48:	50458593          	addi	a1,a1,1284 # b504 <_end+0x4a00>
    2a4c:	02b54633          	div	a2,a0,a1
    2a50:	72c0a223          	sw	a2,1828(ra)

00002a54 <inst_491>:
    2a54:	33333537          	lui	a0,0x33333
    2a58:	33250513          	addi	a0,a0,818 # 33333332 <_end+0x3332c82e>
    2a5c:	00200593          	li	a1,2
    2a60:	02b54633          	div	a2,a0,a1
    2a64:	72c0a423          	sw	a2,1832(ra)

00002a68 <inst_492>:
    2a68:	33333537          	lui	a0,0x33333
    2a6c:	33250513          	addi	a0,a0,818 # 33333332 <_end+0x3332c82e>
    2a70:	555555b7          	lui	a1,0x55555
    2a74:	55458593          	addi	a1,a1,1364 # 55555554 <_end+0x5554ea50>
    2a78:	02b54633          	div	a2,a0,a1
    2a7c:	72c0a623          	sw	a2,1836(ra)

00002a80 <inst_493>:
    2a80:	33333537          	lui	a0,0x33333
    2a84:	33250513          	addi	a0,a0,818 # 33333332 <_end+0x3332c82e>
    2a88:	00000593          	li	a1,0
    2a8c:	02b54633          	div	a2,a0,a1
    2a90:	72c0a823          	sw	a2,1840(ra)

00002a94 <inst_494>:
    2a94:	33333537          	lui	a0,0x33333
    2a98:	33250513          	addi	a0,a0,818 # 33333332 <_end+0x3332c82e>
    2a9c:	00400593          	li	a1,4
    2aa0:	02b54633          	div	a2,a0,a1
    2aa4:	72c0aa23          	sw	a2,1844(ra)

00002aa8 <inst_495>:
    2aa8:	33333537          	lui	a0,0x33333
    2aac:	33250513          	addi	a0,a0,818 # 33333332 <_end+0x3332c82e>
    2ab0:	333335b7          	lui	a1,0x33333
    2ab4:	33258593          	addi	a1,a1,818 # 33333332 <_end+0x3332c82e>
    2ab8:	02b54633          	div	a2,a0,a1
    2abc:	72c0ac23          	sw	a2,1848(ra)

00002ac0 <inst_496>:
    2ac0:	33333537          	lui	a0,0x33333
    2ac4:	33250513          	addi	a0,a0,818 # 33333332 <_end+0x3332c82e>
    2ac8:	666665b7          	lui	a1,0x66666
    2acc:	66558593          	addi	a1,a1,1637 # 66666665 <_end+0x6665fb61>
    2ad0:	02b54633          	div	a2,a0,a1
    2ad4:	72c0ae23          	sw	a2,1852(ra)

00002ad8 <inst_497>:
    2ad8:	33333537          	lui	a0,0x33333
    2adc:	33250513          	addi	a0,a0,818 # 33333332 <_end+0x3332c82e>
    2ae0:	0000b5b7          	lui	a1,0xb
    2ae4:	50358593          	addi	a1,a1,1283 # b503 <_end+0x49ff>
    2ae8:	02b54633          	div	a2,a0,a1
    2aec:	74c0a023          	sw	a2,1856(ra)

00002af0 <inst_498>:
    2af0:	33333537          	lui	a0,0x33333
    2af4:	33250513          	addi	a0,a0,818 # 33333332 <_end+0x3332c82e>
    2af8:	555555b7          	lui	a1,0x55555
    2afc:	55658593          	addi	a1,a1,1366 # 55555556 <_end+0x5554ea52>
    2b00:	02b54633          	div	a2,a0,a1
    2b04:	74c0a223          	sw	a2,1860(ra)

00002b08 <inst_499>:
    2b08:	33333537          	lui	a0,0x33333
    2b0c:	33250513          	addi	a0,a0,818 # 33333332 <_end+0x3332c82e>
    2b10:	aaaab5b7          	lui	a1,0xaaaab
    2b14:	aab58593          	addi	a1,a1,-1365 # aaaaaaab <_end+0xaaaa3fa7>
    2b18:	02b54633          	div	a2,a0,a1
    2b1c:	74c0a423          	sw	a2,1864(ra)

00002b20 <inst_500>:
    2b20:	33333537          	lui	a0,0x33333
    2b24:	33250513          	addi	a0,a0,818 # 33333332 <_end+0x3332c82e>
    2b28:	00600593          	li	a1,6
    2b2c:	02b54633          	div	a2,a0,a1
    2b30:	74c0a623          	sw	a2,1868(ra)

00002b34 <inst_501>:
    2b34:	33333537          	lui	a0,0x33333
    2b38:	33250513          	addi	a0,a0,818 # 33333332 <_end+0x3332c82e>
    2b3c:	333335b7          	lui	a1,0x33333
    2b40:	33458593          	addi	a1,a1,820 # 33333334 <_end+0x3332c830>
    2b44:	02b54633          	div	a2,a0,a1
    2b48:	74c0a823          	sw	a2,1872(ra)

00002b4c <inst_502>:
    2b4c:	33333537          	lui	a0,0x33333
    2b50:	33250513          	addi	a0,a0,818 # 33333332 <_end+0x3332c82e>
    2b54:	666665b7          	lui	a1,0x66666
    2b58:	66758593          	addi	a1,a1,1639 # 66666667 <_end+0x6665fb63>
    2b5c:	02b54633          	div	a2,a0,a1
    2b60:	74c0aa23          	sw	a2,1876(ra)

00002b64 <inst_503>:
    2b64:	33333537          	lui	a0,0x33333
    2b68:	33250513          	addi	a0,a0,818 # 33333332 <_end+0x3332c82e>
    2b6c:	ffff55b7          	lui	a1,0xffff5
    2b70:	afd58593          	addi	a1,a1,-1283 # ffff4afd <_end+0xfffedff9>
    2b74:	02b54633          	div	a2,a0,a1
    2b78:	74c0ac23          	sw	a2,1880(ra)

00002b7c <inst_504>:
    2b7c:	33333537          	lui	a0,0x33333
    2b80:	33250513          	addi	a0,a0,818 # 33333332 <_end+0x3332c82e>
    2b84:	0000b5b7          	lui	a1,0xb
    2b88:	50558593          	addi	a1,a1,1285 # b505 <_end+0x4a01>
    2b8c:	02b54633          	div	a2,a0,a1
    2b90:	74c0ae23          	sw	a2,1884(ra)

00002b94 <inst_505>:
    2b94:	66666537          	lui	a0,0x66666
    2b98:	66550513          	addi	a0,a0,1637 # 66666665 <_end+0x6665fb61>
    2b9c:	00300593          	li	a1,3
    2ba0:	02b54633          	div	a2,a0,a1
    2ba4:	76c0a023          	sw	a2,1888(ra)

00002ba8 <inst_506>:
    2ba8:	66666537          	lui	a0,0x66666
    2bac:	66550513          	addi	a0,a0,1637 # 66666665 <_end+0x6665fb61>
    2bb0:	555555b7          	lui	a1,0x55555
    2bb4:	55558593          	addi	a1,a1,1365 # 55555555 <_end+0x5554ea51>
    2bb8:	02b54633          	div	a2,a0,a1
    2bbc:	76c0a223          	sw	a2,1892(ra)

00002bc0 <inst_507>:
    2bc0:	66666537          	lui	a0,0x66666
    2bc4:	66550513          	addi	a0,a0,1637 # 66666665 <_end+0x6665fb61>
    2bc8:	aaaab5b7          	lui	a1,0xaaaab
    2bcc:	aaa58593          	addi	a1,a1,-1366 # aaaaaaaa <_end+0xaaaa3fa6>
    2bd0:	02b54633          	div	a2,a0,a1
    2bd4:	76c0a423          	sw	a2,1896(ra)

00002bd8 <inst_508>:
    2bd8:	66666537          	lui	a0,0x66666
    2bdc:	66550513          	addi	a0,a0,1637 # 66666665 <_end+0x6665fb61>
    2be0:	00500593          	li	a1,5
    2be4:	02b54633          	div	a2,a0,a1
    2be8:	76c0a623          	sw	a2,1900(ra)

00002bec <inst_509>:
    2bec:	66666537          	lui	a0,0x66666
    2bf0:	66550513          	addi	a0,a0,1637 # 66666665 <_end+0x6665fb61>
    2bf4:	333335b7          	lui	a1,0x33333
    2bf8:	33358593          	addi	a1,a1,819 # 33333333 <_end+0x3332c82f>
    2bfc:	02b54633          	div	a2,a0,a1
    2c00:	76c0a823          	sw	a2,1904(ra)

00002c04 <inst_510>:
    2c04:	66666537          	lui	a0,0x66666
    2c08:	66550513          	addi	a0,a0,1637 # 66666665 <_end+0x6665fb61>
    2c0c:	666665b7          	lui	a1,0x66666
    2c10:	66658593          	addi	a1,a1,1638 # 66666666 <_end+0x6665fb62>
    2c14:	02b54633          	div	a2,a0,a1
    2c18:	76c0aa23          	sw	a2,1908(ra)

00002c1c <inst_511>:
    2c1c:	66666537          	lui	a0,0x66666
    2c20:	66550513          	addi	a0,a0,1637 # 66666665 <_end+0x6665fb61>
    2c24:	ffff55b7          	lui	a1,0xffff5
    2c28:	afc58593          	addi	a1,a1,-1284 # ffff4afc <_end+0xfffedff8>
    2c2c:	02b54633          	div	a2,a0,a1
    2c30:	76c0ac23          	sw	a2,1912(ra)

00002c34 <inst_512>:
    2c34:	66666537          	lui	a0,0x66666
    2c38:	66550513          	addi	a0,a0,1637 # 66666665 <_end+0x6665fb61>
    2c3c:	0000b5b7          	lui	a1,0xb
    2c40:	50458593          	addi	a1,a1,1284 # b504 <_end+0x4a00>
    2c44:	02b54633          	div	a2,a0,a1
    2c48:	76c0ae23          	sw	a2,1916(ra)

00002c4c <inst_513>:
    2c4c:	66666537          	lui	a0,0x66666
    2c50:	66550513          	addi	a0,a0,1637 # 66666665 <_end+0x6665fb61>
    2c54:	00200593          	li	a1,2
    2c58:	02b54633          	div	a2,a0,a1
    2c5c:	78c0a023          	sw	a2,1920(ra)

00002c60 <inst_514>:
    2c60:	66666537          	lui	a0,0x66666
    2c64:	66550513          	addi	a0,a0,1637 # 66666665 <_end+0x6665fb61>
    2c68:	555555b7          	lui	a1,0x55555
    2c6c:	55458593          	addi	a1,a1,1364 # 55555554 <_end+0x5554ea50>
    2c70:	02b54633          	div	a2,a0,a1
    2c74:	78c0a223          	sw	a2,1924(ra)

00002c78 <inst_515>:
    2c78:	66666537          	lui	a0,0x66666
    2c7c:	66550513          	addi	a0,a0,1637 # 66666665 <_end+0x6665fb61>
    2c80:	00000593          	li	a1,0
    2c84:	02b54633          	div	a2,a0,a1
    2c88:	78c0a423          	sw	a2,1928(ra)

00002c8c <inst_516>:
    2c8c:	66666537          	lui	a0,0x66666
    2c90:	66550513          	addi	a0,a0,1637 # 66666665 <_end+0x6665fb61>
    2c94:	00400593          	li	a1,4
    2c98:	02b54633          	div	a2,a0,a1
    2c9c:	78c0a623          	sw	a2,1932(ra)

00002ca0 <inst_517>:
    2ca0:	66666537          	lui	a0,0x66666
    2ca4:	66550513          	addi	a0,a0,1637 # 66666665 <_end+0x6665fb61>
    2ca8:	333335b7          	lui	a1,0x33333
    2cac:	33258593          	addi	a1,a1,818 # 33333332 <_end+0x3332c82e>
    2cb0:	02b54633          	div	a2,a0,a1
    2cb4:	78c0a823          	sw	a2,1936(ra)

00002cb8 <inst_518>:
    2cb8:	66666537          	lui	a0,0x66666
    2cbc:	66550513          	addi	a0,a0,1637 # 66666665 <_end+0x6665fb61>
    2cc0:	666665b7          	lui	a1,0x66666
    2cc4:	66558593          	addi	a1,a1,1637 # 66666665 <_end+0x6665fb61>
    2cc8:	02b54633          	div	a2,a0,a1
    2ccc:	78c0aa23          	sw	a2,1940(ra)

00002cd0 <inst_519>:
    2cd0:	66666537          	lui	a0,0x66666
    2cd4:	66550513          	addi	a0,a0,1637 # 66666665 <_end+0x6665fb61>
    2cd8:	0000b5b7          	lui	a1,0xb
    2cdc:	50358593          	addi	a1,a1,1283 # b503 <_end+0x49ff>
    2ce0:	02b54633          	div	a2,a0,a1
    2ce4:	78c0ac23          	sw	a2,1944(ra)

00002ce8 <inst_520>:
    2ce8:	66666537          	lui	a0,0x66666
    2cec:	66550513          	addi	a0,a0,1637 # 66666665 <_end+0x6665fb61>
    2cf0:	555555b7          	lui	a1,0x55555
    2cf4:	55658593          	addi	a1,a1,1366 # 55555556 <_end+0x5554ea52>
    2cf8:	02b54633          	div	a2,a0,a1
    2cfc:	78c0ae23          	sw	a2,1948(ra)

00002d00 <inst_521>:
    2d00:	66666537          	lui	a0,0x66666
    2d04:	66550513          	addi	a0,a0,1637 # 66666665 <_end+0x6665fb61>
    2d08:	aaaab5b7          	lui	a1,0xaaaab
    2d0c:	aab58593          	addi	a1,a1,-1365 # aaaaaaab <_end+0xaaaa3fa7>
    2d10:	02b54633          	div	a2,a0,a1
    2d14:	7ac0a023          	sw	a2,1952(ra)

00002d18 <inst_522>:
    2d18:	66666537          	lui	a0,0x66666
    2d1c:	66550513          	addi	a0,a0,1637 # 66666665 <_end+0x6665fb61>
    2d20:	00600593          	li	a1,6
    2d24:	02b54633          	div	a2,a0,a1
    2d28:	7ac0a223          	sw	a2,1956(ra)

00002d2c <inst_523>:
    2d2c:	66666537          	lui	a0,0x66666
    2d30:	66550513          	addi	a0,a0,1637 # 66666665 <_end+0x6665fb61>
    2d34:	333335b7          	lui	a1,0x33333
    2d38:	33458593          	addi	a1,a1,820 # 33333334 <_end+0x3332c830>
    2d3c:	02b54633          	div	a2,a0,a1
    2d40:	7ac0a423          	sw	a2,1960(ra)

00002d44 <inst_524>:
    2d44:	66666537          	lui	a0,0x66666
    2d48:	66550513          	addi	a0,a0,1637 # 66666665 <_end+0x6665fb61>
    2d4c:	666665b7          	lui	a1,0x66666
    2d50:	66758593          	addi	a1,a1,1639 # 66666667 <_end+0x6665fb63>
    2d54:	02b54633          	div	a2,a0,a1
    2d58:	7ac0a623          	sw	a2,1964(ra)

00002d5c <inst_525>:
    2d5c:	66666537          	lui	a0,0x66666
    2d60:	66550513          	addi	a0,a0,1637 # 66666665 <_end+0x6665fb61>
    2d64:	ffff55b7          	lui	a1,0xffff5
    2d68:	afd58593          	addi	a1,a1,-1283 # ffff4afd <_end+0xfffedff9>
    2d6c:	02b54633          	div	a2,a0,a1
    2d70:	7ac0a823          	sw	a2,1968(ra)

00002d74 <inst_526>:
    2d74:	66666537          	lui	a0,0x66666
    2d78:	66550513          	addi	a0,a0,1637 # 66666665 <_end+0x6665fb61>
    2d7c:	0000b5b7          	lui	a1,0xb
    2d80:	50558593          	addi	a1,a1,1285 # b505 <_end+0x4a01>
    2d84:	02b54633          	div	a2,a0,a1
    2d88:	7ac0aa23          	sw	a2,1972(ra)

00002d8c <inst_527>:
    2d8c:	0000b537          	lui	a0,0xb
    2d90:	50350513          	addi	a0,a0,1283 # b503 <_end+0x49ff>
    2d94:	00300593          	li	a1,3
    2d98:	02b54633          	div	a2,a0,a1
    2d9c:	7ac0ac23          	sw	a2,1976(ra)

00002da0 <inst_528>:
    2da0:	0000b537          	lui	a0,0xb
    2da4:	50350513          	addi	a0,a0,1283 # b503 <_end+0x49ff>
    2da8:	555555b7          	lui	a1,0x55555
    2dac:	55558593          	addi	a1,a1,1365 # 55555555 <_end+0x5554ea51>
    2db0:	02b54633          	div	a2,a0,a1
    2db4:	7ac0ae23          	sw	a2,1980(ra)

00002db8 <inst_529>:
    2db8:	0000b537          	lui	a0,0xb
    2dbc:	50350513          	addi	a0,a0,1283 # b503 <_end+0x49ff>
    2dc0:	aaaab5b7          	lui	a1,0xaaaab
    2dc4:	aaa58593          	addi	a1,a1,-1366 # aaaaaaaa <_end+0xaaaa3fa6>
    2dc8:	02b54633          	div	a2,a0,a1
    2dcc:	7cc0a023          	sw	a2,1984(ra)

00002dd0 <inst_530>:
    2dd0:	0000b537          	lui	a0,0xb
    2dd4:	50350513          	addi	a0,a0,1283 # b503 <_end+0x49ff>
    2dd8:	00500593          	li	a1,5
    2ddc:	02b54633          	div	a2,a0,a1
    2de0:	7cc0a223          	sw	a2,1988(ra)

00002de4 <inst_531>:
    2de4:	0000b537          	lui	a0,0xb
    2de8:	50350513          	addi	a0,a0,1283 # b503 <_end+0x49ff>
    2dec:	333335b7          	lui	a1,0x33333
    2df0:	33358593          	addi	a1,a1,819 # 33333333 <_end+0x3332c82f>
    2df4:	02b54633          	div	a2,a0,a1
    2df8:	7cc0a423          	sw	a2,1992(ra)

00002dfc <inst_532>:
    2dfc:	0000b537          	lui	a0,0xb
    2e00:	50350513          	addi	a0,a0,1283 # b503 <_end+0x49ff>
    2e04:	666665b7          	lui	a1,0x66666
    2e08:	66658593          	addi	a1,a1,1638 # 66666666 <_end+0x6665fb62>
    2e0c:	02b54633          	div	a2,a0,a1
    2e10:	7cc0a623          	sw	a2,1996(ra)

00002e14 <inst_533>:
    2e14:	0000b537          	lui	a0,0xb
    2e18:	50350513          	addi	a0,a0,1283 # b503 <_end+0x49ff>
    2e1c:	ffff55b7          	lui	a1,0xffff5
    2e20:	afc58593          	addi	a1,a1,-1284 # ffff4afc <_end+0xfffedff8>
    2e24:	02b54633          	div	a2,a0,a1
    2e28:	7cc0a823          	sw	a2,2000(ra)

00002e2c <inst_534>:
    2e2c:	0000b537          	lui	a0,0xb
    2e30:	50350513          	addi	a0,a0,1283 # b503 <_end+0x49ff>
    2e34:	0000b5b7          	lui	a1,0xb
    2e38:	50458593          	addi	a1,a1,1284 # b504 <_end+0x4a00>
    2e3c:	02b54633          	div	a2,a0,a1
    2e40:	7cc0aa23          	sw	a2,2004(ra)

00002e44 <inst_535>:
    2e44:	0000b537          	lui	a0,0xb
    2e48:	50350513          	addi	a0,a0,1283 # b503 <_end+0x49ff>
    2e4c:	00200593          	li	a1,2
    2e50:	02b54633          	div	a2,a0,a1
    2e54:	7cc0ac23          	sw	a2,2008(ra)

00002e58 <inst_536>:
    2e58:	0000b537          	lui	a0,0xb
    2e5c:	50350513          	addi	a0,a0,1283 # b503 <_end+0x49ff>
    2e60:	555555b7          	lui	a1,0x55555
    2e64:	55458593          	addi	a1,a1,1364 # 55555554 <_end+0x5554ea50>
    2e68:	02b54633          	div	a2,a0,a1
    2e6c:	7cc0ae23          	sw	a2,2012(ra)

00002e70 <inst_537>:
    2e70:	0000b537          	lui	a0,0xb
    2e74:	50350513          	addi	a0,a0,1283 # b503 <_end+0x49ff>
    2e78:	00000593          	li	a1,0
    2e7c:	02b54633          	div	a2,a0,a1
    2e80:	7ec0a023          	sw	a2,2016(ra)

00002e84 <inst_538>:
    2e84:	0000b537          	lui	a0,0xb
    2e88:	50350513          	addi	a0,a0,1283 # b503 <_end+0x49ff>
    2e8c:	00400593          	li	a1,4
    2e90:	02b54633          	div	a2,a0,a1
    2e94:	7ec0a223          	sw	a2,2020(ra)

00002e98 <inst_539>:
    2e98:	0000b537          	lui	a0,0xb
    2e9c:	50350513          	addi	a0,a0,1283 # b503 <_end+0x49ff>
    2ea0:	333335b7          	lui	a1,0x33333
    2ea4:	33258593          	addi	a1,a1,818 # 33333332 <_end+0x3332c82e>
    2ea8:	02b54633          	div	a2,a0,a1
    2eac:	7ec0a423          	sw	a2,2024(ra)

00002eb0 <inst_540>:
    2eb0:	0000b537          	lui	a0,0xb
    2eb4:	50350513          	addi	a0,a0,1283 # b503 <_end+0x49ff>
    2eb8:	666665b7          	lui	a1,0x66666
    2ebc:	66558593          	addi	a1,a1,1637 # 66666665 <_end+0x6665fb61>
    2ec0:	02b54633          	div	a2,a0,a1
    2ec4:	7ec0a623          	sw	a2,2028(ra)

00002ec8 <inst_541>:
    2ec8:	0000b537          	lui	a0,0xb
    2ecc:	50350513          	addi	a0,a0,1283 # b503 <_end+0x49ff>
    2ed0:	0000b5b7          	lui	a1,0xb
    2ed4:	50358593          	addi	a1,a1,1283 # b503 <_end+0x49ff>
    2ed8:	02b54633          	div	a2,a0,a1
    2edc:	7ec0a823          	sw	a2,2032(ra)

00002ee0 <inst_542>:
    2ee0:	0000b537          	lui	a0,0xb
    2ee4:	50350513          	addi	a0,a0,1283 # b503 <_end+0x49ff>
    2ee8:	555555b7          	lui	a1,0x55555
    2eec:	55658593          	addi	a1,a1,1366 # 55555556 <_end+0x5554ea52>
    2ef0:	02b54633          	div	a2,a0,a1
    2ef4:	7ec0aa23          	sw	a2,2036(ra)

00002ef8 <inst_543>:
    2ef8:	0000b537          	lui	a0,0xb
    2efc:	50350513          	addi	a0,a0,1283 # b503 <_end+0x49ff>
    2f00:	aaaab5b7          	lui	a1,0xaaaab
    2f04:	aab58593          	addi	a1,a1,-1365 # aaaaaaab <_end+0xaaaa3fa7>
    2f08:	02b54633          	div	a2,a0,a1
    2f0c:	7ec0ac23          	sw	a2,2040(ra)

00002f10 <inst_544>:
    2f10:	0000b537          	lui	a0,0xb
    2f14:	50350513          	addi	a0,a0,1283 # b503 <_end+0x49ff>
    2f18:	00600593          	li	a1,6
    2f1c:	02b54633          	div	a2,a0,a1
    2f20:	7ec0ae23          	sw	a2,2044(ra)
    2f24:	00004097          	auipc	ra,0x4
    2f28:	96008093          	addi	ra,ra,-1696 # 6884 <signature_x1_1>

00002f2c <inst_545>:
    2f2c:	0000b537          	lui	a0,0xb
    2f30:	50350513          	addi	a0,a0,1283 # b503 <_end+0x49ff>
    2f34:	333335b7          	lui	a1,0x33333
    2f38:	33458593          	addi	a1,a1,820 # 33333334 <_end+0x3332c830>
    2f3c:	02b54633          	div	a2,a0,a1
    2f40:	00c0a023          	sw	a2,0(ra)

00002f44 <inst_546>:
    2f44:	0000b537          	lui	a0,0xb
    2f48:	50350513          	addi	a0,a0,1283 # b503 <_end+0x49ff>
    2f4c:	666665b7          	lui	a1,0x66666
    2f50:	66758593          	addi	a1,a1,1639 # 66666667 <_end+0x6665fb63>
    2f54:	02b54633          	div	a2,a0,a1
    2f58:	00c0a223          	sw	a2,4(ra)

00002f5c <inst_547>:
    2f5c:	0000b537          	lui	a0,0xb
    2f60:	50350513          	addi	a0,a0,1283 # b503 <_end+0x49ff>
    2f64:	ffff55b7          	lui	a1,0xffff5
    2f68:	afd58593          	addi	a1,a1,-1283 # ffff4afd <_end+0xfffedff9>
    2f6c:	02b54633          	div	a2,a0,a1
    2f70:	00c0a423          	sw	a2,8(ra)

00002f74 <inst_548>:
    2f74:	0000b537          	lui	a0,0xb
    2f78:	50350513          	addi	a0,a0,1283 # b503 <_end+0x49ff>
    2f7c:	0000b5b7          	lui	a1,0xb
    2f80:	50558593          	addi	a1,a1,1285 # b505 <_end+0x4a01>
    2f84:	02b54633          	div	a2,a0,a1
    2f88:	00c0a623          	sw	a2,12(ra)

00002f8c <inst_549>:
    2f8c:	55555537          	lui	a0,0x55555
    2f90:	55650513          	addi	a0,a0,1366 # 55555556 <_end+0x5554ea52>
    2f94:	00300593          	li	a1,3
    2f98:	02b54633          	div	a2,a0,a1
    2f9c:	00c0a823          	sw	a2,16(ra)

00002fa0 <inst_550>:
    2fa0:	55555537          	lui	a0,0x55555
    2fa4:	55650513          	addi	a0,a0,1366 # 55555556 <_end+0x5554ea52>
    2fa8:	555555b7          	lui	a1,0x55555
    2fac:	55558593          	addi	a1,a1,1365 # 55555555 <_end+0x5554ea51>
    2fb0:	02b54633          	div	a2,a0,a1
    2fb4:	00c0aa23          	sw	a2,20(ra)

00002fb8 <inst_551>:
    2fb8:	55555537          	lui	a0,0x55555
    2fbc:	55650513          	addi	a0,a0,1366 # 55555556 <_end+0x5554ea52>
    2fc0:	aaaab5b7          	lui	a1,0xaaaab
    2fc4:	aaa58593          	addi	a1,a1,-1366 # aaaaaaaa <_end+0xaaaa3fa6>
    2fc8:	02b54633          	div	a2,a0,a1
    2fcc:	00c0ac23          	sw	a2,24(ra)

00002fd0 <inst_552>:
    2fd0:	55555537          	lui	a0,0x55555
    2fd4:	55650513          	addi	a0,a0,1366 # 55555556 <_end+0x5554ea52>
    2fd8:	00500593          	li	a1,5
    2fdc:	02b54633          	div	a2,a0,a1
    2fe0:	00c0ae23          	sw	a2,28(ra)

00002fe4 <inst_553>:
    2fe4:	55555537          	lui	a0,0x55555
    2fe8:	55650513          	addi	a0,a0,1366 # 55555556 <_end+0x5554ea52>
    2fec:	333335b7          	lui	a1,0x33333
    2ff0:	33358593          	addi	a1,a1,819 # 33333333 <_end+0x3332c82f>
    2ff4:	02b54633          	div	a2,a0,a1
    2ff8:	02c0a023          	sw	a2,32(ra)

00002ffc <inst_554>:
    2ffc:	55555537          	lui	a0,0x55555
    3000:	55650513          	addi	a0,a0,1366 # 55555556 <_end+0x5554ea52>
    3004:	666665b7          	lui	a1,0x66666
    3008:	66658593          	addi	a1,a1,1638 # 66666666 <_end+0x6665fb62>
    300c:	02b54633          	div	a2,a0,a1
    3010:	02c0a223          	sw	a2,36(ra)

00003014 <inst_555>:
    3014:	55555537          	lui	a0,0x55555
    3018:	55650513          	addi	a0,a0,1366 # 55555556 <_end+0x5554ea52>
    301c:	ffff55b7          	lui	a1,0xffff5
    3020:	afc58593          	addi	a1,a1,-1284 # ffff4afc <_end+0xfffedff8>
    3024:	02b54633          	div	a2,a0,a1
    3028:	02c0a423          	sw	a2,40(ra)

0000302c <inst_556>:
    302c:	55555537          	lui	a0,0x55555
    3030:	55650513          	addi	a0,a0,1366 # 55555556 <_end+0x5554ea52>
    3034:	0000b5b7          	lui	a1,0xb
    3038:	50458593          	addi	a1,a1,1284 # b504 <_end+0x4a00>
    303c:	02b54633          	div	a2,a0,a1
    3040:	02c0a623          	sw	a2,44(ra)

00003044 <inst_557>:
    3044:	55555537          	lui	a0,0x55555
    3048:	55650513          	addi	a0,a0,1366 # 55555556 <_end+0x5554ea52>
    304c:	00200593          	li	a1,2
    3050:	02b54633          	div	a2,a0,a1
    3054:	02c0a823          	sw	a2,48(ra)

00003058 <inst_558>:
    3058:	55555537          	lui	a0,0x55555
    305c:	55650513          	addi	a0,a0,1366 # 55555556 <_end+0x5554ea52>
    3060:	555555b7          	lui	a1,0x55555
    3064:	55458593          	addi	a1,a1,1364 # 55555554 <_end+0x5554ea50>
    3068:	02b54633          	div	a2,a0,a1
    306c:	02c0aa23          	sw	a2,52(ra)

00003070 <inst_559>:
    3070:	55555537          	lui	a0,0x55555
    3074:	55650513          	addi	a0,a0,1366 # 55555556 <_end+0x5554ea52>
    3078:	00000593          	li	a1,0
    307c:	02b54633          	div	a2,a0,a1
    3080:	02c0ac23          	sw	a2,56(ra)

00003084 <inst_560>:
    3084:	55555537          	lui	a0,0x55555
    3088:	55650513          	addi	a0,a0,1366 # 55555556 <_end+0x5554ea52>
    308c:	00400593          	li	a1,4
    3090:	02b54633          	div	a2,a0,a1
    3094:	02c0ae23          	sw	a2,60(ra)

00003098 <inst_561>:
    3098:	55555537          	lui	a0,0x55555
    309c:	55650513          	addi	a0,a0,1366 # 55555556 <_end+0x5554ea52>
    30a0:	333335b7          	lui	a1,0x33333
    30a4:	33258593          	addi	a1,a1,818 # 33333332 <_end+0x3332c82e>
    30a8:	02b54633          	div	a2,a0,a1
    30ac:	04c0a023          	sw	a2,64(ra)

000030b0 <inst_562>:
    30b0:	55555537          	lui	a0,0x55555
    30b4:	55650513          	addi	a0,a0,1366 # 55555556 <_end+0x5554ea52>
    30b8:	666665b7          	lui	a1,0x66666
    30bc:	66558593          	addi	a1,a1,1637 # 66666665 <_end+0x6665fb61>
    30c0:	02b54633          	div	a2,a0,a1
    30c4:	04c0a223          	sw	a2,68(ra)

000030c8 <inst_563>:
    30c8:	55555537          	lui	a0,0x55555
    30cc:	55650513          	addi	a0,a0,1366 # 55555556 <_end+0x5554ea52>
    30d0:	0000b5b7          	lui	a1,0xb
    30d4:	50358593          	addi	a1,a1,1283 # b503 <_end+0x49ff>
    30d8:	02b54633          	div	a2,a0,a1
    30dc:	04c0a423          	sw	a2,72(ra)

000030e0 <inst_564>:
    30e0:	55555537          	lui	a0,0x55555
    30e4:	55650513          	addi	a0,a0,1366 # 55555556 <_end+0x5554ea52>
    30e8:	555555b7          	lui	a1,0x55555
    30ec:	55658593          	addi	a1,a1,1366 # 55555556 <_end+0x5554ea52>
    30f0:	02b54633          	div	a2,a0,a1
    30f4:	04c0a623          	sw	a2,76(ra)

000030f8 <inst_565>:
    30f8:	55555537          	lui	a0,0x55555
    30fc:	55650513          	addi	a0,a0,1366 # 55555556 <_end+0x5554ea52>
    3100:	aaaab5b7          	lui	a1,0xaaaab
    3104:	aab58593          	addi	a1,a1,-1365 # aaaaaaab <_end+0xaaaa3fa7>
    3108:	02b54633          	div	a2,a0,a1
    310c:	04c0a823          	sw	a2,80(ra)

00003110 <inst_566>:
    3110:	55555537          	lui	a0,0x55555
    3114:	55650513          	addi	a0,a0,1366 # 55555556 <_end+0x5554ea52>
    3118:	00600593          	li	a1,6
    311c:	02b54633          	div	a2,a0,a1
    3120:	04c0aa23          	sw	a2,84(ra)

00003124 <inst_567>:
    3124:	55555537          	lui	a0,0x55555
    3128:	55650513          	addi	a0,a0,1366 # 55555556 <_end+0x5554ea52>
    312c:	333335b7          	lui	a1,0x33333
    3130:	33458593          	addi	a1,a1,820 # 33333334 <_end+0x3332c830>
    3134:	02b54633          	div	a2,a0,a1
    3138:	04c0ac23          	sw	a2,88(ra)

0000313c <inst_568>:
    313c:	55555537          	lui	a0,0x55555
    3140:	55650513          	addi	a0,a0,1366 # 55555556 <_end+0x5554ea52>
    3144:	666665b7          	lui	a1,0x66666
    3148:	66758593          	addi	a1,a1,1639 # 66666667 <_end+0x6665fb63>
    314c:	02b54633          	div	a2,a0,a1
    3150:	04c0ae23          	sw	a2,92(ra)

00003154 <inst_569>:
    3154:	55555537          	lui	a0,0x55555
    3158:	55650513          	addi	a0,a0,1366 # 55555556 <_end+0x5554ea52>
    315c:	ffff55b7          	lui	a1,0xffff5
    3160:	afd58593          	addi	a1,a1,-1283 # ffff4afd <_end+0xfffedff9>
    3164:	02b54633          	div	a2,a0,a1
    3168:	06c0a023          	sw	a2,96(ra)

0000316c <inst_570>:
    316c:	55555537          	lui	a0,0x55555
    3170:	55650513          	addi	a0,a0,1366 # 55555556 <_end+0x5554ea52>
    3174:	0000b5b7          	lui	a1,0xb
    3178:	50558593          	addi	a1,a1,1285 # b505 <_end+0x4a01>
    317c:	02b54633          	div	a2,a0,a1
    3180:	06c0a223          	sw	a2,100(ra)

00003184 <inst_571>:
    3184:	aaaab537          	lui	a0,0xaaaab
    3188:	aab50513          	addi	a0,a0,-1365 # aaaaaaab <_end+0xaaaa3fa7>
    318c:	00300593          	li	a1,3
    3190:	02b54633          	div	a2,a0,a1
    3194:	06c0a423          	sw	a2,104(ra)

00003198 <inst_572>:
    3198:	aaaab537          	lui	a0,0xaaaab
    319c:	aab50513          	addi	a0,a0,-1365 # aaaaaaab <_end+0xaaaa3fa7>
    31a0:	555555b7          	lui	a1,0x55555
    31a4:	55558593          	addi	a1,a1,1365 # 55555555 <_end+0x5554ea51>
    31a8:	02b54633          	div	a2,a0,a1
    31ac:	06c0a623          	sw	a2,108(ra)

000031b0 <inst_573>:
    31b0:	aaaab537          	lui	a0,0xaaaab
    31b4:	aab50513          	addi	a0,a0,-1365 # aaaaaaab <_end+0xaaaa3fa7>
    31b8:	aaaab5b7          	lui	a1,0xaaaab
    31bc:	aaa58593          	addi	a1,a1,-1366 # aaaaaaaa <_end+0xaaaa3fa6>
    31c0:	02b54633          	div	a2,a0,a1
    31c4:	06c0a823          	sw	a2,112(ra)

000031c8 <inst_574>:
    31c8:	aaaab537          	lui	a0,0xaaaab
    31cc:	aab50513          	addi	a0,a0,-1365 # aaaaaaab <_end+0xaaaa3fa7>
    31d0:	00500593          	li	a1,5
    31d4:	02b54633          	div	a2,a0,a1
    31d8:	06c0aa23          	sw	a2,116(ra)

000031dc <inst_575>:
    31dc:	aaaab537          	lui	a0,0xaaaab
    31e0:	aab50513          	addi	a0,a0,-1365 # aaaaaaab <_end+0xaaaa3fa7>
    31e4:	333335b7          	lui	a1,0x33333
    31e8:	33358593          	addi	a1,a1,819 # 33333333 <_end+0x3332c82f>
    31ec:	02b54633          	div	a2,a0,a1
    31f0:	06c0ac23          	sw	a2,120(ra)

000031f4 <inst_576>:
    31f4:	aaaab537          	lui	a0,0xaaaab
    31f8:	aab50513          	addi	a0,a0,-1365 # aaaaaaab <_end+0xaaaa3fa7>
    31fc:	666665b7          	lui	a1,0x66666
    3200:	66658593          	addi	a1,a1,1638 # 66666666 <_end+0x6665fb62>
    3204:	02b54633          	div	a2,a0,a1
    3208:	06c0ae23          	sw	a2,124(ra)

0000320c <inst_577>:
    320c:	aaaab537          	lui	a0,0xaaaab
    3210:	aab50513          	addi	a0,a0,-1365 # aaaaaaab <_end+0xaaaa3fa7>
    3214:	ffff55b7          	lui	a1,0xffff5
    3218:	afc58593          	addi	a1,a1,-1284 # ffff4afc <_end+0xfffedff8>
    321c:	02b54633          	div	a2,a0,a1
    3220:	08c0a023          	sw	a2,128(ra)

00003224 <inst_578>:
    3224:	aaaab537          	lui	a0,0xaaaab
    3228:	aab50513          	addi	a0,a0,-1365 # aaaaaaab <_end+0xaaaa3fa7>
    322c:	0000b5b7          	lui	a1,0xb
    3230:	50458593          	addi	a1,a1,1284 # b504 <_end+0x4a00>
    3234:	02b54633          	div	a2,a0,a1
    3238:	08c0a223          	sw	a2,132(ra)

0000323c <inst_579>:
    323c:	aaaab537          	lui	a0,0xaaaab
    3240:	aab50513          	addi	a0,a0,-1365 # aaaaaaab <_end+0xaaaa3fa7>
    3244:	00200593          	li	a1,2
    3248:	02b54633          	div	a2,a0,a1
    324c:	08c0a423          	sw	a2,136(ra)

00003250 <inst_580>:
    3250:	aaaab537          	lui	a0,0xaaaab
    3254:	aab50513          	addi	a0,a0,-1365 # aaaaaaab <_end+0xaaaa3fa7>
    3258:	555555b7          	lui	a1,0x55555
    325c:	55458593          	addi	a1,a1,1364 # 55555554 <_end+0x5554ea50>
    3260:	02b54633          	div	a2,a0,a1
    3264:	08c0a623          	sw	a2,140(ra)

00003268 <inst_581>:
    3268:	aaaab537          	lui	a0,0xaaaab
    326c:	aab50513          	addi	a0,a0,-1365 # aaaaaaab <_end+0xaaaa3fa7>
    3270:	00000593          	li	a1,0
    3274:	02b54633          	div	a2,a0,a1
    3278:	08c0a823          	sw	a2,144(ra)

0000327c <inst_582>:
    327c:	aaaab537          	lui	a0,0xaaaab
    3280:	aab50513          	addi	a0,a0,-1365 # aaaaaaab <_end+0xaaaa3fa7>
    3284:	00400593          	li	a1,4
    3288:	02b54633          	div	a2,a0,a1
    328c:	08c0aa23          	sw	a2,148(ra)

00003290 <inst_583>:
    3290:	aaaab537          	lui	a0,0xaaaab
    3294:	aab50513          	addi	a0,a0,-1365 # aaaaaaab <_end+0xaaaa3fa7>
    3298:	333335b7          	lui	a1,0x33333
    329c:	33258593          	addi	a1,a1,818 # 33333332 <_end+0x3332c82e>
    32a0:	02b54633          	div	a2,a0,a1
    32a4:	08c0ac23          	sw	a2,152(ra)

000032a8 <inst_584>:
    32a8:	aaaab537          	lui	a0,0xaaaab
    32ac:	aab50513          	addi	a0,a0,-1365 # aaaaaaab <_end+0xaaaa3fa7>
    32b0:	666665b7          	lui	a1,0x66666
    32b4:	66558593          	addi	a1,a1,1637 # 66666665 <_end+0x6665fb61>
    32b8:	02b54633          	div	a2,a0,a1
    32bc:	08c0ae23          	sw	a2,156(ra)

000032c0 <inst_585>:
    32c0:	aaaab537          	lui	a0,0xaaaab
    32c4:	aab50513          	addi	a0,a0,-1365 # aaaaaaab <_end+0xaaaa3fa7>
    32c8:	0000b5b7          	lui	a1,0xb
    32cc:	50358593          	addi	a1,a1,1283 # b503 <_end+0x49ff>
    32d0:	02b54633          	div	a2,a0,a1
    32d4:	0ac0a023          	sw	a2,160(ra)

000032d8 <inst_586>:
    32d8:	aaaab537          	lui	a0,0xaaaab
    32dc:	aab50513          	addi	a0,a0,-1365 # aaaaaaab <_end+0xaaaa3fa7>
    32e0:	555555b7          	lui	a1,0x55555
    32e4:	55658593          	addi	a1,a1,1366 # 55555556 <_end+0x5554ea52>
    32e8:	02b54633          	div	a2,a0,a1
    32ec:	0ac0a223          	sw	a2,164(ra)

000032f0 <inst_587>:
    32f0:	00700513          	li	a0,7
    32f4:	000405b7          	lui	a1,0x40
    32f8:	02b54633          	div	a2,a0,a1
    32fc:	0ac0a423          	sw	a2,168(ra)

00003300 <inst_588>:
    3300:	10000513          	li	a0,256
    3304:	ffd00593          	li	a1,-3
    3308:	02b54633          	div	a2,a0,a1
    330c:	0ac0a623          	sw	a2,172(ra)

00003310 <inst_589>:
    3310:	00080537          	lui	a0,0x80
    3314:	000805b7          	lui	a1,0x80
    3318:	02b54633          	div	a2,a0,a1
    331c:	0ac0a823          	sw	a2,176(ra)

00003320 <halt>:
    3320:	0000006f          	j	3320 <halt>
    3324:	00000013          	nop
    3328:	00000013          	nop
    332c:	00000013          	nop

00003330 <rvtest_code_end>:
    3330:	0000006f          	j	3330 <rvtest_code_end>
    3334:	00000013          	nop
    3338:	00000013          	nop
    333c:	00000013          	nop
    3340:	00000013          	nop

Disassembly of section .text:

00003344 <FN_WriteStr>:
    3344:	00008067          	ret

00003348 <FN_WriteNmbr>:
    3348:	00008067          	ret

Disassembly of section .tohost:

00003400 <tohost>:
    3400:	0000                	.insn	2, 0x0000
    3402:	0000                	.insn	2, 0x0000
    3404:	0000                	.insn	2, 0x0000
    3406:	0000                	.insn	2, 0x0000
    3408:	0000                	.insn	2, 0x0000
    340a:	0000                	.insn	2, 0x0000
    340c:	0000                	.insn	2, 0x0000
    340e:	0000                	.insn	2, 0x0000
    3410:	0000                	.insn	2, 0x0000
    3412:	0000                	.insn	2, 0x0000
    3414:	0000                	.insn	2, 0x0000
    3416:	0000                	.insn	2, 0x0000
    3418:	0000                	.insn	2, 0x0000
    341a:	0000                	.insn	2, 0x0000
    341c:	0000                	.insn	2, 0x0000
    341e:	0000                	.insn	2, 0x0000
    3420:	0000                	.insn	2, 0x0000
    3422:	0000                	.insn	2, 0x0000
    3424:	0000                	.insn	2, 0x0000
    3426:	0000                	.insn	2, 0x0000
    3428:	0000                	.insn	2, 0x0000
    342a:	0000                	.insn	2, 0x0000
    342c:	0000                	.insn	2, 0x0000
    342e:	0000                	.insn	2, 0x0000
    3430:	0000                	.insn	2, 0x0000
    3432:	0000                	.insn	2, 0x0000
    3434:	0000                	.insn	2, 0x0000
    3436:	0000                	.insn	2, 0x0000
    3438:	0000                	.insn	2, 0x0000
    343a:	0000                	.insn	2, 0x0000
    343c:	0000                	.insn	2, 0x0000
    343e:	0000                	.insn	2, 0x0000
    3440:	0000                	.insn	2, 0x0000
    3442:	0000                	.insn	2, 0x0000
    3444:	0000                	.insn	2, 0x0000
    3446:	0000                	.insn	2, 0x0000
    3448:	0000                	.insn	2, 0x0000
    344a:	0000                	.insn	2, 0x0000
    344c:	0000                	.insn	2, 0x0000
    344e:	0000                	.insn	2, 0x0000
    3450:	0000                	.insn	2, 0x0000
    3452:	0000                	.insn	2, 0x0000
    3454:	0000                	.insn	2, 0x0000
    3456:	0000                	.insn	2, 0x0000
    3458:	0000                	.insn	2, 0x0000
    345a:	0000                	.insn	2, 0x0000
    345c:	0000                	.insn	2, 0x0000
    345e:	0000                	.insn	2, 0x0000
    3460:	0000                	.insn	2, 0x0000
    3462:	0000                	.insn	2, 0x0000
    3464:	0000                	.insn	2, 0x0000
    3466:	0000                	.insn	2, 0x0000
    3468:	0000                	.insn	2, 0x0000
    346a:	0000                	.insn	2, 0x0000
    346c:	0000                	.insn	2, 0x0000
    346e:	0000                	.insn	2, 0x0000
    3470:	0000                	.insn	2, 0x0000
    3472:	0000                	.insn	2, 0x0000
    3474:	0000                	.insn	2, 0x0000
    3476:	0000                	.insn	2, 0x0000
    3478:	0000                	.insn	2, 0x0000
    347a:	0000                	.insn	2, 0x0000
    347c:	0000                	.insn	2, 0x0000
    347e:	0000                	.insn	2, 0x0000
    3480:	0000                	.insn	2, 0x0000
    3482:	0000                	.insn	2, 0x0000
    3484:	0000                	.insn	2, 0x0000
    3486:	0000                	.insn	2, 0x0000
    3488:	0000                	.insn	2, 0x0000
    348a:	0000                	.insn	2, 0x0000
    348c:	0000                	.insn	2, 0x0000
    348e:	0000                	.insn	2, 0x0000
    3490:	0000                	.insn	2, 0x0000
    3492:	0000                	.insn	2, 0x0000
    3494:	0000                	.insn	2, 0x0000
    3496:	0000                	.insn	2, 0x0000
    3498:	0000                	.insn	2, 0x0000
    349a:	0000                	.insn	2, 0x0000
    349c:	0000                	.insn	2, 0x0000
    349e:	0000                	.insn	2, 0x0000
    34a0:	0000                	.insn	2, 0x0000
    34a2:	0000                	.insn	2, 0x0000
    34a4:	0000                	.insn	2, 0x0000
    34a6:	0000                	.insn	2, 0x0000
    34a8:	0000                	.insn	2, 0x0000
    34aa:	0000                	.insn	2, 0x0000
    34ac:	0000                	.insn	2, 0x0000
    34ae:	0000                	.insn	2, 0x0000
    34b0:	0000                	.insn	2, 0x0000
    34b2:	0000                	.insn	2, 0x0000
    34b4:	0000                	.insn	2, 0x0000
    34b6:	0000                	.insn	2, 0x0000
    34b8:	0000                	.insn	2, 0x0000
    34ba:	0000                	.insn	2, 0x0000
    34bc:	0000                	.insn	2, 0x0000
    34be:	0000                	.insn	2, 0x0000
    34c0:	0000                	.insn	2, 0x0000
    34c2:	0000                	.insn	2, 0x0000
    34c4:	0000                	.insn	2, 0x0000
    34c6:	0000                	.insn	2, 0x0000
    34c8:	0000                	.insn	2, 0x0000
    34ca:	0000                	.insn	2, 0x0000
    34cc:	0000                	.insn	2, 0x0000
    34ce:	0000                	.insn	2, 0x0000
    34d0:	0000                	.insn	2, 0x0000
    34d2:	0000                	.insn	2, 0x0000
    34d4:	0000                	.insn	2, 0x0000
    34d6:	0000                	.insn	2, 0x0000
    34d8:	0000                	.insn	2, 0x0000
    34da:	0000                	.insn	2, 0x0000
    34dc:	0000                	.insn	2, 0x0000
    34de:	0000                	.insn	2, 0x0000
    34e0:	0000                	.insn	2, 0x0000
    34e2:	0000                	.insn	2, 0x0000
    34e4:	0000                	.insn	2, 0x0000
    34e6:	0000                	.insn	2, 0x0000
    34e8:	0000                	.insn	2, 0x0000
    34ea:	0000                	.insn	2, 0x0000
    34ec:	0000                	.insn	2, 0x0000
    34ee:	0000                	.insn	2, 0x0000
    34f0:	0000                	.insn	2, 0x0000
    34f2:	0000                	.insn	2, 0x0000
    34f4:	0000                	.insn	2, 0x0000
    34f6:	0000                	.insn	2, 0x0000
    34f8:	0000                	.insn	2, 0x0000
    34fa:	0000                	.insn	2, 0x0000
    34fc:	0000                	.insn	2, 0x0000
    34fe:	0000                	.insn	2, 0x0000

00003500 <fromhost>:
    3500:	0000                	.insn	2, 0x0000
    3502:	0000                	.insn	2, 0x0000
    3504:	0000                	.insn	2, 0x0000
    3506:	0000                	.insn	2, 0x0000

Disassembly of section .io_buf:

00006000 <begin_signature>:
    6000:	deadbeef          	jal	t4,fffe15ea <_end+0xfffdaae6>
    6004:	deadbeef          	jal	t4,fffe15ee <_end+0xfffdaaea>
    6008:	deadbeef          	jal	t4,fffe15f2 <_end+0xfffdaaee>
    600c:	deadbeef          	jal	t4,fffe15f6 <_end+0xfffdaaf2>
    6010:	deadbeef          	jal	t4,fffe15fa <_end+0xfffdaaf6>
    6014:	deadbeef          	jal	t4,fffe15fe <_end+0xfffdaafa>
    6018:	deadbeef          	jal	t4,fffe1602 <_end+0xfffdaafe>
    601c:	deadbeef          	jal	t4,fffe1606 <_end+0xfffdab02>
    6020:	deadbeef          	jal	t4,fffe160a <_end+0xfffdab06>
    6024:	deadbeef          	jal	t4,fffe160e <_end+0xfffdab0a>
    6028:	deadbeef          	jal	t4,fffe1612 <_end+0xfffdab0e>
    602c:	deadbeef          	jal	t4,fffe1616 <_end+0xfffdab12>
    6030:	deadbeef          	jal	t4,fffe161a <_end+0xfffdab16>
    6034:	deadbeef          	jal	t4,fffe161e <_end+0xfffdab1a>
    6038:	deadbeef          	jal	t4,fffe1622 <_end+0xfffdab1e>
    603c:	deadbeef          	jal	t4,fffe1626 <_end+0xfffdab22>
    6040:	deadbeef          	jal	t4,fffe162a <_end+0xfffdab26>

00006044 <signature_x17_0>:
    6044:	deadbeef          	jal	t4,fffe162e <_end+0xfffdab2a>
    6048:	deadbeef          	jal	t4,fffe1632 <_end+0xfffdab2e>
    604c:	deadbeef          	jal	t4,fffe1636 <_end+0xfffdab32>
    6050:	deadbeef          	jal	t4,fffe163a <_end+0xfffdab36>
    6054:	deadbeef          	jal	t4,fffe163e <_end+0xfffdab3a>
    6058:	deadbeef          	jal	t4,fffe1642 <_end+0xfffdab3e>
    605c:	deadbeef          	jal	t4,fffe1646 <_end+0xfffdab42>
    6060:	deadbeef          	jal	t4,fffe164a <_end+0xfffdab46>
    6064:	deadbeef          	jal	t4,fffe164e <_end+0xfffdab4a>
    6068:	deadbeef          	jal	t4,fffe1652 <_end+0xfffdab4e>
    606c:	deadbeef          	jal	t4,fffe1656 <_end+0xfffdab52>
    6070:	deadbeef          	jal	t4,fffe165a <_end+0xfffdab56>
    6074:	deadbeef          	jal	t4,fffe165e <_end+0xfffdab5a>
    6078:	deadbeef          	jal	t4,fffe1662 <_end+0xfffdab5e>
    607c:	deadbeef          	jal	t4,fffe1666 <_end+0xfffdab62>
    6080:	deadbeef          	jal	t4,fffe166a <_end+0xfffdab66>

00006084 <signature_x1_0>:
    6084:	deadbeef          	jal	t4,fffe166e <_end+0xfffdab6a>
    6088:	deadbeef          	jal	t4,fffe1672 <_end+0xfffdab6e>
    608c:	deadbeef          	jal	t4,fffe1676 <_end+0xfffdab72>
    6090:	deadbeef          	jal	t4,fffe167a <_end+0xfffdab76>
    6094:	deadbeef          	jal	t4,fffe167e <_end+0xfffdab7a>
    6098:	deadbeef          	jal	t4,fffe1682 <_end+0xfffdab7e>
    609c:	deadbeef          	jal	t4,fffe1686 <_end+0xfffdab82>
    60a0:	deadbeef          	jal	t4,fffe168a <_end+0xfffdab86>
    60a4:	deadbeef          	jal	t4,fffe168e <_end+0xfffdab8a>
    60a8:	deadbeef          	jal	t4,fffe1692 <_end+0xfffdab8e>
    60ac:	deadbeef          	jal	t4,fffe1696 <_end+0xfffdab92>
    60b0:	deadbeef          	jal	t4,fffe169a <_end+0xfffdab96>
    60b4:	deadbeef          	jal	t4,fffe169e <_end+0xfffdab9a>
    60b8:	deadbeef          	jal	t4,fffe16a2 <_end+0xfffdab9e>
    60bc:	deadbeef          	jal	t4,fffe16a6 <_end+0xfffdaba2>
    60c0:	deadbeef          	jal	t4,fffe16aa <_end+0xfffdaba6>
    60c4:	deadbeef          	jal	t4,fffe16ae <_end+0xfffdabaa>
    60c8:	deadbeef          	jal	t4,fffe16b2 <_end+0xfffdabae>
    60cc:	deadbeef          	jal	t4,fffe16b6 <_end+0xfffdabb2>
    60d0:	deadbeef          	jal	t4,fffe16ba <_end+0xfffdabb6>
    60d4:	deadbeef          	jal	t4,fffe16be <_end+0xfffdabba>
    60d8:	deadbeef          	jal	t4,fffe16c2 <_end+0xfffdabbe>
    60dc:	deadbeef          	jal	t4,fffe16c6 <_end+0xfffdabc2>
    60e0:	deadbeef          	jal	t4,fffe16ca <_end+0xfffdabc6>
    60e4:	deadbeef          	jal	t4,fffe16ce <_end+0xfffdabca>
    60e8:	deadbeef          	jal	t4,fffe16d2 <_end+0xfffdabce>
    60ec:	deadbeef          	jal	t4,fffe16d6 <_end+0xfffdabd2>
    60f0:	deadbeef          	jal	t4,fffe16da <_end+0xfffdabd6>
    60f4:	deadbeef          	jal	t4,fffe16de <_end+0xfffdabda>
    60f8:	deadbeef          	jal	t4,fffe16e2 <_end+0xfffdabde>
    60fc:	deadbeef          	jal	t4,fffe16e6 <_end+0xfffdabe2>
    6100:	deadbeef          	jal	t4,fffe16ea <_end+0xfffdabe6>
    6104:	deadbeef          	jal	t4,fffe16ee <_end+0xfffdabea>
    6108:	deadbeef          	jal	t4,fffe16f2 <_end+0xfffdabee>
    610c:	deadbeef          	jal	t4,fffe16f6 <_end+0xfffdabf2>
    6110:	deadbeef          	jal	t4,fffe16fa <_end+0xfffdabf6>
    6114:	deadbeef          	jal	t4,fffe16fe <_end+0xfffdabfa>
    6118:	deadbeef          	jal	t4,fffe1702 <_end+0xfffdabfe>
    611c:	deadbeef          	jal	t4,fffe1706 <_end+0xfffdac02>
    6120:	deadbeef          	jal	t4,fffe170a <_end+0xfffdac06>
    6124:	deadbeef          	jal	t4,fffe170e <_end+0xfffdac0a>
    6128:	deadbeef          	jal	t4,fffe1712 <_end+0xfffdac0e>
    612c:	deadbeef          	jal	t4,fffe1716 <_end+0xfffdac12>
    6130:	deadbeef          	jal	t4,fffe171a <_end+0xfffdac16>
    6134:	deadbeef          	jal	t4,fffe171e <_end+0xfffdac1a>
    6138:	deadbeef          	jal	t4,fffe1722 <_end+0xfffdac1e>
    613c:	deadbeef          	jal	t4,fffe1726 <_end+0xfffdac22>
    6140:	deadbeef          	jal	t4,fffe172a <_end+0xfffdac26>
    6144:	deadbeef          	jal	t4,fffe172e <_end+0xfffdac2a>
    6148:	deadbeef          	jal	t4,fffe1732 <_end+0xfffdac2e>
    614c:	deadbeef          	jal	t4,fffe1736 <_end+0xfffdac32>
    6150:	deadbeef          	jal	t4,fffe173a <_end+0xfffdac36>
    6154:	deadbeef          	jal	t4,fffe173e <_end+0xfffdac3a>
    6158:	deadbeef          	jal	t4,fffe1742 <_end+0xfffdac3e>
    615c:	deadbeef          	jal	t4,fffe1746 <_end+0xfffdac42>
    6160:	deadbeef          	jal	t4,fffe174a <_end+0xfffdac46>
    6164:	deadbeef          	jal	t4,fffe174e <_end+0xfffdac4a>
    6168:	deadbeef          	jal	t4,fffe1752 <_end+0xfffdac4e>
    616c:	deadbeef          	jal	t4,fffe1756 <_end+0xfffdac52>
    6170:	deadbeef          	jal	t4,fffe175a <_end+0xfffdac56>
    6174:	deadbeef          	jal	t4,fffe175e <_end+0xfffdac5a>
    6178:	deadbeef          	jal	t4,fffe1762 <_end+0xfffdac5e>
    617c:	deadbeef          	jal	t4,fffe1766 <_end+0xfffdac62>
    6180:	deadbeef          	jal	t4,fffe176a <_end+0xfffdac66>
    6184:	deadbeef          	jal	t4,fffe176e <_end+0xfffdac6a>
    6188:	deadbeef          	jal	t4,fffe1772 <_end+0xfffdac6e>
    618c:	deadbeef          	jal	t4,fffe1776 <_end+0xfffdac72>
    6190:	deadbeef          	jal	t4,fffe177a <_end+0xfffdac76>
    6194:	deadbeef          	jal	t4,fffe177e <_end+0xfffdac7a>
    6198:	deadbeef          	jal	t4,fffe1782 <_end+0xfffdac7e>
    619c:	deadbeef          	jal	t4,fffe1786 <_end+0xfffdac82>
    61a0:	deadbeef          	jal	t4,fffe178a <_end+0xfffdac86>
    61a4:	deadbeef          	jal	t4,fffe178e <_end+0xfffdac8a>
    61a8:	deadbeef          	jal	t4,fffe1792 <_end+0xfffdac8e>
    61ac:	deadbeef          	jal	t4,fffe1796 <_end+0xfffdac92>
    61b0:	deadbeef          	jal	t4,fffe179a <_end+0xfffdac96>
    61b4:	deadbeef          	jal	t4,fffe179e <_end+0xfffdac9a>
    61b8:	deadbeef          	jal	t4,fffe17a2 <_end+0xfffdac9e>
    61bc:	deadbeef          	jal	t4,fffe17a6 <_end+0xfffdaca2>
    61c0:	deadbeef          	jal	t4,fffe17aa <_end+0xfffdaca6>
    61c4:	deadbeef          	jal	t4,fffe17ae <_end+0xfffdacaa>
    61c8:	deadbeef          	jal	t4,fffe17b2 <_end+0xfffdacae>
    61cc:	deadbeef          	jal	t4,fffe17b6 <_end+0xfffdacb2>
    61d0:	deadbeef          	jal	t4,fffe17ba <_end+0xfffdacb6>
    61d4:	deadbeef          	jal	t4,fffe17be <_end+0xfffdacba>
    61d8:	deadbeef          	jal	t4,fffe17c2 <_end+0xfffdacbe>
    61dc:	deadbeef          	jal	t4,fffe17c6 <_end+0xfffdacc2>
    61e0:	deadbeef          	jal	t4,fffe17ca <_end+0xfffdacc6>
    61e4:	deadbeef          	jal	t4,fffe17ce <_end+0xfffdacca>
    61e8:	deadbeef          	jal	t4,fffe17d2 <_end+0xfffdacce>
    61ec:	deadbeef          	jal	t4,fffe17d6 <_end+0xfffdacd2>
    61f0:	deadbeef          	jal	t4,fffe17da <_end+0xfffdacd6>
    61f4:	deadbeef          	jal	t4,fffe17de <_end+0xfffdacda>
    61f8:	deadbeef          	jal	t4,fffe17e2 <_end+0xfffdacde>
    61fc:	deadbeef          	jal	t4,fffe17e6 <_end+0xfffdace2>
    6200:	deadbeef          	jal	t4,fffe17ea <_end+0xfffdace6>
    6204:	deadbeef          	jal	t4,fffe17ee <_end+0xfffdacea>
    6208:	deadbeef          	jal	t4,fffe17f2 <_end+0xfffdacee>
    620c:	deadbeef          	jal	t4,fffe17f6 <_end+0xfffdacf2>
    6210:	deadbeef          	jal	t4,fffe17fa <_end+0xfffdacf6>
    6214:	deadbeef          	jal	t4,fffe17fe <_end+0xfffdacfa>
    6218:	deadbeef          	jal	t4,fffe1802 <_end+0xfffdacfe>
    621c:	deadbeef          	jal	t4,fffe1806 <_end+0xfffdad02>
    6220:	deadbeef          	jal	t4,fffe180a <_end+0xfffdad06>
    6224:	deadbeef          	jal	t4,fffe180e <_end+0xfffdad0a>
    6228:	deadbeef          	jal	t4,fffe1812 <_end+0xfffdad0e>
    622c:	deadbeef          	jal	t4,fffe1816 <_end+0xfffdad12>
    6230:	deadbeef          	jal	t4,fffe181a <_end+0xfffdad16>
    6234:	deadbeef          	jal	t4,fffe181e <_end+0xfffdad1a>
    6238:	deadbeef          	jal	t4,fffe1822 <_end+0xfffdad1e>
    623c:	deadbeef          	jal	t4,fffe1826 <_end+0xfffdad22>
    6240:	deadbeef          	jal	t4,fffe182a <_end+0xfffdad26>
    6244:	deadbeef          	jal	t4,fffe182e <_end+0xfffdad2a>
    6248:	deadbeef          	jal	t4,fffe1832 <_end+0xfffdad2e>
    624c:	deadbeef          	jal	t4,fffe1836 <_end+0xfffdad32>
    6250:	deadbeef          	jal	t4,fffe183a <_end+0xfffdad36>
    6254:	deadbeef          	jal	t4,fffe183e <_end+0xfffdad3a>
    6258:	deadbeef          	jal	t4,fffe1842 <_end+0xfffdad3e>
    625c:	deadbeef          	jal	t4,fffe1846 <_end+0xfffdad42>
    6260:	deadbeef          	jal	t4,fffe184a <_end+0xfffdad46>
    6264:	deadbeef          	jal	t4,fffe184e <_end+0xfffdad4a>
    6268:	deadbeef          	jal	t4,fffe1852 <_end+0xfffdad4e>
    626c:	deadbeef          	jal	t4,fffe1856 <_end+0xfffdad52>
    6270:	deadbeef          	jal	t4,fffe185a <_end+0xfffdad56>
    6274:	deadbeef          	jal	t4,fffe185e <_end+0xfffdad5a>
    6278:	deadbeef          	jal	t4,fffe1862 <_end+0xfffdad5e>
    627c:	deadbeef          	jal	t4,fffe1866 <_end+0xfffdad62>
    6280:	deadbeef          	jal	t4,fffe186a <_end+0xfffdad66>
    6284:	deadbeef          	jal	t4,fffe186e <_end+0xfffdad6a>
    6288:	deadbeef          	jal	t4,fffe1872 <_end+0xfffdad6e>
    628c:	deadbeef          	jal	t4,fffe1876 <_end+0xfffdad72>
    6290:	deadbeef          	jal	t4,fffe187a <_end+0xfffdad76>
    6294:	deadbeef          	jal	t4,fffe187e <_end+0xfffdad7a>
    6298:	deadbeef          	jal	t4,fffe1882 <_end+0xfffdad7e>
    629c:	deadbeef          	jal	t4,fffe1886 <_end+0xfffdad82>
    62a0:	deadbeef          	jal	t4,fffe188a <_end+0xfffdad86>
    62a4:	deadbeef          	jal	t4,fffe188e <_end+0xfffdad8a>
    62a8:	deadbeef          	jal	t4,fffe1892 <_end+0xfffdad8e>
    62ac:	deadbeef          	jal	t4,fffe1896 <_end+0xfffdad92>
    62b0:	deadbeef          	jal	t4,fffe189a <_end+0xfffdad96>
    62b4:	deadbeef          	jal	t4,fffe189e <_end+0xfffdad9a>
    62b8:	deadbeef          	jal	t4,fffe18a2 <_end+0xfffdad9e>
    62bc:	deadbeef          	jal	t4,fffe18a6 <_end+0xfffdada2>
    62c0:	deadbeef          	jal	t4,fffe18aa <_end+0xfffdada6>
    62c4:	deadbeef          	jal	t4,fffe18ae <_end+0xfffdadaa>
    62c8:	deadbeef          	jal	t4,fffe18b2 <_end+0xfffdadae>
    62cc:	deadbeef          	jal	t4,fffe18b6 <_end+0xfffdadb2>
    62d0:	deadbeef          	jal	t4,fffe18ba <_end+0xfffdadb6>
    62d4:	deadbeef          	jal	t4,fffe18be <_end+0xfffdadba>
    62d8:	deadbeef          	jal	t4,fffe18c2 <_end+0xfffdadbe>
    62dc:	deadbeef          	jal	t4,fffe18c6 <_end+0xfffdadc2>
    62e0:	deadbeef          	jal	t4,fffe18ca <_end+0xfffdadc6>
    62e4:	deadbeef          	jal	t4,fffe18ce <_end+0xfffdadca>
    62e8:	deadbeef          	jal	t4,fffe18d2 <_end+0xfffdadce>
    62ec:	deadbeef          	jal	t4,fffe18d6 <_end+0xfffdadd2>
    62f0:	deadbeef          	jal	t4,fffe18da <_end+0xfffdadd6>
    62f4:	deadbeef          	jal	t4,fffe18de <_end+0xfffdadda>
    62f8:	deadbeef          	jal	t4,fffe18e2 <_end+0xfffdadde>
    62fc:	deadbeef          	jal	t4,fffe18e6 <_end+0xfffdade2>
    6300:	deadbeef          	jal	t4,fffe18ea <_end+0xfffdade6>
    6304:	deadbeef          	jal	t4,fffe18ee <_end+0xfffdadea>
    6308:	deadbeef          	jal	t4,fffe18f2 <_end+0xfffdadee>
    630c:	deadbeef          	jal	t4,fffe18f6 <_end+0xfffdadf2>
    6310:	deadbeef          	jal	t4,fffe18fa <_end+0xfffdadf6>
    6314:	deadbeef          	jal	t4,fffe18fe <_end+0xfffdadfa>
    6318:	deadbeef          	jal	t4,fffe1902 <_end+0xfffdadfe>
    631c:	deadbeef          	jal	t4,fffe1906 <_end+0xfffdae02>
    6320:	deadbeef          	jal	t4,fffe190a <_end+0xfffdae06>
    6324:	deadbeef          	jal	t4,fffe190e <_end+0xfffdae0a>
    6328:	deadbeef          	jal	t4,fffe1912 <_end+0xfffdae0e>
    632c:	deadbeef          	jal	t4,fffe1916 <_end+0xfffdae12>
    6330:	deadbeef          	jal	t4,fffe191a <_end+0xfffdae16>
    6334:	deadbeef          	jal	t4,fffe191e <_end+0xfffdae1a>
    6338:	deadbeef          	jal	t4,fffe1922 <_end+0xfffdae1e>
    633c:	deadbeef          	jal	t4,fffe1926 <_end+0xfffdae22>
    6340:	deadbeef          	jal	t4,fffe192a <_end+0xfffdae26>
    6344:	deadbeef          	jal	t4,fffe192e <_end+0xfffdae2a>
    6348:	deadbeef          	jal	t4,fffe1932 <_end+0xfffdae2e>
    634c:	deadbeef          	jal	t4,fffe1936 <_end+0xfffdae32>
    6350:	deadbeef          	jal	t4,fffe193a <_end+0xfffdae36>
    6354:	deadbeef          	jal	t4,fffe193e <_end+0xfffdae3a>
    6358:	deadbeef          	jal	t4,fffe1942 <_end+0xfffdae3e>
    635c:	deadbeef          	jal	t4,fffe1946 <_end+0xfffdae42>
    6360:	deadbeef          	jal	t4,fffe194a <_end+0xfffdae46>
    6364:	deadbeef          	jal	t4,fffe194e <_end+0xfffdae4a>
    6368:	deadbeef          	jal	t4,fffe1952 <_end+0xfffdae4e>
    636c:	deadbeef          	jal	t4,fffe1956 <_end+0xfffdae52>
    6370:	deadbeef          	jal	t4,fffe195a <_end+0xfffdae56>
    6374:	deadbeef          	jal	t4,fffe195e <_end+0xfffdae5a>
    6378:	deadbeef          	jal	t4,fffe1962 <_end+0xfffdae5e>
    637c:	deadbeef          	jal	t4,fffe1966 <_end+0xfffdae62>
    6380:	deadbeef          	jal	t4,fffe196a <_end+0xfffdae66>
    6384:	deadbeef          	jal	t4,fffe196e <_end+0xfffdae6a>
    6388:	deadbeef          	jal	t4,fffe1972 <_end+0xfffdae6e>
    638c:	deadbeef          	jal	t4,fffe1976 <_end+0xfffdae72>
    6390:	deadbeef          	jal	t4,fffe197a <_end+0xfffdae76>
    6394:	deadbeef          	jal	t4,fffe197e <_end+0xfffdae7a>
    6398:	deadbeef          	jal	t4,fffe1982 <_end+0xfffdae7e>
    639c:	deadbeef          	jal	t4,fffe1986 <_end+0xfffdae82>
    63a0:	deadbeef          	jal	t4,fffe198a <_end+0xfffdae86>
    63a4:	deadbeef          	jal	t4,fffe198e <_end+0xfffdae8a>
    63a8:	deadbeef          	jal	t4,fffe1992 <_end+0xfffdae8e>
    63ac:	deadbeef          	jal	t4,fffe1996 <_end+0xfffdae92>
    63b0:	deadbeef          	jal	t4,fffe199a <_end+0xfffdae96>
    63b4:	deadbeef          	jal	t4,fffe199e <_end+0xfffdae9a>
    63b8:	deadbeef          	jal	t4,fffe19a2 <_end+0xfffdae9e>
    63bc:	deadbeef          	jal	t4,fffe19a6 <_end+0xfffdaea2>
    63c0:	deadbeef          	jal	t4,fffe19aa <_end+0xfffdaea6>
    63c4:	deadbeef          	jal	t4,fffe19ae <_end+0xfffdaeaa>
    63c8:	deadbeef          	jal	t4,fffe19b2 <_end+0xfffdaeae>
    63cc:	deadbeef          	jal	t4,fffe19b6 <_end+0xfffdaeb2>
    63d0:	deadbeef          	jal	t4,fffe19ba <_end+0xfffdaeb6>
    63d4:	deadbeef          	jal	t4,fffe19be <_end+0xfffdaeba>
    63d8:	deadbeef          	jal	t4,fffe19c2 <_end+0xfffdaebe>
    63dc:	deadbeef          	jal	t4,fffe19c6 <_end+0xfffdaec2>
    63e0:	deadbeef          	jal	t4,fffe19ca <_end+0xfffdaec6>
    63e4:	deadbeef          	jal	t4,fffe19ce <_end+0xfffdaeca>
    63e8:	deadbeef          	jal	t4,fffe19d2 <_end+0xfffdaece>
    63ec:	deadbeef          	jal	t4,fffe19d6 <_end+0xfffdaed2>
    63f0:	deadbeef          	jal	t4,fffe19da <_end+0xfffdaed6>
    63f4:	deadbeef          	jal	t4,fffe19de <_end+0xfffdaeda>
    63f8:	deadbeef          	jal	t4,fffe19e2 <_end+0xfffdaede>
    63fc:	deadbeef          	jal	t4,fffe19e6 <_end+0xfffdaee2>
    6400:	deadbeef          	jal	t4,fffe19ea <_end+0xfffdaee6>
    6404:	deadbeef          	jal	t4,fffe19ee <_end+0xfffdaeea>
    6408:	deadbeef          	jal	t4,fffe19f2 <_end+0xfffdaeee>
    640c:	deadbeef          	jal	t4,fffe19f6 <_end+0xfffdaef2>
    6410:	deadbeef          	jal	t4,fffe19fa <_end+0xfffdaef6>
    6414:	deadbeef          	jal	t4,fffe19fe <_end+0xfffdaefa>
    6418:	deadbeef          	jal	t4,fffe1a02 <_end+0xfffdaefe>
    641c:	deadbeef          	jal	t4,fffe1a06 <_end+0xfffdaf02>
    6420:	deadbeef          	jal	t4,fffe1a0a <_end+0xfffdaf06>
    6424:	deadbeef          	jal	t4,fffe1a0e <_end+0xfffdaf0a>
    6428:	deadbeef          	jal	t4,fffe1a12 <_end+0xfffdaf0e>
    642c:	deadbeef          	jal	t4,fffe1a16 <_end+0xfffdaf12>
    6430:	deadbeef          	jal	t4,fffe1a1a <_end+0xfffdaf16>
    6434:	deadbeef          	jal	t4,fffe1a1e <_end+0xfffdaf1a>
    6438:	deadbeef          	jal	t4,fffe1a22 <_end+0xfffdaf1e>
    643c:	deadbeef          	jal	t4,fffe1a26 <_end+0xfffdaf22>
    6440:	deadbeef          	jal	t4,fffe1a2a <_end+0xfffdaf26>
    6444:	deadbeef          	jal	t4,fffe1a2e <_end+0xfffdaf2a>
    6448:	deadbeef          	jal	t4,fffe1a32 <_end+0xfffdaf2e>
    644c:	deadbeef          	jal	t4,fffe1a36 <_end+0xfffdaf32>
    6450:	deadbeef          	jal	t4,fffe1a3a <_end+0xfffdaf36>
    6454:	deadbeef          	jal	t4,fffe1a3e <_end+0xfffdaf3a>
    6458:	deadbeef          	jal	t4,fffe1a42 <_end+0xfffdaf3e>
    645c:	deadbeef          	jal	t4,fffe1a46 <_end+0xfffdaf42>
    6460:	deadbeef          	jal	t4,fffe1a4a <_end+0xfffdaf46>
    6464:	deadbeef          	jal	t4,fffe1a4e <_end+0xfffdaf4a>
    6468:	deadbeef          	jal	t4,fffe1a52 <_end+0xfffdaf4e>
    646c:	deadbeef          	jal	t4,fffe1a56 <_end+0xfffdaf52>
    6470:	deadbeef          	jal	t4,fffe1a5a <_end+0xfffdaf56>
    6474:	deadbeef          	jal	t4,fffe1a5e <_end+0xfffdaf5a>
    6478:	deadbeef          	jal	t4,fffe1a62 <_end+0xfffdaf5e>
    647c:	deadbeef          	jal	t4,fffe1a66 <_end+0xfffdaf62>
    6480:	deadbeef          	jal	t4,fffe1a6a <_end+0xfffdaf66>
    6484:	deadbeef          	jal	t4,fffe1a6e <_end+0xfffdaf6a>
    6488:	deadbeef          	jal	t4,fffe1a72 <_end+0xfffdaf6e>
    648c:	deadbeef          	jal	t4,fffe1a76 <_end+0xfffdaf72>
    6490:	deadbeef          	jal	t4,fffe1a7a <_end+0xfffdaf76>
    6494:	deadbeef          	jal	t4,fffe1a7e <_end+0xfffdaf7a>
    6498:	deadbeef          	jal	t4,fffe1a82 <_end+0xfffdaf7e>
    649c:	deadbeef          	jal	t4,fffe1a86 <_end+0xfffdaf82>
    64a0:	deadbeef          	jal	t4,fffe1a8a <_end+0xfffdaf86>
    64a4:	deadbeef          	jal	t4,fffe1a8e <_end+0xfffdaf8a>
    64a8:	deadbeef          	jal	t4,fffe1a92 <_end+0xfffdaf8e>
    64ac:	deadbeef          	jal	t4,fffe1a96 <_end+0xfffdaf92>
    64b0:	deadbeef          	jal	t4,fffe1a9a <_end+0xfffdaf96>
    64b4:	deadbeef          	jal	t4,fffe1a9e <_end+0xfffdaf9a>
    64b8:	deadbeef          	jal	t4,fffe1aa2 <_end+0xfffdaf9e>
    64bc:	deadbeef          	jal	t4,fffe1aa6 <_end+0xfffdafa2>
    64c0:	deadbeef          	jal	t4,fffe1aaa <_end+0xfffdafa6>
    64c4:	deadbeef          	jal	t4,fffe1aae <_end+0xfffdafaa>
    64c8:	deadbeef          	jal	t4,fffe1ab2 <_end+0xfffdafae>
    64cc:	deadbeef          	jal	t4,fffe1ab6 <_end+0xfffdafb2>
    64d0:	deadbeef          	jal	t4,fffe1aba <_end+0xfffdafb6>
    64d4:	deadbeef          	jal	t4,fffe1abe <_end+0xfffdafba>
    64d8:	deadbeef          	jal	t4,fffe1ac2 <_end+0xfffdafbe>
    64dc:	deadbeef          	jal	t4,fffe1ac6 <_end+0xfffdafc2>
    64e0:	deadbeef          	jal	t4,fffe1aca <_end+0xfffdafc6>
    64e4:	deadbeef          	jal	t4,fffe1ace <_end+0xfffdafca>
    64e8:	deadbeef          	jal	t4,fffe1ad2 <_end+0xfffdafce>
    64ec:	deadbeef          	jal	t4,fffe1ad6 <_end+0xfffdafd2>
    64f0:	deadbeef          	jal	t4,fffe1ada <_end+0xfffdafd6>
    64f4:	deadbeef          	jal	t4,fffe1ade <_end+0xfffdafda>
    64f8:	deadbeef          	jal	t4,fffe1ae2 <_end+0xfffdafde>
    64fc:	deadbeef          	jal	t4,fffe1ae6 <_end+0xfffdafe2>
    6500:	deadbeef          	jal	t4,fffe1aea <_end+0xfffdafe6>
    6504:	deadbeef          	jal	t4,fffe1aee <_end+0xfffdafea>
    6508:	deadbeef          	jal	t4,fffe1af2 <_end+0xfffdafee>
    650c:	deadbeef          	jal	t4,fffe1af6 <_end+0xfffdaff2>
    6510:	deadbeef          	jal	t4,fffe1afa <_end+0xfffdaff6>
    6514:	deadbeef          	jal	t4,fffe1afe <_end+0xfffdaffa>
    6518:	deadbeef          	jal	t4,fffe1b02 <_end+0xfffdaffe>
    651c:	deadbeef          	jal	t4,fffe1b06 <_end+0xfffdb002>
    6520:	deadbeef          	jal	t4,fffe1b0a <_end+0xfffdb006>
    6524:	deadbeef          	jal	t4,fffe1b0e <_end+0xfffdb00a>
    6528:	deadbeef          	jal	t4,fffe1b12 <_end+0xfffdb00e>
    652c:	deadbeef          	jal	t4,fffe1b16 <_end+0xfffdb012>
    6530:	deadbeef          	jal	t4,fffe1b1a <_end+0xfffdb016>
    6534:	deadbeef          	jal	t4,fffe1b1e <_end+0xfffdb01a>
    6538:	deadbeef          	jal	t4,fffe1b22 <_end+0xfffdb01e>
    653c:	deadbeef          	jal	t4,fffe1b26 <_end+0xfffdb022>
    6540:	deadbeef          	jal	t4,fffe1b2a <_end+0xfffdb026>
    6544:	deadbeef          	jal	t4,fffe1b2e <_end+0xfffdb02a>
    6548:	deadbeef          	jal	t4,fffe1b32 <_end+0xfffdb02e>
    654c:	deadbeef          	jal	t4,fffe1b36 <_end+0xfffdb032>
    6550:	deadbeef          	jal	t4,fffe1b3a <_end+0xfffdb036>
    6554:	deadbeef          	jal	t4,fffe1b3e <_end+0xfffdb03a>
    6558:	deadbeef          	jal	t4,fffe1b42 <_end+0xfffdb03e>
    655c:	deadbeef          	jal	t4,fffe1b46 <_end+0xfffdb042>
    6560:	deadbeef          	jal	t4,fffe1b4a <_end+0xfffdb046>
    6564:	deadbeef          	jal	t4,fffe1b4e <_end+0xfffdb04a>
    6568:	deadbeef          	jal	t4,fffe1b52 <_end+0xfffdb04e>
    656c:	deadbeef          	jal	t4,fffe1b56 <_end+0xfffdb052>
    6570:	deadbeef          	jal	t4,fffe1b5a <_end+0xfffdb056>
    6574:	deadbeef          	jal	t4,fffe1b5e <_end+0xfffdb05a>
    6578:	deadbeef          	jal	t4,fffe1b62 <_end+0xfffdb05e>
    657c:	deadbeef          	jal	t4,fffe1b66 <_end+0xfffdb062>
    6580:	deadbeef          	jal	t4,fffe1b6a <_end+0xfffdb066>
    6584:	deadbeef          	jal	t4,fffe1b6e <_end+0xfffdb06a>
    6588:	deadbeef          	jal	t4,fffe1b72 <_end+0xfffdb06e>
    658c:	deadbeef          	jal	t4,fffe1b76 <_end+0xfffdb072>
    6590:	deadbeef          	jal	t4,fffe1b7a <_end+0xfffdb076>
    6594:	deadbeef          	jal	t4,fffe1b7e <_end+0xfffdb07a>
    6598:	deadbeef          	jal	t4,fffe1b82 <_end+0xfffdb07e>
    659c:	deadbeef          	jal	t4,fffe1b86 <_end+0xfffdb082>
    65a0:	deadbeef          	jal	t4,fffe1b8a <_end+0xfffdb086>
    65a4:	deadbeef          	jal	t4,fffe1b8e <_end+0xfffdb08a>
    65a8:	deadbeef          	jal	t4,fffe1b92 <_end+0xfffdb08e>
    65ac:	deadbeef          	jal	t4,fffe1b96 <_end+0xfffdb092>
    65b0:	deadbeef          	jal	t4,fffe1b9a <_end+0xfffdb096>
    65b4:	deadbeef          	jal	t4,fffe1b9e <_end+0xfffdb09a>
    65b8:	deadbeef          	jal	t4,fffe1ba2 <_end+0xfffdb09e>
    65bc:	deadbeef          	jal	t4,fffe1ba6 <_end+0xfffdb0a2>
    65c0:	deadbeef          	jal	t4,fffe1baa <_end+0xfffdb0a6>
    65c4:	deadbeef          	jal	t4,fffe1bae <_end+0xfffdb0aa>
    65c8:	deadbeef          	jal	t4,fffe1bb2 <_end+0xfffdb0ae>
    65cc:	deadbeef          	jal	t4,fffe1bb6 <_end+0xfffdb0b2>
    65d0:	deadbeef          	jal	t4,fffe1bba <_end+0xfffdb0b6>
    65d4:	deadbeef          	jal	t4,fffe1bbe <_end+0xfffdb0ba>
    65d8:	deadbeef          	jal	t4,fffe1bc2 <_end+0xfffdb0be>
    65dc:	deadbeef          	jal	t4,fffe1bc6 <_end+0xfffdb0c2>
    65e0:	deadbeef          	jal	t4,fffe1bca <_end+0xfffdb0c6>
    65e4:	deadbeef          	jal	t4,fffe1bce <_end+0xfffdb0ca>
    65e8:	deadbeef          	jal	t4,fffe1bd2 <_end+0xfffdb0ce>
    65ec:	deadbeef          	jal	t4,fffe1bd6 <_end+0xfffdb0d2>
    65f0:	deadbeef          	jal	t4,fffe1bda <_end+0xfffdb0d6>
    65f4:	deadbeef          	jal	t4,fffe1bde <_end+0xfffdb0da>
    65f8:	deadbeef          	jal	t4,fffe1be2 <_end+0xfffdb0de>
    65fc:	deadbeef          	jal	t4,fffe1be6 <_end+0xfffdb0e2>
    6600:	deadbeef          	jal	t4,fffe1bea <_end+0xfffdb0e6>
    6604:	deadbeef          	jal	t4,fffe1bee <_end+0xfffdb0ea>
    6608:	deadbeef          	jal	t4,fffe1bf2 <_end+0xfffdb0ee>
    660c:	deadbeef          	jal	t4,fffe1bf6 <_end+0xfffdb0f2>
    6610:	deadbeef          	jal	t4,fffe1bfa <_end+0xfffdb0f6>
    6614:	deadbeef          	jal	t4,fffe1bfe <_end+0xfffdb0fa>
    6618:	deadbeef          	jal	t4,fffe1c02 <_end+0xfffdb0fe>
    661c:	deadbeef          	jal	t4,fffe1c06 <_end+0xfffdb102>
    6620:	deadbeef          	jal	t4,fffe1c0a <_end+0xfffdb106>
    6624:	deadbeef          	jal	t4,fffe1c0e <_end+0xfffdb10a>
    6628:	deadbeef          	jal	t4,fffe1c12 <_end+0xfffdb10e>
    662c:	deadbeef          	jal	t4,fffe1c16 <_end+0xfffdb112>
    6630:	deadbeef          	jal	t4,fffe1c1a <_end+0xfffdb116>
    6634:	deadbeef          	jal	t4,fffe1c1e <_end+0xfffdb11a>
    6638:	deadbeef          	jal	t4,fffe1c22 <_end+0xfffdb11e>
    663c:	deadbeef          	jal	t4,fffe1c26 <_end+0xfffdb122>
    6640:	deadbeef          	jal	t4,fffe1c2a <_end+0xfffdb126>
    6644:	deadbeef          	jal	t4,fffe1c2e <_end+0xfffdb12a>
    6648:	deadbeef          	jal	t4,fffe1c32 <_end+0xfffdb12e>
    664c:	deadbeef          	jal	t4,fffe1c36 <_end+0xfffdb132>
    6650:	deadbeef          	jal	t4,fffe1c3a <_end+0xfffdb136>
    6654:	deadbeef          	jal	t4,fffe1c3e <_end+0xfffdb13a>
    6658:	deadbeef          	jal	t4,fffe1c42 <_end+0xfffdb13e>
    665c:	deadbeef          	jal	t4,fffe1c46 <_end+0xfffdb142>
    6660:	deadbeef          	jal	t4,fffe1c4a <_end+0xfffdb146>
    6664:	deadbeef          	jal	t4,fffe1c4e <_end+0xfffdb14a>
    6668:	deadbeef          	jal	t4,fffe1c52 <_end+0xfffdb14e>
    666c:	deadbeef          	jal	t4,fffe1c56 <_end+0xfffdb152>
    6670:	deadbeef          	jal	t4,fffe1c5a <_end+0xfffdb156>
    6674:	deadbeef          	jal	t4,fffe1c5e <_end+0xfffdb15a>
    6678:	deadbeef          	jal	t4,fffe1c62 <_end+0xfffdb15e>
    667c:	deadbeef          	jal	t4,fffe1c66 <_end+0xfffdb162>
    6680:	deadbeef          	jal	t4,fffe1c6a <_end+0xfffdb166>
    6684:	deadbeef          	jal	t4,fffe1c6e <_end+0xfffdb16a>
    6688:	deadbeef          	jal	t4,fffe1c72 <_end+0xfffdb16e>
    668c:	deadbeef          	jal	t4,fffe1c76 <_end+0xfffdb172>
    6690:	deadbeef          	jal	t4,fffe1c7a <_end+0xfffdb176>
    6694:	deadbeef          	jal	t4,fffe1c7e <_end+0xfffdb17a>
    6698:	deadbeef          	jal	t4,fffe1c82 <_end+0xfffdb17e>
    669c:	deadbeef          	jal	t4,fffe1c86 <_end+0xfffdb182>
    66a0:	deadbeef          	jal	t4,fffe1c8a <_end+0xfffdb186>
    66a4:	deadbeef          	jal	t4,fffe1c8e <_end+0xfffdb18a>
    66a8:	deadbeef          	jal	t4,fffe1c92 <_end+0xfffdb18e>
    66ac:	deadbeef          	jal	t4,fffe1c96 <_end+0xfffdb192>
    66b0:	deadbeef          	jal	t4,fffe1c9a <_end+0xfffdb196>
    66b4:	deadbeef          	jal	t4,fffe1c9e <_end+0xfffdb19a>
    66b8:	deadbeef          	jal	t4,fffe1ca2 <_end+0xfffdb19e>
    66bc:	deadbeef          	jal	t4,fffe1ca6 <_end+0xfffdb1a2>
    66c0:	deadbeef          	jal	t4,fffe1caa <_end+0xfffdb1a6>
    66c4:	deadbeef          	jal	t4,fffe1cae <_end+0xfffdb1aa>
    66c8:	deadbeef          	jal	t4,fffe1cb2 <_end+0xfffdb1ae>
    66cc:	deadbeef          	jal	t4,fffe1cb6 <_end+0xfffdb1b2>
    66d0:	deadbeef          	jal	t4,fffe1cba <_end+0xfffdb1b6>
    66d4:	deadbeef          	jal	t4,fffe1cbe <_end+0xfffdb1ba>
    66d8:	deadbeef          	jal	t4,fffe1cc2 <_end+0xfffdb1be>
    66dc:	deadbeef          	jal	t4,fffe1cc6 <_end+0xfffdb1c2>
    66e0:	deadbeef          	jal	t4,fffe1cca <_end+0xfffdb1c6>
    66e4:	deadbeef          	jal	t4,fffe1cce <_end+0xfffdb1ca>
    66e8:	deadbeef          	jal	t4,fffe1cd2 <_end+0xfffdb1ce>
    66ec:	deadbeef          	jal	t4,fffe1cd6 <_end+0xfffdb1d2>
    66f0:	deadbeef          	jal	t4,fffe1cda <_end+0xfffdb1d6>
    66f4:	deadbeef          	jal	t4,fffe1cde <_end+0xfffdb1da>
    66f8:	deadbeef          	jal	t4,fffe1ce2 <_end+0xfffdb1de>
    66fc:	deadbeef          	jal	t4,fffe1ce6 <_end+0xfffdb1e2>
    6700:	deadbeef          	jal	t4,fffe1cea <_end+0xfffdb1e6>
    6704:	deadbeef          	jal	t4,fffe1cee <_end+0xfffdb1ea>
    6708:	deadbeef          	jal	t4,fffe1cf2 <_end+0xfffdb1ee>
    670c:	deadbeef          	jal	t4,fffe1cf6 <_end+0xfffdb1f2>
    6710:	deadbeef          	jal	t4,fffe1cfa <_end+0xfffdb1f6>
    6714:	deadbeef          	jal	t4,fffe1cfe <_end+0xfffdb1fa>
    6718:	deadbeef          	jal	t4,fffe1d02 <_end+0xfffdb1fe>
    671c:	deadbeef          	jal	t4,fffe1d06 <_end+0xfffdb202>
    6720:	deadbeef          	jal	t4,fffe1d0a <_end+0xfffdb206>
    6724:	deadbeef          	jal	t4,fffe1d0e <_end+0xfffdb20a>
    6728:	deadbeef          	jal	t4,fffe1d12 <_end+0xfffdb20e>
    672c:	deadbeef          	jal	t4,fffe1d16 <_end+0xfffdb212>
    6730:	deadbeef          	jal	t4,fffe1d1a <_end+0xfffdb216>
    6734:	deadbeef          	jal	t4,fffe1d1e <_end+0xfffdb21a>
    6738:	deadbeef          	jal	t4,fffe1d22 <_end+0xfffdb21e>
    673c:	deadbeef          	jal	t4,fffe1d26 <_end+0xfffdb222>
    6740:	deadbeef          	jal	t4,fffe1d2a <_end+0xfffdb226>
    6744:	deadbeef          	jal	t4,fffe1d2e <_end+0xfffdb22a>
    6748:	deadbeef          	jal	t4,fffe1d32 <_end+0xfffdb22e>
    674c:	deadbeef          	jal	t4,fffe1d36 <_end+0xfffdb232>
    6750:	deadbeef          	jal	t4,fffe1d3a <_end+0xfffdb236>
    6754:	deadbeef          	jal	t4,fffe1d3e <_end+0xfffdb23a>
    6758:	deadbeef          	jal	t4,fffe1d42 <_end+0xfffdb23e>
    675c:	deadbeef          	jal	t4,fffe1d46 <_end+0xfffdb242>
    6760:	deadbeef          	jal	t4,fffe1d4a <_end+0xfffdb246>
    6764:	deadbeef          	jal	t4,fffe1d4e <_end+0xfffdb24a>
    6768:	deadbeef          	jal	t4,fffe1d52 <_end+0xfffdb24e>
    676c:	deadbeef          	jal	t4,fffe1d56 <_end+0xfffdb252>
    6770:	deadbeef          	jal	t4,fffe1d5a <_end+0xfffdb256>
    6774:	deadbeef          	jal	t4,fffe1d5e <_end+0xfffdb25a>
    6778:	deadbeef          	jal	t4,fffe1d62 <_end+0xfffdb25e>
    677c:	deadbeef          	jal	t4,fffe1d66 <_end+0xfffdb262>
    6780:	deadbeef          	jal	t4,fffe1d6a <_end+0xfffdb266>
    6784:	deadbeef          	jal	t4,fffe1d6e <_end+0xfffdb26a>
    6788:	deadbeef          	jal	t4,fffe1d72 <_end+0xfffdb26e>
    678c:	deadbeef          	jal	t4,fffe1d76 <_end+0xfffdb272>
    6790:	deadbeef          	jal	t4,fffe1d7a <_end+0xfffdb276>
    6794:	deadbeef          	jal	t4,fffe1d7e <_end+0xfffdb27a>
    6798:	deadbeef          	jal	t4,fffe1d82 <_end+0xfffdb27e>
    679c:	deadbeef          	jal	t4,fffe1d86 <_end+0xfffdb282>
    67a0:	deadbeef          	jal	t4,fffe1d8a <_end+0xfffdb286>
    67a4:	deadbeef          	jal	t4,fffe1d8e <_end+0xfffdb28a>
    67a8:	deadbeef          	jal	t4,fffe1d92 <_end+0xfffdb28e>
    67ac:	deadbeef          	jal	t4,fffe1d96 <_end+0xfffdb292>
    67b0:	deadbeef          	jal	t4,fffe1d9a <_end+0xfffdb296>
    67b4:	deadbeef          	jal	t4,fffe1d9e <_end+0xfffdb29a>
    67b8:	deadbeef          	jal	t4,fffe1da2 <_end+0xfffdb29e>
    67bc:	deadbeef          	jal	t4,fffe1da6 <_end+0xfffdb2a2>
    67c0:	deadbeef          	jal	t4,fffe1daa <_end+0xfffdb2a6>
    67c4:	deadbeef          	jal	t4,fffe1dae <_end+0xfffdb2aa>
    67c8:	deadbeef          	jal	t4,fffe1db2 <_end+0xfffdb2ae>
    67cc:	deadbeef          	jal	t4,fffe1db6 <_end+0xfffdb2b2>
    67d0:	deadbeef          	jal	t4,fffe1dba <_end+0xfffdb2b6>
    67d4:	deadbeef          	jal	t4,fffe1dbe <_end+0xfffdb2ba>
    67d8:	deadbeef          	jal	t4,fffe1dc2 <_end+0xfffdb2be>
    67dc:	deadbeef          	jal	t4,fffe1dc6 <_end+0xfffdb2c2>
    67e0:	deadbeef          	jal	t4,fffe1dca <_end+0xfffdb2c6>
    67e4:	deadbeef          	jal	t4,fffe1dce <_end+0xfffdb2ca>
    67e8:	deadbeef          	jal	t4,fffe1dd2 <_end+0xfffdb2ce>
    67ec:	deadbeef          	jal	t4,fffe1dd6 <_end+0xfffdb2d2>
    67f0:	deadbeef          	jal	t4,fffe1dda <_end+0xfffdb2d6>
    67f4:	deadbeef          	jal	t4,fffe1dde <_end+0xfffdb2da>
    67f8:	deadbeef          	jal	t4,fffe1de2 <_end+0xfffdb2de>
    67fc:	deadbeef          	jal	t4,fffe1de6 <_end+0xfffdb2e2>
    6800:	deadbeef          	jal	t4,fffe1dea <_end+0xfffdb2e6>
    6804:	deadbeef          	jal	t4,fffe1dee <_end+0xfffdb2ea>
    6808:	deadbeef          	jal	t4,fffe1df2 <_end+0xfffdb2ee>
    680c:	deadbeef          	jal	t4,fffe1df6 <_end+0xfffdb2f2>
    6810:	deadbeef          	jal	t4,fffe1dfa <_end+0xfffdb2f6>
    6814:	deadbeef          	jal	t4,fffe1dfe <_end+0xfffdb2fa>
    6818:	deadbeef          	jal	t4,fffe1e02 <_end+0xfffdb2fe>
    681c:	deadbeef          	jal	t4,fffe1e06 <_end+0xfffdb302>
    6820:	deadbeef          	jal	t4,fffe1e0a <_end+0xfffdb306>
    6824:	deadbeef          	jal	t4,fffe1e0e <_end+0xfffdb30a>
    6828:	deadbeef          	jal	t4,fffe1e12 <_end+0xfffdb30e>
    682c:	deadbeef          	jal	t4,fffe1e16 <_end+0xfffdb312>
    6830:	deadbeef          	jal	t4,fffe1e1a <_end+0xfffdb316>
    6834:	deadbeef          	jal	t4,fffe1e1e <_end+0xfffdb31a>
    6838:	deadbeef          	jal	t4,fffe1e22 <_end+0xfffdb31e>
    683c:	deadbeef          	jal	t4,fffe1e26 <_end+0xfffdb322>
    6840:	deadbeef          	jal	t4,fffe1e2a <_end+0xfffdb326>
    6844:	deadbeef          	jal	t4,fffe1e2e <_end+0xfffdb32a>
    6848:	deadbeef          	jal	t4,fffe1e32 <_end+0xfffdb32e>
    684c:	deadbeef          	jal	t4,fffe1e36 <_end+0xfffdb332>
    6850:	deadbeef          	jal	t4,fffe1e3a <_end+0xfffdb336>
    6854:	deadbeef          	jal	t4,fffe1e3e <_end+0xfffdb33a>
    6858:	deadbeef          	jal	t4,fffe1e42 <_end+0xfffdb33e>
    685c:	deadbeef          	jal	t4,fffe1e46 <_end+0xfffdb342>
    6860:	deadbeef          	jal	t4,fffe1e4a <_end+0xfffdb346>
    6864:	deadbeef          	jal	t4,fffe1e4e <_end+0xfffdb34a>
    6868:	deadbeef          	jal	t4,fffe1e52 <_end+0xfffdb34e>
    686c:	deadbeef          	jal	t4,fffe1e56 <_end+0xfffdb352>
    6870:	deadbeef          	jal	t4,fffe1e5a <_end+0xfffdb356>
    6874:	deadbeef          	jal	t4,fffe1e5e <_end+0xfffdb35a>
    6878:	deadbeef          	jal	t4,fffe1e62 <_end+0xfffdb35e>
    687c:	deadbeef          	jal	t4,fffe1e66 <_end+0xfffdb362>
    6880:	deadbeef          	jal	t4,fffe1e6a <_end+0xfffdb366>

00006884 <signature_x1_1>:
    6884:	deadbeef          	jal	t4,fffe1e6e <_end+0xfffdb36a>
    6888:	deadbeef          	jal	t4,fffe1e72 <_end+0xfffdb36e>
    688c:	deadbeef          	jal	t4,fffe1e76 <_end+0xfffdb372>
    6890:	deadbeef          	jal	t4,fffe1e7a <_end+0xfffdb376>
    6894:	deadbeef          	jal	t4,fffe1e7e <_end+0xfffdb37a>
    6898:	deadbeef          	jal	t4,fffe1e82 <_end+0xfffdb37e>
    689c:	deadbeef          	jal	t4,fffe1e86 <_end+0xfffdb382>
    68a0:	deadbeef          	jal	t4,fffe1e8a <_end+0xfffdb386>
    68a4:	deadbeef          	jal	t4,fffe1e8e <_end+0xfffdb38a>
    68a8:	deadbeef          	jal	t4,fffe1e92 <_end+0xfffdb38e>
    68ac:	deadbeef          	jal	t4,fffe1e96 <_end+0xfffdb392>
    68b0:	deadbeef          	jal	t4,fffe1e9a <_end+0xfffdb396>
    68b4:	deadbeef          	jal	t4,fffe1e9e <_end+0xfffdb39a>
    68b8:	deadbeef          	jal	t4,fffe1ea2 <_end+0xfffdb39e>
    68bc:	deadbeef          	jal	t4,fffe1ea6 <_end+0xfffdb3a2>
    68c0:	deadbeef          	jal	t4,fffe1eaa <_end+0xfffdb3a6>
    68c4:	deadbeef          	jal	t4,fffe1eae <_end+0xfffdb3aa>
    68c8:	deadbeef          	jal	t4,fffe1eb2 <_end+0xfffdb3ae>
    68cc:	deadbeef          	jal	t4,fffe1eb6 <_end+0xfffdb3b2>
    68d0:	deadbeef          	jal	t4,fffe1eba <_end+0xfffdb3b6>
    68d4:	deadbeef          	jal	t4,fffe1ebe <_end+0xfffdb3ba>
    68d8:	deadbeef          	jal	t4,fffe1ec2 <_end+0xfffdb3be>
    68dc:	deadbeef          	jal	t4,fffe1ec6 <_end+0xfffdb3c2>
    68e0:	deadbeef          	jal	t4,fffe1eca <_end+0xfffdb3c6>
    68e4:	deadbeef          	jal	t4,fffe1ece <_end+0xfffdb3ca>
    68e8:	deadbeef          	jal	t4,fffe1ed2 <_end+0xfffdb3ce>
    68ec:	deadbeef          	jal	t4,fffe1ed6 <_end+0xfffdb3d2>
    68f0:	deadbeef          	jal	t4,fffe1eda <_end+0xfffdb3d6>
    68f4:	deadbeef          	jal	t4,fffe1ede <_end+0xfffdb3da>
    68f8:	deadbeef          	jal	t4,fffe1ee2 <_end+0xfffdb3de>
    68fc:	deadbeef          	jal	t4,fffe1ee6 <_end+0xfffdb3e2>
    6900:	deadbeef          	jal	t4,fffe1eea <_end+0xfffdb3e6>
    6904:	deadbeef          	jal	t4,fffe1eee <_end+0xfffdb3ea>
    6908:	deadbeef          	jal	t4,fffe1ef2 <_end+0xfffdb3ee>
    690c:	deadbeef          	jal	t4,fffe1ef6 <_end+0xfffdb3f2>
    6910:	deadbeef          	jal	t4,fffe1efa <_end+0xfffdb3f6>
    6914:	deadbeef          	jal	t4,fffe1efe <_end+0xfffdb3fa>
    6918:	deadbeef          	jal	t4,fffe1f02 <_end+0xfffdb3fe>
    691c:	deadbeef          	jal	t4,fffe1f06 <_end+0xfffdb402>
    6920:	deadbeef          	jal	t4,fffe1f0a <_end+0xfffdb406>
    6924:	deadbeef          	jal	t4,fffe1f0e <_end+0xfffdb40a>
    6928:	deadbeef          	jal	t4,fffe1f12 <_end+0xfffdb40e>
    692c:	deadbeef          	jal	t4,fffe1f16 <_end+0xfffdb412>
    6930:	deadbeef          	jal	t4,fffe1f1a <_end+0xfffdb416>
    6934:	deadbeef          	jal	t4,fffe1f1e <_end+0xfffdb41a>
    6938:	0000                	.insn	2, 0x0000
    693a:	0000                	.insn	2, 0x0000
    693c:	0000                	.insn	2, 0x0000
    693e:	0000                	.insn	2, 0x0000

00006940 <end_signature>:
    6940:	0000                	.insn	2, 0x0000
    6942:	0000                	.insn	2, 0x0000
    6944:	0000                	.insn	2, 0x0000
    6946:	0000                	.insn	2, 0x0000
    6948:	0000                	.insn	2, 0x0000
    694a:	0000                	.insn	2, 0x0000
    694c:	0000                	.insn	2, 0x0000
    694e:	0000                	.insn	2, 0x0000
    6950:	0000                	.insn	2, 0x0000
    6952:	0000                	.insn	2, 0x0000
    6954:	0000                	.insn	2, 0x0000
    6956:	0000                	.insn	2, 0x0000
    6958:	0000                	.insn	2, 0x0000
    695a:	0000                	.insn	2, 0x0000
    695c:	0000                	.insn	2, 0x0000
    695e:	0000                	.insn	2, 0x0000
    6960:	0000                	.insn	2, 0x0000
    6962:	0000                	.insn	2, 0x0000
    6964:	0000                	.insn	2, 0x0000
    6966:	0000                	.insn	2, 0x0000
    6968:	0000                	.insn	2, 0x0000
    696a:	0000                	.insn	2, 0x0000
    696c:	0000                	.insn	2, 0x0000
    696e:	0000                	.insn	2, 0x0000
    6970:	0000                	.insn	2, 0x0000
    6972:	0000                	.insn	2, 0x0000
    6974:	0000                	.insn	2, 0x0000
    6976:	0000                	.insn	2, 0x0000
    6978:	0000                	.insn	2, 0x0000
    697a:	0000                	.insn	2, 0x0000
    697c:	0000                	.insn	2, 0x0000
    697e:	0000                	.insn	2, 0x0000
    6980:	0000                	.insn	2, 0x0000
    6982:	0000                	.insn	2, 0x0000
    6984:	0000                	.insn	2, 0x0000
    6986:	0000                	.insn	2, 0x0000
    6988:	0000                	.insn	2, 0x0000
    698a:	0000                	.insn	2, 0x0000
    698c:	0000                	.insn	2, 0x0000
    698e:	0000                	.insn	2, 0x0000
    6990:	0000                	.insn	2, 0x0000
    6992:	0000                	.insn	2, 0x0000
    6994:	0000                	.insn	2, 0x0000
    6996:	0000                	.insn	2, 0x0000
    6998:	0000                	.insn	2, 0x0000
    699a:	0000                	.insn	2, 0x0000
    699c:	0000                	.insn	2, 0x0000
    699e:	0000                	.insn	2, 0x0000
    69a0:	0000                	.insn	2, 0x0000
    69a2:	0000                	.insn	2, 0x0000
    69a4:	0000                	.insn	2, 0x0000
    69a6:	0000                	.insn	2, 0x0000
    69a8:	0000                	.insn	2, 0x0000
    69aa:	0000                	.insn	2, 0x0000
    69ac:	0000                	.insn	2, 0x0000
    69ae:	0000                	.insn	2, 0x0000
    69b0:	0000                	.insn	2, 0x0000
    69b2:	0000                	.insn	2, 0x0000
    69b4:	0000                	.insn	2, 0x0000
    69b6:	0000                	.insn	2, 0x0000
    69b8:	0000                	.insn	2, 0x0000
    69ba:	0000                	.insn	2, 0x0000
    69bc:	0000                	.insn	2, 0x0000
    69be:	0000                	.insn	2, 0x0000
    69c0:	0000                	.insn	2, 0x0000
    69c2:	0000                	.insn	2, 0x0000
    69c4:	0000                	.insn	2, 0x0000
    69c6:	0000                	.insn	2, 0x0000
    69c8:	0000                	.insn	2, 0x0000
    69ca:	0000                	.insn	2, 0x0000
    69cc:	0000                	.insn	2, 0x0000
    69ce:	0000                	.insn	2, 0x0000
    69d0:	0000                	.insn	2, 0x0000
    69d2:	0000                	.insn	2, 0x0000
    69d4:	0000                	.insn	2, 0x0000
    69d6:	0000                	.insn	2, 0x0000
    69d8:	0000                	.insn	2, 0x0000
    69da:	0000                	.insn	2, 0x0000
    69dc:	0000                	.insn	2, 0x0000
    69de:	0000                	.insn	2, 0x0000
    69e0:	0000                	.insn	2, 0x0000
    69e2:	0000                	.insn	2, 0x0000
    69e4:	0000                	.insn	2, 0x0000
    69e6:	0000                	.insn	2, 0x0000
    69e8:	0000                	.insn	2, 0x0000
    69ea:	0000                	.insn	2, 0x0000
    69ec:	0000                	.insn	2, 0x0000
    69ee:	0000                	.insn	2, 0x0000
    69f0:	0000                	.insn	2, 0x0000
    69f2:	0000                	.insn	2, 0x0000
    69f4:	0000                	.insn	2, 0x0000
    69f6:	0000                	.insn	2, 0x0000
    69f8:	0000                	.insn	2, 0x0000
    69fa:	0000                	.insn	2, 0x0000
    69fc:	0000                	.insn	2, 0x0000
    69fe:	0000                	.insn	2, 0x0000

00006a00 <begin_regstate>:
    6a00:	0080                	.insn	2, 0x0080
    6a02:	0000                	.insn	2, 0x0000
    6a04:	0000                	.insn	2, 0x0000
    6a06:	0000                	.insn	2, 0x0000
    6a08:	0000                	.insn	2, 0x0000
    6a0a:	0000                	.insn	2, 0x0000
    6a0c:	0000                	.insn	2, 0x0000
    6a0e:	0000                	.insn	2, 0x0000
    6a10:	0000                	.insn	2, 0x0000
    6a12:	0000                	.insn	2, 0x0000
    6a14:	0000                	.insn	2, 0x0000
    6a16:	0000                	.insn	2, 0x0000
    6a18:	0000                	.insn	2, 0x0000
    6a1a:	0000                	.insn	2, 0x0000
    6a1c:	0000                	.insn	2, 0x0000
    6a1e:	0000                	.insn	2, 0x0000
    6a20:	0000                	.insn	2, 0x0000
    6a22:	0000                	.insn	2, 0x0000
    6a24:	0000                	.insn	2, 0x0000
    6a26:	0000                	.insn	2, 0x0000
    6a28:	0000                	.insn	2, 0x0000
    6a2a:	0000                	.insn	2, 0x0000
    6a2c:	0000                	.insn	2, 0x0000
    6a2e:	0000                	.insn	2, 0x0000
    6a30:	0000                	.insn	2, 0x0000
    6a32:	0000                	.insn	2, 0x0000
    6a34:	0000                	.insn	2, 0x0000
    6a36:	0000                	.insn	2, 0x0000
    6a38:	0000                	.insn	2, 0x0000
    6a3a:	0000                	.insn	2, 0x0000
    6a3c:	0000                	.insn	2, 0x0000
    6a3e:	0000                	.insn	2, 0x0000
    6a40:	0000                	.insn	2, 0x0000
    6a42:	0000                	.insn	2, 0x0000
    6a44:	0000                	.insn	2, 0x0000
    6a46:	0000                	.insn	2, 0x0000
    6a48:	0000                	.insn	2, 0x0000
    6a4a:	0000                	.insn	2, 0x0000
    6a4c:	0000                	.insn	2, 0x0000
    6a4e:	0000                	.insn	2, 0x0000
    6a50:	0000                	.insn	2, 0x0000
    6a52:	0000                	.insn	2, 0x0000
    6a54:	0000                	.insn	2, 0x0000
    6a56:	0000                	.insn	2, 0x0000
    6a58:	0000                	.insn	2, 0x0000
    6a5a:	0000                	.insn	2, 0x0000
    6a5c:	0000                	.insn	2, 0x0000
    6a5e:	0000                	.insn	2, 0x0000
    6a60:	0000                	.insn	2, 0x0000
    6a62:	0000                	.insn	2, 0x0000
    6a64:	0000                	.insn	2, 0x0000
    6a66:	0000                	.insn	2, 0x0000
    6a68:	0000                	.insn	2, 0x0000
    6a6a:	0000                	.insn	2, 0x0000
    6a6c:	0000                	.insn	2, 0x0000
    6a6e:	0000                	.insn	2, 0x0000
    6a70:	0000                	.insn	2, 0x0000
    6a72:	0000                	.insn	2, 0x0000
    6a74:	0000                	.insn	2, 0x0000
    6a76:	0000                	.insn	2, 0x0000
    6a78:	0000                	.insn	2, 0x0000
    6a7a:	0000                	.insn	2, 0x0000
    6a7c:	0000                	.insn	2, 0x0000
    6a7e:	0000                	.insn	2, 0x0000
    6a80:	0000                	.insn	2, 0x0000
    6a82:	0000                	.insn	2, 0x0000
    6a84:	0000                	.insn	2, 0x0000
    6a86:	0000                	.insn	2, 0x0000
    6a88:	0000                	.insn	2, 0x0000
    6a8a:	0000                	.insn	2, 0x0000
    6a8c:	0000                	.insn	2, 0x0000
    6a8e:	0000                	.insn	2, 0x0000
    6a90:	0000                	.insn	2, 0x0000
    6a92:	0000                	.insn	2, 0x0000
    6a94:	0000                	.insn	2, 0x0000
    6a96:	0000                	.insn	2, 0x0000
    6a98:	0000                	.insn	2, 0x0000
    6a9a:	0000                	.insn	2, 0x0000
    6a9c:	0000                	.insn	2, 0x0000
    6a9e:	0000                	.insn	2, 0x0000
    6aa0:	0000                	.insn	2, 0x0000
    6aa2:	0000                	.insn	2, 0x0000
    6aa4:	0000                	.insn	2, 0x0000
    6aa6:	0000                	.insn	2, 0x0000
    6aa8:	0000                	.insn	2, 0x0000
    6aaa:	0000                	.insn	2, 0x0000
    6aac:	0000                	.insn	2, 0x0000
    6aae:	0000                	.insn	2, 0x0000
    6ab0:	0000                	.insn	2, 0x0000
    6ab2:	0000                	.insn	2, 0x0000
    6ab4:	0000                	.insn	2, 0x0000
    6ab6:	0000                	.insn	2, 0x0000
    6ab8:	0000                	.insn	2, 0x0000
    6aba:	0000                	.insn	2, 0x0000
    6abc:	0000                	.insn	2, 0x0000
    6abe:	0000                	.insn	2, 0x0000
    6ac0:	0000                	.insn	2, 0x0000
    6ac2:	0000                	.insn	2, 0x0000
    6ac4:	0000                	.insn	2, 0x0000
    6ac6:	0000                	.insn	2, 0x0000
    6ac8:	0000                	.insn	2, 0x0000
    6aca:	0000                	.insn	2, 0x0000
    6acc:	0000                	.insn	2, 0x0000
    6ace:	0000                	.insn	2, 0x0000
    6ad0:	0000                	.insn	2, 0x0000
    6ad2:	0000                	.insn	2, 0x0000
    6ad4:	0000                	.insn	2, 0x0000
    6ad6:	0000                	.insn	2, 0x0000
    6ad8:	0000                	.insn	2, 0x0000
    6ada:	0000                	.insn	2, 0x0000
    6adc:	0000                	.insn	2, 0x0000
    6ade:	0000                	.insn	2, 0x0000
    6ae0:	0000                	.insn	2, 0x0000
    6ae2:	0000                	.insn	2, 0x0000
    6ae4:	0000                	.insn	2, 0x0000
    6ae6:	0000                	.insn	2, 0x0000
    6ae8:	0000                	.insn	2, 0x0000
    6aea:	0000                	.insn	2, 0x0000
    6aec:	0000                	.insn	2, 0x0000
    6aee:	0000                	.insn	2, 0x0000
    6af0:	0000                	.insn	2, 0x0000
    6af2:	0000                	.insn	2, 0x0000
    6af4:	0000                	.insn	2, 0x0000
    6af6:	0000                	.insn	2, 0x0000
    6af8:	0000                	.insn	2, 0x0000
    6afa:	0000                	.insn	2, 0x0000
    6afc:	0000                	.insn	2, 0x0000
    6afe:	0000                	.insn	2, 0x0000

00006b00 <end_regstate>:
    6b00:	0004                	.insn	2, 0x0004
    6b02:	0000                	.insn	2, 0x0000
