
divu-01.riscv:     file format elf32-littleriscv

Sections:
Idx Name          Size      VMA       LMA       File off  Algn
  0 .text.init    00003be4  00000200  00000200  00000200  2**5
                  CONTENTS, ALLOC, LOAD, READONLY, CODE
  1 .text         00000008  00003de4  00003de4  00003de4  2**2
                  CONTENTS, ALLOC, LOAD, READONLY, CODE
  2 .data         00000004  00003df0  00003df0  00003df0  2**4
                  CONTENTS, ALLOC, LOAD, DATA
  3 .tohost       00000108  00003e00  00003e00  00003e00  2**8
                  CONTENTS, ALLOC, LOAD, DATA
  4 .io_buf       00000d04  00006000  00006000  00004000  2**8
                  CONTENTS, ALLOC, LOAD, READONLY, DATA
  5 .riscv.attributes 00000031  00000000  00000000  00004d04  2**0
                  CONTENTS, READONLY

Disassembly of section .text.init:

00000200 <rvtest_code_begin>:
     200:	00006597          	auipc	a1,0x6
     204:	e0058593          	addi	a1,a1,-512 # 6000 <begin_signature>

00000208 <inst_0>:
     208:	66666fb7          	lui	t6,0x66666
     20c:	666f8f93          	addi	t6,t6,1638 # 66666666 <_end+0x6665f962>
     210:	ffc00f37          	lui	t5,0xffc00
     214:	ffff0f13          	addi	t5,t5,-1 # ffbfffff <_end+0xffbf92fb>
     218:	03efdfb3          	divu	t6,t6,t5
     21c:	01f5a023          	sw	t6,0(a1)

00000220 <inst_1>:
     220:	00010837          	lui	a6,0x10
     224:	ffe80813          	addi	a6,a6,-2 # fffe <_end+0x92fa>
     228:	00010837          	lui	a6,0x10
     22c:	ffe80813          	addi	a6,a6,-2 # fffe <_end+0x92fa>
     230:	03085233          	divu	tp,a6,a6
     234:	0045a223          	sw	tp,4(a1)

00000238 <inst_2>:
     238:	aaaabdb7          	lui	s11,0xaaaab
     23c:	aaad8d93          	addi	s11,s11,-1366 # aaaaaaaa <_end+0xaaaa3da6>
     240:	00000e93          	li	t4,0
     244:	03dddeb3          	divu	t4,s11,t4
     248:	01d5a423          	sw	t4,8(a1)

0000024c <inst_3>:
     24c:	00200637          	lui	a2,0x200
     250:	fff00293          	li	t0,-1
     254:	02565433          	divu	s0,a2,t0
     258:	0085a623          	sw	s0,12(a1)

0000025c <inst_4>:
     25c:	00040337          	lui	t1,0x40
     260:	00040337          	lui	t1,0x40
     264:	02635333          	divu	t1,t1,t1
     268:	0065a823          	sw	t1,16(a1)

0000026c <inst_5>:
     26c:	00000f13          	li	t5,0
     270:	fff80cb7          	lui	s9,0xfff80
     274:	fffc8c93          	addi	s9,s9,-1 # fff7ffff <_end+0xfff792fb>
     278:	039f5ab3          	divu	s5,t5,s9
     27c:	0155aa23          	sw	s5,20(a1)

00000280 <inst_6>:
     280:	fff00113          	li	sp,-1
     284:	00008937          	lui	s2,0x8
     288:	032159b3          	divu	s3,sp,s2
     28c:	0135ac23          	sw	s3,24(a1)

00000290 <inst_7>:
     290:	00100a13          	li	s4,1
     294:	00000013          	nop
     298:	020a5f33          	divu	t5,s4,zero
     29c:	01e5ae23          	sw	t5,28(a1)

000002a0 <inst_8>:
     2a0:	ffff07b7          	lui	a5,0xffff0
     2a4:	fff78793          	addi	a5,a5,-1 # fffeffff <_end+0xfffe92fb>
     2a8:	00200f93          	li	t6,2
     2ac:	03f7d2b3          	divu	t0,a5,t6
     2b0:	0255a023          	sw	t0,32(a1)

000002b4 <inst_9>:
     2b4:	00040537          	lui	a0,0x40
     2b8:	00400e13          	li	t3,4
     2bc:	03c55b33          	divu	s6,a0,t3
     2c0:	0365a223          	sw	s6,36(a1)

000002c4 <inst_10>:
     2c4:	00600393          	li	t2,6
     2c8:	00800a13          	li	s4,8
     2cc:	0343d7b3          	divu	a5,t2,s4
     2d0:	02f5a423          	sw	a5,40(a1)

000002d4 <inst_11>:
     2d4:	00001cb7          	lui	s9,0x1
     2d8:	800c8c93          	addi	s9,s9,-2048 # 800 <inst_80+0x10>
     2dc:	01000d93          	li	s11,16
     2e0:	03bcde33          	divu	t3,s9,s11
     2e4:	03c5a623          	sw	t3,44(a1)

000002e8 <inst_12>:
     2e8:	00080437          	lui	s0,0x80
     2ec:	02000d13          	li	s10,32
     2f0:	03a45633          	divu	a2,s0,s10
     2f4:	02c5a823          	sw	a2,48(a1)

000002f8 <inst_13>:
     2f8:	002006b7          	lui	a3,0x200
     2fc:	04000893          	li	a7,64
     300:	0316d933          	divu	s2,a3,a7
     304:	0325aa23          	sw	s2,52(a1)

00000308 <inst_14>:
     308:	ffff84b7          	lui	s1,0xffff8
     30c:	fff48493          	addi	s1,s1,-1 # ffff7fff <_end+0xffff12fb>
     310:	08000c13          	li	s8,128
     314:	0384ddb3          	divu	s11,s1,s8
     318:	03b5ac23          	sw	s11,56(a1)

0000031c <inst_15>:
     31c:	00000193          	li	gp,0
     320:	10000093          	li	ra,256
     324:	0211dcb3          	divu	s9,gp,ra
     328:	0395ae23          	sw	s9,60(a1)
     32c:	00006317          	auipc	t1,0x6
     330:	d1430313          	addi	t1,t1,-748 # 6040 <signature_x6_0>

00000334 <inst_16>:
     334:	fffff937          	lui	s2,0xfffff
     338:	7ff90913          	addi	s2,s2,2047 # fffff7ff <_end+0xffff8afb>
     33c:	20000613          	li	a2,512
     340:	02c956b3          	divu	a3,s2,a2
     344:	00d32023          	sw	a3,0(t1)

00000348 <inst_17>:
     348:	400009b7          	lui	s3,0x40000
     34c:	40000193          	li	gp,1024
     350:	0239d3b3          	divu	t2,s3,gp
     354:	00732223          	sw	t2,4(t1)

00000358 <inst_18>:
     358:	ffe002b7          	lui	t0,0xffe00
     35c:	fff28293          	addi	t0,t0,-1 # ffdfffff <_end+0xffdf92fb>
     360:	00001b37          	lui	s6,0x1
     364:	800b0b13          	addi	s6,s6,-2048 # 800 <inst_80+0x10>
     368:	0362d1b3          	divu	gp,t0,s6
     36c:	00332423          	sw	gp,8(t1)

00000370 <inst_19>:
     370:	00200093          	li	ra,2
     374:	000013b7          	lui	t2,0x1
     378:	0270d733          	divu	a4,ra,t2
     37c:	00e32623          	sw	a4,12(t1)

00000380 <inst_20>:
     380:	fff008b7          	lui	a7,0xfff00
     384:	fff88893          	addi	a7,a7,-1 # ffefffff <_end+0xffef92fb>
     388:	000026b7          	lui	a3,0x2
     38c:	02d8d5b3          	divu	a1,a7,a3
     390:	00b32823          	sw	a1,16(t1)

00000394 <inst_21>:
     394:	00e00b93          	li	s7,14
     398:	00004237          	lui	tp,0x4
     39c:	024bda33          	divu	s4,s7,tp
     3a0:	01432a23          	sw	s4,20(t1)

000003a4 <inst_22>:
     3a4:	ffc005b7          	lui	a1,0xffc00
     3a8:	fff58593          	addi	a1,a1,-1 # ffbfffff <_end+0xffbf92fb>
     3ac:	00010737          	lui	a4,0x10
     3b0:	02e5d4b3          	divu	s1,a1,a4
     3b4:	00932c23          	sw	s1,24(t1)

000003b8 <inst_23>:
     3b8:	aaaabc37          	lui	s8,0xaaaab
     3bc:	aaac0c13          	addi	s8,s8,-1366 # aaaaaaaa <_end+0xaaaa3da6>
     3c0:	00020537          	lui	a0,0x20
     3c4:	02ac5833          	divu	a6,s8,a0
     3c8:	01032e23          	sw	a6,28(t1)

000003cc <inst_24>:
     3cc:	00000013          	nop
     3d0:	000409b7          	lui	s3,0x40
     3d4:	03305c33          	divu	s8,zero,s3
     3d8:	03832023          	sw	s8,32(t1)

000003dc <inst_25>:
     3dc:	fffe0b37          	lui	s6,0xfffe0
     3e0:	fffb0b13          	addi	s6,s6,-1 # fffdffff <_end+0xfffd92fb>
     3e4:	00080ab7          	lui	s5,0x80
     3e8:	035b50b3          	divu	ra,s6,s5
     3ec:	02132223          	sw	ra,36(t1)

000003f0 <inst_26>:
     3f0:	00001e37          	lui	t3,0x1
     3f4:	800e0e13          	addi	t3,t3,-2048 # 800 <inst_80+0x10>
     3f8:	001004b7          	lui	s1,0x100
     3fc:	029e5533          	divu	a0,t3,s1
     400:	02a32423          	sw	a0,40(t1)

00000404 <inst_27>:
     404:	0000bab7          	lui	s5,0xb
     408:	505a8a93          	addi	s5,s5,1285 # b505 <_end+0x4801>
     40c:	00200437          	lui	s0,0x200
     410:	028ad8b3          	divu	a7,s5,s0
     414:	03132623          	sw	a7,44(t1)

00000418 <inst_28>:
     418:	01000713          	li	a4,16
     41c:	004005b7          	lui	a1,0x400
     420:	02b75bb3          	divu	s7,a4,a1
     424:	03732823          	sw	s7,48(t1)

00000428 <inst_29>:
     428:	ffe00d37          	lui	s10,0xffe00
     42c:	fffd0d13          	addi	s10,s10,-1 # ffdfffff <_end+0xffdf92fb>
     430:	008007b7          	lui	a5,0x800
     434:	02fd5033          	divu	zero,s10,a5
     438:	02032a23          	sw	zero,52(t1)

0000043c <inst_30>:
     43c:	ffc00eb7          	lui	t4,0xffc00
     440:	fffe8e93          	addi	t4,t4,-1 # ffbfffff <_end+0xffbf92fb>
     444:	01000137          	lui	sp,0x1000
     448:	022edd33          	divu	s10,t4,sp
     44c:	03a32c23          	sw	s10,56(t1)

00000450 <inst_31>:
     450:	02000237          	lui	tp,0x2000
     454:	02000bb7          	lui	s7,0x2000
     458:	03725133          	divu	sp,tp,s7
     45c:	02232e23          	sw	sp,60(t1)

00000460 <inst_32>:
     460:	eff00513          	li	a0,-257
     464:	040005b7          	lui	a1,0x4000
     468:	02b55633          	divu	a2,a0,a1
     46c:	04c32023          	sw	a2,64(t1)

00000470 <inst_33>:
     470:	fffff537          	lui	a0,0xfffff
     474:	fff50513          	addi	a0,a0,-1 # ffffefff <_end+0xffff82fb>
     478:	080005b7          	lui	a1,0x8000
     47c:	02b55633          	divu	a2,a0,a1
     480:	04c32223          	sw	a2,68(t1)

00000484 <inst_34>:
     484:	00f00513          	li	a0,15
     488:	100005b7          	lui	a1,0x10000
     48c:	02b55633          	divu	a2,a0,a1
     490:	04c32423          	sw	a2,72(t1)

00000494 <inst_35>:
     494:	00900513          	li	a0,9
     498:	200005b7          	lui	a1,0x20000
     49c:	02b55633          	divu	a2,a0,a1
     4a0:	04c32623          	sw	a2,76(t1)

000004a4 <inst_36>:
     4a4:	00000513          	li	a0,0
     4a8:	400005b7          	lui	a1,0x40000
     4ac:	02b55633          	divu	a2,a0,a1
     4b0:	04c32823          	sw	a2,80(t1)

000004b4 <inst_37>:
     4b4:	00d00513          	li	a0,13
     4b8:	800005b7          	lui	a1,0x80000
     4bc:	02b55633          	divu	a2,a0,a1
     4c0:	04c32a23          	sw	a2,84(t1)

000004c4 <inst_38>:
     4c4:	01100513          	li	a0,17
     4c8:	ffe00593          	li	a1,-2
     4cc:	02b55633          	divu	a2,a0,a1
     4d0:	04c32c23          	sw	a2,88(t1)

000004d4 <inst_39>:
     4d4:	08000513          	li	a0,128
     4d8:	ffd00593          	li	a1,-3
     4dc:	02b55633          	divu	a2,a0,a1
     4e0:	04c32e23          	sw	a2,92(t1)

000004e4 <inst_40>:
     4e4:	00200513          	li	a0,2
     4e8:	ffb00593          	li	a1,-5
     4ec:	02b55633          	divu	a2,a0,a1
     4f0:	06c32023          	sw	a2,96(t1)

000004f4 <inst_41>:
     4f4:	fff00537          	lui	a0,0xfff00
     4f8:	fff50513          	addi	a0,a0,-1 # ffefffff <_end+0xffef92fb>
     4fc:	ff700593          	li	a1,-9
     500:	02b55633          	divu	a2,a0,a1
     504:	06c32223          	sw	a2,100(t1)

00000508 <inst_42>:
     508:	80000537          	lui	a0,0x80000
     50c:	fff50513          	addi	a0,a0,-1 # 7fffffff <_end+0x7fff92fb>
     510:	fef00593          	li	a1,-17
     514:	02b55633          	divu	a2,a0,a1
     518:	06c32423          	sw	a2,104(t1)

0000051c <inst_43>:
     51c:	00c00513          	li	a0,12
     520:	fdf00593          	li	a1,-33
     524:	02b55633          	divu	a2,a0,a1
     528:	06c32623          	sw	a2,108(t1)

0000052c <inst_44>:
     52c:	00800537          	lui	a0,0x800
     530:	fbf00593          	li	a1,-65
     534:	02b55633          	divu	a2,a0,a1
     538:	06c32823          	sw	a2,112(t1)

0000053c <inst_45>:
     53c:	fff00513          	li	a0,-1
     540:	f7f00593          	li	a1,-129
     544:	02b55633          	divu	a2,a0,a1
     548:	06c32a23          	sw	a2,116(t1)

0000054c <inst_46>:
     54c:	00e00513          	li	a0,14
     550:	eff00593          	li	a1,-257
     554:	02b55633          	divu	a2,a0,a1
     558:	06c32c23          	sw	a2,120(t1)

0000055c <inst_47>:
     55c:	fef00513          	li	a0,-17
     560:	dff00593          	li	a1,-513
     564:	02b55633          	divu	a2,a0,a1
     568:	06c32e23          	sw	a2,124(t1)

0000056c <inst_48>:
     56c:	00010537          	lui	a0,0x10
     570:	bff00593          	li	a1,-1025
     574:	02b55633          	divu	a2,a0,a1
     578:	08c32023          	sw	a2,128(t1)

0000057c <inst_49>:
     57c:	aaaab537          	lui	a0,0xaaaab
     580:	aab50513          	addi	a0,a0,-1365 # aaaaaaab <_end+0xaaaa3da7>
     584:	fffff5b7          	lui	a1,0xfffff
     588:	7ff58593          	addi	a1,a1,2047 # fffff7ff <_end+0xffff8afb>
     58c:	02b55633          	divu	a2,a0,a1
     590:	08c32223          	sw	a2,132(t1)

00000594 <inst_50>:
     594:	01000537          	lui	a0,0x1000
     598:	fffff5b7          	lui	a1,0xfffff
     59c:	fff58593          	addi	a1,a1,-1 # ffffefff <_end+0xffff82fb>
     5a0:	02b55633          	divu	a2,a0,a1
     5a4:	08c32423          	sw	a2,136(t1)

000005a8 <inst_51>:
     5a8:	55555537          	lui	a0,0x55555
     5ac:	55550513          	addi	a0,a0,1365 # 55555555 <_end+0x5554e851>
     5b0:	ffffe5b7          	lui	a1,0xffffe
     5b4:	fff58593          	addi	a1,a1,-1 # ffffdfff <_end+0xffff72fb>
     5b8:	02b55633          	divu	a2,a0,a1
     5bc:	08c32623          	sw	a2,140(t1)

000005c0 <inst_52>:
     5c0:	ffe00513          	li	a0,-2
     5c4:	ffffc5b7          	lui	a1,0xffffc
     5c8:	fff58593          	addi	a1,a1,-1 # ffffbfff <_end+0xffff52fb>
     5cc:	02b55633          	divu	a2,a0,a1
     5d0:	08c32823          	sw	a2,144(t1)

000005d4 <inst_53>:
     5d4:	00500513          	li	a0,5
     5d8:	ffff85b7          	lui	a1,0xffff8
     5dc:	fff58593          	addi	a1,a1,-1 # ffff7fff <_end+0xffff12fb>
     5e0:	02b55633          	divu	a2,a0,a1
     5e4:	08c32a23          	sw	a2,148(t1)

000005e8 <inst_54>:
     5e8:	55555537          	lui	a0,0x55555
     5ec:	55650513          	addi	a0,a0,1366 # 55555556 <_end+0x5554e852>
     5f0:	ffff05b7          	lui	a1,0xffff0
     5f4:	fff58593          	addi	a1,a1,-1 # fffeffff <_end+0xfffe92fb>
     5f8:	02b55633          	divu	a2,a0,a1
     5fc:	08c32c23          	sw	a2,152(t1)

00000600 <inst_55>:
     600:	00600513          	li	a0,6
     604:	fffe05b7          	lui	a1,0xfffe0
     608:	fff58593          	addi	a1,a1,-1 # fffdffff <_end+0xfffd92fb>
     60c:	02b55633          	divu	a2,a0,a1
     610:	08c32e23          	sw	a2,156(t1)

00000614 <inst_56>:
     614:	01000513          	li	a0,16
     618:	fffc05b7          	lui	a1,0xfffc0
     61c:	fff58593          	addi	a1,a1,-1 # fffbffff <_end+0xfffb92fb>
     620:	02b55633          	divu	a2,a0,a1
     624:	0ac32023          	sw	a2,160(t1)

00000628 <inst_57>:
     628:	00080537          	lui	a0,0x80
     62c:	fff005b7          	lui	a1,0xfff00
     630:	fff58593          	addi	a1,a1,-1 # ffefffff <_end+0xffef92fb>
     634:	02b55633          	divu	a2,a0,a1
     638:	0ac32223          	sw	a2,164(t1)

0000063c <inst_58>:
     63c:	40000513          	li	a0,1024
     640:	ffe005b7          	lui	a1,0xffe00
     644:	fff58593          	addi	a1,a1,-1 # ffdfffff <_end+0xffdf92fb>
     648:	02b55633          	divu	a2,a0,a1
     64c:	0ac32423          	sw	a2,168(t1)

00000650 <inst_59>:
     650:	00e00513          	li	a0,14
     654:	ff8005b7          	lui	a1,0xff800
     658:	fff58593          	addi	a1,a1,-1 # ff7fffff <_end+0xff7f92fb>
     65c:	02b55633          	divu	a2,a0,a1
     660:	0ac32623          	sw	a2,172(t1)

00000664 <inst_60>:
     664:	ff700513          	li	a0,-9
     668:	ff0005b7          	lui	a1,0xff000
     66c:	fff58593          	addi	a1,a1,-1 # feffffff <_end+0xfeff92fb>
     670:	02b55633          	divu	a2,a0,a1
     674:	0ac32823          	sw	a2,176(t1)

00000678 <inst_61>:
     678:	00c00513          	li	a0,12
     67c:	fe0005b7          	lui	a1,0xfe000
     680:	fff58593          	addi	a1,a1,-1 # fdffffff <_end+0xfdff92fb>
     684:	02b55633          	divu	a2,a0,a1
     688:	0ac32a23          	sw	a2,180(t1)

0000068c <inst_62>:
     68c:	01200513          	li	a0,18
     690:	fc0005b7          	lui	a1,0xfc000
     694:	fff58593          	addi	a1,a1,-1 # fbffffff <_end+0xfbff92fb>
     698:	02b55633          	divu	a2,a0,a1
     69c:	0ac32c23          	sw	a2,184(t1)

000006a0 <inst_63>:
     6a0:	08000537          	lui	a0,0x8000
     6a4:	f80005b7          	lui	a1,0xf8000
     6a8:	fff58593          	addi	a1,a1,-1 # f7ffffff <_end+0xf7ff92fb>
     6ac:	02b55633          	divu	a2,a0,a1
     6b0:	0ac32e23          	sw	a2,188(t1)

000006b4 <inst_64>:
     6b4:	00800513          	li	a0,8
     6b8:	f00005b7          	lui	a1,0xf0000
     6bc:	fff58593          	addi	a1,a1,-1 # efffffff <_end+0xefff92fb>
     6c0:	02b55633          	divu	a2,a0,a1
     6c4:	0cc32023          	sw	a2,192(t1)

000006c8 <inst_65>:
     6c8:	f8000537          	lui	a0,0xf8000
     6cc:	fff50513          	addi	a0,a0,-1 # f7ffffff <_end+0xf7ff92fb>
     6d0:	e00005b7          	lui	a1,0xe0000
     6d4:	fff58593          	addi	a1,a1,-1 # dfffffff <_end+0xdfff92fb>
     6d8:	02b55633          	divu	a2,a0,a1
     6dc:	0cc32223          	sw	a2,196(t1)

000006e0 <inst_66>:
     6e0:	ff800537          	lui	a0,0xff800
     6e4:	fff50513          	addi	a0,a0,-1 # ff7fffff <_end+0xff7f92fb>
     6e8:	c00005b7          	lui	a1,0xc0000
     6ec:	fff58593          	addi	a1,a1,-1 # bfffffff <_end+0xbfff92fb>
     6f0:	02b55633          	divu	a2,a0,a1
     6f4:	0cc32423          	sw	a2,200(t1)

000006f8 <inst_67>:
     6f8:	00c00513          	li	a0,12
     6fc:	800005b7          	lui	a1,0x80000
     700:	fff58593          	addi	a1,a1,-1 # 7fffffff <_end+0x7fff92fb>
     704:	02b55633          	divu	a2,a0,a1
     708:	0cc32623          	sw	a2,204(t1)

0000070c <inst_68>:
     70c:	00200513          	li	a0,2
     710:	555555b7          	lui	a1,0x55555
     714:	55558593          	addi	a1,a1,1365 # 55555555 <_end+0x5554e851>
     718:	02b55633          	divu	a2,a0,a1
     71c:	0cc32823          	sw	a2,208(t1)

00000720 <inst_69>:
     720:	fe000537          	lui	a0,0xfe000
     724:	fff50513          	addi	a0,a0,-1 # fdffffff <_end+0xfdff92fb>
     728:	aaaab5b7          	lui	a1,0xaaaab
     72c:	aaa58593          	addi	a1,a1,-1366 # aaaaaaaa <_end+0xaaaa3da6>
     730:	02b55633          	divu	a2,a0,a1
     734:	0cc32a23          	sw	a2,212(t1)

00000738 <inst_70>:
     738:	00400513          	li	a0,4
     73c:	333335b7          	lui	a1,0x33333
     740:	33358593          	addi	a1,a1,819 # 33333333 <_end+0x3332c62f>
     744:	02b55633          	divu	a2,a0,a1
     748:	0cc32c23          	sw	a2,216(t1)

0000074c <inst_71>:
     74c:	02000513          	li	a0,32
     750:	0000b5b7          	lui	a1,0xb
     754:	50558593          	addi	a1,a1,1285 # b505 <_end+0x4801>
     758:	02b55633          	divu	a2,a0,a1
     75c:	0cc32e23          	sw	a2,220(t1)

00000760 <inst_72>:
     760:	04000513          	li	a0,64
     764:	00a00593          	li	a1,10
     768:	02b55633          	divu	a2,a0,a1
     76c:	0ec32023          	sw	a2,224(t1)

00000770 <inst_73>:
     770:	10000513          	li	a0,256
     774:	00300593          	li	a1,3
     778:	02b55633          	divu	a2,a0,a1
     77c:	0ec32223          	sw	a2,228(t1)

00000780 <inst_74>:
     780:	20000513          	li	a0,512
     784:	eff00593          	li	a1,-257
     788:	02b55633          	divu	a2,a0,a1
     78c:	0ec32423          	sw	a2,232(t1)

00000790 <inst_75>:
     790:	00001537          	lui	a0,0x1
     794:	00700593          	li	a1,7
     798:	02b55633          	divu	a2,a0,a1
     79c:	0ec32623          	sw	a2,236(t1)

000007a0 <inst_76>:
     7a0:	00002537          	lui	a0,0x2
     7a4:	aaaab5b7          	lui	a1,0xaaaab
     7a8:	aaa58593          	addi	a1,a1,-1366 # aaaaaaaa <_end+0xaaaa3da6>
     7ac:	02b55633          	divu	a2,a0,a1
     7b0:	0ec32823          	sw	a2,240(t1)

000007b4 <inst_77>:
     7b4:	00004537          	lui	a0,0x4
     7b8:	666665b7          	lui	a1,0x66666
     7bc:	66658593          	addi	a1,a1,1638 # 66666666 <_end+0x6665f962>
     7c0:	02b55633          	divu	a2,a0,a1
     7c4:	0ec32a23          	sw	a2,244(t1)

000007c8 <inst_78>:
     7c8:	00008537          	lui	a0,0x8
     7cc:	fc0005b7          	lui	a1,0xfc000
     7d0:	fff58593          	addi	a1,a1,-1 # fbffffff <_end+0xfbff92fb>
     7d4:	02b55633          	divu	a2,a0,a1
     7d8:	0ec32c23          	sw	a2,248(t1)

000007dc <inst_79>:
     7dc:	00020537          	lui	a0,0x20
     7e0:	fffe05b7          	lui	a1,0xfffe0
     7e4:	fff58593          	addi	a1,a1,-1 # fffdffff <_end+0xfffd92fb>
     7e8:	02b55633          	divu	a2,a0,a1
     7ec:	0ec32e23          	sw	a2,252(t1)

000007f0 <inst_80>:
     7f0:	00100537          	lui	a0,0x100
     7f4:	333335b7          	lui	a1,0x33333
     7f8:	33258593          	addi	a1,a1,818 # 33333332 <_end+0x3332c62e>
     7fc:	02b55633          	divu	a2,a0,a1
     800:	10c32023          	sw	a2,256(t1)

00000804 <inst_81>:
     804:	00400537          	lui	a0,0x400
     808:	000105b7          	lui	a1,0x10
     80c:	02b55633          	divu	a2,a0,a1
     810:	10c32223          	sw	a2,260(t1)

00000814 <inst_82>:
     814:	04000537          	lui	a0,0x4000
     818:	00300593          	li	a1,3
     81c:	02b55633          	divu	a2,a0,a1
     820:	10c32423          	sw	a2,264(t1)

00000824 <inst_83>:
     824:	10000537          	lui	a0,0x10000
     828:	01200593          	li	a1,18
     82c:	02b55633          	divu	a2,a0,a1
     830:	10c32623          	sw	a2,268(t1)

00000834 <inst_84>:
     834:	20000537          	lui	a0,0x20000
     838:	00100593          	li	a1,1
     83c:	02b55633          	divu	a2,a0,a1
     840:	10c32823          	sw	a2,272(t1)

00000844 <inst_85>:
     844:	80000537          	lui	a0,0x80000
     848:	ffe00593          	li	a1,-2
     84c:	02b55633          	divu	a2,a0,a1
     850:	10c32a23          	sw	a2,276(t1)

00000854 <inst_86>:
     854:	ffd00513          	li	a0,-3
     858:	333335b7          	lui	a1,0x33333
     85c:	33258593          	addi	a1,a1,818 # 33333332 <_end+0x3332c62e>
     860:	02b55633          	divu	a2,a0,a1
     864:	10c32c23          	sw	a2,280(t1)

00000868 <inst_87>:
     868:	ffb00513          	li	a0,-5
     86c:	200005b7          	lui	a1,0x20000
     870:	02b55633          	divu	a2,a0,a1
     874:	10c32e23          	sw	a2,284(t1)

00000878 <inst_88>:
     878:	fdf00513          	li	a0,-33
     87c:	10000593          	li	a1,256
     880:	02b55633          	divu	a2,a0,a1
     884:	12c32023          	sw	a2,288(t1)

00000888 <inst_89>:
     888:	fbf00513          	li	a0,-65
     88c:	020005b7          	lui	a1,0x2000
     890:	02b55633          	divu	a2,a0,a1
     894:	12c32223          	sw	a2,292(t1)

00000898 <inst_90>:
     898:	f7f00513          	li	a0,-129
     89c:	f00005b7          	lui	a1,0xf0000
     8a0:	fff58593          	addi	a1,a1,-1 # efffffff <_end+0xefff92fb>
     8a4:	02b55633          	divu	a2,a0,a1
     8a8:	12c32423          	sw	a2,296(t1)

000008ac <inst_91>:
     8ac:	dff00513          	li	a0,-513
     8b0:	ffffe5b7          	lui	a1,0xffffe
     8b4:	fff58593          	addi	a1,a1,-1 # ffffdfff <_end+0xffff72fb>
     8b8:	02b55633          	divu	a2,a0,a1
     8bc:	12c32623          	sw	a2,300(t1)

000008c0 <inst_92>:
     8c0:	bff00513          	li	a0,-1025
     8c4:	004005b7          	lui	a1,0x400
     8c8:	02b55633          	divu	a2,a0,a1
     8cc:	12c32823          	sw	a2,304(t1)

000008d0 <inst_93>:
     8d0:	ffffe537          	lui	a0,0xffffe
     8d4:	fff50513          	addi	a0,a0,-1 # ffffdfff <_end+0xffff72fb>
     8d8:	555555b7          	lui	a1,0x55555
     8dc:	55558593          	addi	a1,a1,1365 # 55555555 <_end+0x5554e851>
     8e0:	02b55633          	divu	a2,a0,a1
     8e4:	12c32a23          	sw	a2,308(t1)

000008e8 <inst_94>:
     8e8:	ffffc537          	lui	a0,0xffffc
     8ec:	fff50513          	addi	a0,a0,-1 # ffffbfff <_end+0xffff52fb>
     8f0:	555555b7          	lui	a1,0x55555
     8f4:	55558593          	addi	a1,a1,1365 # 55555555 <_end+0x5554e851>
     8f8:	02b55633          	divu	a2,a0,a1
     8fc:	12c32c23          	sw	a2,312(t1)

00000900 <inst_95>:
     900:	fffc0537          	lui	a0,0xfffc0
     904:	fff50513          	addi	a0,a0,-1 # fffbffff <_end+0xfffb92fb>
     908:	00500593          	li	a1,5
     90c:	02b55633          	divu	a2,a0,a1
     910:	12c32e23          	sw	a2,316(t1)

00000914 <inst_96>:
     914:	fff80537          	lui	a0,0xfff80
     918:	fff50513          	addi	a0,a0,-1 # fff7ffff <_end+0xfff792fb>
     91c:	ffd00593          	li	a1,-3
     920:	02b55633          	divu	a2,a0,a1
     924:	14c32023          	sw	a2,320(t1)

00000928 <inst_97>:
     928:	ff000537          	lui	a0,0xff000
     92c:	fff50513          	addi	a0,a0,-1 # feffffff <_end+0xfeff92fb>
     930:	aaaab5b7          	lui	a1,0xaaaab
     934:	aaa58593          	addi	a1,a1,-1366 # aaaaaaaa <_end+0xaaaa3da6>
     938:	02b55633          	divu	a2,a0,a1
     93c:	14c32223          	sw	a2,324(t1)

00000940 <inst_98>:
     940:	f0000537          	lui	a0,0xf0000
     944:	fff50513          	addi	a0,a0,-1 # efffffff <_end+0xefff92fb>
     948:	002005b7          	lui	a1,0x200
     94c:	02b55633          	divu	a2,a0,a1
     950:	14c32423          	sw	a2,328(t1)

00000954 <inst_99>:
     954:	e0000537          	lui	a0,0xe0000
     958:	fff50513          	addi	a0,a0,-1 # dfffffff <_end+0xdfff92fb>
     95c:	0000b5b7          	lui	a1,0xb
     960:	50558593          	addi	a1,a1,1285 # b505 <_end+0x4801>
     964:	02b55633          	divu	a2,a0,a1
     968:	14c32623          	sw	a2,332(t1)

0000096c <inst_100>:
     96c:	c0000537          	lui	a0,0xc0000
     970:	fff50513          	addi	a0,a0,-1 # bfffffff <_end+0xbfff92fb>
     974:	666665b7          	lui	a1,0x66666
     978:	66758593          	addi	a1,a1,1639 # 66666667 <_end+0x6665f963>
     97c:	02b55633          	divu	a2,a0,a1
     980:	14c32823          	sw	a2,336(t1)

00000984 <inst_101>:
     984:	00300513          	li	a0,3
     988:	00300593          	li	a1,3
     98c:	02b55633          	divu	a2,a0,a1
     990:	14c32a23          	sw	a2,340(t1)

00000994 <inst_102>:
     994:	00300513          	li	a0,3
     998:	555555b7          	lui	a1,0x55555
     99c:	55558593          	addi	a1,a1,1365 # 55555555 <_end+0x5554e851>
     9a0:	02b55633          	divu	a2,a0,a1
     9a4:	14c32c23          	sw	a2,344(t1)

000009a8 <inst_103>:
     9a8:	00300513          	li	a0,3
     9ac:	aaaab5b7          	lui	a1,0xaaaab
     9b0:	aaa58593          	addi	a1,a1,-1366 # aaaaaaaa <_end+0xaaaa3da6>
     9b4:	02b55633          	divu	a2,a0,a1
     9b8:	14c32e23          	sw	a2,348(t1)

000009bc <inst_104>:
     9bc:	00300513          	li	a0,3
     9c0:	00500593          	li	a1,5
     9c4:	02b55633          	divu	a2,a0,a1
     9c8:	16c32023          	sw	a2,352(t1)

000009cc <inst_105>:
     9cc:	00300513          	li	a0,3
     9d0:	333335b7          	lui	a1,0x33333
     9d4:	33358593          	addi	a1,a1,819 # 33333333 <_end+0x3332c62f>
     9d8:	02b55633          	divu	a2,a0,a1
     9dc:	16c32223          	sw	a2,356(t1)

000009e0 <inst_106>:
     9e0:	00300513          	li	a0,3
     9e4:	666665b7          	lui	a1,0x66666
     9e8:	66658593          	addi	a1,a1,1638 # 66666666 <_end+0x6665f962>
     9ec:	02b55633          	divu	a2,a0,a1
     9f0:	16c32423          	sw	a2,360(t1)

000009f4 <inst_107>:
     9f4:	00300513          	li	a0,3
     9f8:	0000b5b7          	lui	a1,0xb
     9fc:	50458593          	addi	a1,a1,1284 # b504 <_end+0x4800>
     a00:	02b55633          	divu	a2,a0,a1
     a04:	16c32623          	sw	a2,364(t1)

00000a08 <inst_108>:
     a08:	00300513          	li	a0,3
     a0c:	00000593          	li	a1,0
     a10:	02b55633          	divu	a2,a0,a1
     a14:	16c32823          	sw	a2,368(t1)

00000a18 <inst_109>:
     a18:	00300513          	li	a0,3
     a1c:	000105b7          	lui	a1,0x10
     a20:	fff58593          	addi	a1,a1,-1 # ffff <_end+0x92fb>
     a24:	02b55633          	divu	a2,a0,a1
     a28:	16c32a23          	sw	a2,372(t1)

00000a2c <inst_110>:
     a2c:	00300513          	li	a0,3
     a30:	00200593          	li	a1,2
     a34:	02b55633          	divu	a2,a0,a1
     a38:	16c32c23          	sw	a2,376(t1)

00000a3c <inst_111>:
     a3c:	00300513          	li	a0,3
     a40:	555555b7          	lui	a1,0x55555
     a44:	55458593          	addi	a1,a1,1364 # 55555554 <_end+0x5554e850>
     a48:	02b55633          	divu	a2,a0,a1
     a4c:	16c32e23          	sw	a2,380(t1)

00000a50 <inst_112>:
     a50:	00300513          	li	a0,3
     a54:	aaaab5b7          	lui	a1,0xaaaab
     a58:	aa958593          	addi	a1,a1,-1367 # aaaaaaa9 <_end+0xaaaa3da5>
     a5c:	02b55633          	divu	a2,a0,a1
     a60:	18c32023          	sw	a2,384(t1)

00000a64 <inst_113>:
     a64:	00300513          	li	a0,3
     a68:	00400593          	li	a1,4
     a6c:	02b55633          	divu	a2,a0,a1
     a70:	18c32223          	sw	a2,388(t1)

00000a74 <inst_114>:
     a74:	00300513          	li	a0,3
     a78:	333335b7          	lui	a1,0x33333
     a7c:	33258593          	addi	a1,a1,818 # 33333332 <_end+0x3332c62e>
     a80:	02b55633          	divu	a2,a0,a1
     a84:	18c32423          	sw	a2,392(t1)

00000a88 <inst_115>:
     a88:	00300513          	li	a0,3
     a8c:	666665b7          	lui	a1,0x66666
     a90:	66558593          	addi	a1,a1,1637 # 66666665 <_end+0x6665f961>
     a94:	02b55633          	divu	a2,a0,a1
     a98:	18c32623          	sw	a2,396(t1)

00000a9c <inst_116>:
     a9c:	00300513          	li	a0,3
     aa0:	0000b5b7          	lui	a1,0xb
     aa4:	50358593          	addi	a1,a1,1283 # b503 <_end+0x47ff>
     aa8:	02b55633          	divu	a2,a0,a1
     aac:	18c32823          	sw	a2,400(t1)

00000ab0 <inst_117>:
     ab0:	00300513          	li	a0,3
     ab4:	000105b7          	lui	a1,0x10
     ab8:	ffe58593          	addi	a1,a1,-2 # fffe <_end+0x92fa>
     abc:	02b55633          	divu	a2,a0,a1
     ac0:	18c32a23          	sw	a2,404(t1)

00000ac4 <inst_118>:
     ac4:	00300513          	li	a0,3
     ac8:	555555b7          	lui	a1,0x55555
     acc:	55658593          	addi	a1,a1,1366 # 55555556 <_end+0x5554e852>
     ad0:	02b55633          	divu	a2,a0,a1
     ad4:	18c32c23          	sw	a2,408(t1)

00000ad8 <inst_119>:
     ad8:	00300513          	li	a0,3
     adc:	aaaab5b7          	lui	a1,0xaaaab
     ae0:	aab58593          	addi	a1,a1,-1365 # aaaaaaab <_end+0xaaaa3da7>
     ae4:	02b55633          	divu	a2,a0,a1
     ae8:	18c32e23          	sw	a2,412(t1)

00000aec <inst_120>:
     aec:	00300513          	li	a0,3
     af0:	00600593          	li	a1,6
     af4:	02b55633          	divu	a2,a0,a1
     af8:	1ac32023          	sw	a2,416(t1)

00000afc <inst_121>:
     afc:	00300513          	li	a0,3
     b00:	333335b7          	lui	a1,0x33333
     b04:	33458593          	addi	a1,a1,820 # 33333334 <_end+0x3332c630>
     b08:	02b55633          	divu	a2,a0,a1
     b0c:	1ac32223          	sw	a2,420(t1)

00000b10 <inst_122>:
     b10:	00300513          	li	a0,3
     b14:	666665b7          	lui	a1,0x66666
     b18:	66758593          	addi	a1,a1,1639 # 66666667 <_end+0x6665f963>
     b1c:	02b55633          	divu	a2,a0,a1
     b20:	1ac32423          	sw	a2,424(t1)

00000b24 <inst_123>:
     b24:	00300513          	li	a0,3
     b28:	0000b5b7          	lui	a1,0xb
     b2c:	50558593          	addi	a1,a1,1285 # b505 <_end+0x4801>
     b30:	02b55633          	divu	a2,a0,a1
     b34:	1ac32623          	sw	a2,428(t1)

00000b38 <inst_124>:
     b38:	00300513          	li	a0,3
     b3c:	00100593          	li	a1,1
     b40:	02b55633          	divu	a2,a0,a1
     b44:	1ac32823          	sw	a2,432(t1)

00000b48 <inst_125>:
     b48:	00300513          	li	a0,3
     b4c:	000105b7          	lui	a1,0x10
     b50:	02b55633          	divu	a2,a0,a1
     b54:	1ac32a23          	sw	a2,436(t1)

00000b58 <inst_126>:
     b58:	55555537          	lui	a0,0x55555
     b5c:	55550513          	addi	a0,a0,1365 # 55555555 <_end+0x5554e851>
     b60:	00300593          	li	a1,3
     b64:	02b55633          	divu	a2,a0,a1
     b68:	1ac32c23          	sw	a2,440(t1)

00000b6c <inst_127>:
     b6c:	55555537          	lui	a0,0x55555
     b70:	55550513          	addi	a0,a0,1365 # 55555555 <_end+0x5554e851>
     b74:	555555b7          	lui	a1,0x55555
     b78:	55558593          	addi	a1,a1,1365 # 55555555 <_end+0x5554e851>
     b7c:	02b55633          	divu	a2,a0,a1
     b80:	1ac32e23          	sw	a2,444(t1)

00000b84 <inst_128>:
     b84:	55555537          	lui	a0,0x55555
     b88:	55550513          	addi	a0,a0,1365 # 55555555 <_end+0x5554e851>
     b8c:	aaaab5b7          	lui	a1,0xaaaab
     b90:	aaa58593          	addi	a1,a1,-1366 # aaaaaaaa <_end+0xaaaa3da6>
     b94:	02b55633          	divu	a2,a0,a1
     b98:	1cc32023          	sw	a2,448(t1)

00000b9c <inst_129>:
     b9c:	55555537          	lui	a0,0x55555
     ba0:	55550513          	addi	a0,a0,1365 # 55555555 <_end+0x5554e851>
     ba4:	00500593          	li	a1,5
     ba8:	02b55633          	divu	a2,a0,a1
     bac:	1cc32223          	sw	a2,452(t1)

00000bb0 <inst_130>:
     bb0:	55555537          	lui	a0,0x55555
     bb4:	55550513          	addi	a0,a0,1365 # 55555555 <_end+0x5554e851>
     bb8:	333335b7          	lui	a1,0x33333
     bbc:	33358593          	addi	a1,a1,819 # 33333333 <_end+0x3332c62f>
     bc0:	02b55633          	divu	a2,a0,a1
     bc4:	1cc32423          	sw	a2,456(t1)

00000bc8 <inst_131>:
     bc8:	55555537          	lui	a0,0x55555
     bcc:	55550513          	addi	a0,a0,1365 # 55555555 <_end+0x5554e851>
     bd0:	666665b7          	lui	a1,0x66666
     bd4:	66658593          	addi	a1,a1,1638 # 66666666 <_end+0x6665f962>
     bd8:	02b55633          	divu	a2,a0,a1
     bdc:	1cc32623          	sw	a2,460(t1)

00000be0 <inst_132>:
     be0:	55555537          	lui	a0,0x55555
     be4:	55550513          	addi	a0,a0,1365 # 55555555 <_end+0x5554e851>
     be8:	0000b5b7          	lui	a1,0xb
     bec:	50458593          	addi	a1,a1,1284 # b504 <_end+0x4800>
     bf0:	02b55633          	divu	a2,a0,a1
     bf4:	1cc32823          	sw	a2,464(t1)

00000bf8 <inst_133>:
     bf8:	55555537          	lui	a0,0x55555
     bfc:	55550513          	addi	a0,a0,1365 # 55555555 <_end+0x5554e851>
     c00:	00000593          	li	a1,0
     c04:	02b55633          	divu	a2,a0,a1
     c08:	1cc32a23          	sw	a2,468(t1)

00000c0c <inst_134>:
     c0c:	55555537          	lui	a0,0x55555
     c10:	55550513          	addi	a0,a0,1365 # 55555555 <_end+0x5554e851>
     c14:	000105b7          	lui	a1,0x10
     c18:	fff58593          	addi	a1,a1,-1 # ffff <_end+0x92fb>
     c1c:	02b55633          	divu	a2,a0,a1
     c20:	1cc32c23          	sw	a2,472(t1)

00000c24 <inst_135>:
     c24:	55555537          	lui	a0,0x55555
     c28:	55550513          	addi	a0,a0,1365 # 55555555 <_end+0x5554e851>
     c2c:	00200593          	li	a1,2
     c30:	02b55633          	divu	a2,a0,a1
     c34:	1cc32e23          	sw	a2,476(t1)

00000c38 <inst_136>:
     c38:	55555537          	lui	a0,0x55555
     c3c:	55550513          	addi	a0,a0,1365 # 55555555 <_end+0x5554e851>
     c40:	555555b7          	lui	a1,0x55555
     c44:	55458593          	addi	a1,a1,1364 # 55555554 <_end+0x5554e850>
     c48:	02b55633          	divu	a2,a0,a1
     c4c:	1ec32023          	sw	a2,480(t1)

00000c50 <inst_137>:
     c50:	55555537          	lui	a0,0x55555
     c54:	55550513          	addi	a0,a0,1365 # 55555555 <_end+0x5554e851>
     c58:	aaaab5b7          	lui	a1,0xaaaab
     c5c:	aa958593          	addi	a1,a1,-1367 # aaaaaaa9 <_end+0xaaaa3da5>
     c60:	02b55633          	divu	a2,a0,a1
     c64:	1ec32223          	sw	a2,484(t1)

00000c68 <inst_138>:
     c68:	55555537          	lui	a0,0x55555
     c6c:	55550513          	addi	a0,a0,1365 # 55555555 <_end+0x5554e851>
     c70:	00400593          	li	a1,4
     c74:	02b55633          	divu	a2,a0,a1
     c78:	1ec32423          	sw	a2,488(t1)

00000c7c <inst_139>:
     c7c:	55555537          	lui	a0,0x55555
     c80:	55550513          	addi	a0,a0,1365 # 55555555 <_end+0x5554e851>
     c84:	333335b7          	lui	a1,0x33333
     c88:	33258593          	addi	a1,a1,818 # 33333332 <_end+0x3332c62e>
     c8c:	02b55633          	divu	a2,a0,a1
     c90:	1ec32623          	sw	a2,492(t1)

00000c94 <inst_140>:
     c94:	55555537          	lui	a0,0x55555
     c98:	55550513          	addi	a0,a0,1365 # 55555555 <_end+0x5554e851>
     c9c:	666665b7          	lui	a1,0x66666
     ca0:	66558593          	addi	a1,a1,1637 # 66666665 <_end+0x6665f961>
     ca4:	02b55633          	divu	a2,a0,a1
     ca8:	1ec32823          	sw	a2,496(t1)

00000cac <inst_141>:
     cac:	55555537          	lui	a0,0x55555
     cb0:	55550513          	addi	a0,a0,1365 # 55555555 <_end+0x5554e851>
     cb4:	0000b5b7          	lui	a1,0xb
     cb8:	50358593          	addi	a1,a1,1283 # b503 <_end+0x47ff>
     cbc:	02b55633          	divu	a2,a0,a1
     cc0:	1ec32a23          	sw	a2,500(t1)

00000cc4 <inst_142>:
     cc4:	55555537          	lui	a0,0x55555
     cc8:	55550513          	addi	a0,a0,1365 # 55555555 <_end+0x5554e851>
     ccc:	000105b7          	lui	a1,0x10
     cd0:	ffe58593          	addi	a1,a1,-2 # fffe <_end+0x92fa>
     cd4:	02b55633          	divu	a2,a0,a1
     cd8:	1ec32c23          	sw	a2,504(t1)

00000cdc <inst_143>:
     cdc:	55555537          	lui	a0,0x55555
     ce0:	55550513          	addi	a0,a0,1365 # 55555555 <_end+0x5554e851>
     ce4:	555555b7          	lui	a1,0x55555
     ce8:	55658593          	addi	a1,a1,1366 # 55555556 <_end+0x5554e852>
     cec:	02b55633          	divu	a2,a0,a1
     cf0:	1ec32e23          	sw	a2,508(t1)

00000cf4 <inst_144>:
     cf4:	55555537          	lui	a0,0x55555
     cf8:	55550513          	addi	a0,a0,1365 # 55555555 <_end+0x5554e851>
     cfc:	aaaab5b7          	lui	a1,0xaaaab
     d00:	aab58593          	addi	a1,a1,-1365 # aaaaaaab <_end+0xaaaa3da7>
     d04:	02b55633          	divu	a2,a0,a1
     d08:	20c32023          	sw	a2,512(t1)

00000d0c <inst_145>:
     d0c:	55555537          	lui	a0,0x55555
     d10:	55550513          	addi	a0,a0,1365 # 55555555 <_end+0x5554e851>
     d14:	00600593          	li	a1,6
     d18:	02b55633          	divu	a2,a0,a1
     d1c:	20c32223          	sw	a2,516(t1)

00000d20 <inst_146>:
     d20:	55555537          	lui	a0,0x55555
     d24:	55550513          	addi	a0,a0,1365 # 55555555 <_end+0x5554e851>
     d28:	333335b7          	lui	a1,0x33333
     d2c:	33458593          	addi	a1,a1,820 # 33333334 <_end+0x3332c630>
     d30:	02b55633          	divu	a2,a0,a1
     d34:	20c32423          	sw	a2,520(t1)

00000d38 <inst_147>:
     d38:	55555537          	lui	a0,0x55555
     d3c:	55550513          	addi	a0,a0,1365 # 55555555 <_end+0x5554e851>
     d40:	666665b7          	lui	a1,0x66666
     d44:	66758593          	addi	a1,a1,1639 # 66666667 <_end+0x6665f963>
     d48:	02b55633          	divu	a2,a0,a1
     d4c:	20c32623          	sw	a2,524(t1)

00000d50 <inst_148>:
     d50:	55555537          	lui	a0,0x55555
     d54:	55550513          	addi	a0,a0,1365 # 55555555 <_end+0x5554e851>
     d58:	0000b5b7          	lui	a1,0xb
     d5c:	50558593          	addi	a1,a1,1285 # b505 <_end+0x4801>
     d60:	02b55633          	divu	a2,a0,a1
     d64:	20c32823          	sw	a2,528(t1)

00000d68 <inst_149>:
     d68:	55555537          	lui	a0,0x55555
     d6c:	55550513          	addi	a0,a0,1365 # 55555555 <_end+0x5554e851>
     d70:	00100593          	li	a1,1
     d74:	02b55633          	divu	a2,a0,a1
     d78:	20c32a23          	sw	a2,532(t1)

00000d7c <inst_150>:
     d7c:	55555537          	lui	a0,0x55555
     d80:	55550513          	addi	a0,a0,1365 # 55555555 <_end+0x5554e851>
     d84:	000105b7          	lui	a1,0x10
     d88:	02b55633          	divu	a2,a0,a1
     d8c:	20c32c23          	sw	a2,536(t1)

00000d90 <inst_151>:
     d90:	aaaab537          	lui	a0,0xaaaab
     d94:	aaa50513          	addi	a0,a0,-1366 # aaaaaaaa <_end+0xaaaa3da6>
     d98:	00300593          	li	a1,3
     d9c:	02b55633          	divu	a2,a0,a1
     da0:	20c32e23          	sw	a2,540(t1)

00000da4 <inst_152>:
     da4:	aaaab537          	lui	a0,0xaaaab
     da8:	aaa50513          	addi	a0,a0,-1366 # aaaaaaaa <_end+0xaaaa3da6>
     dac:	555555b7          	lui	a1,0x55555
     db0:	55558593          	addi	a1,a1,1365 # 55555555 <_end+0x5554e851>
     db4:	02b55633          	divu	a2,a0,a1
     db8:	22c32023          	sw	a2,544(t1)

00000dbc <inst_153>:
     dbc:	aaaab537          	lui	a0,0xaaaab
     dc0:	aaa50513          	addi	a0,a0,-1366 # aaaaaaaa <_end+0xaaaa3da6>
     dc4:	aaaab5b7          	lui	a1,0xaaaab
     dc8:	aaa58593          	addi	a1,a1,-1366 # aaaaaaaa <_end+0xaaaa3da6>
     dcc:	02b55633          	divu	a2,a0,a1
     dd0:	22c32223          	sw	a2,548(t1)

00000dd4 <inst_154>:
     dd4:	aaaab537          	lui	a0,0xaaaab
     dd8:	aaa50513          	addi	a0,a0,-1366 # aaaaaaaa <_end+0xaaaa3da6>
     ddc:	00500593          	li	a1,5
     de0:	02b55633          	divu	a2,a0,a1
     de4:	22c32423          	sw	a2,552(t1)

00000de8 <inst_155>:
     de8:	aaaab537          	lui	a0,0xaaaab
     dec:	aaa50513          	addi	a0,a0,-1366 # aaaaaaaa <_end+0xaaaa3da6>
     df0:	333335b7          	lui	a1,0x33333
     df4:	33358593          	addi	a1,a1,819 # 33333333 <_end+0x3332c62f>
     df8:	02b55633          	divu	a2,a0,a1
     dfc:	22c32623          	sw	a2,556(t1)

00000e00 <inst_156>:
     e00:	aaaab537          	lui	a0,0xaaaab
     e04:	aaa50513          	addi	a0,a0,-1366 # aaaaaaaa <_end+0xaaaa3da6>
     e08:	666665b7          	lui	a1,0x66666
     e0c:	66658593          	addi	a1,a1,1638 # 66666666 <_end+0x6665f962>
     e10:	02b55633          	divu	a2,a0,a1
     e14:	22c32823          	sw	a2,560(t1)

00000e18 <inst_157>:
     e18:	aaaab537          	lui	a0,0xaaaab
     e1c:	aaa50513          	addi	a0,a0,-1366 # aaaaaaaa <_end+0xaaaa3da6>
     e20:	0000b5b7          	lui	a1,0xb
     e24:	50458593          	addi	a1,a1,1284 # b504 <_end+0x4800>
     e28:	02b55633          	divu	a2,a0,a1
     e2c:	22c32a23          	sw	a2,564(t1)

00000e30 <inst_158>:
     e30:	aaaab537          	lui	a0,0xaaaab
     e34:	aaa50513          	addi	a0,a0,-1366 # aaaaaaaa <_end+0xaaaa3da6>
     e38:	000105b7          	lui	a1,0x10
     e3c:	fff58593          	addi	a1,a1,-1 # ffff <_end+0x92fb>
     e40:	02b55633          	divu	a2,a0,a1
     e44:	22c32c23          	sw	a2,568(t1)

00000e48 <inst_159>:
     e48:	aaaab537          	lui	a0,0xaaaab
     e4c:	aaa50513          	addi	a0,a0,-1366 # aaaaaaaa <_end+0xaaaa3da6>
     e50:	00200593          	li	a1,2
     e54:	02b55633          	divu	a2,a0,a1
     e58:	22c32e23          	sw	a2,572(t1)

00000e5c <inst_160>:
     e5c:	aaaab537          	lui	a0,0xaaaab
     e60:	aaa50513          	addi	a0,a0,-1366 # aaaaaaaa <_end+0xaaaa3da6>
     e64:	555555b7          	lui	a1,0x55555
     e68:	55458593          	addi	a1,a1,1364 # 55555554 <_end+0x5554e850>
     e6c:	02b55633          	divu	a2,a0,a1
     e70:	24c32023          	sw	a2,576(t1)

00000e74 <inst_161>:
     e74:	aaaab537          	lui	a0,0xaaaab
     e78:	aaa50513          	addi	a0,a0,-1366 # aaaaaaaa <_end+0xaaaa3da6>
     e7c:	aaaab5b7          	lui	a1,0xaaaab
     e80:	aa958593          	addi	a1,a1,-1367 # aaaaaaa9 <_end+0xaaaa3da5>
     e84:	02b55633          	divu	a2,a0,a1
     e88:	24c32223          	sw	a2,580(t1)

00000e8c <inst_162>:
     e8c:	aaaab537          	lui	a0,0xaaaab
     e90:	aaa50513          	addi	a0,a0,-1366 # aaaaaaaa <_end+0xaaaa3da6>
     e94:	00400593          	li	a1,4
     e98:	02b55633          	divu	a2,a0,a1
     e9c:	24c32423          	sw	a2,584(t1)

00000ea0 <inst_163>:
     ea0:	aaaab537          	lui	a0,0xaaaab
     ea4:	aaa50513          	addi	a0,a0,-1366 # aaaaaaaa <_end+0xaaaa3da6>
     ea8:	333335b7          	lui	a1,0x33333
     eac:	33258593          	addi	a1,a1,818 # 33333332 <_end+0x3332c62e>
     eb0:	02b55633          	divu	a2,a0,a1
     eb4:	24c32623          	sw	a2,588(t1)

00000eb8 <inst_164>:
     eb8:	aaaab537          	lui	a0,0xaaaab
     ebc:	aaa50513          	addi	a0,a0,-1366 # aaaaaaaa <_end+0xaaaa3da6>
     ec0:	666665b7          	lui	a1,0x66666
     ec4:	66558593          	addi	a1,a1,1637 # 66666665 <_end+0x6665f961>
     ec8:	02b55633          	divu	a2,a0,a1
     ecc:	24c32823          	sw	a2,592(t1)

00000ed0 <inst_165>:
     ed0:	aaaab537          	lui	a0,0xaaaab
     ed4:	aaa50513          	addi	a0,a0,-1366 # aaaaaaaa <_end+0xaaaa3da6>
     ed8:	0000b5b7          	lui	a1,0xb
     edc:	50358593          	addi	a1,a1,1283 # b503 <_end+0x47ff>
     ee0:	02b55633          	divu	a2,a0,a1
     ee4:	24c32a23          	sw	a2,596(t1)

00000ee8 <inst_166>:
     ee8:	aaaab537          	lui	a0,0xaaaab
     eec:	aaa50513          	addi	a0,a0,-1366 # aaaaaaaa <_end+0xaaaa3da6>
     ef0:	000105b7          	lui	a1,0x10
     ef4:	ffe58593          	addi	a1,a1,-2 # fffe <_end+0x92fa>
     ef8:	02b55633          	divu	a2,a0,a1
     efc:	24c32c23          	sw	a2,600(t1)

00000f00 <inst_167>:
     f00:	aaaab537          	lui	a0,0xaaaab
     f04:	aaa50513          	addi	a0,a0,-1366 # aaaaaaaa <_end+0xaaaa3da6>
     f08:	555555b7          	lui	a1,0x55555
     f0c:	55658593          	addi	a1,a1,1366 # 55555556 <_end+0x5554e852>
     f10:	02b55633          	divu	a2,a0,a1
     f14:	24c32e23          	sw	a2,604(t1)

00000f18 <inst_168>:
     f18:	aaaab537          	lui	a0,0xaaaab
     f1c:	aaa50513          	addi	a0,a0,-1366 # aaaaaaaa <_end+0xaaaa3da6>
     f20:	aaaab5b7          	lui	a1,0xaaaab
     f24:	aab58593          	addi	a1,a1,-1365 # aaaaaaab <_end+0xaaaa3da7>
     f28:	02b55633          	divu	a2,a0,a1
     f2c:	26c32023          	sw	a2,608(t1)

00000f30 <inst_169>:
     f30:	aaaab537          	lui	a0,0xaaaab
     f34:	aaa50513          	addi	a0,a0,-1366 # aaaaaaaa <_end+0xaaaa3da6>
     f38:	00600593          	li	a1,6
     f3c:	02b55633          	divu	a2,a0,a1
     f40:	26c32223          	sw	a2,612(t1)

00000f44 <inst_170>:
     f44:	aaaab537          	lui	a0,0xaaaab
     f48:	aaa50513          	addi	a0,a0,-1366 # aaaaaaaa <_end+0xaaaa3da6>
     f4c:	333335b7          	lui	a1,0x33333
     f50:	33458593          	addi	a1,a1,820 # 33333334 <_end+0x3332c630>
     f54:	02b55633          	divu	a2,a0,a1
     f58:	26c32423          	sw	a2,616(t1)

00000f5c <inst_171>:
     f5c:	aaaab537          	lui	a0,0xaaaab
     f60:	aaa50513          	addi	a0,a0,-1366 # aaaaaaaa <_end+0xaaaa3da6>
     f64:	666665b7          	lui	a1,0x66666
     f68:	66758593          	addi	a1,a1,1639 # 66666667 <_end+0x6665f963>
     f6c:	02b55633          	divu	a2,a0,a1
     f70:	26c32623          	sw	a2,620(t1)

00000f74 <inst_172>:
     f74:	aaaab537          	lui	a0,0xaaaab
     f78:	aaa50513          	addi	a0,a0,-1366 # aaaaaaaa <_end+0xaaaa3da6>
     f7c:	0000b5b7          	lui	a1,0xb
     f80:	50558593          	addi	a1,a1,1285 # b505 <_end+0x4801>
     f84:	02b55633          	divu	a2,a0,a1
     f88:	26c32823          	sw	a2,624(t1)

00000f8c <inst_173>:
     f8c:	aaaab537          	lui	a0,0xaaaab
     f90:	aaa50513          	addi	a0,a0,-1366 # aaaaaaaa <_end+0xaaaa3da6>
     f94:	00100593          	li	a1,1
     f98:	02b55633          	divu	a2,a0,a1
     f9c:	26c32a23          	sw	a2,628(t1)

00000fa0 <inst_174>:
     fa0:	aaaab537          	lui	a0,0xaaaab
     fa4:	aaa50513          	addi	a0,a0,-1366 # aaaaaaaa <_end+0xaaaa3da6>
     fa8:	000105b7          	lui	a1,0x10
     fac:	02b55633          	divu	a2,a0,a1
     fb0:	26c32c23          	sw	a2,632(t1)

00000fb4 <inst_175>:
     fb4:	00500513          	li	a0,5
     fb8:	00300593          	li	a1,3
     fbc:	02b55633          	divu	a2,a0,a1
     fc0:	26c32e23          	sw	a2,636(t1)

00000fc4 <inst_176>:
     fc4:	00500513          	li	a0,5
     fc8:	555555b7          	lui	a1,0x55555
     fcc:	55558593          	addi	a1,a1,1365 # 55555555 <_end+0x5554e851>
     fd0:	02b55633          	divu	a2,a0,a1
     fd4:	28c32023          	sw	a2,640(t1)

00000fd8 <inst_177>:
     fd8:	00500513          	li	a0,5
     fdc:	aaaab5b7          	lui	a1,0xaaaab
     fe0:	aaa58593          	addi	a1,a1,-1366 # aaaaaaaa <_end+0xaaaa3da6>
     fe4:	02b55633          	divu	a2,a0,a1
     fe8:	28c32223          	sw	a2,644(t1)

00000fec <inst_178>:
     fec:	00500513          	li	a0,5
     ff0:	00500593          	li	a1,5
     ff4:	02b55633          	divu	a2,a0,a1
     ff8:	28c32423          	sw	a2,648(t1)

00000ffc <inst_179>:
     ffc:	00500513          	li	a0,5
    1000:	333335b7          	lui	a1,0x33333
    1004:	33358593          	addi	a1,a1,819 # 33333333 <_end+0x3332c62f>
    1008:	02b55633          	divu	a2,a0,a1
    100c:	28c32623          	sw	a2,652(t1)

00001010 <inst_180>:
    1010:	00500513          	li	a0,5
    1014:	666665b7          	lui	a1,0x66666
    1018:	66658593          	addi	a1,a1,1638 # 66666666 <_end+0x6665f962>
    101c:	02b55633          	divu	a2,a0,a1
    1020:	28c32823          	sw	a2,656(t1)

00001024 <inst_181>:
    1024:	00500513          	li	a0,5
    1028:	0000b5b7          	lui	a1,0xb
    102c:	50458593          	addi	a1,a1,1284 # b504 <_end+0x4800>
    1030:	02b55633          	divu	a2,a0,a1
    1034:	28c32a23          	sw	a2,660(t1)

00001038 <inst_182>:
    1038:	00500513          	li	a0,5
    103c:	00000593          	li	a1,0
    1040:	02b55633          	divu	a2,a0,a1
    1044:	28c32c23          	sw	a2,664(t1)

00001048 <inst_183>:
    1048:	00500513          	li	a0,5
    104c:	000105b7          	lui	a1,0x10
    1050:	fff58593          	addi	a1,a1,-1 # ffff <_end+0x92fb>
    1054:	02b55633          	divu	a2,a0,a1
    1058:	28c32e23          	sw	a2,668(t1)

0000105c <inst_184>:
    105c:	00500513          	li	a0,5
    1060:	00200593          	li	a1,2
    1064:	02b55633          	divu	a2,a0,a1
    1068:	2ac32023          	sw	a2,672(t1)

0000106c <inst_185>:
    106c:	00500513          	li	a0,5
    1070:	555555b7          	lui	a1,0x55555
    1074:	55458593          	addi	a1,a1,1364 # 55555554 <_end+0x5554e850>
    1078:	02b55633          	divu	a2,a0,a1
    107c:	2ac32223          	sw	a2,676(t1)

00001080 <inst_186>:
    1080:	00500513          	li	a0,5
    1084:	aaaab5b7          	lui	a1,0xaaaab
    1088:	aa958593          	addi	a1,a1,-1367 # aaaaaaa9 <_end+0xaaaa3da5>
    108c:	02b55633          	divu	a2,a0,a1
    1090:	2ac32423          	sw	a2,680(t1)

00001094 <inst_187>:
    1094:	00500513          	li	a0,5
    1098:	00400593          	li	a1,4
    109c:	02b55633          	divu	a2,a0,a1
    10a0:	2ac32623          	sw	a2,684(t1)

000010a4 <inst_188>:
    10a4:	00500513          	li	a0,5
    10a8:	333335b7          	lui	a1,0x33333
    10ac:	33258593          	addi	a1,a1,818 # 33333332 <_end+0x3332c62e>
    10b0:	02b55633          	divu	a2,a0,a1
    10b4:	2ac32823          	sw	a2,688(t1)

000010b8 <inst_189>:
    10b8:	00500513          	li	a0,5
    10bc:	666665b7          	lui	a1,0x66666
    10c0:	66558593          	addi	a1,a1,1637 # 66666665 <_end+0x6665f961>
    10c4:	02b55633          	divu	a2,a0,a1
    10c8:	2ac32a23          	sw	a2,692(t1)

000010cc <inst_190>:
    10cc:	00500513          	li	a0,5
    10d0:	0000b5b7          	lui	a1,0xb
    10d4:	50358593          	addi	a1,a1,1283 # b503 <_end+0x47ff>
    10d8:	02b55633          	divu	a2,a0,a1
    10dc:	2ac32c23          	sw	a2,696(t1)

000010e0 <inst_191>:
    10e0:	00500513          	li	a0,5
    10e4:	000105b7          	lui	a1,0x10
    10e8:	ffe58593          	addi	a1,a1,-2 # fffe <_end+0x92fa>
    10ec:	02b55633          	divu	a2,a0,a1
    10f0:	2ac32e23          	sw	a2,700(t1)

000010f4 <inst_192>:
    10f4:	00500513          	li	a0,5
    10f8:	555555b7          	lui	a1,0x55555
    10fc:	55658593          	addi	a1,a1,1366 # 55555556 <_end+0x5554e852>
    1100:	02b55633          	divu	a2,a0,a1
    1104:	2cc32023          	sw	a2,704(t1)

00001108 <inst_193>:
    1108:	00500513          	li	a0,5
    110c:	aaaab5b7          	lui	a1,0xaaaab
    1110:	aab58593          	addi	a1,a1,-1365 # aaaaaaab <_end+0xaaaa3da7>
    1114:	02b55633          	divu	a2,a0,a1
    1118:	2cc32223          	sw	a2,708(t1)

0000111c <inst_194>:
    111c:	00500513          	li	a0,5
    1120:	00600593          	li	a1,6
    1124:	02b55633          	divu	a2,a0,a1
    1128:	2cc32423          	sw	a2,712(t1)

0000112c <inst_195>:
    112c:	00500513          	li	a0,5
    1130:	333335b7          	lui	a1,0x33333
    1134:	33458593          	addi	a1,a1,820 # 33333334 <_end+0x3332c630>
    1138:	02b55633          	divu	a2,a0,a1
    113c:	2cc32623          	sw	a2,716(t1)

00001140 <inst_196>:
    1140:	00500513          	li	a0,5
    1144:	666665b7          	lui	a1,0x66666
    1148:	66758593          	addi	a1,a1,1639 # 66666667 <_end+0x6665f963>
    114c:	02b55633          	divu	a2,a0,a1
    1150:	2cc32823          	sw	a2,720(t1)

00001154 <inst_197>:
    1154:	00500513          	li	a0,5
    1158:	0000b5b7          	lui	a1,0xb
    115c:	50558593          	addi	a1,a1,1285 # b505 <_end+0x4801>
    1160:	02b55633          	divu	a2,a0,a1
    1164:	2cc32a23          	sw	a2,724(t1)

00001168 <inst_198>:
    1168:	00500513          	li	a0,5
    116c:	00100593          	li	a1,1
    1170:	02b55633          	divu	a2,a0,a1
    1174:	2cc32c23          	sw	a2,728(t1)

00001178 <inst_199>:
    1178:	00500513          	li	a0,5
    117c:	000105b7          	lui	a1,0x10
    1180:	02b55633          	divu	a2,a0,a1
    1184:	2cc32e23          	sw	a2,732(t1)

00001188 <inst_200>:
    1188:	33333537          	lui	a0,0x33333
    118c:	33350513          	addi	a0,a0,819 # 33333333 <_end+0x3332c62f>
    1190:	00300593          	li	a1,3
    1194:	02b55633          	divu	a2,a0,a1
    1198:	2ec32023          	sw	a2,736(t1)

0000119c <inst_201>:
    119c:	33333537          	lui	a0,0x33333
    11a0:	33350513          	addi	a0,a0,819 # 33333333 <_end+0x3332c62f>
    11a4:	555555b7          	lui	a1,0x55555
    11a8:	55558593          	addi	a1,a1,1365 # 55555555 <_end+0x5554e851>
    11ac:	02b55633          	divu	a2,a0,a1
    11b0:	2ec32223          	sw	a2,740(t1)

000011b4 <inst_202>:
    11b4:	33333537          	lui	a0,0x33333
    11b8:	33350513          	addi	a0,a0,819 # 33333333 <_end+0x3332c62f>
    11bc:	aaaab5b7          	lui	a1,0xaaaab
    11c0:	aaa58593          	addi	a1,a1,-1366 # aaaaaaaa <_end+0xaaaa3da6>
    11c4:	02b55633          	divu	a2,a0,a1
    11c8:	2ec32423          	sw	a2,744(t1)

000011cc <inst_203>:
    11cc:	33333537          	lui	a0,0x33333
    11d0:	33350513          	addi	a0,a0,819 # 33333333 <_end+0x3332c62f>
    11d4:	00500593          	li	a1,5
    11d8:	02b55633          	divu	a2,a0,a1
    11dc:	2ec32623          	sw	a2,748(t1)

000011e0 <inst_204>:
    11e0:	33333537          	lui	a0,0x33333
    11e4:	33350513          	addi	a0,a0,819 # 33333333 <_end+0x3332c62f>
    11e8:	333335b7          	lui	a1,0x33333
    11ec:	33358593          	addi	a1,a1,819 # 33333333 <_end+0x3332c62f>
    11f0:	02b55633          	divu	a2,a0,a1
    11f4:	2ec32823          	sw	a2,752(t1)

000011f8 <inst_205>:
    11f8:	33333537          	lui	a0,0x33333
    11fc:	33350513          	addi	a0,a0,819 # 33333333 <_end+0x3332c62f>
    1200:	666665b7          	lui	a1,0x66666
    1204:	66658593          	addi	a1,a1,1638 # 66666666 <_end+0x6665f962>
    1208:	02b55633          	divu	a2,a0,a1
    120c:	2ec32a23          	sw	a2,756(t1)

00001210 <inst_206>:
    1210:	33333537          	lui	a0,0x33333
    1214:	33350513          	addi	a0,a0,819 # 33333333 <_end+0x3332c62f>
    1218:	0000b5b7          	lui	a1,0xb
    121c:	50458593          	addi	a1,a1,1284 # b504 <_end+0x4800>
    1220:	02b55633          	divu	a2,a0,a1
    1224:	2ec32c23          	sw	a2,760(t1)

00001228 <inst_207>:
    1228:	33333537          	lui	a0,0x33333
    122c:	33350513          	addi	a0,a0,819 # 33333333 <_end+0x3332c62f>
    1230:	00000593          	li	a1,0
    1234:	02b55633          	divu	a2,a0,a1
    1238:	2ec32e23          	sw	a2,764(t1)

0000123c <inst_208>:
    123c:	33333537          	lui	a0,0x33333
    1240:	33350513          	addi	a0,a0,819 # 33333333 <_end+0x3332c62f>
    1244:	000105b7          	lui	a1,0x10
    1248:	fff58593          	addi	a1,a1,-1 # ffff <_end+0x92fb>
    124c:	02b55633          	divu	a2,a0,a1
    1250:	30c32023          	sw	a2,768(t1)

00001254 <inst_209>:
    1254:	33333537          	lui	a0,0x33333
    1258:	33350513          	addi	a0,a0,819 # 33333333 <_end+0x3332c62f>
    125c:	00200593          	li	a1,2
    1260:	02b55633          	divu	a2,a0,a1
    1264:	30c32223          	sw	a2,772(t1)

00001268 <inst_210>:
    1268:	33333537          	lui	a0,0x33333
    126c:	33350513          	addi	a0,a0,819 # 33333333 <_end+0x3332c62f>
    1270:	555555b7          	lui	a1,0x55555
    1274:	55458593          	addi	a1,a1,1364 # 55555554 <_end+0x5554e850>
    1278:	02b55633          	divu	a2,a0,a1
    127c:	30c32423          	sw	a2,776(t1)

00001280 <inst_211>:
    1280:	33333537          	lui	a0,0x33333
    1284:	33350513          	addi	a0,a0,819 # 33333333 <_end+0x3332c62f>
    1288:	aaaab5b7          	lui	a1,0xaaaab
    128c:	aa958593          	addi	a1,a1,-1367 # aaaaaaa9 <_end+0xaaaa3da5>
    1290:	02b55633          	divu	a2,a0,a1
    1294:	30c32623          	sw	a2,780(t1)

00001298 <inst_212>:
    1298:	33333537          	lui	a0,0x33333
    129c:	33350513          	addi	a0,a0,819 # 33333333 <_end+0x3332c62f>
    12a0:	00400593          	li	a1,4
    12a4:	02b55633          	divu	a2,a0,a1
    12a8:	30c32823          	sw	a2,784(t1)

000012ac <inst_213>:
    12ac:	33333537          	lui	a0,0x33333
    12b0:	33350513          	addi	a0,a0,819 # 33333333 <_end+0x3332c62f>
    12b4:	333335b7          	lui	a1,0x33333
    12b8:	33258593          	addi	a1,a1,818 # 33333332 <_end+0x3332c62e>
    12bc:	02b55633          	divu	a2,a0,a1
    12c0:	30c32a23          	sw	a2,788(t1)

000012c4 <inst_214>:
    12c4:	33333537          	lui	a0,0x33333
    12c8:	33350513          	addi	a0,a0,819 # 33333333 <_end+0x3332c62f>
    12cc:	666665b7          	lui	a1,0x66666
    12d0:	66558593          	addi	a1,a1,1637 # 66666665 <_end+0x6665f961>
    12d4:	02b55633          	divu	a2,a0,a1
    12d8:	30c32c23          	sw	a2,792(t1)

000012dc <inst_215>:
    12dc:	33333537          	lui	a0,0x33333
    12e0:	33350513          	addi	a0,a0,819 # 33333333 <_end+0x3332c62f>
    12e4:	0000b5b7          	lui	a1,0xb
    12e8:	50358593          	addi	a1,a1,1283 # b503 <_end+0x47ff>
    12ec:	02b55633          	divu	a2,a0,a1
    12f0:	30c32e23          	sw	a2,796(t1)

000012f4 <inst_216>:
    12f4:	33333537          	lui	a0,0x33333
    12f8:	33350513          	addi	a0,a0,819 # 33333333 <_end+0x3332c62f>
    12fc:	000105b7          	lui	a1,0x10
    1300:	ffe58593          	addi	a1,a1,-2 # fffe <_end+0x92fa>
    1304:	02b55633          	divu	a2,a0,a1
    1308:	32c32023          	sw	a2,800(t1)

0000130c <inst_217>:
    130c:	33333537          	lui	a0,0x33333
    1310:	33350513          	addi	a0,a0,819 # 33333333 <_end+0x3332c62f>
    1314:	555555b7          	lui	a1,0x55555
    1318:	55658593          	addi	a1,a1,1366 # 55555556 <_end+0x5554e852>
    131c:	02b55633          	divu	a2,a0,a1
    1320:	32c32223          	sw	a2,804(t1)

00001324 <inst_218>:
    1324:	33333537          	lui	a0,0x33333
    1328:	33350513          	addi	a0,a0,819 # 33333333 <_end+0x3332c62f>
    132c:	aaaab5b7          	lui	a1,0xaaaab
    1330:	aab58593          	addi	a1,a1,-1365 # aaaaaaab <_end+0xaaaa3da7>
    1334:	02b55633          	divu	a2,a0,a1
    1338:	32c32423          	sw	a2,808(t1)

0000133c <inst_219>:
    133c:	33333537          	lui	a0,0x33333
    1340:	33350513          	addi	a0,a0,819 # 33333333 <_end+0x3332c62f>
    1344:	00600593          	li	a1,6
    1348:	02b55633          	divu	a2,a0,a1
    134c:	32c32623          	sw	a2,812(t1)

00001350 <inst_220>:
    1350:	33333537          	lui	a0,0x33333
    1354:	33350513          	addi	a0,a0,819 # 33333333 <_end+0x3332c62f>
    1358:	333335b7          	lui	a1,0x33333
    135c:	33458593          	addi	a1,a1,820 # 33333334 <_end+0x3332c630>
    1360:	02b55633          	divu	a2,a0,a1
    1364:	32c32823          	sw	a2,816(t1)

00001368 <inst_221>:
    1368:	33333537          	lui	a0,0x33333
    136c:	33350513          	addi	a0,a0,819 # 33333333 <_end+0x3332c62f>
    1370:	666665b7          	lui	a1,0x66666
    1374:	66758593          	addi	a1,a1,1639 # 66666667 <_end+0x6665f963>
    1378:	02b55633          	divu	a2,a0,a1
    137c:	32c32a23          	sw	a2,820(t1)

00001380 <inst_222>:
    1380:	33333537          	lui	a0,0x33333
    1384:	33350513          	addi	a0,a0,819 # 33333333 <_end+0x3332c62f>
    1388:	0000b5b7          	lui	a1,0xb
    138c:	50558593          	addi	a1,a1,1285 # b505 <_end+0x4801>
    1390:	02b55633          	divu	a2,a0,a1
    1394:	32c32c23          	sw	a2,824(t1)

00001398 <inst_223>:
    1398:	33333537          	lui	a0,0x33333
    139c:	33350513          	addi	a0,a0,819 # 33333333 <_end+0x3332c62f>
    13a0:	00100593          	li	a1,1
    13a4:	02b55633          	divu	a2,a0,a1
    13a8:	32c32e23          	sw	a2,828(t1)

000013ac <inst_224>:
    13ac:	33333537          	lui	a0,0x33333
    13b0:	33350513          	addi	a0,a0,819 # 33333333 <_end+0x3332c62f>
    13b4:	000105b7          	lui	a1,0x10
    13b8:	02b55633          	divu	a2,a0,a1
    13bc:	34c32023          	sw	a2,832(t1)

000013c0 <inst_225>:
    13c0:	66666537          	lui	a0,0x66666
    13c4:	66650513          	addi	a0,a0,1638 # 66666666 <_end+0x6665f962>
    13c8:	00300593          	li	a1,3
    13cc:	02b55633          	divu	a2,a0,a1
    13d0:	34c32223          	sw	a2,836(t1)

000013d4 <inst_226>:
    13d4:	66666537          	lui	a0,0x66666
    13d8:	66650513          	addi	a0,a0,1638 # 66666666 <_end+0x6665f962>
    13dc:	555555b7          	lui	a1,0x55555
    13e0:	55558593          	addi	a1,a1,1365 # 55555555 <_end+0x5554e851>
    13e4:	02b55633          	divu	a2,a0,a1
    13e8:	34c32423          	sw	a2,840(t1)

000013ec <inst_227>:
    13ec:	66666537          	lui	a0,0x66666
    13f0:	66650513          	addi	a0,a0,1638 # 66666666 <_end+0x6665f962>
    13f4:	aaaab5b7          	lui	a1,0xaaaab
    13f8:	aaa58593          	addi	a1,a1,-1366 # aaaaaaaa <_end+0xaaaa3da6>
    13fc:	02b55633          	divu	a2,a0,a1
    1400:	34c32623          	sw	a2,844(t1)

00001404 <inst_228>:
    1404:	66666537          	lui	a0,0x66666
    1408:	66650513          	addi	a0,a0,1638 # 66666666 <_end+0x6665f962>
    140c:	00500593          	li	a1,5
    1410:	02b55633          	divu	a2,a0,a1
    1414:	34c32823          	sw	a2,848(t1)

00001418 <inst_229>:
    1418:	66666537          	lui	a0,0x66666
    141c:	66650513          	addi	a0,a0,1638 # 66666666 <_end+0x6665f962>
    1420:	333335b7          	lui	a1,0x33333
    1424:	33358593          	addi	a1,a1,819 # 33333333 <_end+0x3332c62f>
    1428:	02b55633          	divu	a2,a0,a1
    142c:	34c32a23          	sw	a2,852(t1)

00001430 <inst_230>:
    1430:	66666537          	lui	a0,0x66666
    1434:	66650513          	addi	a0,a0,1638 # 66666666 <_end+0x6665f962>
    1438:	666665b7          	lui	a1,0x66666
    143c:	66658593          	addi	a1,a1,1638 # 66666666 <_end+0x6665f962>
    1440:	02b55633          	divu	a2,a0,a1
    1444:	34c32c23          	sw	a2,856(t1)

00001448 <inst_231>:
    1448:	66666537          	lui	a0,0x66666
    144c:	66650513          	addi	a0,a0,1638 # 66666666 <_end+0x6665f962>
    1450:	0000b5b7          	lui	a1,0xb
    1454:	50458593          	addi	a1,a1,1284 # b504 <_end+0x4800>
    1458:	02b55633          	divu	a2,a0,a1
    145c:	34c32e23          	sw	a2,860(t1)

00001460 <inst_232>:
    1460:	66666537          	lui	a0,0x66666
    1464:	66650513          	addi	a0,a0,1638 # 66666666 <_end+0x6665f962>
    1468:	00000593          	li	a1,0
    146c:	02b55633          	divu	a2,a0,a1
    1470:	36c32023          	sw	a2,864(t1)

00001474 <inst_233>:
    1474:	66666537          	lui	a0,0x66666
    1478:	66650513          	addi	a0,a0,1638 # 66666666 <_end+0x6665f962>
    147c:	000105b7          	lui	a1,0x10
    1480:	fff58593          	addi	a1,a1,-1 # ffff <_end+0x92fb>
    1484:	02b55633          	divu	a2,a0,a1
    1488:	36c32223          	sw	a2,868(t1)

0000148c <inst_234>:
    148c:	66666537          	lui	a0,0x66666
    1490:	66650513          	addi	a0,a0,1638 # 66666666 <_end+0x6665f962>
    1494:	00200593          	li	a1,2
    1498:	02b55633          	divu	a2,a0,a1
    149c:	36c32423          	sw	a2,872(t1)

000014a0 <inst_235>:
    14a0:	66666537          	lui	a0,0x66666
    14a4:	66650513          	addi	a0,a0,1638 # 66666666 <_end+0x6665f962>
    14a8:	555555b7          	lui	a1,0x55555
    14ac:	55458593          	addi	a1,a1,1364 # 55555554 <_end+0x5554e850>
    14b0:	02b55633          	divu	a2,a0,a1
    14b4:	36c32623          	sw	a2,876(t1)

000014b8 <inst_236>:
    14b8:	66666537          	lui	a0,0x66666
    14bc:	66650513          	addi	a0,a0,1638 # 66666666 <_end+0x6665f962>
    14c0:	aaaab5b7          	lui	a1,0xaaaab
    14c4:	aa958593          	addi	a1,a1,-1367 # aaaaaaa9 <_end+0xaaaa3da5>
    14c8:	02b55633          	divu	a2,a0,a1
    14cc:	36c32823          	sw	a2,880(t1)

000014d0 <inst_237>:
    14d0:	66666537          	lui	a0,0x66666
    14d4:	66650513          	addi	a0,a0,1638 # 66666666 <_end+0x6665f962>
    14d8:	00400593          	li	a1,4
    14dc:	02b55633          	divu	a2,a0,a1
    14e0:	36c32a23          	sw	a2,884(t1)

000014e4 <inst_238>:
    14e4:	66666537          	lui	a0,0x66666
    14e8:	66650513          	addi	a0,a0,1638 # 66666666 <_end+0x6665f962>
    14ec:	333335b7          	lui	a1,0x33333
    14f0:	33258593          	addi	a1,a1,818 # 33333332 <_end+0x3332c62e>
    14f4:	02b55633          	divu	a2,a0,a1
    14f8:	36c32c23          	sw	a2,888(t1)

000014fc <inst_239>:
    14fc:	66666537          	lui	a0,0x66666
    1500:	66650513          	addi	a0,a0,1638 # 66666666 <_end+0x6665f962>
    1504:	666665b7          	lui	a1,0x66666
    1508:	66558593          	addi	a1,a1,1637 # 66666665 <_end+0x6665f961>
    150c:	02b55633          	divu	a2,a0,a1
    1510:	36c32e23          	sw	a2,892(t1)

00001514 <inst_240>:
    1514:	66666537          	lui	a0,0x66666
    1518:	66650513          	addi	a0,a0,1638 # 66666666 <_end+0x6665f962>
    151c:	0000b5b7          	lui	a1,0xb
    1520:	50358593          	addi	a1,a1,1283 # b503 <_end+0x47ff>
    1524:	02b55633          	divu	a2,a0,a1
    1528:	38c32023          	sw	a2,896(t1)

0000152c <inst_241>:
    152c:	66666537          	lui	a0,0x66666
    1530:	66650513          	addi	a0,a0,1638 # 66666666 <_end+0x6665f962>
    1534:	000105b7          	lui	a1,0x10
    1538:	ffe58593          	addi	a1,a1,-2 # fffe <_end+0x92fa>
    153c:	02b55633          	divu	a2,a0,a1
    1540:	38c32223          	sw	a2,900(t1)

00001544 <inst_242>:
    1544:	66666537          	lui	a0,0x66666
    1548:	66650513          	addi	a0,a0,1638 # 66666666 <_end+0x6665f962>
    154c:	555555b7          	lui	a1,0x55555
    1550:	55658593          	addi	a1,a1,1366 # 55555556 <_end+0x5554e852>
    1554:	02b55633          	divu	a2,a0,a1
    1558:	38c32423          	sw	a2,904(t1)

0000155c <inst_243>:
    155c:	66666537          	lui	a0,0x66666
    1560:	66650513          	addi	a0,a0,1638 # 66666666 <_end+0x6665f962>
    1564:	aaaab5b7          	lui	a1,0xaaaab
    1568:	aab58593          	addi	a1,a1,-1365 # aaaaaaab <_end+0xaaaa3da7>
    156c:	02b55633          	divu	a2,a0,a1
    1570:	38c32623          	sw	a2,908(t1)

00001574 <inst_244>:
    1574:	66666537          	lui	a0,0x66666
    1578:	66650513          	addi	a0,a0,1638 # 66666666 <_end+0x6665f962>
    157c:	00600593          	li	a1,6
    1580:	02b55633          	divu	a2,a0,a1
    1584:	38c32823          	sw	a2,912(t1)

00001588 <inst_245>:
    1588:	66666537          	lui	a0,0x66666
    158c:	66650513          	addi	a0,a0,1638 # 66666666 <_end+0x6665f962>
    1590:	333335b7          	lui	a1,0x33333
    1594:	33458593          	addi	a1,a1,820 # 33333334 <_end+0x3332c630>
    1598:	02b55633          	divu	a2,a0,a1
    159c:	38c32a23          	sw	a2,916(t1)

000015a0 <inst_246>:
    15a0:	66666537          	lui	a0,0x66666
    15a4:	66650513          	addi	a0,a0,1638 # 66666666 <_end+0x6665f962>
    15a8:	666665b7          	lui	a1,0x66666
    15ac:	66758593          	addi	a1,a1,1639 # 66666667 <_end+0x6665f963>
    15b0:	02b55633          	divu	a2,a0,a1
    15b4:	38c32c23          	sw	a2,920(t1)

000015b8 <inst_247>:
    15b8:	66666537          	lui	a0,0x66666
    15bc:	66650513          	addi	a0,a0,1638 # 66666666 <_end+0x6665f962>
    15c0:	0000b5b7          	lui	a1,0xb
    15c4:	50558593          	addi	a1,a1,1285 # b505 <_end+0x4801>
    15c8:	02b55633          	divu	a2,a0,a1
    15cc:	38c32e23          	sw	a2,924(t1)

000015d0 <inst_248>:
    15d0:	66666537          	lui	a0,0x66666
    15d4:	66650513          	addi	a0,a0,1638 # 66666666 <_end+0x6665f962>
    15d8:	00100593          	li	a1,1
    15dc:	02b55633          	divu	a2,a0,a1
    15e0:	3ac32023          	sw	a2,928(t1)

000015e4 <inst_249>:
    15e4:	66666537          	lui	a0,0x66666
    15e8:	66650513          	addi	a0,a0,1638 # 66666666 <_end+0x6665f962>
    15ec:	000105b7          	lui	a1,0x10
    15f0:	02b55633          	divu	a2,a0,a1
    15f4:	3ac32223          	sw	a2,932(t1)

000015f8 <inst_250>:
    15f8:	0000b537          	lui	a0,0xb
    15fc:	50450513          	addi	a0,a0,1284 # b504 <_end+0x4800>
    1600:	00300593          	li	a1,3
    1604:	02b55633          	divu	a2,a0,a1
    1608:	3ac32423          	sw	a2,936(t1)

0000160c <inst_251>:
    160c:	0000b537          	lui	a0,0xb
    1610:	50450513          	addi	a0,a0,1284 # b504 <_end+0x4800>
    1614:	555555b7          	lui	a1,0x55555
    1618:	55558593          	addi	a1,a1,1365 # 55555555 <_end+0x5554e851>
    161c:	02b55633          	divu	a2,a0,a1
    1620:	3ac32623          	sw	a2,940(t1)

00001624 <inst_252>:
    1624:	0000b537          	lui	a0,0xb
    1628:	50450513          	addi	a0,a0,1284 # b504 <_end+0x4800>
    162c:	aaaab5b7          	lui	a1,0xaaaab
    1630:	aaa58593          	addi	a1,a1,-1366 # aaaaaaaa <_end+0xaaaa3da6>
    1634:	02b55633          	divu	a2,a0,a1
    1638:	3ac32823          	sw	a2,944(t1)

0000163c <inst_253>:
    163c:	0000b537          	lui	a0,0xb
    1640:	50450513          	addi	a0,a0,1284 # b504 <_end+0x4800>
    1644:	00500593          	li	a1,5
    1648:	02b55633          	divu	a2,a0,a1
    164c:	3ac32a23          	sw	a2,948(t1)

00001650 <inst_254>:
    1650:	0000b537          	lui	a0,0xb
    1654:	50450513          	addi	a0,a0,1284 # b504 <_end+0x4800>
    1658:	333335b7          	lui	a1,0x33333
    165c:	33358593          	addi	a1,a1,819 # 33333333 <_end+0x3332c62f>
    1660:	02b55633          	divu	a2,a0,a1
    1664:	3ac32c23          	sw	a2,952(t1)

00001668 <inst_255>:
    1668:	0000b537          	lui	a0,0xb
    166c:	50450513          	addi	a0,a0,1284 # b504 <_end+0x4800>
    1670:	666665b7          	lui	a1,0x66666
    1674:	66658593          	addi	a1,a1,1638 # 66666666 <_end+0x6665f962>
    1678:	02b55633          	divu	a2,a0,a1
    167c:	3ac32e23          	sw	a2,956(t1)

00001680 <inst_256>:
    1680:	0000b537          	lui	a0,0xb
    1684:	50450513          	addi	a0,a0,1284 # b504 <_end+0x4800>
    1688:	0000b5b7          	lui	a1,0xb
    168c:	50458593          	addi	a1,a1,1284 # b504 <_end+0x4800>
    1690:	02b55633          	divu	a2,a0,a1
    1694:	3cc32023          	sw	a2,960(t1)

00001698 <inst_257>:
    1698:	0000b537          	lui	a0,0xb
    169c:	50450513          	addi	a0,a0,1284 # b504 <_end+0x4800>
    16a0:	00000593          	li	a1,0
    16a4:	02b55633          	divu	a2,a0,a1
    16a8:	3cc32223          	sw	a2,964(t1)

000016ac <inst_258>:
    16ac:	0000b537          	lui	a0,0xb
    16b0:	50450513          	addi	a0,a0,1284 # b504 <_end+0x4800>
    16b4:	000105b7          	lui	a1,0x10
    16b8:	fff58593          	addi	a1,a1,-1 # ffff <_end+0x92fb>
    16bc:	02b55633          	divu	a2,a0,a1
    16c0:	3cc32423          	sw	a2,968(t1)

000016c4 <inst_259>:
    16c4:	0000b537          	lui	a0,0xb
    16c8:	50450513          	addi	a0,a0,1284 # b504 <_end+0x4800>
    16cc:	00200593          	li	a1,2
    16d0:	02b55633          	divu	a2,a0,a1
    16d4:	3cc32623          	sw	a2,972(t1)

000016d8 <inst_260>:
    16d8:	0000b537          	lui	a0,0xb
    16dc:	50450513          	addi	a0,a0,1284 # b504 <_end+0x4800>
    16e0:	555555b7          	lui	a1,0x55555
    16e4:	55458593          	addi	a1,a1,1364 # 55555554 <_end+0x5554e850>
    16e8:	02b55633          	divu	a2,a0,a1
    16ec:	3cc32823          	sw	a2,976(t1)

000016f0 <inst_261>:
    16f0:	0000b537          	lui	a0,0xb
    16f4:	50450513          	addi	a0,a0,1284 # b504 <_end+0x4800>
    16f8:	aaaab5b7          	lui	a1,0xaaaab
    16fc:	aa958593          	addi	a1,a1,-1367 # aaaaaaa9 <_end+0xaaaa3da5>
    1700:	02b55633          	divu	a2,a0,a1
    1704:	3cc32a23          	sw	a2,980(t1)

00001708 <inst_262>:
    1708:	0000b537          	lui	a0,0xb
    170c:	50450513          	addi	a0,a0,1284 # b504 <_end+0x4800>
    1710:	00400593          	li	a1,4
    1714:	02b55633          	divu	a2,a0,a1
    1718:	3cc32c23          	sw	a2,984(t1)

0000171c <inst_263>:
    171c:	0000b537          	lui	a0,0xb
    1720:	50450513          	addi	a0,a0,1284 # b504 <_end+0x4800>
    1724:	333335b7          	lui	a1,0x33333
    1728:	33258593          	addi	a1,a1,818 # 33333332 <_end+0x3332c62e>
    172c:	02b55633          	divu	a2,a0,a1
    1730:	3cc32e23          	sw	a2,988(t1)

00001734 <inst_264>:
    1734:	0000b537          	lui	a0,0xb
    1738:	50450513          	addi	a0,a0,1284 # b504 <_end+0x4800>
    173c:	666665b7          	lui	a1,0x66666
    1740:	66558593          	addi	a1,a1,1637 # 66666665 <_end+0x6665f961>
    1744:	02b55633          	divu	a2,a0,a1
    1748:	3ec32023          	sw	a2,992(t1)

0000174c <inst_265>:
    174c:	0000b537          	lui	a0,0xb
    1750:	50450513          	addi	a0,a0,1284 # b504 <_end+0x4800>
    1754:	0000b5b7          	lui	a1,0xb
    1758:	50358593          	addi	a1,a1,1283 # b503 <_end+0x47ff>
    175c:	02b55633          	divu	a2,a0,a1
    1760:	3ec32223          	sw	a2,996(t1)

00001764 <inst_266>:
    1764:	0000b537          	lui	a0,0xb
    1768:	50450513          	addi	a0,a0,1284 # b504 <_end+0x4800>
    176c:	000105b7          	lui	a1,0x10
    1770:	ffe58593          	addi	a1,a1,-2 # fffe <_end+0x92fa>
    1774:	02b55633          	divu	a2,a0,a1
    1778:	3ec32423          	sw	a2,1000(t1)

0000177c <inst_267>:
    177c:	0000b537          	lui	a0,0xb
    1780:	50450513          	addi	a0,a0,1284 # b504 <_end+0x4800>
    1784:	555555b7          	lui	a1,0x55555
    1788:	55658593          	addi	a1,a1,1366 # 55555556 <_end+0x5554e852>
    178c:	02b55633          	divu	a2,a0,a1
    1790:	3ec32623          	sw	a2,1004(t1)

00001794 <inst_268>:
    1794:	0000b537          	lui	a0,0xb
    1798:	50450513          	addi	a0,a0,1284 # b504 <_end+0x4800>
    179c:	aaaab5b7          	lui	a1,0xaaaab
    17a0:	aab58593          	addi	a1,a1,-1365 # aaaaaaab <_end+0xaaaa3da7>
    17a4:	02b55633          	divu	a2,a0,a1
    17a8:	3ec32823          	sw	a2,1008(t1)

000017ac <inst_269>:
    17ac:	0000b537          	lui	a0,0xb
    17b0:	50450513          	addi	a0,a0,1284 # b504 <_end+0x4800>
    17b4:	00600593          	li	a1,6
    17b8:	02b55633          	divu	a2,a0,a1
    17bc:	3ec32a23          	sw	a2,1012(t1)

000017c0 <inst_270>:
    17c0:	0000b537          	lui	a0,0xb
    17c4:	50450513          	addi	a0,a0,1284 # b504 <_end+0x4800>
    17c8:	333335b7          	lui	a1,0x33333
    17cc:	33458593          	addi	a1,a1,820 # 33333334 <_end+0x3332c630>
    17d0:	02b55633          	divu	a2,a0,a1
    17d4:	3ec32c23          	sw	a2,1016(t1)

000017d8 <inst_271>:
    17d8:	0000b537          	lui	a0,0xb
    17dc:	50450513          	addi	a0,a0,1284 # b504 <_end+0x4800>
    17e0:	666665b7          	lui	a1,0x66666
    17e4:	66758593          	addi	a1,a1,1639 # 66666667 <_end+0x6665f963>
    17e8:	02b55633          	divu	a2,a0,a1
    17ec:	3ec32e23          	sw	a2,1020(t1)

000017f0 <inst_272>:
    17f0:	0000b537          	lui	a0,0xb
    17f4:	50450513          	addi	a0,a0,1284 # b504 <_end+0x4800>
    17f8:	0000b5b7          	lui	a1,0xb
    17fc:	50558593          	addi	a1,a1,1285 # b505 <_end+0x4801>
    1800:	02b55633          	divu	a2,a0,a1
    1804:	40c32023          	sw	a2,1024(t1)

00001808 <inst_273>:
    1808:	0000b537          	lui	a0,0xb
    180c:	50450513          	addi	a0,a0,1284 # b504 <_end+0x4800>
    1810:	00100593          	li	a1,1
    1814:	02b55633          	divu	a2,a0,a1
    1818:	40c32223          	sw	a2,1028(t1)

0000181c <inst_274>:
    181c:	0000b537          	lui	a0,0xb
    1820:	50450513          	addi	a0,a0,1284 # b504 <_end+0x4800>
    1824:	000105b7          	lui	a1,0x10
    1828:	02b55633          	divu	a2,a0,a1
    182c:	40c32423          	sw	a2,1032(t1)

00001830 <inst_275>:
    1830:	00000513          	li	a0,0
    1834:	00300593          	li	a1,3
    1838:	02b55633          	divu	a2,a0,a1
    183c:	40c32623          	sw	a2,1036(t1)

00001840 <inst_276>:
    1840:	00000513          	li	a0,0
    1844:	555555b7          	lui	a1,0x55555
    1848:	55558593          	addi	a1,a1,1365 # 55555555 <_end+0x5554e851>
    184c:	02b55633          	divu	a2,a0,a1
    1850:	40c32823          	sw	a2,1040(t1)

00001854 <inst_277>:
    1854:	00000513          	li	a0,0
    1858:	aaaab5b7          	lui	a1,0xaaaab
    185c:	aaa58593          	addi	a1,a1,-1366 # aaaaaaaa <_end+0xaaaa3da6>
    1860:	02b55633          	divu	a2,a0,a1
    1864:	40c32a23          	sw	a2,1044(t1)

00001868 <inst_278>:
    1868:	00000513          	li	a0,0
    186c:	00500593          	li	a1,5
    1870:	02b55633          	divu	a2,a0,a1
    1874:	40c32c23          	sw	a2,1048(t1)

00001878 <inst_279>:
    1878:	00000513          	li	a0,0
    187c:	333335b7          	lui	a1,0x33333
    1880:	33358593          	addi	a1,a1,819 # 33333333 <_end+0x3332c62f>
    1884:	02b55633          	divu	a2,a0,a1
    1888:	40c32e23          	sw	a2,1052(t1)

0000188c <inst_280>:
    188c:	00000513          	li	a0,0
    1890:	666665b7          	lui	a1,0x66666
    1894:	66658593          	addi	a1,a1,1638 # 66666666 <_end+0x6665f962>
    1898:	02b55633          	divu	a2,a0,a1
    189c:	42c32023          	sw	a2,1056(t1)

000018a0 <inst_281>:
    18a0:	00000513          	li	a0,0
    18a4:	0000b5b7          	lui	a1,0xb
    18a8:	50458593          	addi	a1,a1,1284 # b504 <_end+0x4800>
    18ac:	02b55633          	divu	a2,a0,a1
    18b0:	42c32223          	sw	a2,1060(t1)

000018b4 <inst_282>:
    18b4:	00000513          	li	a0,0
    18b8:	00000593          	li	a1,0
    18bc:	02b55633          	divu	a2,a0,a1
    18c0:	42c32423          	sw	a2,1064(t1)

000018c4 <inst_283>:
    18c4:	00000513          	li	a0,0
    18c8:	000105b7          	lui	a1,0x10
    18cc:	fff58593          	addi	a1,a1,-1 # ffff <_end+0x92fb>
    18d0:	02b55633          	divu	a2,a0,a1
    18d4:	42c32623          	sw	a2,1068(t1)

000018d8 <inst_284>:
    18d8:	00000513          	li	a0,0
    18dc:	00200593          	li	a1,2
    18e0:	02b55633          	divu	a2,a0,a1
    18e4:	42c32823          	sw	a2,1072(t1)

000018e8 <inst_285>:
    18e8:	00000513          	li	a0,0
    18ec:	555555b7          	lui	a1,0x55555
    18f0:	55458593          	addi	a1,a1,1364 # 55555554 <_end+0x5554e850>
    18f4:	02b55633          	divu	a2,a0,a1
    18f8:	42c32a23          	sw	a2,1076(t1)

000018fc <inst_286>:
    18fc:	00000513          	li	a0,0
    1900:	aaaab5b7          	lui	a1,0xaaaab
    1904:	aa958593          	addi	a1,a1,-1367 # aaaaaaa9 <_end+0xaaaa3da5>
    1908:	02b55633          	divu	a2,a0,a1
    190c:	42c32c23          	sw	a2,1080(t1)

00001910 <inst_287>:
    1910:	00000513          	li	a0,0
    1914:	00400593          	li	a1,4
    1918:	02b55633          	divu	a2,a0,a1
    191c:	42c32e23          	sw	a2,1084(t1)

00001920 <inst_288>:
    1920:	00000513          	li	a0,0
    1924:	333335b7          	lui	a1,0x33333
    1928:	33258593          	addi	a1,a1,818 # 33333332 <_end+0x3332c62e>
    192c:	02b55633          	divu	a2,a0,a1
    1930:	44c32023          	sw	a2,1088(t1)

00001934 <inst_289>:
    1934:	00000513          	li	a0,0
    1938:	666665b7          	lui	a1,0x66666
    193c:	66558593          	addi	a1,a1,1637 # 66666665 <_end+0x6665f961>
    1940:	02b55633          	divu	a2,a0,a1
    1944:	44c32223          	sw	a2,1092(t1)

00001948 <inst_290>:
    1948:	00000513          	li	a0,0
    194c:	0000b5b7          	lui	a1,0xb
    1950:	50358593          	addi	a1,a1,1283 # b503 <_end+0x47ff>
    1954:	02b55633          	divu	a2,a0,a1
    1958:	44c32423          	sw	a2,1096(t1)

0000195c <inst_291>:
    195c:	00000513          	li	a0,0
    1960:	000105b7          	lui	a1,0x10
    1964:	ffe58593          	addi	a1,a1,-2 # fffe <_end+0x92fa>
    1968:	02b55633          	divu	a2,a0,a1
    196c:	44c32623          	sw	a2,1100(t1)

00001970 <inst_292>:
    1970:	00000513          	li	a0,0
    1974:	555555b7          	lui	a1,0x55555
    1978:	55658593          	addi	a1,a1,1366 # 55555556 <_end+0x5554e852>
    197c:	02b55633          	divu	a2,a0,a1
    1980:	44c32823          	sw	a2,1104(t1)

00001984 <inst_293>:
    1984:	00000513          	li	a0,0
    1988:	aaaab5b7          	lui	a1,0xaaaab
    198c:	aab58593          	addi	a1,a1,-1365 # aaaaaaab <_end+0xaaaa3da7>
    1990:	02b55633          	divu	a2,a0,a1
    1994:	44c32a23          	sw	a2,1108(t1)

00001998 <inst_294>:
    1998:	00000513          	li	a0,0
    199c:	00600593          	li	a1,6
    19a0:	02b55633          	divu	a2,a0,a1
    19a4:	44c32c23          	sw	a2,1112(t1)

000019a8 <inst_295>:
    19a8:	00000513          	li	a0,0
    19ac:	333335b7          	lui	a1,0x33333
    19b0:	33458593          	addi	a1,a1,820 # 33333334 <_end+0x3332c630>
    19b4:	02b55633          	divu	a2,a0,a1
    19b8:	44c32e23          	sw	a2,1116(t1)

000019bc <inst_296>:
    19bc:	00000513          	li	a0,0
    19c0:	666665b7          	lui	a1,0x66666
    19c4:	66758593          	addi	a1,a1,1639 # 66666667 <_end+0x6665f963>
    19c8:	02b55633          	divu	a2,a0,a1
    19cc:	46c32023          	sw	a2,1120(t1)

000019d0 <inst_297>:
    19d0:	00000513          	li	a0,0
    19d4:	0000b5b7          	lui	a1,0xb
    19d8:	50558593          	addi	a1,a1,1285 # b505 <_end+0x4801>
    19dc:	02b55633          	divu	a2,a0,a1
    19e0:	46c32223          	sw	a2,1124(t1)

000019e4 <inst_298>:
    19e4:	00000513          	li	a0,0
    19e8:	00100593          	li	a1,1
    19ec:	02b55633          	divu	a2,a0,a1
    19f0:	46c32423          	sw	a2,1128(t1)

000019f4 <inst_299>:
    19f4:	00000513          	li	a0,0
    19f8:	000105b7          	lui	a1,0x10
    19fc:	02b55633          	divu	a2,a0,a1
    1a00:	46c32623          	sw	a2,1132(t1)

00001a04 <inst_300>:
    1a04:	00010537          	lui	a0,0x10
    1a08:	fff50513          	addi	a0,a0,-1 # ffff <_end+0x92fb>
    1a0c:	00300593          	li	a1,3
    1a10:	02b55633          	divu	a2,a0,a1
    1a14:	46c32823          	sw	a2,1136(t1)

00001a18 <inst_301>:
    1a18:	00010537          	lui	a0,0x10
    1a1c:	fff50513          	addi	a0,a0,-1 # ffff <_end+0x92fb>
    1a20:	555555b7          	lui	a1,0x55555
    1a24:	55558593          	addi	a1,a1,1365 # 55555555 <_end+0x5554e851>
    1a28:	02b55633          	divu	a2,a0,a1
    1a2c:	46c32a23          	sw	a2,1140(t1)

00001a30 <inst_302>:
    1a30:	00010537          	lui	a0,0x10
    1a34:	fff50513          	addi	a0,a0,-1 # ffff <_end+0x92fb>
    1a38:	aaaab5b7          	lui	a1,0xaaaab
    1a3c:	aaa58593          	addi	a1,a1,-1366 # aaaaaaaa <_end+0xaaaa3da6>
    1a40:	02b55633          	divu	a2,a0,a1
    1a44:	46c32c23          	sw	a2,1144(t1)

00001a48 <inst_303>:
    1a48:	00010537          	lui	a0,0x10
    1a4c:	fff50513          	addi	a0,a0,-1 # ffff <_end+0x92fb>
    1a50:	00500593          	li	a1,5
    1a54:	02b55633          	divu	a2,a0,a1
    1a58:	46c32e23          	sw	a2,1148(t1)

00001a5c <inst_304>:
    1a5c:	00010537          	lui	a0,0x10
    1a60:	fff50513          	addi	a0,a0,-1 # ffff <_end+0x92fb>
    1a64:	333335b7          	lui	a1,0x33333
    1a68:	33358593          	addi	a1,a1,819 # 33333333 <_end+0x3332c62f>
    1a6c:	02b55633          	divu	a2,a0,a1
    1a70:	48c32023          	sw	a2,1152(t1)

00001a74 <inst_305>:
    1a74:	00010537          	lui	a0,0x10
    1a78:	fff50513          	addi	a0,a0,-1 # ffff <_end+0x92fb>
    1a7c:	666665b7          	lui	a1,0x66666
    1a80:	66658593          	addi	a1,a1,1638 # 66666666 <_end+0x6665f962>
    1a84:	02b55633          	divu	a2,a0,a1
    1a88:	48c32223          	sw	a2,1156(t1)

00001a8c <inst_306>:
    1a8c:	00010537          	lui	a0,0x10
    1a90:	fff50513          	addi	a0,a0,-1 # ffff <_end+0x92fb>
    1a94:	0000b5b7          	lui	a1,0xb
    1a98:	50458593          	addi	a1,a1,1284 # b504 <_end+0x4800>
    1a9c:	02b55633          	divu	a2,a0,a1
    1aa0:	48c32423          	sw	a2,1160(t1)

00001aa4 <inst_307>:
    1aa4:	00010537          	lui	a0,0x10
    1aa8:	fff50513          	addi	a0,a0,-1 # ffff <_end+0x92fb>
    1aac:	00000593          	li	a1,0
    1ab0:	02b55633          	divu	a2,a0,a1
    1ab4:	48c32623          	sw	a2,1164(t1)

00001ab8 <inst_308>:
    1ab8:	00010537          	lui	a0,0x10
    1abc:	fff50513          	addi	a0,a0,-1 # ffff <_end+0x92fb>
    1ac0:	000105b7          	lui	a1,0x10
    1ac4:	fff58593          	addi	a1,a1,-1 # ffff <_end+0x92fb>
    1ac8:	02b55633          	divu	a2,a0,a1
    1acc:	48c32823          	sw	a2,1168(t1)

00001ad0 <inst_309>:
    1ad0:	00010537          	lui	a0,0x10
    1ad4:	fff50513          	addi	a0,a0,-1 # ffff <_end+0x92fb>
    1ad8:	00200593          	li	a1,2
    1adc:	02b55633          	divu	a2,a0,a1
    1ae0:	48c32a23          	sw	a2,1172(t1)

00001ae4 <inst_310>:
    1ae4:	00010537          	lui	a0,0x10
    1ae8:	fff50513          	addi	a0,a0,-1 # ffff <_end+0x92fb>
    1aec:	555555b7          	lui	a1,0x55555
    1af0:	55458593          	addi	a1,a1,1364 # 55555554 <_end+0x5554e850>
    1af4:	02b55633          	divu	a2,a0,a1
    1af8:	48c32c23          	sw	a2,1176(t1)

00001afc <inst_311>:
    1afc:	00010537          	lui	a0,0x10
    1b00:	fff50513          	addi	a0,a0,-1 # ffff <_end+0x92fb>
    1b04:	aaaab5b7          	lui	a1,0xaaaab
    1b08:	aa958593          	addi	a1,a1,-1367 # aaaaaaa9 <_end+0xaaaa3da5>
    1b0c:	02b55633          	divu	a2,a0,a1
    1b10:	48c32e23          	sw	a2,1180(t1)

00001b14 <inst_312>:
    1b14:	00010537          	lui	a0,0x10
    1b18:	fff50513          	addi	a0,a0,-1 # ffff <_end+0x92fb>
    1b1c:	00400593          	li	a1,4
    1b20:	02b55633          	divu	a2,a0,a1
    1b24:	4ac32023          	sw	a2,1184(t1)

00001b28 <inst_313>:
    1b28:	00010537          	lui	a0,0x10
    1b2c:	fff50513          	addi	a0,a0,-1 # ffff <_end+0x92fb>
    1b30:	333335b7          	lui	a1,0x33333
    1b34:	33258593          	addi	a1,a1,818 # 33333332 <_end+0x3332c62e>
    1b38:	02b55633          	divu	a2,a0,a1
    1b3c:	4ac32223          	sw	a2,1188(t1)

00001b40 <inst_314>:
    1b40:	00010537          	lui	a0,0x10
    1b44:	fff50513          	addi	a0,a0,-1 # ffff <_end+0x92fb>
    1b48:	666665b7          	lui	a1,0x66666
    1b4c:	66558593          	addi	a1,a1,1637 # 66666665 <_end+0x6665f961>
    1b50:	02b55633          	divu	a2,a0,a1
    1b54:	4ac32423          	sw	a2,1192(t1)

00001b58 <inst_315>:
    1b58:	00010537          	lui	a0,0x10
    1b5c:	fff50513          	addi	a0,a0,-1 # ffff <_end+0x92fb>
    1b60:	0000b5b7          	lui	a1,0xb
    1b64:	50358593          	addi	a1,a1,1283 # b503 <_end+0x47ff>
    1b68:	02b55633          	divu	a2,a0,a1
    1b6c:	4ac32623          	sw	a2,1196(t1)

00001b70 <inst_316>:
    1b70:	00010537          	lui	a0,0x10
    1b74:	fff50513          	addi	a0,a0,-1 # ffff <_end+0x92fb>
    1b78:	000105b7          	lui	a1,0x10
    1b7c:	ffe58593          	addi	a1,a1,-2 # fffe <_end+0x92fa>
    1b80:	02b55633          	divu	a2,a0,a1
    1b84:	4ac32823          	sw	a2,1200(t1)

00001b88 <inst_317>:
    1b88:	00010537          	lui	a0,0x10
    1b8c:	fff50513          	addi	a0,a0,-1 # ffff <_end+0x92fb>
    1b90:	555555b7          	lui	a1,0x55555
    1b94:	55658593          	addi	a1,a1,1366 # 55555556 <_end+0x5554e852>
    1b98:	02b55633          	divu	a2,a0,a1
    1b9c:	4ac32a23          	sw	a2,1204(t1)

00001ba0 <inst_318>:
    1ba0:	00010537          	lui	a0,0x10
    1ba4:	fff50513          	addi	a0,a0,-1 # ffff <_end+0x92fb>
    1ba8:	aaaab5b7          	lui	a1,0xaaaab
    1bac:	aab58593          	addi	a1,a1,-1365 # aaaaaaab <_end+0xaaaa3da7>
    1bb0:	02b55633          	divu	a2,a0,a1
    1bb4:	4ac32c23          	sw	a2,1208(t1)

00001bb8 <inst_319>:
    1bb8:	00010537          	lui	a0,0x10
    1bbc:	fff50513          	addi	a0,a0,-1 # ffff <_end+0x92fb>
    1bc0:	00600593          	li	a1,6
    1bc4:	02b55633          	divu	a2,a0,a1
    1bc8:	4ac32e23          	sw	a2,1212(t1)

00001bcc <inst_320>:
    1bcc:	00010537          	lui	a0,0x10
    1bd0:	fff50513          	addi	a0,a0,-1 # ffff <_end+0x92fb>
    1bd4:	333335b7          	lui	a1,0x33333
    1bd8:	33458593          	addi	a1,a1,820 # 33333334 <_end+0x3332c630>
    1bdc:	02b55633          	divu	a2,a0,a1
    1be0:	4cc32023          	sw	a2,1216(t1)

00001be4 <inst_321>:
    1be4:	00010537          	lui	a0,0x10
    1be8:	fff50513          	addi	a0,a0,-1 # ffff <_end+0x92fb>
    1bec:	666665b7          	lui	a1,0x66666
    1bf0:	66758593          	addi	a1,a1,1639 # 66666667 <_end+0x6665f963>
    1bf4:	02b55633          	divu	a2,a0,a1
    1bf8:	4cc32223          	sw	a2,1220(t1)

00001bfc <inst_322>:
    1bfc:	00010537          	lui	a0,0x10
    1c00:	fff50513          	addi	a0,a0,-1 # ffff <_end+0x92fb>
    1c04:	0000b5b7          	lui	a1,0xb
    1c08:	50558593          	addi	a1,a1,1285 # b505 <_end+0x4801>
    1c0c:	02b55633          	divu	a2,a0,a1
    1c10:	4cc32423          	sw	a2,1224(t1)

00001c14 <inst_323>:
    1c14:	00010537          	lui	a0,0x10
    1c18:	fff50513          	addi	a0,a0,-1 # ffff <_end+0x92fb>
    1c1c:	00100593          	li	a1,1
    1c20:	02b55633          	divu	a2,a0,a1
    1c24:	4cc32623          	sw	a2,1228(t1)

00001c28 <inst_324>:
    1c28:	00010537          	lui	a0,0x10
    1c2c:	fff50513          	addi	a0,a0,-1 # ffff <_end+0x92fb>
    1c30:	000105b7          	lui	a1,0x10
    1c34:	02b55633          	divu	a2,a0,a1
    1c38:	4cc32823          	sw	a2,1232(t1)

00001c3c <inst_325>:
    1c3c:	00200513          	li	a0,2
    1c40:	00300593          	li	a1,3
    1c44:	02b55633          	divu	a2,a0,a1
    1c48:	4cc32a23          	sw	a2,1236(t1)

00001c4c <inst_326>:
    1c4c:	00200513          	li	a0,2
    1c50:	aaaab5b7          	lui	a1,0xaaaab
    1c54:	aaa58593          	addi	a1,a1,-1366 # aaaaaaaa <_end+0xaaaa3da6>
    1c58:	02b55633          	divu	a2,a0,a1
    1c5c:	4cc32c23          	sw	a2,1240(t1)

00001c60 <inst_327>:
    1c60:	00200513          	li	a0,2
    1c64:	00500593          	li	a1,5
    1c68:	02b55633          	divu	a2,a0,a1
    1c6c:	4cc32e23          	sw	a2,1244(t1)

00001c70 <inst_328>:
    1c70:	00200513          	li	a0,2
    1c74:	333335b7          	lui	a1,0x33333
    1c78:	33358593          	addi	a1,a1,819 # 33333333 <_end+0x3332c62f>
    1c7c:	02b55633          	divu	a2,a0,a1
    1c80:	4ec32023          	sw	a2,1248(t1)

00001c84 <inst_329>:
    1c84:	00200513          	li	a0,2
    1c88:	666665b7          	lui	a1,0x66666
    1c8c:	66658593          	addi	a1,a1,1638 # 66666666 <_end+0x6665f962>
    1c90:	02b55633          	divu	a2,a0,a1
    1c94:	4ec32223          	sw	a2,1252(t1)

00001c98 <inst_330>:
    1c98:	00200513          	li	a0,2
    1c9c:	0000b5b7          	lui	a1,0xb
    1ca0:	50458593          	addi	a1,a1,1284 # b504 <_end+0x4800>
    1ca4:	02b55633          	divu	a2,a0,a1
    1ca8:	4ec32423          	sw	a2,1256(t1)

00001cac <inst_331>:
    1cac:	00200513          	li	a0,2
    1cb0:	00000593          	li	a1,0
    1cb4:	02b55633          	divu	a2,a0,a1
    1cb8:	4ec32623          	sw	a2,1260(t1)

00001cbc <inst_332>:
    1cbc:	00200513          	li	a0,2
    1cc0:	000105b7          	lui	a1,0x10
    1cc4:	fff58593          	addi	a1,a1,-1 # ffff <_end+0x92fb>
    1cc8:	02b55633          	divu	a2,a0,a1
    1ccc:	4ec32823          	sw	a2,1264(t1)

00001cd0 <inst_333>:
    1cd0:	00200513          	li	a0,2
    1cd4:	00200593          	li	a1,2
    1cd8:	02b55633          	divu	a2,a0,a1
    1cdc:	4ec32a23          	sw	a2,1268(t1)

00001ce0 <inst_334>:
    1ce0:	00200513          	li	a0,2
    1ce4:	555555b7          	lui	a1,0x55555
    1ce8:	55458593          	addi	a1,a1,1364 # 55555554 <_end+0x5554e850>
    1cec:	02b55633          	divu	a2,a0,a1
    1cf0:	4ec32c23          	sw	a2,1272(t1)

00001cf4 <inst_335>:
    1cf4:	00200513          	li	a0,2
    1cf8:	aaaab5b7          	lui	a1,0xaaaab
    1cfc:	aa958593          	addi	a1,a1,-1367 # aaaaaaa9 <_end+0xaaaa3da5>
    1d00:	02b55633          	divu	a2,a0,a1
    1d04:	4ec32e23          	sw	a2,1276(t1)

00001d08 <inst_336>:
    1d08:	00200513          	li	a0,2
    1d0c:	00400593          	li	a1,4
    1d10:	02b55633          	divu	a2,a0,a1
    1d14:	50c32023          	sw	a2,1280(t1)

00001d18 <inst_337>:
    1d18:	00200513          	li	a0,2
    1d1c:	333335b7          	lui	a1,0x33333
    1d20:	33258593          	addi	a1,a1,818 # 33333332 <_end+0x3332c62e>
    1d24:	02b55633          	divu	a2,a0,a1
    1d28:	50c32223          	sw	a2,1284(t1)

00001d2c <inst_338>:
    1d2c:	00200513          	li	a0,2
    1d30:	666665b7          	lui	a1,0x66666
    1d34:	66558593          	addi	a1,a1,1637 # 66666665 <_end+0x6665f961>
    1d38:	02b55633          	divu	a2,a0,a1
    1d3c:	50c32423          	sw	a2,1288(t1)

00001d40 <inst_339>:
    1d40:	00200513          	li	a0,2
    1d44:	0000b5b7          	lui	a1,0xb
    1d48:	50358593          	addi	a1,a1,1283 # b503 <_end+0x47ff>
    1d4c:	02b55633          	divu	a2,a0,a1
    1d50:	50c32623          	sw	a2,1292(t1)

00001d54 <inst_340>:
    1d54:	00200513          	li	a0,2
    1d58:	000105b7          	lui	a1,0x10
    1d5c:	ffe58593          	addi	a1,a1,-2 # fffe <_end+0x92fa>
    1d60:	02b55633          	divu	a2,a0,a1
    1d64:	50c32823          	sw	a2,1296(t1)

00001d68 <inst_341>:
    1d68:	00200513          	li	a0,2
    1d6c:	555555b7          	lui	a1,0x55555
    1d70:	55658593          	addi	a1,a1,1366 # 55555556 <_end+0x5554e852>
    1d74:	02b55633          	divu	a2,a0,a1
    1d78:	50c32a23          	sw	a2,1300(t1)

00001d7c <inst_342>:
    1d7c:	00200513          	li	a0,2
    1d80:	aaaab5b7          	lui	a1,0xaaaab
    1d84:	aab58593          	addi	a1,a1,-1365 # aaaaaaab <_end+0xaaaa3da7>
    1d88:	02b55633          	divu	a2,a0,a1
    1d8c:	50c32c23          	sw	a2,1304(t1)

00001d90 <inst_343>:
    1d90:	00200513          	li	a0,2
    1d94:	00600593          	li	a1,6
    1d98:	02b55633          	divu	a2,a0,a1
    1d9c:	50c32e23          	sw	a2,1308(t1)

00001da0 <inst_344>:
    1da0:	00200513          	li	a0,2
    1da4:	333335b7          	lui	a1,0x33333
    1da8:	33458593          	addi	a1,a1,820 # 33333334 <_end+0x3332c630>
    1dac:	02b55633          	divu	a2,a0,a1
    1db0:	52c32023          	sw	a2,1312(t1)

00001db4 <inst_345>:
    1db4:	00200513          	li	a0,2
    1db8:	666665b7          	lui	a1,0x66666
    1dbc:	66758593          	addi	a1,a1,1639 # 66666667 <_end+0x6665f963>
    1dc0:	02b55633          	divu	a2,a0,a1
    1dc4:	52c32223          	sw	a2,1316(t1)

00001dc8 <inst_346>:
    1dc8:	00200513          	li	a0,2
    1dcc:	0000b5b7          	lui	a1,0xb
    1dd0:	50558593          	addi	a1,a1,1285 # b505 <_end+0x4801>
    1dd4:	02b55633          	divu	a2,a0,a1
    1dd8:	52c32423          	sw	a2,1320(t1)

00001ddc <inst_347>:
    1ddc:	00200513          	li	a0,2
    1de0:	00100593          	li	a1,1
    1de4:	02b55633          	divu	a2,a0,a1
    1de8:	52c32623          	sw	a2,1324(t1)

00001dec <inst_348>:
    1dec:	00200513          	li	a0,2
    1df0:	000105b7          	lui	a1,0x10
    1df4:	02b55633          	divu	a2,a0,a1
    1df8:	52c32823          	sw	a2,1328(t1)

00001dfc <inst_349>:
    1dfc:	55555537          	lui	a0,0x55555
    1e00:	55450513          	addi	a0,a0,1364 # 55555554 <_end+0x5554e850>
    1e04:	00300593          	li	a1,3
    1e08:	02b55633          	divu	a2,a0,a1
    1e0c:	52c32a23          	sw	a2,1332(t1)

00001e10 <inst_350>:
    1e10:	55555537          	lui	a0,0x55555
    1e14:	55450513          	addi	a0,a0,1364 # 55555554 <_end+0x5554e850>
    1e18:	555555b7          	lui	a1,0x55555
    1e1c:	55558593          	addi	a1,a1,1365 # 55555555 <_end+0x5554e851>
    1e20:	02b55633          	divu	a2,a0,a1
    1e24:	52c32c23          	sw	a2,1336(t1)

00001e28 <inst_351>:
    1e28:	55555537          	lui	a0,0x55555
    1e2c:	55450513          	addi	a0,a0,1364 # 55555554 <_end+0x5554e850>
    1e30:	aaaab5b7          	lui	a1,0xaaaab
    1e34:	aaa58593          	addi	a1,a1,-1366 # aaaaaaaa <_end+0xaaaa3da6>
    1e38:	02b55633          	divu	a2,a0,a1
    1e3c:	52c32e23          	sw	a2,1340(t1)

00001e40 <inst_352>:
    1e40:	55555537          	lui	a0,0x55555
    1e44:	55450513          	addi	a0,a0,1364 # 55555554 <_end+0x5554e850>
    1e48:	00500593          	li	a1,5
    1e4c:	02b55633          	divu	a2,a0,a1
    1e50:	54c32023          	sw	a2,1344(t1)

00001e54 <inst_353>:
    1e54:	55555537          	lui	a0,0x55555
    1e58:	55450513          	addi	a0,a0,1364 # 55555554 <_end+0x5554e850>
    1e5c:	333335b7          	lui	a1,0x33333
    1e60:	33358593          	addi	a1,a1,819 # 33333333 <_end+0x3332c62f>
    1e64:	02b55633          	divu	a2,a0,a1
    1e68:	54c32223          	sw	a2,1348(t1)

00001e6c <inst_354>:
    1e6c:	55555537          	lui	a0,0x55555
    1e70:	55450513          	addi	a0,a0,1364 # 55555554 <_end+0x5554e850>
    1e74:	666665b7          	lui	a1,0x66666
    1e78:	66658593          	addi	a1,a1,1638 # 66666666 <_end+0x6665f962>
    1e7c:	02b55633          	divu	a2,a0,a1
    1e80:	54c32423          	sw	a2,1352(t1)

00001e84 <inst_355>:
    1e84:	55555537          	lui	a0,0x55555
    1e88:	55450513          	addi	a0,a0,1364 # 55555554 <_end+0x5554e850>
    1e8c:	0000b5b7          	lui	a1,0xb
    1e90:	50458593          	addi	a1,a1,1284 # b504 <_end+0x4800>
    1e94:	02b55633          	divu	a2,a0,a1
    1e98:	54c32623          	sw	a2,1356(t1)

00001e9c <inst_356>:
    1e9c:	55555537          	lui	a0,0x55555
    1ea0:	55450513          	addi	a0,a0,1364 # 55555554 <_end+0x5554e850>
    1ea4:	00000593          	li	a1,0
    1ea8:	02b55633          	divu	a2,a0,a1
    1eac:	54c32823          	sw	a2,1360(t1)

00001eb0 <inst_357>:
    1eb0:	55555537          	lui	a0,0x55555
    1eb4:	55450513          	addi	a0,a0,1364 # 55555554 <_end+0x5554e850>
    1eb8:	000105b7          	lui	a1,0x10
    1ebc:	fff58593          	addi	a1,a1,-1 # ffff <_end+0x92fb>
    1ec0:	02b55633          	divu	a2,a0,a1
    1ec4:	54c32a23          	sw	a2,1364(t1)

00001ec8 <inst_358>:
    1ec8:	55555537          	lui	a0,0x55555
    1ecc:	55450513          	addi	a0,a0,1364 # 55555554 <_end+0x5554e850>
    1ed0:	00200593          	li	a1,2
    1ed4:	02b55633          	divu	a2,a0,a1
    1ed8:	54c32c23          	sw	a2,1368(t1)

00001edc <inst_359>:
    1edc:	55555537          	lui	a0,0x55555
    1ee0:	55450513          	addi	a0,a0,1364 # 55555554 <_end+0x5554e850>
    1ee4:	555555b7          	lui	a1,0x55555
    1ee8:	55458593          	addi	a1,a1,1364 # 55555554 <_end+0x5554e850>
    1eec:	02b55633          	divu	a2,a0,a1
    1ef0:	54c32e23          	sw	a2,1372(t1)

00001ef4 <inst_360>:
    1ef4:	55555537          	lui	a0,0x55555
    1ef8:	55450513          	addi	a0,a0,1364 # 55555554 <_end+0x5554e850>
    1efc:	aaaab5b7          	lui	a1,0xaaaab
    1f00:	aa958593          	addi	a1,a1,-1367 # aaaaaaa9 <_end+0xaaaa3da5>
    1f04:	02b55633          	divu	a2,a0,a1
    1f08:	56c32023          	sw	a2,1376(t1)

00001f0c <inst_361>:
    1f0c:	55555537          	lui	a0,0x55555
    1f10:	55450513          	addi	a0,a0,1364 # 55555554 <_end+0x5554e850>
    1f14:	00400593          	li	a1,4
    1f18:	02b55633          	divu	a2,a0,a1
    1f1c:	56c32223          	sw	a2,1380(t1)

00001f20 <inst_362>:
    1f20:	55555537          	lui	a0,0x55555
    1f24:	55450513          	addi	a0,a0,1364 # 55555554 <_end+0x5554e850>
    1f28:	333335b7          	lui	a1,0x33333
    1f2c:	33258593          	addi	a1,a1,818 # 33333332 <_end+0x3332c62e>
    1f30:	02b55633          	divu	a2,a0,a1
    1f34:	56c32423          	sw	a2,1384(t1)

00001f38 <inst_363>:
    1f38:	55555537          	lui	a0,0x55555
    1f3c:	55450513          	addi	a0,a0,1364 # 55555554 <_end+0x5554e850>
    1f40:	666665b7          	lui	a1,0x66666
    1f44:	66558593          	addi	a1,a1,1637 # 66666665 <_end+0x6665f961>
    1f48:	02b55633          	divu	a2,a0,a1
    1f4c:	56c32623          	sw	a2,1388(t1)

00001f50 <inst_364>:
    1f50:	55555537          	lui	a0,0x55555
    1f54:	55450513          	addi	a0,a0,1364 # 55555554 <_end+0x5554e850>
    1f58:	0000b5b7          	lui	a1,0xb
    1f5c:	50358593          	addi	a1,a1,1283 # b503 <_end+0x47ff>
    1f60:	02b55633          	divu	a2,a0,a1
    1f64:	56c32823          	sw	a2,1392(t1)

00001f68 <inst_365>:
    1f68:	55555537          	lui	a0,0x55555
    1f6c:	55450513          	addi	a0,a0,1364 # 55555554 <_end+0x5554e850>
    1f70:	000105b7          	lui	a1,0x10
    1f74:	ffe58593          	addi	a1,a1,-2 # fffe <_end+0x92fa>
    1f78:	02b55633          	divu	a2,a0,a1
    1f7c:	56c32a23          	sw	a2,1396(t1)

00001f80 <inst_366>:
    1f80:	55555537          	lui	a0,0x55555
    1f84:	55450513          	addi	a0,a0,1364 # 55555554 <_end+0x5554e850>
    1f88:	555555b7          	lui	a1,0x55555
    1f8c:	55658593          	addi	a1,a1,1366 # 55555556 <_end+0x5554e852>
    1f90:	02b55633          	divu	a2,a0,a1
    1f94:	56c32c23          	sw	a2,1400(t1)

00001f98 <inst_367>:
    1f98:	55555537          	lui	a0,0x55555
    1f9c:	55450513          	addi	a0,a0,1364 # 55555554 <_end+0x5554e850>
    1fa0:	aaaab5b7          	lui	a1,0xaaaab
    1fa4:	aab58593          	addi	a1,a1,-1365 # aaaaaaab <_end+0xaaaa3da7>
    1fa8:	02b55633          	divu	a2,a0,a1
    1fac:	56c32e23          	sw	a2,1404(t1)

00001fb0 <inst_368>:
    1fb0:	55555537          	lui	a0,0x55555
    1fb4:	55450513          	addi	a0,a0,1364 # 55555554 <_end+0x5554e850>
    1fb8:	00600593          	li	a1,6
    1fbc:	02b55633          	divu	a2,a0,a1
    1fc0:	58c32023          	sw	a2,1408(t1)

00001fc4 <inst_369>:
    1fc4:	55555537          	lui	a0,0x55555
    1fc8:	55450513          	addi	a0,a0,1364 # 55555554 <_end+0x5554e850>
    1fcc:	333335b7          	lui	a1,0x33333
    1fd0:	33458593          	addi	a1,a1,820 # 33333334 <_end+0x3332c630>
    1fd4:	02b55633          	divu	a2,a0,a1
    1fd8:	58c32223          	sw	a2,1412(t1)

00001fdc <inst_370>:
    1fdc:	55555537          	lui	a0,0x55555
    1fe0:	55450513          	addi	a0,a0,1364 # 55555554 <_end+0x5554e850>
    1fe4:	666665b7          	lui	a1,0x66666
    1fe8:	66758593          	addi	a1,a1,1639 # 66666667 <_end+0x6665f963>
    1fec:	02b55633          	divu	a2,a0,a1
    1ff0:	58c32423          	sw	a2,1416(t1)

00001ff4 <inst_371>:
    1ff4:	55555537          	lui	a0,0x55555
    1ff8:	55450513          	addi	a0,a0,1364 # 55555554 <_end+0x5554e850>
    1ffc:	0000b5b7          	lui	a1,0xb
    2000:	50558593          	addi	a1,a1,1285 # b505 <_end+0x4801>
    2004:	02b55633          	divu	a2,a0,a1
    2008:	58c32623          	sw	a2,1420(t1)

0000200c <inst_372>:
    200c:	55555537          	lui	a0,0x55555
    2010:	55450513          	addi	a0,a0,1364 # 55555554 <_end+0x5554e850>
    2014:	00100593          	li	a1,1
    2018:	02b55633          	divu	a2,a0,a1
    201c:	58c32823          	sw	a2,1424(t1)

00002020 <inst_373>:
    2020:	55555537          	lui	a0,0x55555
    2024:	55450513          	addi	a0,a0,1364 # 55555554 <_end+0x5554e850>
    2028:	000105b7          	lui	a1,0x10
    202c:	02b55633          	divu	a2,a0,a1
    2030:	58c32a23          	sw	a2,1428(t1)

00002034 <inst_374>:
    2034:	aaaab537          	lui	a0,0xaaaab
    2038:	aa950513          	addi	a0,a0,-1367 # aaaaaaa9 <_end+0xaaaa3da5>
    203c:	00300593          	li	a1,3
    2040:	02b55633          	divu	a2,a0,a1
    2044:	58c32c23          	sw	a2,1432(t1)

00002048 <inst_375>:
    2048:	aaaab537          	lui	a0,0xaaaab
    204c:	aa950513          	addi	a0,a0,-1367 # aaaaaaa9 <_end+0xaaaa3da5>
    2050:	555555b7          	lui	a1,0x55555
    2054:	55558593          	addi	a1,a1,1365 # 55555555 <_end+0x5554e851>
    2058:	02b55633          	divu	a2,a0,a1
    205c:	58c32e23          	sw	a2,1436(t1)

00002060 <inst_376>:
    2060:	aaaab537          	lui	a0,0xaaaab
    2064:	aa950513          	addi	a0,a0,-1367 # aaaaaaa9 <_end+0xaaaa3da5>
    2068:	aaaab5b7          	lui	a1,0xaaaab
    206c:	aaa58593          	addi	a1,a1,-1366 # aaaaaaaa <_end+0xaaaa3da6>
    2070:	02b55633          	divu	a2,a0,a1
    2074:	5ac32023          	sw	a2,1440(t1)

00002078 <inst_377>:
    2078:	aaaab537          	lui	a0,0xaaaab
    207c:	aa950513          	addi	a0,a0,-1367 # aaaaaaa9 <_end+0xaaaa3da5>
    2080:	00500593          	li	a1,5
    2084:	02b55633          	divu	a2,a0,a1
    2088:	5ac32223          	sw	a2,1444(t1)

0000208c <inst_378>:
    208c:	aaaab537          	lui	a0,0xaaaab
    2090:	aa950513          	addi	a0,a0,-1367 # aaaaaaa9 <_end+0xaaaa3da5>
    2094:	333335b7          	lui	a1,0x33333
    2098:	33358593          	addi	a1,a1,819 # 33333333 <_end+0x3332c62f>
    209c:	02b55633          	divu	a2,a0,a1
    20a0:	5ac32423          	sw	a2,1448(t1)

000020a4 <inst_379>:
    20a4:	aaaab537          	lui	a0,0xaaaab
    20a8:	aa950513          	addi	a0,a0,-1367 # aaaaaaa9 <_end+0xaaaa3da5>
    20ac:	666665b7          	lui	a1,0x66666
    20b0:	66658593          	addi	a1,a1,1638 # 66666666 <_end+0x6665f962>
    20b4:	02b55633          	divu	a2,a0,a1
    20b8:	5ac32623          	sw	a2,1452(t1)

000020bc <inst_380>:
    20bc:	aaaab537          	lui	a0,0xaaaab
    20c0:	aa950513          	addi	a0,a0,-1367 # aaaaaaa9 <_end+0xaaaa3da5>
    20c4:	0000b5b7          	lui	a1,0xb
    20c8:	50458593          	addi	a1,a1,1284 # b504 <_end+0x4800>
    20cc:	02b55633          	divu	a2,a0,a1
    20d0:	5ac32823          	sw	a2,1456(t1)

000020d4 <inst_381>:
    20d4:	aaaab537          	lui	a0,0xaaaab
    20d8:	aa950513          	addi	a0,a0,-1367 # aaaaaaa9 <_end+0xaaaa3da5>
    20dc:	00000593          	li	a1,0
    20e0:	02b55633          	divu	a2,a0,a1
    20e4:	5ac32a23          	sw	a2,1460(t1)

000020e8 <inst_382>:
    20e8:	aaaab537          	lui	a0,0xaaaab
    20ec:	aa950513          	addi	a0,a0,-1367 # aaaaaaa9 <_end+0xaaaa3da5>
    20f0:	000105b7          	lui	a1,0x10
    20f4:	fff58593          	addi	a1,a1,-1 # ffff <_end+0x92fb>
    20f8:	02b55633          	divu	a2,a0,a1
    20fc:	5ac32c23          	sw	a2,1464(t1)

00002100 <inst_383>:
    2100:	aaaab537          	lui	a0,0xaaaab
    2104:	aa950513          	addi	a0,a0,-1367 # aaaaaaa9 <_end+0xaaaa3da5>
    2108:	00200593          	li	a1,2
    210c:	02b55633          	divu	a2,a0,a1
    2110:	5ac32e23          	sw	a2,1468(t1)

00002114 <inst_384>:
    2114:	aaaab537          	lui	a0,0xaaaab
    2118:	aa950513          	addi	a0,a0,-1367 # aaaaaaa9 <_end+0xaaaa3da5>
    211c:	555555b7          	lui	a1,0x55555
    2120:	55458593          	addi	a1,a1,1364 # 55555554 <_end+0x5554e850>
    2124:	02b55633          	divu	a2,a0,a1
    2128:	5cc32023          	sw	a2,1472(t1)

0000212c <inst_385>:
    212c:	aaaab537          	lui	a0,0xaaaab
    2130:	aa950513          	addi	a0,a0,-1367 # aaaaaaa9 <_end+0xaaaa3da5>
    2134:	aaaab5b7          	lui	a1,0xaaaab
    2138:	aa958593          	addi	a1,a1,-1367 # aaaaaaa9 <_end+0xaaaa3da5>
    213c:	02b55633          	divu	a2,a0,a1
    2140:	5cc32223          	sw	a2,1476(t1)

00002144 <inst_386>:
    2144:	aaaab537          	lui	a0,0xaaaab
    2148:	aa950513          	addi	a0,a0,-1367 # aaaaaaa9 <_end+0xaaaa3da5>
    214c:	00400593          	li	a1,4
    2150:	02b55633          	divu	a2,a0,a1
    2154:	5cc32423          	sw	a2,1480(t1)

00002158 <inst_387>:
    2158:	aaaab537          	lui	a0,0xaaaab
    215c:	aa950513          	addi	a0,a0,-1367 # aaaaaaa9 <_end+0xaaaa3da5>
    2160:	333335b7          	lui	a1,0x33333
    2164:	33258593          	addi	a1,a1,818 # 33333332 <_end+0x3332c62e>
    2168:	02b55633          	divu	a2,a0,a1
    216c:	5cc32623          	sw	a2,1484(t1)

00002170 <inst_388>:
    2170:	aaaab537          	lui	a0,0xaaaab
    2174:	aa950513          	addi	a0,a0,-1367 # aaaaaaa9 <_end+0xaaaa3da5>
    2178:	666665b7          	lui	a1,0x66666
    217c:	66558593          	addi	a1,a1,1637 # 66666665 <_end+0x6665f961>
    2180:	02b55633          	divu	a2,a0,a1
    2184:	5cc32823          	sw	a2,1488(t1)

00002188 <inst_389>:
    2188:	aaaab537          	lui	a0,0xaaaab
    218c:	aa950513          	addi	a0,a0,-1367 # aaaaaaa9 <_end+0xaaaa3da5>
    2190:	0000b5b7          	lui	a1,0xb
    2194:	50358593          	addi	a1,a1,1283 # b503 <_end+0x47ff>
    2198:	02b55633          	divu	a2,a0,a1
    219c:	5cc32a23          	sw	a2,1492(t1)

000021a0 <inst_390>:
    21a0:	aaaab537          	lui	a0,0xaaaab
    21a4:	aa950513          	addi	a0,a0,-1367 # aaaaaaa9 <_end+0xaaaa3da5>
    21a8:	000105b7          	lui	a1,0x10
    21ac:	ffe58593          	addi	a1,a1,-2 # fffe <_end+0x92fa>
    21b0:	02b55633          	divu	a2,a0,a1
    21b4:	5cc32c23          	sw	a2,1496(t1)

000021b8 <inst_391>:
    21b8:	aaaab537          	lui	a0,0xaaaab
    21bc:	aa950513          	addi	a0,a0,-1367 # aaaaaaa9 <_end+0xaaaa3da5>
    21c0:	555555b7          	lui	a1,0x55555
    21c4:	55658593          	addi	a1,a1,1366 # 55555556 <_end+0x5554e852>
    21c8:	02b55633          	divu	a2,a0,a1
    21cc:	5cc32e23          	sw	a2,1500(t1)

000021d0 <inst_392>:
    21d0:	aaaab537          	lui	a0,0xaaaab
    21d4:	aa950513          	addi	a0,a0,-1367 # aaaaaaa9 <_end+0xaaaa3da5>
    21d8:	aaaab5b7          	lui	a1,0xaaaab
    21dc:	aab58593          	addi	a1,a1,-1365 # aaaaaaab <_end+0xaaaa3da7>
    21e0:	02b55633          	divu	a2,a0,a1
    21e4:	5ec32023          	sw	a2,1504(t1)

000021e8 <inst_393>:
    21e8:	aaaab537          	lui	a0,0xaaaab
    21ec:	aa950513          	addi	a0,a0,-1367 # aaaaaaa9 <_end+0xaaaa3da5>
    21f0:	00600593          	li	a1,6
    21f4:	02b55633          	divu	a2,a0,a1
    21f8:	5ec32223          	sw	a2,1508(t1)

000021fc <inst_394>:
    21fc:	aaaab537          	lui	a0,0xaaaab
    2200:	aa950513          	addi	a0,a0,-1367 # aaaaaaa9 <_end+0xaaaa3da5>
    2204:	333335b7          	lui	a1,0x33333
    2208:	33458593          	addi	a1,a1,820 # 33333334 <_end+0x3332c630>
    220c:	02b55633          	divu	a2,a0,a1
    2210:	5ec32423          	sw	a2,1512(t1)

00002214 <inst_395>:
    2214:	aaaab537          	lui	a0,0xaaaab
    2218:	aa950513          	addi	a0,a0,-1367 # aaaaaaa9 <_end+0xaaaa3da5>
    221c:	666665b7          	lui	a1,0x66666
    2220:	66758593          	addi	a1,a1,1639 # 66666667 <_end+0x6665f963>
    2224:	02b55633          	divu	a2,a0,a1
    2228:	5ec32623          	sw	a2,1516(t1)

0000222c <inst_396>:
    222c:	aaaab537          	lui	a0,0xaaaab
    2230:	aa950513          	addi	a0,a0,-1367 # aaaaaaa9 <_end+0xaaaa3da5>
    2234:	0000b5b7          	lui	a1,0xb
    2238:	50558593          	addi	a1,a1,1285 # b505 <_end+0x4801>
    223c:	02b55633          	divu	a2,a0,a1
    2240:	5ec32823          	sw	a2,1520(t1)

00002244 <inst_397>:
    2244:	aaaab537          	lui	a0,0xaaaab
    2248:	aa950513          	addi	a0,a0,-1367 # aaaaaaa9 <_end+0xaaaa3da5>
    224c:	00100593          	li	a1,1
    2250:	02b55633          	divu	a2,a0,a1
    2254:	5ec32a23          	sw	a2,1524(t1)

00002258 <inst_398>:
    2258:	aaaab537          	lui	a0,0xaaaab
    225c:	aa950513          	addi	a0,a0,-1367 # aaaaaaa9 <_end+0xaaaa3da5>
    2260:	000105b7          	lui	a1,0x10
    2264:	02b55633          	divu	a2,a0,a1
    2268:	5ec32c23          	sw	a2,1528(t1)

0000226c <inst_399>:
    226c:	00400513          	li	a0,4
    2270:	00300593          	li	a1,3
    2274:	02b55633          	divu	a2,a0,a1
    2278:	5ec32e23          	sw	a2,1532(t1)

0000227c <inst_400>:
    227c:	00400513          	li	a0,4
    2280:	555555b7          	lui	a1,0x55555
    2284:	55558593          	addi	a1,a1,1365 # 55555555 <_end+0x5554e851>
    2288:	02b55633          	divu	a2,a0,a1
    228c:	60c32023          	sw	a2,1536(t1)

00002290 <inst_401>:
    2290:	00400513          	li	a0,4
    2294:	aaaab5b7          	lui	a1,0xaaaab
    2298:	aaa58593          	addi	a1,a1,-1366 # aaaaaaaa <_end+0xaaaa3da6>
    229c:	02b55633          	divu	a2,a0,a1
    22a0:	60c32223          	sw	a2,1540(t1)

000022a4 <inst_402>:
    22a4:	00400513          	li	a0,4
    22a8:	00500593          	li	a1,5
    22ac:	02b55633          	divu	a2,a0,a1
    22b0:	60c32423          	sw	a2,1544(t1)

000022b4 <inst_403>:
    22b4:	00400513          	li	a0,4
    22b8:	666665b7          	lui	a1,0x66666
    22bc:	66658593          	addi	a1,a1,1638 # 66666666 <_end+0x6665f962>
    22c0:	02b55633          	divu	a2,a0,a1
    22c4:	60c32623          	sw	a2,1548(t1)

000022c8 <inst_404>:
    22c8:	00400513          	li	a0,4
    22cc:	0000b5b7          	lui	a1,0xb
    22d0:	50458593          	addi	a1,a1,1284 # b504 <_end+0x4800>
    22d4:	02b55633          	divu	a2,a0,a1
    22d8:	60c32823          	sw	a2,1552(t1)

000022dc <inst_405>:
    22dc:	00400513          	li	a0,4
    22e0:	00000593          	li	a1,0
    22e4:	02b55633          	divu	a2,a0,a1
    22e8:	60c32a23          	sw	a2,1556(t1)

000022ec <inst_406>:
    22ec:	00400513          	li	a0,4
    22f0:	000105b7          	lui	a1,0x10
    22f4:	fff58593          	addi	a1,a1,-1 # ffff <_end+0x92fb>
    22f8:	02b55633          	divu	a2,a0,a1
    22fc:	60c32c23          	sw	a2,1560(t1)

00002300 <inst_407>:
    2300:	00400513          	li	a0,4
    2304:	00200593          	li	a1,2
    2308:	02b55633          	divu	a2,a0,a1
    230c:	60c32e23          	sw	a2,1564(t1)

00002310 <inst_408>:
    2310:	00400513          	li	a0,4
    2314:	555555b7          	lui	a1,0x55555
    2318:	55458593          	addi	a1,a1,1364 # 55555554 <_end+0x5554e850>
    231c:	02b55633          	divu	a2,a0,a1
    2320:	62c32023          	sw	a2,1568(t1)

00002324 <inst_409>:
    2324:	00400513          	li	a0,4
    2328:	aaaab5b7          	lui	a1,0xaaaab
    232c:	aa958593          	addi	a1,a1,-1367 # aaaaaaa9 <_end+0xaaaa3da5>
    2330:	02b55633          	divu	a2,a0,a1
    2334:	62c32223          	sw	a2,1572(t1)

00002338 <inst_410>:
    2338:	00400513          	li	a0,4
    233c:	00400593          	li	a1,4
    2340:	02b55633          	divu	a2,a0,a1
    2344:	62c32423          	sw	a2,1576(t1)

00002348 <inst_411>:
    2348:	00400513          	li	a0,4
    234c:	333335b7          	lui	a1,0x33333
    2350:	33258593          	addi	a1,a1,818 # 33333332 <_end+0x3332c62e>
    2354:	02b55633          	divu	a2,a0,a1
    2358:	62c32623          	sw	a2,1580(t1)

0000235c <inst_412>:
    235c:	00400513          	li	a0,4
    2360:	666665b7          	lui	a1,0x66666
    2364:	66558593          	addi	a1,a1,1637 # 66666665 <_end+0x6665f961>
    2368:	02b55633          	divu	a2,a0,a1
    236c:	62c32823          	sw	a2,1584(t1)

00002370 <inst_413>:
    2370:	00400513          	li	a0,4
    2374:	0000b5b7          	lui	a1,0xb
    2378:	50358593          	addi	a1,a1,1283 # b503 <_end+0x47ff>
    237c:	02b55633          	divu	a2,a0,a1
    2380:	62c32a23          	sw	a2,1588(t1)

00002384 <inst_414>:
    2384:	00400513          	li	a0,4
    2388:	000105b7          	lui	a1,0x10
    238c:	ffe58593          	addi	a1,a1,-2 # fffe <_end+0x92fa>
    2390:	02b55633          	divu	a2,a0,a1
    2394:	62c32c23          	sw	a2,1592(t1)

00002398 <inst_415>:
    2398:	00400513          	li	a0,4
    239c:	555555b7          	lui	a1,0x55555
    23a0:	55658593          	addi	a1,a1,1366 # 55555556 <_end+0x5554e852>
    23a4:	02b55633          	divu	a2,a0,a1
    23a8:	62c32e23          	sw	a2,1596(t1)

000023ac <inst_416>:
    23ac:	00400513          	li	a0,4
    23b0:	aaaab5b7          	lui	a1,0xaaaab
    23b4:	aab58593          	addi	a1,a1,-1365 # aaaaaaab <_end+0xaaaa3da7>
    23b8:	02b55633          	divu	a2,a0,a1
    23bc:	64c32023          	sw	a2,1600(t1)

000023c0 <inst_417>:
    23c0:	00400513          	li	a0,4
    23c4:	00600593          	li	a1,6
    23c8:	02b55633          	divu	a2,a0,a1
    23cc:	64c32223          	sw	a2,1604(t1)

000023d0 <inst_418>:
    23d0:	00400513          	li	a0,4
    23d4:	333335b7          	lui	a1,0x33333
    23d8:	33458593          	addi	a1,a1,820 # 33333334 <_end+0x3332c630>
    23dc:	02b55633          	divu	a2,a0,a1
    23e0:	64c32423          	sw	a2,1608(t1)

000023e4 <inst_419>:
    23e4:	00400513          	li	a0,4
    23e8:	666665b7          	lui	a1,0x66666
    23ec:	66758593          	addi	a1,a1,1639 # 66666667 <_end+0x6665f963>
    23f0:	02b55633          	divu	a2,a0,a1
    23f4:	64c32623          	sw	a2,1612(t1)

000023f8 <inst_420>:
    23f8:	00400513          	li	a0,4
    23fc:	0000b5b7          	lui	a1,0xb
    2400:	50558593          	addi	a1,a1,1285 # b505 <_end+0x4801>
    2404:	02b55633          	divu	a2,a0,a1
    2408:	64c32823          	sw	a2,1616(t1)

0000240c <inst_421>:
    240c:	00400513          	li	a0,4
    2410:	00100593          	li	a1,1
    2414:	02b55633          	divu	a2,a0,a1
    2418:	64c32a23          	sw	a2,1620(t1)

0000241c <inst_422>:
    241c:	00400513          	li	a0,4
    2420:	000105b7          	lui	a1,0x10
    2424:	02b55633          	divu	a2,a0,a1
    2428:	64c32c23          	sw	a2,1624(t1)

0000242c <inst_423>:
    242c:	33333537          	lui	a0,0x33333
    2430:	33250513          	addi	a0,a0,818 # 33333332 <_end+0x3332c62e>
    2434:	00300593          	li	a1,3
    2438:	02b55633          	divu	a2,a0,a1
    243c:	64c32e23          	sw	a2,1628(t1)

00002440 <inst_424>:
    2440:	33333537          	lui	a0,0x33333
    2444:	33250513          	addi	a0,a0,818 # 33333332 <_end+0x3332c62e>
    2448:	555555b7          	lui	a1,0x55555
    244c:	55558593          	addi	a1,a1,1365 # 55555555 <_end+0x5554e851>
    2450:	02b55633          	divu	a2,a0,a1
    2454:	66c32023          	sw	a2,1632(t1)

00002458 <inst_425>:
    2458:	33333537          	lui	a0,0x33333
    245c:	33250513          	addi	a0,a0,818 # 33333332 <_end+0x3332c62e>
    2460:	aaaab5b7          	lui	a1,0xaaaab
    2464:	aaa58593          	addi	a1,a1,-1366 # aaaaaaaa <_end+0xaaaa3da6>
    2468:	02b55633          	divu	a2,a0,a1
    246c:	66c32223          	sw	a2,1636(t1)

00002470 <inst_426>:
    2470:	33333537          	lui	a0,0x33333
    2474:	33250513          	addi	a0,a0,818 # 33333332 <_end+0x3332c62e>
    2478:	00500593          	li	a1,5
    247c:	02b55633          	divu	a2,a0,a1
    2480:	66c32423          	sw	a2,1640(t1)

00002484 <inst_427>:
    2484:	33333537          	lui	a0,0x33333
    2488:	33250513          	addi	a0,a0,818 # 33333332 <_end+0x3332c62e>
    248c:	333335b7          	lui	a1,0x33333
    2490:	33358593          	addi	a1,a1,819 # 33333333 <_end+0x3332c62f>
    2494:	02b55633          	divu	a2,a0,a1
    2498:	66c32623          	sw	a2,1644(t1)

0000249c <inst_428>:
    249c:	33333537          	lui	a0,0x33333
    24a0:	33250513          	addi	a0,a0,818 # 33333332 <_end+0x3332c62e>
    24a4:	666665b7          	lui	a1,0x66666
    24a8:	66658593          	addi	a1,a1,1638 # 66666666 <_end+0x6665f962>
    24ac:	02b55633          	divu	a2,a0,a1
    24b0:	66c32823          	sw	a2,1648(t1)

000024b4 <inst_429>:
    24b4:	33333537          	lui	a0,0x33333
    24b8:	33250513          	addi	a0,a0,818 # 33333332 <_end+0x3332c62e>
    24bc:	0000b5b7          	lui	a1,0xb
    24c0:	50458593          	addi	a1,a1,1284 # b504 <_end+0x4800>
    24c4:	02b55633          	divu	a2,a0,a1
    24c8:	66c32a23          	sw	a2,1652(t1)

000024cc <inst_430>:
    24cc:	33333537          	lui	a0,0x33333
    24d0:	33250513          	addi	a0,a0,818 # 33333332 <_end+0x3332c62e>
    24d4:	00000593          	li	a1,0
    24d8:	02b55633          	divu	a2,a0,a1
    24dc:	66c32c23          	sw	a2,1656(t1)

000024e0 <inst_431>:
    24e0:	33333537          	lui	a0,0x33333
    24e4:	33250513          	addi	a0,a0,818 # 33333332 <_end+0x3332c62e>
    24e8:	000105b7          	lui	a1,0x10
    24ec:	fff58593          	addi	a1,a1,-1 # ffff <_end+0x92fb>
    24f0:	02b55633          	divu	a2,a0,a1
    24f4:	66c32e23          	sw	a2,1660(t1)

000024f8 <inst_432>:
    24f8:	33333537          	lui	a0,0x33333
    24fc:	33250513          	addi	a0,a0,818 # 33333332 <_end+0x3332c62e>
    2500:	00200593          	li	a1,2
    2504:	02b55633          	divu	a2,a0,a1
    2508:	68c32023          	sw	a2,1664(t1)

0000250c <inst_433>:
    250c:	33333537          	lui	a0,0x33333
    2510:	33250513          	addi	a0,a0,818 # 33333332 <_end+0x3332c62e>
    2514:	555555b7          	lui	a1,0x55555
    2518:	55458593          	addi	a1,a1,1364 # 55555554 <_end+0x5554e850>
    251c:	02b55633          	divu	a2,a0,a1
    2520:	68c32223          	sw	a2,1668(t1)

00002524 <inst_434>:
    2524:	33333537          	lui	a0,0x33333
    2528:	33250513          	addi	a0,a0,818 # 33333332 <_end+0x3332c62e>
    252c:	aaaab5b7          	lui	a1,0xaaaab
    2530:	aa958593          	addi	a1,a1,-1367 # aaaaaaa9 <_end+0xaaaa3da5>
    2534:	02b55633          	divu	a2,a0,a1
    2538:	68c32423          	sw	a2,1672(t1)

0000253c <inst_435>:
    253c:	33333537          	lui	a0,0x33333
    2540:	33250513          	addi	a0,a0,818 # 33333332 <_end+0x3332c62e>
    2544:	00400593          	li	a1,4
    2548:	02b55633          	divu	a2,a0,a1
    254c:	68c32623          	sw	a2,1676(t1)

00002550 <inst_436>:
    2550:	33333537          	lui	a0,0x33333
    2554:	33250513          	addi	a0,a0,818 # 33333332 <_end+0x3332c62e>
    2558:	333335b7          	lui	a1,0x33333
    255c:	33258593          	addi	a1,a1,818 # 33333332 <_end+0x3332c62e>
    2560:	02b55633          	divu	a2,a0,a1
    2564:	68c32823          	sw	a2,1680(t1)

00002568 <inst_437>:
    2568:	33333537          	lui	a0,0x33333
    256c:	33250513          	addi	a0,a0,818 # 33333332 <_end+0x3332c62e>
    2570:	666665b7          	lui	a1,0x66666
    2574:	66558593          	addi	a1,a1,1637 # 66666665 <_end+0x6665f961>
    2578:	02b55633          	divu	a2,a0,a1
    257c:	68c32a23          	sw	a2,1684(t1)

00002580 <inst_438>:
    2580:	33333537          	lui	a0,0x33333
    2584:	33250513          	addi	a0,a0,818 # 33333332 <_end+0x3332c62e>
    2588:	0000b5b7          	lui	a1,0xb
    258c:	50358593          	addi	a1,a1,1283 # b503 <_end+0x47ff>
    2590:	02b55633          	divu	a2,a0,a1
    2594:	68c32c23          	sw	a2,1688(t1)

00002598 <inst_439>:
    2598:	33333537          	lui	a0,0x33333
    259c:	33250513          	addi	a0,a0,818 # 33333332 <_end+0x3332c62e>
    25a0:	000105b7          	lui	a1,0x10
    25a4:	ffe58593          	addi	a1,a1,-2 # fffe <_end+0x92fa>
    25a8:	02b55633          	divu	a2,a0,a1
    25ac:	68c32e23          	sw	a2,1692(t1)

000025b0 <inst_440>:
    25b0:	33333537          	lui	a0,0x33333
    25b4:	33250513          	addi	a0,a0,818 # 33333332 <_end+0x3332c62e>
    25b8:	555555b7          	lui	a1,0x55555
    25bc:	55658593          	addi	a1,a1,1366 # 55555556 <_end+0x5554e852>
    25c0:	02b55633          	divu	a2,a0,a1
    25c4:	6ac32023          	sw	a2,1696(t1)

000025c8 <inst_441>:
    25c8:	33333537          	lui	a0,0x33333
    25cc:	33250513          	addi	a0,a0,818 # 33333332 <_end+0x3332c62e>
    25d0:	aaaab5b7          	lui	a1,0xaaaab
    25d4:	aab58593          	addi	a1,a1,-1365 # aaaaaaab <_end+0xaaaa3da7>
    25d8:	02b55633          	divu	a2,a0,a1
    25dc:	6ac32223          	sw	a2,1700(t1)

000025e0 <inst_442>:
    25e0:	33333537          	lui	a0,0x33333
    25e4:	33250513          	addi	a0,a0,818 # 33333332 <_end+0x3332c62e>
    25e8:	00600593          	li	a1,6
    25ec:	02b55633          	divu	a2,a0,a1
    25f0:	6ac32423          	sw	a2,1704(t1)

000025f4 <inst_443>:
    25f4:	33333537          	lui	a0,0x33333
    25f8:	33250513          	addi	a0,a0,818 # 33333332 <_end+0x3332c62e>
    25fc:	333335b7          	lui	a1,0x33333
    2600:	33458593          	addi	a1,a1,820 # 33333334 <_end+0x3332c630>
    2604:	02b55633          	divu	a2,a0,a1
    2608:	6ac32623          	sw	a2,1708(t1)

0000260c <inst_444>:
    260c:	33333537          	lui	a0,0x33333
    2610:	33250513          	addi	a0,a0,818 # 33333332 <_end+0x3332c62e>
    2614:	666665b7          	lui	a1,0x66666
    2618:	66758593          	addi	a1,a1,1639 # 66666667 <_end+0x6665f963>
    261c:	02b55633          	divu	a2,a0,a1
    2620:	6ac32823          	sw	a2,1712(t1)

00002624 <inst_445>:
    2624:	33333537          	lui	a0,0x33333
    2628:	33250513          	addi	a0,a0,818 # 33333332 <_end+0x3332c62e>
    262c:	0000b5b7          	lui	a1,0xb
    2630:	50558593          	addi	a1,a1,1285 # b505 <_end+0x4801>
    2634:	02b55633          	divu	a2,a0,a1
    2638:	6ac32a23          	sw	a2,1716(t1)

0000263c <inst_446>:
    263c:	33333537          	lui	a0,0x33333
    2640:	33250513          	addi	a0,a0,818 # 33333332 <_end+0x3332c62e>
    2644:	00100593          	li	a1,1
    2648:	02b55633          	divu	a2,a0,a1
    264c:	6ac32c23          	sw	a2,1720(t1)

00002650 <inst_447>:
    2650:	33333537          	lui	a0,0x33333
    2654:	33250513          	addi	a0,a0,818 # 33333332 <_end+0x3332c62e>
    2658:	000105b7          	lui	a1,0x10
    265c:	02b55633          	divu	a2,a0,a1
    2660:	6ac32e23          	sw	a2,1724(t1)

00002664 <inst_448>:
    2664:	66666537          	lui	a0,0x66666
    2668:	66550513          	addi	a0,a0,1637 # 66666665 <_end+0x6665f961>
    266c:	00300593          	li	a1,3
    2670:	02b55633          	divu	a2,a0,a1
    2674:	6cc32023          	sw	a2,1728(t1)

00002678 <inst_449>:
    2678:	66666537          	lui	a0,0x66666
    267c:	66550513          	addi	a0,a0,1637 # 66666665 <_end+0x6665f961>
    2680:	555555b7          	lui	a1,0x55555
    2684:	55558593          	addi	a1,a1,1365 # 55555555 <_end+0x5554e851>
    2688:	02b55633          	divu	a2,a0,a1
    268c:	6cc32223          	sw	a2,1732(t1)

00002690 <inst_450>:
    2690:	66666537          	lui	a0,0x66666
    2694:	66550513          	addi	a0,a0,1637 # 66666665 <_end+0x6665f961>
    2698:	aaaab5b7          	lui	a1,0xaaaab
    269c:	aaa58593          	addi	a1,a1,-1366 # aaaaaaaa <_end+0xaaaa3da6>
    26a0:	02b55633          	divu	a2,a0,a1
    26a4:	6cc32423          	sw	a2,1736(t1)

000026a8 <inst_451>:
    26a8:	66666537          	lui	a0,0x66666
    26ac:	66550513          	addi	a0,a0,1637 # 66666665 <_end+0x6665f961>
    26b0:	00500593          	li	a1,5
    26b4:	02b55633          	divu	a2,a0,a1
    26b8:	6cc32623          	sw	a2,1740(t1)

000026bc <inst_452>:
    26bc:	66666537          	lui	a0,0x66666
    26c0:	66550513          	addi	a0,a0,1637 # 66666665 <_end+0x6665f961>
    26c4:	333335b7          	lui	a1,0x33333
    26c8:	33358593          	addi	a1,a1,819 # 33333333 <_end+0x3332c62f>
    26cc:	02b55633          	divu	a2,a0,a1
    26d0:	6cc32823          	sw	a2,1744(t1)

000026d4 <inst_453>:
    26d4:	66666537          	lui	a0,0x66666
    26d8:	66550513          	addi	a0,a0,1637 # 66666665 <_end+0x6665f961>
    26dc:	666665b7          	lui	a1,0x66666
    26e0:	66658593          	addi	a1,a1,1638 # 66666666 <_end+0x6665f962>
    26e4:	02b55633          	divu	a2,a0,a1
    26e8:	6cc32a23          	sw	a2,1748(t1)

000026ec <inst_454>:
    26ec:	66666537          	lui	a0,0x66666
    26f0:	66550513          	addi	a0,a0,1637 # 66666665 <_end+0x6665f961>
    26f4:	0000b5b7          	lui	a1,0xb
    26f8:	50458593          	addi	a1,a1,1284 # b504 <_end+0x4800>
    26fc:	02b55633          	divu	a2,a0,a1
    2700:	6cc32c23          	sw	a2,1752(t1)

00002704 <inst_455>:
    2704:	66666537          	lui	a0,0x66666
    2708:	66550513          	addi	a0,a0,1637 # 66666665 <_end+0x6665f961>
    270c:	00000593          	li	a1,0
    2710:	02b55633          	divu	a2,a0,a1
    2714:	6cc32e23          	sw	a2,1756(t1)

00002718 <inst_456>:
    2718:	66666537          	lui	a0,0x66666
    271c:	66550513          	addi	a0,a0,1637 # 66666665 <_end+0x6665f961>
    2720:	000105b7          	lui	a1,0x10
    2724:	fff58593          	addi	a1,a1,-1 # ffff <_end+0x92fb>
    2728:	02b55633          	divu	a2,a0,a1
    272c:	6ec32023          	sw	a2,1760(t1)

00002730 <inst_457>:
    2730:	66666537          	lui	a0,0x66666
    2734:	66550513          	addi	a0,a0,1637 # 66666665 <_end+0x6665f961>
    2738:	00200593          	li	a1,2
    273c:	02b55633          	divu	a2,a0,a1
    2740:	6ec32223          	sw	a2,1764(t1)

00002744 <inst_458>:
    2744:	66666537          	lui	a0,0x66666
    2748:	66550513          	addi	a0,a0,1637 # 66666665 <_end+0x6665f961>
    274c:	555555b7          	lui	a1,0x55555
    2750:	55458593          	addi	a1,a1,1364 # 55555554 <_end+0x5554e850>
    2754:	02b55633          	divu	a2,a0,a1
    2758:	6ec32423          	sw	a2,1768(t1)

0000275c <inst_459>:
    275c:	66666537          	lui	a0,0x66666
    2760:	66550513          	addi	a0,a0,1637 # 66666665 <_end+0x6665f961>
    2764:	aaaab5b7          	lui	a1,0xaaaab
    2768:	aa958593          	addi	a1,a1,-1367 # aaaaaaa9 <_end+0xaaaa3da5>
    276c:	02b55633          	divu	a2,a0,a1
    2770:	6ec32623          	sw	a2,1772(t1)

00002774 <inst_460>:
    2774:	66666537          	lui	a0,0x66666
    2778:	66550513          	addi	a0,a0,1637 # 66666665 <_end+0x6665f961>
    277c:	00400593          	li	a1,4
    2780:	02b55633          	divu	a2,a0,a1
    2784:	6ec32823          	sw	a2,1776(t1)

00002788 <inst_461>:
    2788:	66666537          	lui	a0,0x66666
    278c:	66550513          	addi	a0,a0,1637 # 66666665 <_end+0x6665f961>
    2790:	333335b7          	lui	a1,0x33333
    2794:	33258593          	addi	a1,a1,818 # 33333332 <_end+0x3332c62e>
    2798:	02b55633          	divu	a2,a0,a1
    279c:	6ec32a23          	sw	a2,1780(t1)

000027a0 <inst_462>:
    27a0:	66666537          	lui	a0,0x66666
    27a4:	66550513          	addi	a0,a0,1637 # 66666665 <_end+0x6665f961>
    27a8:	666665b7          	lui	a1,0x66666
    27ac:	66558593          	addi	a1,a1,1637 # 66666665 <_end+0x6665f961>
    27b0:	02b55633          	divu	a2,a0,a1
    27b4:	6ec32c23          	sw	a2,1784(t1)

000027b8 <inst_463>:
    27b8:	66666537          	lui	a0,0x66666
    27bc:	66550513          	addi	a0,a0,1637 # 66666665 <_end+0x6665f961>
    27c0:	0000b5b7          	lui	a1,0xb
    27c4:	50358593          	addi	a1,a1,1283 # b503 <_end+0x47ff>
    27c8:	02b55633          	divu	a2,a0,a1
    27cc:	6ec32e23          	sw	a2,1788(t1)

000027d0 <inst_464>:
    27d0:	66666537          	lui	a0,0x66666
    27d4:	66550513          	addi	a0,a0,1637 # 66666665 <_end+0x6665f961>
    27d8:	000105b7          	lui	a1,0x10
    27dc:	ffe58593          	addi	a1,a1,-2 # fffe <_end+0x92fa>
    27e0:	02b55633          	divu	a2,a0,a1
    27e4:	70c32023          	sw	a2,1792(t1)

000027e8 <inst_465>:
    27e8:	66666537          	lui	a0,0x66666
    27ec:	66550513          	addi	a0,a0,1637 # 66666665 <_end+0x6665f961>
    27f0:	555555b7          	lui	a1,0x55555
    27f4:	55658593          	addi	a1,a1,1366 # 55555556 <_end+0x5554e852>
    27f8:	02b55633          	divu	a2,a0,a1
    27fc:	70c32223          	sw	a2,1796(t1)

00002800 <inst_466>:
    2800:	66666537          	lui	a0,0x66666
    2804:	66550513          	addi	a0,a0,1637 # 66666665 <_end+0x6665f961>
    2808:	00100593          	li	a1,1
    280c:	02b55633          	divu	a2,a0,a1
    2810:	70c32423          	sw	a2,1800(t1)

00002814 <inst_467>:
    2814:	66666537          	lui	a0,0x66666
    2818:	66550513          	addi	a0,a0,1637 # 66666665 <_end+0x6665f961>
    281c:	000105b7          	lui	a1,0x10
    2820:	02b55633          	divu	a2,a0,a1
    2824:	70c32623          	sw	a2,1804(t1)

00002828 <inst_468>:
    2828:	0000b537          	lui	a0,0xb
    282c:	50350513          	addi	a0,a0,1283 # b503 <_end+0x47ff>
    2830:	00300593          	li	a1,3
    2834:	02b55633          	divu	a2,a0,a1
    2838:	70c32823          	sw	a2,1808(t1)

0000283c <inst_469>:
    283c:	0000b537          	lui	a0,0xb
    2840:	50350513          	addi	a0,a0,1283 # b503 <_end+0x47ff>
    2844:	555555b7          	lui	a1,0x55555
    2848:	55558593          	addi	a1,a1,1365 # 55555555 <_end+0x5554e851>
    284c:	02b55633          	divu	a2,a0,a1
    2850:	70c32a23          	sw	a2,1812(t1)

00002854 <inst_470>:
    2854:	0000b537          	lui	a0,0xb
    2858:	50350513          	addi	a0,a0,1283 # b503 <_end+0x47ff>
    285c:	aaaab5b7          	lui	a1,0xaaaab
    2860:	aaa58593          	addi	a1,a1,-1366 # aaaaaaaa <_end+0xaaaa3da6>
    2864:	02b55633          	divu	a2,a0,a1
    2868:	70c32c23          	sw	a2,1816(t1)

0000286c <inst_471>:
    286c:	0000b537          	lui	a0,0xb
    2870:	50350513          	addi	a0,a0,1283 # b503 <_end+0x47ff>
    2874:	00500593          	li	a1,5
    2878:	02b55633          	divu	a2,a0,a1
    287c:	70c32e23          	sw	a2,1820(t1)

00002880 <inst_472>:
    2880:	0000b537          	lui	a0,0xb
    2884:	50350513          	addi	a0,a0,1283 # b503 <_end+0x47ff>
    2888:	333335b7          	lui	a1,0x33333
    288c:	33358593          	addi	a1,a1,819 # 33333333 <_end+0x3332c62f>
    2890:	02b55633          	divu	a2,a0,a1
    2894:	72c32023          	sw	a2,1824(t1)

00002898 <inst_473>:
    2898:	0000b537          	lui	a0,0xb
    289c:	50350513          	addi	a0,a0,1283 # b503 <_end+0x47ff>
    28a0:	666665b7          	lui	a1,0x66666
    28a4:	66658593          	addi	a1,a1,1638 # 66666666 <_end+0x6665f962>
    28a8:	02b55633          	divu	a2,a0,a1
    28ac:	72c32223          	sw	a2,1828(t1)

000028b0 <inst_474>:
    28b0:	0000b537          	lui	a0,0xb
    28b4:	50350513          	addi	a0,a0,1283 # b503 <_end+0x47ff>
    28b8:	0000b5b7          	lui	a1,0xb
    28bc:	50458593          	addi	a1,a1,1284 # b504 <_end+0x4800>
    28c0:	02b55633          	divu	a2,a0,a1
    28c4:	72c32423          	sw	a2,1832(t1)

000028c8 <inst_475>:
    28c8:	0000b537          	lui	a0,0xb
    28cc:	50350513          	addi	a0,a0,1283 # b503 <_end+0x47ff>
    28d0:	00000593          	li	a1,0
    28d4:	02b55633          	divu	a2,a0,a1
    28d8:	72c32623          	sw	a2,1836(t1)

000028dc <inst_476>:
    28dc:	0000b537          	lui	a0,0xb
    28e0:	50350513          	addi	a0,a0,1283 # b503 <_end+0x47ff>
    28e4:	000105b7          	lui	a1,0x10
    28e8:	fff58593          	addi	a1,a1,-1 # ffff <_end+0x92fb>
    28ec:	02b55633          	divu	a2,a0,a1
    28f0:	72c32823          	sw	a2,1840(t1)

000028f4 <inst_477>:
    28f4:	0000b537          	lui	a0,0xb
    28f8:	50350513          	addi	a0,a0,1283 # b503 <_end+0x47ff>
    28fc:	00200593          	li	a1,2
    2900:	02b55633          	divu	a2,a0,a1
    2904:	72c32a23          	sw	a2,1844(t1)

00002908 <inst_478>:
    2908:	0000b537          	lui	a0,0xb
    290c:	50350513          	addi	a0,a0,1283 # b503 <_end+0x47ff>
    2910:	555555b7          	lui	a1,0x55555
    2914:	55458593          	addi	a1,a1,1364 # 55555554 <_end+0x5554e850>
    2918:	02b55633          	divu	a2,a0,a1
    291c:	72c32c23          	sw	a2,1848(t1)

00002920 <inst_479>:
    2920:	0000b537          	lui	a0,0xb
    2924:	50350513          	addi	a0,a0,1283 # b503 <_end+0x47ff>
    2928:	aaaab5b7          	lui	a1,0xaaaab
    292c:	aa958593          	addi	a1,a1,-1367 # aaaaaaa9 <_end+0xaaaa3da5>
    2930:	02b55633          	divu	a2,a0,a1
    2934:	72c32e23          	sw	a2,1852(t1)

00002938 <inst_480>:
    2938:	0000b537          	lui	a0,0xb
    293c:	50350513          	addi	a0,a0,1283 # b503 <_end+0x47ff>
    2940:	00400593          	li	a1,4
    2944:	02b55633          	divu	a2,a0,a1
    2948:	74c32023          	sw	a2,1856(t1)

0000294c <inst_481>:
    294c:	0000b537          	lui	a0,0xb
    2950:	50350513          	addi	a0,a0,1283 # b503 <_end+0x47ff>
    2954:	333335b7          	lui	a1,0x33333
    2958:	33258593          	addi	a1,a1,818 # 33333332 <_end+0x3332c62e>
    295c:	02b55633          	divu	a2,a0,a1
    2960:	74c32223          	sw	a2,1860(t1)

00002964 <inst_482>:
    2964:	0000b537          	lui	a0,0xb
    2968:	50350513          	addi	a0,a0,1283 # b503 <_end+0x47ff>
    296c:	666665b7          	lui	a1,0x66666
    2970:	66558593          	addi	a1,a1,1637 # 66666665 <_end+0x6665f961>
    2974:	02b55633          	divu	a2,a0,a1
    2978:	74c32423          	sw	a2,1864(t1)

0000297c <inst_483>:
    297c:	0000b537          	lui	a0,0xb
    2980:	50350513          	addi	a0,a0,1283 # b503 <_end+0x47ff>
    2984:	0000b5b7          	lui	a1,0xb
    2988:	50358593          	addi	a1,a1,1283 # b503 <_end+0x47ff>
    298c:	02b55633          	divu	a2,a0,a1
    2990:	74c32623          	sw	a2,1868(t1)

00002994 <inst_484>:
    2994:	0000b537          	lui	a0,0xb
    2998:	50350513          	addi	a0,a0,1283 # b503 <_end+0x47ff>
    299c:	000105b7          	lui	a1,0x10
    29a0:	ffe58593          	addi	a1,a1,-2 # fffe <_end+0x92fa>
    29a4:	02b55633          	divu	a2,a0,a1
    29a8:	74c32823          	sw	a2,1872(t1)

000029ac <inst_485>:
    29ac:	0000b537          	lui	a0,0xb
    29b0:	50350513          	addi	a0,a0,1283 # b503 <_end+0x47ff>
    29b4:	555555b7          	lui	a1,0x55555
    29b8:	55658593          	addi	a1,a1,1366 # 55555556 <_end+0x5554e852>
    29bc:	02b55633          	divu	a2,a0,a1
    29c0:	74c32a23          	sw	a2,1876(t1)

000029c4 <inst_486>:
    29c4:	0000b537          	lui	a0,0xb
    29c8:	50350513          	addi	a0,a0,1283 # b503 <_end+0x47ff>
    29cc:	aaaab5b7          	lui	a1,0xaaaab
    29d0:	aab58593          	addi	a1,a1,-1365 # aaaaaaab <_end+0xaaaa3da7>
    29d4:	02b55633          	divu	a2,a0,a1
    29d8:	74c32c23          	sw	a2,1880(t1)

000029dc <inst_487>:
    29dc:	0000b537          	lui	a0,0xb
    29e0:	50350513          	addi	a0,a0,1283 # b503 <_end+0x47ff>
    29e4:	00600593          	li	a1,6
    29e8:	02b55633          	divu	a2,a0,a1
    29ec:	74c32e23          	sw	a2,1884(t1)

000029f0 <inst_488>:
    29f0:	0000b537          	lui	a0,0xb
    29f4:	50350513          	addi	a0,a0,1283 # b503 <_end+0x47ff>
    29f8:	333335b7          	lui	a1,0x33333
    29fc:	33458593          	addi	a1,a1,820 # 33333334 <_end+0x3332c630>
    2a00:	02b55633          	divu	a2,a0,a1
    2a04:	76c32023          	sw	a2,1888(t1)

00002a08 <inst_489>:
    2a08:	0000b537          	lui	a0,0xb
    2a0c:	50350513          	addi	a0,a0,1283 # b503 <_end+0x47ff>
    2a10:	666665b7          	lui	a1,0x66666
    2a14:	66758593          	addi	a1,a1,1639 # 66666667 <_end+0x6665f963>
    2a18:	02b55633          	divu	a2,a0,a1
    2a1c:	76c32223          	sw	a2,1892(t1)

00002a20 <inst_490>:
    2a20:	0000b537          	lui	a0,0xb
    2a24:	50350513          	addi	a0,a0,1283 # b503 <_end+0x47ff>
    2a28:	0000b5b7          	lui	a1,0xb
    2a2c:	50558593          	addi	a1,a1,1285 # b505 <_end+0x4801>
    2a30:	02b55633          	divu	a2,a0,a1
    2a34:	76c32423          	sw	a2,1896(t1)

00002a38 <inst_491>:
    2a38:	0000b537          	lui	a0,0xb
    2a3c:	50350513          	addi	a0,a0,1283 # b503 <_end+0x47ff>
    2a40:	00100593          	li	a1,1
    2a44:	02b55633          	divu	a2,a0,a1
    2a48:	76c32623          	sw	a2,1900(t1)

00002a4c <inst_492>:
    2a4c:	0000b537          	lui	a0,0xb
    2a50:	50350513          	addi	a0,a0,1283 # b503 <_end+0x47ff>
    2a54:	000105b7          	lui	a1,0x10
    2a58:	02b55633          	divu	a2,a0,a1
    2a5c:	76c32823          	sw	a2,1904(t1)

00002a60 <inst_493>:
    2a60:	00010537          	lui	a0,0x10
    2a64:	ffe50513          	addi	a0,a0,-2 # fffe <_end+0x92fa>
    2a68:	00300593          	li	a1,3
    2a6c:	02b55633          	divu	a2,a0,a1
    2a70:	76c32a23          	sw	a2,1908(t1)

00002a74 <inst_494>:
    2a74:	00010537          	lui	a0,0x10
    2a78:	ffe50513          	addi	a0,a0,-2 # fffe <_end+0x92fa>
    2a7c:	555555b7          	lui	a1,0x55555
    2a80:	55558593          	addi	a1,a1,1365 # 55555555 <_end+0x5554e851>
    2a84:	02b55633          	divu	a2,a0,a1
    2a88:	76c32c23          	sw	a2,1912(t1)

00002a8c <inst_495>:
    2a8c:	00010537          	lui	a0,0x10
    2a90:	ffe50513          	addi	a0,a0,-2 # fffe <_end+0x92fa>
    2a94:	aaaab5b7          	lui	a1,0xaaaab
    2a98:	aaa58593          	addi	a1,a1,-1366 # aaaaaaaa <_end+0xaaaa3da6>
    2a9c:	02b55633          	divu	a2,a0,a1
    2aa0:	76c32e23          	sw	a2,1916(t1)

00002aa4 <inst_496>:
    2aa4:	00010537          	lui	a0,0x10
    2aa8:	ffe50513          	addi	a0,a0,-2 # fffe <_end+0x92fa>
    2aac:	00500593          	li	a1,5
    2ab0:	02b55633          	divu	a2,a0,a1
    2ab4:	78c32023          	sw	a2,1920(t1)

00002ab8 <inst_497>:
    2ab8:	00010537          	lui	a0,0x10
    2abc:	ffe50513          	addi	a0,a0,-2 # fffe <_end+0x92fa>
    2ac0:	333335b7          	lui	a1,0x33333
    2ac4:	33358593          	addi	a1,a1,819 # 33333333 <_end+0x3332c62f>
    2ac8:	02b55633          	divu	a2,a0,a1
    2acc:	78c32223          	sw	a2,1924(t1)

00002ad0 <inst_498>:
    2ad0:	00010537          	lui	a0,0x10
    2ad4:	ffe50513          	addi	a0,a0,-2 # fffe <_end+0x92fa>
    2ad8:	666665b7          	lui	a1,0x66666
    2adc:	66658593          	addi	a1,a1,1638 # 66666666 <_end+0x6665f962>
    2ae0:	02b55633          	divu	a2,a0,a1
    2ae4:	78c32423          	sw	a2,1928(t1)

00002ae8 <inst_499>:
    2ae8:	00010537          	lui	a0,0x10
    2aec:	ffe50513          	addi	a0,a0,-2 # fffe <_end+0x92fa>
    2af0:	0000b5b7          	lui	a1,0xb
    2af4:	50458593          	addi	a1,a1,1284 # b504 <_end+0x4800>
    2af8:	02b55633          	divu	a2,a0,a1
    2afc:	78c32623          	sw	a2,1932(t1)

00002b00 <inst_500>:
    2b00:	00010537          	lui	a0,0x10
    2b04:	ffe50513          	addi	a0,a0,-2 # fffe <_end+0x92fa>
    2b08:	00000593          	li	a1,0
    2b0c:	02b55633          	divu	a2,a0,a1
    2b10:	78c32823          	sw	a2,1936(t1)

00002b14 <inst_501>:
    2b14:	00010537          	lui	a0,0x10
    2b18:	ffe50513          	addi	a0,a0,-2 # fffe <_end+0x92fa>
    2b1c:	000105b7          	lui	a1,0x10
    2b20:	fff58593          	addi	a1,a1,-1 # ffff <_end+0x92fb>
    2b24:	02b55633          	divu	a2,a0,a1
    2b28:	78c32a23          	sw	a2,1940(t1)

00002b2c <inst_502>:
    2b2c:	00010537          	lui	a0,0x10
    2b30:	ffe50513          	addi	a0,a0,-2 # fffe <_end+0x92fa>
    2b34:	00200593          	li	a1,2
    2b38:	02b55633          	divu	a2,a0,a1
    2b3c:	78c32c23          	sw	a2,1944(t1)

00002b40 <inst_503>:
    2b40:	00010537          	lui	a0,0x10
    2b44:	ffe50513          	addi	a0,a0,-2 # fffe <_end+0x92fa>
    2b48:	555555b7          	lui	a1,0x55555
    2b4c:	55458593          	addi	a1,a1,1364 # 55555554 <_end+0x5554e850>
    2b50:	02b55633          	divu	a2,a0,a1
    2b54:	78c32e23          	sw	a2,1948(t1)

00002b58 <inst_504>:
    2b58:	00010537          	lui	a0,0x10
    2b5c:	ffe50513          	addi	a0,a0,-2 # fffe <_end+0x92fa>
    2b60:	aaaab5b7          	lui	a1,0xaaaab
    2b64:	aa958593          	addi	a1,a1,-1367 # aaaaaaa9 <_end+0xaaaa3da5>
    2b68:	02b55633          	divu	a2,a0,a1
    2b6c:	7ac32023          	sw	a2,1952(t1)

00002b70 <inst_505>:
    2b70:	00010537          	lui	a0,0x10
    2b74:	ffe50513          	addi	a0,a0,-2 # fffe <_end+0x92fa>
    2b78:	00400593          	li	a1,4
    2b7c:	02b55633          	divu	a2,a0,a1
    2b80:	7ac32223          	sw	a2,1956(t1)

00002b84 <inst_506>:
    2b84:	00010537          	lui	a0,0x10
    2b88:	ffe50513          	addi	a0,a0,-2 # fffe <_end+0x92fa>
    2b8c:	333335b7          	lui	a1,0x33333
    2b90:	33258593          	addi	a1,a1,818 # 33333332 <_end+0x3332c62e>
    2b94:	02b55633          	divu	a2,a0,a1
    2b98:	7ac32423          	sw	a2,1960(t1)

00002b9c <inst_507>:
    2b9c:	00010537          	lui	a0,0x10
    2ba0:	ffe50513          	addi	a0,a0,-2 # fffe <_end+0x92fa>
    2ba4:	666665b7          	lui	a1,0x66666
    2ba8:	66558593          	addi	a1,a1,1637 # 66666665 <_end+0x6665f961>
    2bac:	02b55633          	divu	a2,a0,a1
    2bb0:	7ac32623          	sw	a2,1964(t1)

00002bb4 <inst_508>:
    2bb4:	00010537          	lui	a0,0x10
    2bb8:	ffe50513          	addi	a0,a0,-2 # fffe <_end+0x92fa>
    2bbc:	0000b5b7          	lui	a1,0xb
    2bc0:	50358593          	addi	a1,a1,1283 # b503 <_end+0x47ff>
    2bc4:	02b55633          	divu	a2,a0,a1
    2bc8:	7ac32823          	sw	a2,1968(t1)

00002bcc <inst_509>:
    2bcc:	00010537          	lui	a0,0x10
    2bd0:	ffe50513          	addi	a0,a0,-2 # fffe <_end+0x92fa>
    2bd4:	555555b7          	lui	a1,0x55555
    2bd8:	55658593          	addi	a1,a1,1366 # 55555556 <_end+0x5554e852>
    2bdc:	02b55633          	divu	a2,a0,a1
    2be0:	7ac32a23          	sw	a2,1972(t1)

00002be4 <inst_510>:
    2be4:	00010537          	lui	a0,0x10
    2be8:	ffe50513          	addi	a0,a0,-2 # fffe <_end+0x92fa>
    2bec:	aaaab5b7          	lui	a1,0xaaaab
    2bf0:	aab58593          	addi	a1,a1,-1365 # aaaaaaab <_end+0xaaaa3da7>
    2bf4:	02b55633          	divu	a2,a0,a1
    2bf8:	7ac32c23          	sw	a2,1976(t1)

00002bfc <inst_511>:
    2bfc:	00010537          	lui	a0,0x10
    2c00:	ffe50513          	addi	a0,a0,-2 # fffe <_end+0x92fa>
    2c04:	00600593          	li	a1,6
    2c08:	02b55633          	divu	a2,a0,a1
    2c0c:	7ac32e23          	sw	a2,1980(t1)

00002c10 <inst_512>:
    2c10:	00010537          	lui	a0,0x10
    2c14:	ffe50513          	addi	a0,a0,-2 # fffe <_end+0x92fa>
    2c18:	333335b7          	lui	a1,0x33333
    2c1c:	33458593          	addi	a1,a1,820 # 33333334 <_end+0x3332c630>
    2c20:	02b55633          	divu	a2,a0,a1
    2c24:	7cc32023          	sw	a2,1984(t1)

00002c28 <inst_513>:
    2c28:	00010537          	lui	a0,0x10
    2c2c:	ffe50513          	addi	a0,a0,-2 # fffe <_end+0x92fa>
    2c30:	666665b7          	lui	a1,0x66666
    2c34:	66758593          	addi	a1,a1,1639 # 66666667 <_end+0x6665f963>
    2c38:	02b55633          	divu	a2,a0,a1
    2c3c:	7cc32223          	sw	a2,1988(t1)

00002c40 <inst_514>:
    2c40:	00010537          	lui	a0,0x10
    2c44:	ffe50513          	addi	a0,a0,-2 # fffe <_end+0x92fa>
    2c48:	0000b5b7          	lui	a1,0xb
    2c4c:	50558593          	addi	a1,a1,1285 # b505 <_end+0x4801>
    2c50:	02b55633          	divu	a2,a0,a1
    2c54:	7cc32423          	sw	a2,1992(t1)

00002c58 <inst_515>:
    2c58:	00010537          	lui	a0,0x10
    2c5c:	ffe50513          	addi	a0,a0,-2 # fffe <_end+0x92fa>
    2c60:	00100593          	li	a1,1
    2c64:	02b55633          	divu	a2,a0,a1
    2c68:	7cc32623          	sw	a2,1996(t1)

00002c6c <inst_516>:
    2c6c:	00010537          	lui	a0,0x10
    2c70:	ffe50513          	addi	a0,a0,-2 # fffe <_end+0x92fa>
    2c74:	000105b7          	lui	a1,0x10
    2c78:	02b55633          	divu	a2,a0,a1
    2c7c:	7cc32823          	sw	a2,2000(t1)

00002c80 <inst_517>:
    2c80:	55555537          	lui	a0,0x55555
    2c84:	55650513          	addi	a0,a0,1366 # 55555556 <_end+0x5554e852>
    2c88:	00300593          	li	a1,3
    2c8c:	02b55633          	divu	a2,a0,a1
    2c90:	7cc32a23          	sw	a2,2004(t1)

00002c94 <inst_518>:
    2c94:	55555537          	lui	a0,0x55555
    2c98:	55650513          	addi	a0,a0,1366 # 55555556 <_end+0x5554e852>
    2c9c:	555555b7          	lui	a1,0x55555
    2ca0:	55558593          	addi	a1,a1,1365 # 55555555 <_end+0x5554e851>
    2ca4:	02b55633          	divu	a2,a0,a1
    2ca8:	7cc32c23          	sw	a2,2008(t1)

00002cac <inst_519>:
    2cac:	55555537          	lui	a0,0x55555
    2cb0:	55650513          	addi	a0,a0,1366 # 55555556 <_end+0x5554e852>
    2cb4:	aaaab5b7          	lui	a1,0xaaaab
    2cb8:	aaa58593          	addi	a1,a1,-1366 # aaaaaaaa <_end+0xaaaa3da6>
    2cbc:	02b55633          	divu	a2,a0,a1
    2cc0:	7cc32e23          	sw	a2,2012(t1)

00002cc4 <inst_520>:
    2cc4:	55555537          	lui	a0,0x55555
    2cc8:	55650513          	addi	a0,a0,1366 # 55555556 <_end+0x5554e852>
    2ccc:	00500593          	li	a1,5
    2cd0:	02b55633          	divu	a2,a0,a1
    2cd4:	7ec32023          	sw	a2,2016(t1)

00002cd8 <inst_521>:
    2cd8:	55555537          	lui	a0,0x55555
    2cdc:	55650513          	addi	a0,a0,1366 # 55555556 <_end+0x5554e852>
    2ce0:	333335b7          	lui	a1,0x33333
    2ce4:	33358593          	addi	a1,a1,819 # 33333333 <_end+0x3332c62f>
    2ce8:	02b55633          	divu	a2,a0,a1
    2cec:	7ec32223          	sw	a2,2020(t1)

00002cf0 <inst_522>:
    2cf0:	55555537          	lui	a0,0x55555
    2cf4:	55650513          	addi	a0,a0,1366 # 55555556 <_end+0x5554e852>
    2cf8:	666665b7          	lui	a1,0x66666
    2cfc:	66658593          	addi	a1,a1,1638 # 66666666 <_end+0x6665f962>
    2d00:	02b55633          	divu	a2,a0,a1
    2d04:	7ec32423          	sw	a2,2024(t1)

00002d08 <inst_523>:
    2d08:	55555537          	lui	a0,0x55555
    2d0c:	55650513          	addi	a0,a0,1366 # 55555556 <_end+0x5554e852>
    2d10:	0000b5b7          	lui	a1,0xb
    2d14:	50458593          	addi	a1,a1,1284 # b504 <_end+0x4800>
    2d18:	02b55633          	divu	a2,a0,a1
    2d1c:	7ec32623          	sw	a2,2028(t1)

00002d20 <inst_524>:
    2d20:	55555537          	lui	a0,0x55555
    2d24:	55650513          	addi	a0,a0,1366 # 55555556 <_end+0x5554e852>
    2d28:	00000593          	li	a1,0
    2d2c:	02b55633          	divu	a2,a0,a1
    2d30:	7ec32823          	sw	a2,2032(t1)

00002d34 <inst_525>:
    2d34:	55555537          	lui	a0,0x55555
    2d38:	55650513          	addi	a0,a0,1366 # 55555556 <_end+0x5554e852>
    2d3c:	000105b7          	lui	a1,0x10
    2d40:	fff58593          	addi	a1,a1,-1 # ffff <_end+0x92fb>
    2d44:	02b55633          	divu	a2,a0,a1
    2d48:	7ec32a23          	sw	a2,2036(t1)

00002d4c <inst_526>:
    2d4c:	55555537          	lui	a0,0x55555
    2d50:	55650513          	addi	a0,a0,1366 # 55555556 <_end+0x5554e852>
    2d54:	00200593          	li	a1,2
    2d58:	02b55633          	divu	a2,a0,a1
    2d5c:	7ec32c23          	sw	a2,2040(t1)

00002d60 <inst_527>:
    2d60:	55555537          	lui	a0,0x55555
    2d64:	55650513          	addi	a0,a0,1366 # 55555556 <_end+0x5554e852>
    2d68:	555555b7          	lui	a1,0x55555
    2d6c:	55458593          	addi	a1,a1,1364 # 55555554 <_end+0x5554e850>
    2d70:	02b55633          	divu	a2,a0,a1
    2d74:	7ec32e23          	sw	a2,2044(t1)
    2d78:	00004317          	auipc	t1,0x4
    2d7c:	ac830313          	addi	t1,t1,-1336 # 6840 <signature_x6_1>

00002d80 <inst_528>:
    2d80:	55555537          	lui	a0,0x55555
    2d84:	55650513          	addi	a0,a0,1366 # 55555556 <_end+0x5554e852>
    2d88:	aaaab5b7          	lui	a1,0xaaaab
    2d8c:	aa958593          	addi	a1,a1,-1367 # aaaaaaa9 <_end+0xaaaa3da5>
    2d90:	02b55633          	divu	a2,a0,a1
    2d94:	00c32023          	sw	a2,0(t1)

00002d98 <inst_529>:
    2d98:	55555537          	lui	a0,0x55555
    2d9c:	55650513          	addi	a0,a0,1366 # 55555556 <_end+0x5554e852>
    2da0:	00400593          	li	a1,4
    2da4:	02b55633          	divu	a2,a0,a1
    2da8:	00c32223          	sw	a2,4(t1)

00002dac <inst_530>:
    2dac:	55555537          	lui	a0,0x55555
    2db0:	55650513          	addi	a0,a0,1366 # 55555556 <_end+0x5554e852>
    2db4:	333335b7          	lui	a1,0x33333
    2db8:	33258593          	addi	a1,a1,818 # 33333332 <_end+0x3332c62e>
    2dbc:	02b55633          	divu	a2,a0,a1
    2dc0:	00c32423          	sw	a2,8(t1)

00002dc4 <inst_531>:
    2dc4:	55555537          	lui	a0,0x55555
    2dc8:	55650513          	addi	a0,a0,1366 # 55555556 <_end+0x5554e852>
    2dcc:	666665b7          	lui	a1,0x66666
    2dd0:	66558593          	addi	a1,a1,1637 # 66666665 <_end+0x6665f961>
    2dd4:	02b55633          	divu	a2,a0,a1
    2dd8:	00c32623          	sw	a2,12(t1)

00002ddc <inst_532>:
    2ddc:	55555537          	lui	a0,0x55555
    2de0:	55650513          	addi	a0,a0,1366 # 55555556 <_end+0x5554e852>
    2de4:	0000b5b7          	lui	a1,0xb
    2de8:	50358593          	addi	a1,a1,1283 # b503 <_end+0x47ff>
    2dec:	02b55633          	divu	a2,a0,a1
    2df0:	00c32823          	sw	a2,16(t1)

00002df4 <inst_533>:
    2df4:	55555537          	lui	a0,0x55555
    2df8:	55650513          	addi	a0,a0,1366 # 55555556 <_end+0x5554e852>
    2dfc:	000105b7          	lui	a1,0x10
    2e00:	ffe58593          	addi	a1,a1,-2 # fffe <_end+0x92fa>
    2e04:	02b55633          	divu	a2,a0,a1
    2e08:	00c32a23          	sw	a2,20(t1)

00002e0c <inst_534>:
    2e0c:	55555537          	lui	a0,0x55555
    2e10:	55650513          	addi	a0,a0,1366 # 55555556 <_end+0x5554e852>
    2e14:	555555b7          	lui	a1,0x55555
    2e18:	55658593          	addi	a1,a1,1366 # 55555556 <_end+0x5554e852>
    2e1c:	02b55633          	divu	a2,a0,a1
    2e20:	00c32c23          	sw	a2,24(t1)

00002e24 <inst_535>:
    2e24:	55555537          	lui	a0,0x55555
    2e28:	55650513          	addi	a0,a0,1366 # 55555556 <_end+0x5554e852>
    2e2c:	aaaab5b7          	lui	a1,0xaaaab
    2e30:	aab58593          	addi	a1,a1,-1365 # aaaaaaab <_end+0xaaaa3da7>
    2e34:	02b55633          	divu	a2,a0,a1
    2e38:	00c32e23          	sw	a2,28(t1)

00002e3c <inst_536>:
    2e3c:	55555537          	lui	a0,0x55555
    2e40:	55650513          	addi	a0,a0,1366 # 55555556 <_end+0x5554e852>
    2e44:	00600593          	li	a1,6
    2e48:	02b55633          	divu	a2,a0,a1
    2e4c:	02c32023          	sw	a2,32(t1)

00002e50 <inst_537>:
    2e50:	55555537          	lui	a0,0x55555
    2e54:	55650513          	addi	a0,a0,1366 # 55555556 <_end+0x5554e852>
    2e58:	333335b7          	lui	a1,0x33333
    2e5c:	33458593          	addi	a1,a1,820 # 33333334 <_end+0x3332c630>
    2e60:	02b55633          	divu	a2,a0,a1
    2e64:	02c32223          	sw	a2,36(t1)

00002e68 <inst_538>:
    2e68:	55555537          	lui	a0,0x55555
    2e6c:	55650513          	addi	a0,a0,1366 # 55555556 <_end+0x5554e852>
    2e70:	666665b7          	lui	a1,0x66666
    2e74:	66758593          	addi	a1,a1,1639 # 66666667 <_end+0x6665f963>
    2e78:	02b55633          	divu	a2,a0,a1
    2e7c:	02c32423          	sw	a2,40(t1)

00002e80 <inst_539>:
    2e80:	55555537          	lui	a0,0x55555
    2e84:	55650513          	addi	a0,a0,1366 # 55555556 <_end+0x5554e852>
    2e88:	0000b5b7          	lui	a1,0xb
    2e8c:	50558593          	addi	a1,a1,1285 # b505 <_end+0x4801>
    2e90:	02b55633          	divu	a2,a0,a1
    2e94:	02c32623          	sw	a2,44(t1)

00002e98 <inst_540>:
    2e98:	55555537          	lui	a0,0x55555
    2e9c:	55650513          	addi	a0,a0,1366 # 55555556 <_end+0x5554e852>
    2ea0:	00100593          	li	a1,1
    2ea4:	02b55633          	divu	a2,a0,a1
    2ea8:	02c32823          	sw	a2,48(t1)

00002eac <inst_541>:
    2eac:	55555537          	lui	a0,0x55555
    2eb0:	55650513          	addi	a0,a0,1366 # 55555556 <_end+0x5554e852>
    2eb4:	000105b7          	lui	a1,0x10
    2eb8:	02b55633          	divu	a2,a0,a1
    2ebc:	02c32a23          	sw	a2,52(t1)

00002ec0 <inst_542>:
    2ec0:	aaaab537          	lui	a0,0xaaaab
    2ec4:	aab50513          	addi	a0,a0,-1365 # aaaaaaab <_end+0xaaaa3da7>
    2ec8:	00300593          	li	a1,3
    2ecc:	02b55633          	divu	a2,a0,a1
    2ed0:	02c32c23          	sw	a2,56(t1)

00002ed4 <inst_543>:
    2ed4:	aaaab537          	lui	a0,0xaaaab
    2ed8:	aab50513          	addi	a0,a0,-1365 # aaaaaaab <_end+0xaaaa3da7>
    2edc:	555555b7          	lui	a1,0x55555
    2ee0:	55558593          	addi	a1,a1,1365 # 55555555 <_end+0x5554e851>
    2ee4:	02b55633          	divu	a2,a0,a1
    2ee8:	02c32e23          	sw	a2,60(t1)

00002eec <inst_544>:
    2eec:	aaaab537          	lui	a0,0xaaaab
    2ef0:	aab50513          	addi	a0,a0,-1365 # aaaaaaab <_end+0xaaaa3da7>
    2ef4:	aaaab5b7          	lui	a1,0xaaaab
    2ef8:	aaa58593          	addi	a1,a1,-1366 # aaaaaaaa <_end+0xaaaa3da6>
    2efc:	02b55633          	divu	a2,a0,a1
    2f00:	04c32023          	sw	a2,64(t1)

00002f04 <inst_545>:
    2f04:	aaaab537          	lui	a0,0xaaaab
    2f08:	aab50513          	addi	a0,a0,-1365 # aaaaaaab <_end+0xaaaa3da7>
    2f0c:	00500593          	li	a1,5
    2f10:	02b55633          	divu	a2,a0,a1
    2f14:	04c32223          	sw	a2,68(t1)

00002f18 <inst_546>:
    2f18:	aaaab537          	lui	a0,0xaaaab
    2f1c:	aab50513          	addi	a0,a0,-1365 # aaaaaaab <_end+0xaaaa3da7>
    2f20:	333335b7          	lui	a1,0x33333
    2f24:	33358593          	addi	a1,a1,819 # 33333333 <_end+0x3332c62f>
    2f28:	02b55633          	divu	a2,a0,a1
    2f2c:	04c32423          	sw	a2,72(t1)

00002f30 <inst_547>:
    2f30:	aaaab537          	lui	a0,0xaaaab
    2f34:	aab50513          	addi	a0,a0,-1365 # aaaaaaab <_end+0xaaaa3da7>
    2f38:	666665b7          	lui	a1,0x66666
    2f3c:	66658593          	addi	a1,a1,1638 # 66666666 <_end+0x6665f962>
    2f40:	02b55633          	divu	a2,a0,a1
    2f44:	04c32623          	sw	a2,76(t1)

00002f48 <inst_548>:
    2f48:	aaaab537          	lui	a0,0xaaaab
    2f4c:	aab50513          	addi	a0,a0,-1365 # aaaaaaab <_end+0xaaaa3da7>
    2f50:	0000b5b7          	lui	a1,0xb
    2f54:	50458593          	addi	a1,a1,1284 # b504 <_end+0x4800>
    2f58:	02b55633          	divu	a2,a0,a1
    2f5c:	04c32823          	sw	a2,80(t1)

00002f60 <inst_549>:
    2f60:	aaaab537          	lui	a0,0xaaaab
    2f64:	aab50513          	addi	a0,a0,-1365 # aaaaaaab <_end+0xaaaa3da7>
    2f68:	00000593          	li	a1,0
    2f6c:	02b55633          	divu	a2,a0,a1
    2f70:	04c32a23          	sw	a2,84(t1)

00002f74 <inst_550>:
    2f74:	aaaab537          	lui	a0,0xaaaab
    2f78:	aab50513          	addi	a0,a0,-1365 # aaaaaaab <_end+0xaaaa3da7>
    2f7c:	000105b7          	lui	a1,0x10
    2f80:	fff58593          	addi	a1,a1,-1 # ffff <_end+0x92fb>
    2f84:	02b55633          	divu	a2,a0,a1
    2f88:	04c32c23          	sw	a2,88(t1)

00002f8c <inst_551>:
    2f8c:	aaaab537          	lui	a0,0xaaaab
    2f90:	aab50513          	addi	a0,a0,-1365 # aaaaaaab <_end+0xaaaa3da7>
    2f94:	00200593          	li	a1,2
    2f98:	02b55633          	divu	a2,a0,a1
    2f9c:	04c32e23          	sw	a2,92(t1)

00002fa0 <inst_552>:
    2fa0:	aaaab537          	lui	a0,0xaaaab
    2fa4:	aab50513          	addi	a0,a0,-1365 # aaaaaaab <_end+0xaaaa3da7>
    2fa8:	555555b7          	lui	a1,0x55555
    2fac:	55458593          	addi	a1,a1,1364 # 55555554 <_end+0x5554e850>
    2fb0:	02b55633          	divu	a2,a0,a1
    2fb4:	06c32023          	sw	a2,96(t1)

00002fb8 <inst_553>:
    2fb8:	aaaab537          	lui	a0,0xaaaab
    2fbc:	aab50513          	addi	a0,a0,-1365 # aaaaaaab <_end+0xaaaa3da7>
    2fc0:	aaaab5b7          	lui	a1,0xaaaab
    2fc4:	aa958593          	addi	a1,a1,-1367 # aaaaaaa9 <_end+0xaaaa3da5>
    2fc8:	02b55633          	divu	a2,a0,a1
    2fcc:	06c32223          	sw	a2,100(t1)

00002fd0 <inst_554>:
    2fd0:	aaaab537          	lui	a0,0xaaaab
    2fd4:	aab50513          	addi	a0,a0,-1365 # aaaaaaab <_end+0xaaaa3da7>
    2fd8:	00400593          	li	a1,4
    2fdc:	02b55633          	divu	a2,a0,a1
    2fe0:	06c32423          	sw	a2,104(t1)

00002fe4 <inst_555>:
    2fe4:	aaaab537          	lui	a0,0xaaaab
    2fe8:	aab50513          	addi	a0,a0,-1365 # aaaaaaab <_end+0xaaaa3da7>
    2fec:	333335b7          	lui	a1,0x33333
    2ff0:	33258593          	addi	a1,a1,818 # 33333332 <_end+0x3332c62e>
    2ff4:	02b55633          	divu	a2,a0,a1
    2ff8:	06c32623          	sw	a2,108(t1)

00002ffc <inst_556>:
    2ffc:	aaaab537          	lui	a0,0xaaaab
    3000:	aab50513          	addi	a0,a0,-1365 # aaaaaaab <_end+0xaaaa3da7>
    3004:	666665b7          	lui	a1,0x66666
    3008:	66558593          	addi	a1,a1,1637 # 66666665 <_end+0x6665f961>
    300c:	02b55633          	divu	a2,a0,a1
    3010:	06c32823          	sw	a2,112(t1)

00003014 <inst_557>:
    3014:	aaaab537          	lui	a0,0xaaaab
    3018:	aab50513          	addi	a0,a0,-1365 # aaaaaaab <_end+0xaaaa3da7>
    301c:	0000b5b7          	lui	a1,0xb
    3020:	50358593          	addi	a1,a1,1283 # b503 <_end+0x47ff>
    3024:	02b55633          	divu	a2,a0,a1
    3028:	06c32a23          	sw	a2,116(t1)

0000302c <inst_558>:
    302c:	aaaab537          	lui	a0,0xaaaab
    3030:	aab50513          	addi	a0,a0,-1365 # aaaaaaab <_end+0xaaaa3da7>
    3034:	000105b7          	lui	a1,0x10
    3038:	ffe58593          	addi	a1,a1,-2 # fffe <_end+0x92fa>
    303c:	02b55633          	divu	a2,a0,a1
    3040:	06c32c23          	sw	a2,120(t1)

00003044 <inst_559>:
    3044:	aaaab537          	lui	a0,0xaaaab
    3048:	aab50513          	addi	a0,a0,-1365 # aaaaaaab <_end+0xaaaa3da7>
    304c:	555555b7          	lui	a1,0x55555
    3050:	55658593          	addi	a1,a1,1366 # 55555556 <_end+0x5554e852>
    3054:	02b55633          	divu	a2,a0,a1
    3058:	06c32e23          	sw	a2,124(t1)

0000305c <inst_560>:
    305c:	aaaab537          	lui	a0,0xaaaab
    3060:	aab50513          	addi	a0,a0,-1365 # aaaaaaab <_end+0xaaaa3da7>
    3064:	aaaab5b7          	lui	a1,0xaaaab
    3068:	aab58593          	addi	a1,a1,-1365 # aaaaaaab <_end+0xaaaa3da7>
    306c:	02b55633          	divu	a2,a0,a1
    3070:	08c32023          	sw	a2,128(t1)

00003074 <inst_561>:
    3074:	aaaab537          	lui	a0,0xaaaab
    3078:	aab50513          	addi	a0,a0,-1365 # aaaaaaab <_end+0xaaaa3da7>
    307c:	00600593          	li	a1,6
    3080:	02b55633          	divu	a2,a0,a1
    3084:	08c32223          	sw	a2,132(t1)

00003088 <inst_562>:
    3088:	aaaab537          	lui	a0,0xaaaab
    308c:	aab50513          	addi	a0,a0,-1365 # aaaaaaab <_end+0xaaaa3da7>
    3090:	333335b7          	lui	a1,0x33333
    3094:	33458593          	addi	a1,a1,820 # 33333334 <_end+0x3332c630>
    3098:	02b55633          	divu	a2,a0,a1
    309c:	08c32423          	sw	a2,136(t1)

000030a0 <inst_563>:
    30a0:	aaaab537          	lui	a0,0xaaaab
    30a4:	aab50513          	addi	a0,a0,-1365 # aaaaaaab <_end+0xaaaa3da7>
    30a8:	666665b7          	lui	a1,0x66666
    30ac:	66758593          	addi	a1,a1,1639 # 66666667 <_end+0x6665f963>
    30b0:	02b55633          	divu	a2,a0,a1
    30b4:	08c32623          	sw	a2,140(t1)

000030b8 <inst_564>:
    30b8:	aaaab537          	lui	a0,0xaaaab
    30bc:	aab50513          	addi	a0,a0,-1365 # aaaaaaab <_end+0xaaaa3da7>
    30c0:	0000b5b7          	lui	a1,0xb
    30c4:	50558593          	addi	a1,a1,1285 # b505 <_end+0x4801>
    30c8:	02b55633          	divu	a2,a0,a1
    30cc:	08c32823          	sw	a2,144(t1)

000030d0 <inst_565>:
    30d0:	aaaab537          	lui	a0,0xaaaab
    30d4:	aab50513          	addi	a0,a0,-1365 # aaaaaaab <_end+0xaaaa3da7>
    30d8:	00100593          	li	a1,1
    30dc:	02b55633          	divu	a2,a0,a1
    30e0:	08c32a23          	sw	a2,148(t1)

000030e4 <inst_566>:
    30e4:	aaaab537          	lui	a0,0xaaaab
    30e8:	aab50513          	addi	a0,a0,-1365 # aaaaaaab <_end+0xaaaa3da7>
    30ec:	000105b7          	lui	a1,0x10
    30f0:	02b55633          	divu	a2,a0,a1
    30f4:	08c32c23          	sw	a2,152(t1)

000030f8 <inst_567>:
    30f8:	00600513          	li	a0,6
    30fc:	00300593          	li	a1,3
    3100:	02b55633          	divu	a2,a0,a1
    3104:	08c32e23          	sw	a2,156(t1)

00003108 <inst_568>:
    3108:	00600513          	li	a0,6
    310c:	555555b7          	lui	a1,0x55555
    3110:	55558593          	addi	a1,a1,1365 # 55555555 <_end+0x5554e851>
    3114:	02b55633          	divu	a2,a0,a1
    3118:	0ac32023          	sw	a2,160(t1)

0000311c <inst_569>:
    311c:	00600513          	li	a0,6
    3120:	aaaab5b7          	lui	a1,0xaaaab
    3124:	aaa58593          	addi	a1,a1,-1366 # aaaaaaaa <_end+0xaaaa3da6>
    3128:	02b55633          	divu	a2,a0,a1
    312c:	0ac32223          	sw	a2,164(t1)

00003130 <inst_570>:
    3130:	00600513          	li	a0,6
    3134:	00500593          	li	a1,5
    3138:	02b55633          	divu	a2,a0,a1
    313c:	0ac32423          	sw	a2,168(t1)

00003140 <inst_571>:
    3140:	00600513          	li	a0,6
    3144:	333335b7          	lui	a1,0x33333
    3148:	33358593          	addi	a1,a1,819 # 33333333 <_end+0x3332c62f>
    314c:	02b55633          	divu	a2,a0,a1
    3150:	0ac32623          	sw	a2,172(t1)

00003154 <inst_572>:
    3154:	00600513          	li	a0,6
    3158:	666665b7          	lui	a1,0x66666
    315c:	66658593          	addi	a1,a1,1638 # 66666666 <_end+0x6665f962>
    3160:	02b55633          	divu	a2,a0,a1
    3164:	0ac32823          	sw	a2,176(t1)

00003168 <inst_573>:
    3168:	00600513          	li	a0,6
    316c:	0000b5b7          	lui	a1,0xb
    3170:	50458593          	addi	a1,a1,1284 # b504 <_end+0x4800>
    3174:	02b55633          	divu	a2,a0,a1
    3178:	0ac32a23          	sw	a2,180(t1)

0000317c <inst_574>:
    317c:	00600513          	li	a0,6
    3180:	00000593          	li	a1,0
    3184:	02b55633          	divu	a2,a0,a1
    3188:	0ac32c23          	sw	a2,184(t1)

0000318c <inst_575>:
    318c:	00600513          	li	a0,6
    3190:	000105b7          	lui	a1,0x10
    3194:	fff58593          	addi	a1,a1,-1 # ffff <_end+0x92fb>
    3198:	02b55633          	divu	a2,a0,a1
    319c:	0ac32e23          	sw	a2,188(t1)

000031a0 <inst_576>:
    31a0:	00600513          	li	a0,6
    31a4:	00200593          	li	a1,2
    31a8:	02b55633          	divu	a2,a0,a1
    31ac:	0cc32023          	sw	a2,192(t1)

000031b0 <inst_577>:
    31b0:	00600513          	li	a0,6
    31b4:	555555b7          	lui	a1,0x55555
    31b8:	55458593          	addi	a1,a1,1364 # 55555554 <_end+0x5554e850>
    31bc:	02b55633          	divu	a2,a0,a1
    31c0:	0cc32223          	sw	a2,196(t1)

000031c4 <inst_578>:
    31c4:	00600513          	li	a0,6
    31c8:	aaaab5b7          	lui	a1,0xaaaab
    31cc:	aa958593          	addi	a1,a1,-1367 # aaaaaaa9 <_end+0xaaaa3da5>
    31d0:	02b55633          	divu	a2,a0,a1
    31d4:	0cc32423          	sw	a2,200(t1)

000031d8 <inst_579>:
    31d8:	00600513          	li	a0,6
    31dc:	00400593          	li	a1,4
    31e0:	02b55633          	divu	a2,a0,a1
    31e4:	0cc32623          	sw	a2,204(t1)

000031e8 <inst_580>:
    31e8:	00600513          	li	a0,6
    31ec:	333335b7          	lui	a1,0x33333
    31f0:	33258593          	addi	a1,a1,818 # 33333332 <_end+0x3332c62e>
    31f4:	02b55633          	divu	a2,a0,a1
    31f8:	0cc32823          	sw	a2,208(t1)

000031fc <inst_581>:
    31fc:	00600513          	li	a0,6
    3200:	666665b7          	lui	a1,0x66666
    3204:	66558593          	addi	a1,a1,1637 # 66666665 <_end+0x6665f961>
    3208:	02b55633          	divu	a2,a0,a1
    320c:	0cc32a23          	sw	a2,212(t1)

00003210 <inst_582>:
    3210:	00600513          	li	a0,6
    3214:	0000b5b7          	lui	a1,0xb
    3218:	50358593          	addi	a1,a1,1283 # b503 <_end+0x47ff>
    321c:	02b55633          	divu	a2,a0,a1
    3220:	0cc32c23          	sw	a2,216(t1)

00003224 <inst_583>:
    3224:	00600513          	li	a0,6
    3228:	000105b7          	lui	a1,0x10
    322c:	ffe58593          	addi	a1,a1,-2 # fffe <_end+0x92fa>
    3230:	02b55633          	divu	a2,a0,a1
    3234:	0cc32e23          	sw	a2,220(t1)

00003238 <inst_584>:
    3238:	00600513          	li	a0,6
    323c:	555555b7          	lui	a1,0x55555
    3240:	55658593          	addi	a1,a1,1366 # 55555556 <_end+0x5554e852>
    3244:	02b55633          	divu	a2,a0,a1
    3248:	0ec32023          	sw	a2,224(t1)

0000324c <inst_585>:
    324c:	00600513          	li	a0,6
    3250:	aaaab5b7          	lui	a1,0xaaaab
    3254:	aab58593          	addi	a1,a1,-1365 # aaaaaaab <_end+0xaaaa3da7>
    3258:	02b55633          	divu	a2,a0,a1
    325c:	0ec32223          	sw	a2,228(t1)

00003260 <inst_586>:
    3260:	00600513          	li	a0,6
    3264:	00600593          	li	a1,6
    3268:	02b55633          	divu	a2,a0,a1
    326c:	0ec32423          	sw	a2,232(t1)

00003270 <inst_587>:
    3270:	00600513          	li	a0,6
    3274:	333335b7          	lui	a1,0x33333
    3278:	33458593          	addi	a1,a1,820 # 33333334 <_end+0x3332c630>
    327c:	02b55633          	divu	a2,a0,a1
    3280:	0ec32623          	sw	a2,236(t1)

00003284 <inst_588>:
    3284:	00600513          	li	a0,6
    3288:	666665b7          	lui	a1,0x66666
    328c:	66758593          	addi	a1,a1,1639 # 66666667 <_end+0x6665f963>
    3290:	02b55633          	divu	a2,a0,a1
    3294:	0ec32823          	sw	a2,240(t1)

00003298 <inst_589>:
    3298:	00600513          	li	a0,6
    329c:	0000b5b7          	lui	a1,0xb
    32a0:	50558593          	addi	a1,a1,1285 # b505 <_end+0x4801>
    32a4:	02b55633          	divu	a2,a0,a1
    32a8:	0ec32a23          	sw	a2,244(t1)

000032ac <inst_590>:
    32ac:	00600513          	li	a0,6
    32b0:	00100593          	li	a1,1
    32b4:	02b55633          	divu	a2,a0,a1
    32b8:	0ec32c23          	sw	a2,248(t1)

000032bc <inst_591>:
    32bc:	00600513          	li	a0,6
    32c0:	000105b7          	lui	a1,0x10
    32c4:	02b55633          	divu	a2,a0,a1
    32c8:	0ec32e23          	sw	a2,252(t1)

000032cc <inst_592>:
    32cc:	33333537          	lui	a0,0x33333
    32d0:	33450513          	addi	a0,a0,820 # 33333334 <_end+0x3332c630>
    32d4:	00300593          	li	a1,3
    32d8:	02b55633          	divu	a2,a0,a1
    32dc:	10c32023          	sw	a2,256(t1)

000032e0 <inst_593>:
    32e0:	33333537          	lui	a0,0x33333
    32e4:	33450513          	addi	a0,a0,820 # 33333334 <_end+0x3332c630>
    32e8:	555555b7          	lui	a1,0x55555
    32ec:	55558593          	addi	a1,a1,1365 # 55555555 <_end+0x5554e851>
    32f0:	02b55633          	divu	a2,a0,a1
    32f4:	10c32223          	sw	a2,260(t1)

000032f8 <inst_594>:
    32f8:	33333537          	lui	a0,0x33333
    32fc:	33450513          	addi	a0,a0,820 # 33333334 <_end+0x3332c630>
    3300:	aaaab5b7          	lui	a1,0xaaaab
    3304:	aaa58593          	addi	a1,a1,-1366 # aaaaaaaa <_end+0xaaaa3da6>
    3308:	02b55633          	divu	a2,a0,a1
    330c:	10c32423          	sw	a2,264(t1)

00003310 <inst_595>:
    3310:	66666537          	lui	a0,0x66666
    3314:	66550513          	addi	a0,a0,1637 # 66666665 <_end+0x6665f961>
    3318:	0000b5b7          	lui	a1,0xb
    331c:	50558593          	addi	a1,a1,1285 # b505 <_end+0x4801>
    3320:	02b55633          	divu	a2,a0,a1
    3324:	10c32623          	sw	a2,268(t1)

00003328 <inst_596>:
    3328:	33333537          	lui	a0,0x33333
    332c:	33450513          	addi	a0,a0,820 # 33333334 <_end+0x3332c630>
    3330:	00500593          	li	a1,5
    3334:	02b55633          	divu	a2,a0,a1
    3338:	10c32823          	sw	a2,272(t1)

0000333c <inst_597>:
    333c:	33333537          	lui	a0,0x33333
    3340:	33450513          	addi	a0,a0,820 # 33333334 <_end+0x3332c630>
    3344:	333335b7          	lui	a1,0x33333
    3348:	33358593          	addi	a1,a1,819 # 33333333 <_end+0x3332c62f>
    334c:	02b55633          	divu	a2,a0,a1
    3350:	10c32a23          	sw	a2,276(t1)

00003354 <inst_598>:
    3354:	33333537          	lui	a0,0x33333
    3358:	33450513          	addi	a0,a0,820 # 33333334 <_end+0x3332c630>
    335c:	666665b7          	lui	a1,0x66666
    3360:	66658593          	addi	a1,a1,1638 # 66666666 <_end+0x6665f962>
    3364:	02b55633          	divu	a2,a0,a1
    3368:	10c32c23          	sw	a2,280(t1)

0000336c <inst_599>:
    336c:	33333537          	lui	a0,0x33333
    3370:	33450513          	addi	a0,a0,820 # 33333334 <_end+0x3332c630>
    3374:	0000b5b7          	lui	a1,0xb
    3378:	50458593          	addi	a1,a1,1284 # b504 <_end+0x4800>
    337c:	02b55633          	divu	a2,a0,a1
    3380:	10c32e23          	sw	a2,284(t1)

00003384 <inst_600>:
    3384:	33333537          	lui	a0,0x33333
    3388:	33450513          	addi	a0,a0,820 # 33333334 <_end+0x3332c630>
    338c:	00000593          	li	a1,0
    3390:	02b55633          	divu	a2,a0,a1
    3394:	12c32023          	sw	a2,288(t1)

00003398 <inst_601>:
    3398:	33333537          	lui	a0,0x33333
    339c:	33450513          	addi	a0,a0,820 # 33333334 <_end+0x3332c630>
    33a0:	000105b7          	lui	a1,0x10
    33a4:	fff58593          	addi	a1,a1,-1 # ffff <_end+0x92fb>
    33a8:	02b55633          	divu	a2,a0,a1
    33ac:	12c32223          	sw	a2,292(t1)

000033b0 <inst_602>:
    33b0:	33333537          	lui	a0,0x33333
    33b4:	33450513          	addi	a0,a0,820 # 33333334 <_end+0x3332c630>
    33b8:	00200593          	li	a1,2
    33bc:	02b55633          	divu	a2,a0,a1
    33c0:	12c32423          	sw	a2,296(t1)

000033c4 <inst_603>:
    33c4:	33333537          	lui	a0,0x33333
    33c8:	33450513          	addi	a0,a0,820 # 33333334 <_end+0x3332c630>
    33cc:	555555b7          	lui	a1,0x55555
    33d0:	55458593          	addi	a1,a1,1364 # 55555554 <_end+0x5554e850>
    33d4:	02b55633          	divu	a2,a0,a1
    33d8:	12c32623          	sw	a2,300(t1)

000033dc <inst_604>:
    33dc:	33333537          	lui	a0,0x33333
    33e0:	33450513          	addi	a0,a0,820 # 33333334 <_end+0x3332c630>
    33e4:	aaaab5b7          	lui	a1,0xaaaab
    33e8:	aa958593          	addi	a1,a1,-1367 # aaaaaaa9 <_end+0xaaaa3da5>
    33ec:	02b55633          	divu	a2,a0,a1
    33f0:	12c32823          	sw	a2,304(t1)

000033f4 <inst_605>:
    33f4:	33333537          	lui	a0,0x33333
    33f8:	33450513          	addi	a0,a0,820 # 33333334 <_end+0x3332c630>
    33fc:	00400593          	li	a1,4
    3400:	02b55633          	divu	a2,a0,a1
    3404:	12c32a23          	sw	a2,308(t1)

00003408 <inst_606>:
    3408:	33333537          	lui	a0,0x33333
    340c:	33450513          	addi	a0,a0,820 # 33333334 <_end+0x3332c630>
    3410:	333335b7          	lui	a1,0x33333
    3414:	33258593          	addi	a1,a1,818 # 33333332 <_end+0x3332c62e>
    3418:	02b55633          	divu	a2,a0,a1
    341c:	12c32c23          	sw	a2,312(t1)

00003420 <inst_607>:
    3420:	33333537          	lui	a0,0x33333
    3424:	33450513          	addi	a0,a0,820 # 33333334 <_end+0x3332c630>
    3428:	666665b7          	lui	a1,0x66666
    342c:	66558593          	addi	a1,a1,1637 # 66666665 <_end+0x6665f961>
    3430:	02b55633          	divu	a2,a0,a1
    3434:	12c32e23          	sw	a2,316(t1)

00003438 <inst_608>:
    3438:	33333537          	lui	a0,0x33333
    343c:	33450513          	addi	a0,a0,820 # 33333334 <_end+0x3332c630>
    3440:	0000b5b7          	lui	a1,0xb
    3444:	50358593          	addi	a1,a1,1283 # b503 <_end+0x47ff>
    3448:	02b55633          	divu	a2,a0,a1
    344c:	14c32023          	sw	a2,320(t1)

00003450 <inst_609>:
    3450:	33333537          	lui	a0,0x33333
    3454:	33450513          	addi	a0,a0,820 # 33333334 <_end+0x3332c630>
    3458:	000105b7          	lui	a1,0x10
    345c:	ffe58593          	addi	a1,a1,-2 # fffe <_end+0x92fa>
    3460:	02b55633          	divu	a2,a0,a1
    3464:	14c32223          	sw	a2,324(t1)

00003468 <inst_610>:
    3468:	33333537          	lui	a0,0x33333
    346c:	33450513          	addi	a0,a0,820 # 33333334 <_end+0x3332c630>
    3470:	555555b7          	lui	a1,0x55555
    3474:	55658593          	addi	a1,a1,1366 # 55555556 <_end+0x5554e852>
    3478:	02b55633          	divu	a2,a0,a1
    347c:	14c32423          	sw	a2,328(t1)

00003480 <inst_611>:
    3480:	33333537          	lui	a0,0x33333
    3484:	33450513          	addi	a0,a0,820 # 33333334 <_end+0x3332c630>
    3488:	aaaab5b7          	lui	a1,0xaaaab
    348c:	aab58593          	addi	a1,a1,-1365 # aaaaaaab <_end+0xaaaa3da7>
    3490:	02b55633          	divu	a2,a0,a1
    3494:	14c32623          	sw	a2,332(t1)

00003498 <inst_612>:
    3498:	33333537          	lui	a0,0x33333
    349c:	33450513          	addi	a0,a0,820 # 33333334 <_end+0x3332c630>
    34a0:	00600593          	li	a1,6
    34a4:	02b55633          	divu	a2,a0,a1
    34a8:	14c32823          	sw	a2,336(t1)

000034ac <inst_613>:
    34ac:	33333537          	lui	a0,0x33333
    34b0:	33450513          	addi	a0,a0,820 # 33333334 <_end+0x3332c630>
    34b4:	333335b7          	lui	a1,0x33333
    34b8:	33458593          	addi	a1,a1,820 # 33333334 <_end+0x3332c630>
    34bc:	02b55633          	divu	a2,a0,a1
    34c0:	14c32a23          	sw	a2,340(t1)

000034c4 <inst_614>:
    34c4:	33333537          	lui	a0,0x33333
    34c8:	33450513          	addi	a0,a0,820 # 33333334 <_end+0x3332c630>
    34cc:	666665b7          	lui	a1,0x66666
    34d0:	66758593          	addi	a1,a1,1639 # 66666667 <_end+0x6665f963>
    34d4:	02b55633          	divu	a2,a0,a1
    34d8:	14c32c23          	sw	a2,344(t1)

000034dc <inst_615>:
    34dc:	33333537          	lui	a0,0x33333
    34e0:	33450513          	addi	a0,a0,820 # 33333334 <_end+0x3332c630>
    34e4:	0000b5b7          	lui	a1,0xb
    34e8:	50558593          	addi	a1,a1,1285 # b505 <_end+0x4801>
    34ec:	02b55633          	divu	a2,a0,a1
    34f0:	14c32e23          	sw	a2,348(t1)

000034f4 <inst_616>:
    34f4:	33333537          	lui	a0,0x33333
    34f8:	33450513          	addi	a0,a0,820 # 33333334 <_end+0x3332c630>
    34fc:	00100593          	li	a1,1
    3500:	02b55633          	divu	a2,a0,a1
    3504:	16c32023          	sw	a2,352(t1)

00003508 <inst_617>:
    3508:	33333537          	lui	a0,0x33333
    350c:	33450513          	addi	a0,a0,820 # 33333334 <_end+0x3332c630>
    3510:	000105b7          	lui	a1,0x10
    3514:	02b55633          	divu	a2,a0,a1
    3518:	16c32223          	sw	a2,356(t1)

0000351c <inst_618>:
    351c:	66666537          	lui	a0,0x66666
    3520:	66750513          	addi	a0,a0,1639 # 66666667 <_end+0x6665f963>
    3524:	00300593          	li	a1,3
    3528:	02b55633          	divu	a2,a0,a1
    352c:	16c32423          	sw	a2,360(t1)

00003530 <inst_619>:
    3530:	66666537          	lui	a0,0x66666
    3534:	66750513          	addi	a0,a0,1639 # 66666667 <_end+0x6665f963>
    3538:	555555b7          	lui	a1,0x55555
    353c:	55558593          	addi	a1,a1,1365 # 55555555 <_end+0x5554e851>
    3540:	02b55633          	divu	a2,a0,a1
    3544:	16c32623          	sw	a2,364(t1)

00003548 <inst_620>:
    3548:	66666537          	lui	a0,0x66666
    354c:	66750513          	addi	a0,a0,1639 # 66666667 <_end+0x6665f963>
    3550:	aaaab5b7          	lui	a1,0xaaaab
    3554:	aaa58593          	addi	a1,a1,-1366 # aaaaaaaa <_end+0xaaaa3da6>
    3558:	02b55633          	divu	a2,a0,a1
    355c:	16c32823          	sw	a2,368(t1)

00003560 <inst_621>:
    3560:	66666537          	lui	a0,0x66666
    3564:	66750513          	addi	a0,a0,1639 # 66666667 <_end+0x6665f963>
    3568:	00500593          	li	a1,5
    356c:	02b55633          	divu	a2,a0,a1
    3570:	16c32a23          	sw	a2,372(t1)

00003574 <inst_622>:
    3574:	66666537          	lui	a0,0x66666
    3578:	66750513          	addi	a0,a0,1639 # 66666667 <_end+0x6665f963>
    357c:	333335b7          	lui	a1,0x33333
    3580:	33358593          	addi	a1,a1,819 # 33333333 <_end+0x3332c62f>
    3584:	02b55633          	divu	a2,a0,a1
    3588:	16c32c23          	sw	a2,376(t1)

0000358c <inst_623>:
    358c:	66666537          	lui	a0,0x66666
    3590:	66750513          	addi	a0,a0,1639 # 66666667 <_end+0x6665f963>
    3594:	666665b7          	lui	a1,0x66666
    3598:	66658593          	addi	a1,a1,1638 # 66666666 <_end+0x6665f962>
    359c:	02b55633          	divu	a2,a0,a1
    35a0:	16c32e23          	sw	a2,380(t1)

000035a4 <inst_624>:
    35a4:	66666537          	lui	a0,0x66666
    35a8:	66750513          	addi	a0,a0,1639 # 66666667 <_end+0x6665f963>
    35ac:	0000b5b7          	lui	a1,0xb
    35b0:	50458593          	addi	a1,a1,1284 # b504 <_end+0x4800>
    35b4:	02b55633          	divu	a2,a0,a1
    35b8:	18c32023          	sw	a2,384(t1)

000035bc <inst_625>:
    35bc:	66666537          	lui	a0,0x66666
    35c0:	66750513          	addi	a0,a0,1639 # 66666667 <_end+0x6665f963>
    35c4:	00000593          	li	a1,0
    35c8:	02b55633          	divu	a2,a0,a1
    35cc:	18c32223          	sw	a2,388(t1)

000035d0 <inst_626>:
    35d0:	66666537          	lui	a0,0x66666
    35d4:	66750513          	addi	a0,a0,1639 # 66666667 <_end+0x6665f963>
    35d8:	000105b7          	lui	a1,0x10
    35dc:	fff58593          	addi	a1,a1,-1 # ffff <_end+0x92fb>
    35e0:	02b55633          	divu	a2,a0,a1
    35e4:	18c32423          	sw	a2,392(t1)

000035e8 <inst_627>:
    35e8:	66666537          	lui	a0,0x66666
    35ec:	66750513          	addi	a0,a0,1639 # 66666667 <_end+0x6665f963>
    35f0:	00200593          	li	a1,2
    35f4:	02b55633          	divu	a2,a0,a1
    35f8:	18c32623          	sw	a2,396(t1)

000035fc <inst_628>:
    35fc:	66666537          	lui	a0,0x66666
    3600:	66750513          	addi	a0,a0,1639 # 66666667 <_end+0x6665f963>
    3604:	555555b7          	lui	a1,0x55555
    3608:	55458593          	addi	a1,a1,1364 # 55555554 <_end+0x5554e850>
    360c:	02b55633          	divu	a2,a0,a1
    3610:	18c32823          	sw	a2,400(t1)

00003614 <inst_629>:
    3614:	66666537          	lui	a0,0x66666
    3618:	66750513          	addi	a0,a0,1639 # 66666667 <_end+0x6665f963>
    361c:	aaaab5b7          	lui	a1,0xaaaab
    3620:	aa958593          	addi	a1,a1,-1367 # aaaaaaa9 <_end+0xaaaa3da5>
    3624:	02b55633          	divu	a2,a0,a1
    3628:	18c32a23          	sw	a2,404(t1)

0000362c <inst_630>:
    362c:	66666537          	lui	a0,0x66666
    3630:	66750513          	addi	a0,a0,1639 # 66666667 <_end+0x6665f963>
    3634:	00400593          	li	a1,4
    3638:	02b55633          	divu	a2,a0,a1
    363c:	18c32c23          	sw	a2,408(t1)

00003640 <inst_631>:
    3640:	66666537          	lui	a0,0x66666
    3644:	66750513          	addi	a0,a0,1639 # 66666667 <_end+0x6665f963>
    3648:	333335b7          	lui	a1,0x33333
    364c:	33258593          	addi	a1,a1,818 # 33333332 <_end+0x3332c62e>
    3650:	02b55633          	divu	a2,a0,a1
    3654:	18c32e23          	sw	a2,412(t1)

00003658 <inst_632>:
    3658:	66666537          	lui	a0,0x66666
    365c:	66750513          	addi	a0,a0,1639 # 66666667 <_end+0x6665f963>
    3660:	666665b7          	lui	a1,0x66666
    3664:	66558593          	addi	a1,a1,1637 # 66666665 <_end+0x6665f961>
    3668:	02b55633          	divu	a2,a0,a1
    366c:	1ac32023          	sw	a2,416(t1)

00003670 <inst_633>:
    3670:	66666537          	lui	a0,0x66666
    3674:	66750513          	addi	a0,a0,1639 # 66666667 <_end+0x6665f963>
    3678:	0000b5b7          	lui	a1,0xb
    367c:	50358593          	addi	a1,a1,1283 # b503 <_end+0x47ff>
    3680:	02b55633          	divu	a2,a0,a1
    3684:	1ac32223          	sw	a2,420(t1)

00003688 <inst_634>:
    3688:	66666537          	lui	a0,0x66666
    368c:	66750513          	addi	a0,a0,1639 # 66666667 <_end+0x6665f963>
    3690:	000105b7          	lui	a1,0x10
    3694:	ffe58593          	addi	a1,a1,-2 # fffe <_end+0x92fa>
    3698:	02b55633          	divu	a2,a0,a1
    369c:	1ac32423          	sw	a2,424(t1)

000036a0 <inst_635>:
    36a0:	66666537          	lui	a0,0x66666
    36a4:	66750513          	addi	a0,a0,1639 # 66666667 <_end+0x6665f963>
    36a8:	555555b7          	lui	a1,0x55555
    36ac:	55658593          	addi	a1,a1,1366 # 55555556 <_end+0x5554e852>
    36b0:	02b55633          	divu	a2,a0,a1
    36b4:	1ac32623          	sw	a2,428(t1)

000036b8 <inst_636>:
    36b8:	66666537          	lui	a0,0x66666
    36bc:	66750513          	addi	a0,a0,1639 # 66666667 <_end+0x6665f963>
    36c0:	aaaab5b7          	lui	a1,0xaaaab
    36c4:	aab58593          	addi	a1,a1,-1365 # aaaaaaab <_end+0xaaaa3da7>
    36c8:	02b55633          	divu	a2,a0,a1
    36cc:	1ac32823          	sw	a2,432(t1)

000036d0 <inst_637>:
    36d0:	66666537          	lui	a0,0x66666
    36d4:	66750513          	addi	a0,a0,1639 # 66666667 <_end+0x6665f963>
    36d8:	00600593          	li	a1,6
    36dc:	02b55633          	divu	a2,a0,a1
    36e0:	1ac32a23          	sw	a2,436(t1)

000036e4 <inst_638>:
    36e4:	66666537          	lui	a0,0x66666
    36e8:	66750513          	addi	a0,a0,1639 # 66666667 <_end+0x6665f963>
    36ec:	333335b7          	lui	a1,0x33333
    36f0:	33458593          	addi	a1,a1,820 # 33333334 <_end+0x3332c630>
    36f4:	02b55633          	divu	a2,a0,a1
    36f8:	1ac32c23          	sw	a2,440(t1)

000036fc <inst_639>:
    36fc:	66666537          	lui	a0,0x66666
    3700:	66750513          	addi	a0,a0,1639 # 66666667 <_end+0x6665f963>
    3704:	666665b7          	lui	a1,0x66666
    3708:	66758593          	addi	a1,a1,1639 # 66666667 <_end+0x6665f963>
    370c:	02b55633          	divu	a2,a0,a1
    3710:	1ac32e23          	sw	a2,444(t1)

00003714 <inst_640>:
    3714:	66666537          	lui	a0,0x66666
    3718:	66750513          	addi	a0,a0,1639 # 66666667 <_end+0x6665f963>
    371c:	0000b5b7          	lui	a1,0xb
    3720:	50558593          	addi	a1,a1,1285 # b505 <_end+0x4801>
    3724:	02b55633          	divu	a2,a0,a1
    3728:	1cc32023          	sw	a2,448(t1)

0000372c <inst_641>:
    372c:	66666537          	lui	a0,0x66666
    3730:	66750513          	addi	a0,a0,1639 # 66666667 <_end+0x6665f963>
    3734:	00100593          	li	a1,1
    3738:	02b55633          	divu	a2,a0,a1
    373c:	1cc32223          	sw	a2,452(t1)

00003740 <inst_642>:
    3740:	66666537          	lui	a0,0x66666
    3744:	66750513          	addi	a0,a0,1639 # 66666667 <_end+0x6665f963>
    3748:	000105b7          	lui	a1,0x10
    374c:	02b55633          	divu	a2,a0,a1
    3750:	1cc32423          	sw	a2,456(t1)

00003754 <inst_643>:
    3754:	0000b537          	lui	a0,0xb
    3758:	50550513          	addi	a0,a0,1285 # b505 <_end+0x4801>
    375c:	00300593          	li	a1,3
    3760:	02b55633          	divu	a2,a0,a1
    3764:	1cc32623          	sw	a2,460(t1)

00003768 <inst_644>:
    3768:	0000b537          	lui	a0,0xb
    376c:	50550513          	addi	a0,a0,1285 # b505 <_end+0x4801>
    3770:	555555b7          	lui	a1,0x55555
    3774:	55558593          	addi	a1,a1,1365 # 55555555 <_end+0x5554e851>
    3778:	02b55633          	divu	a2,a0,a1
    377c:	1cc32823          	sw	a2,464(t1)

00003780 <inst_645>:
    3780:	0000b537          	lui	a0,0xb
    3784:	50550513          	addi	a0,a0,1285 # b505 <_end+0x4801>
    3788:	aaaab5b7          	lui	a1,0xaaaab
    378c:	aaa58593          	addi	a1,a1,-1366 # aaaaaaaa <_end+0xaaaa3da6>
    3790:	02b55633          	divu	a2,a0,a1
    3794:	1cc32a23          	sw	a2,468(t1)

00003798 <inst_646>:
    3798:	0000b537          	lui	a0,0xb
    379c:	50550513          	addi	a0,a0,1285 # b505 <_end+0x4801>
    37a0:	00500593          	li	a1,5
    37a4:	02b55633          	divu	a2,a0,a1
    37a8:	1cc32c23          	sw	a2,472(t1)

000037ac <inst_647>:
    37ac:	0000b537          	lui	a0,0xb
    37b0:	50550513          	addi	a0,a0,1285 # b505 <_end+0x4801>
    37b4:	333335b7          	lui	a1,0x33333
    37b8:	33358593          	addi	a1,a1,819 # 33333333 <_end+0x3332c62f>
    37bc:	02b55633          	divu	a2,a0,a1
    37c0:	1cc32e23          	sw	a2,476(t1)

000037c4 <inst_648>:
    37c4:	0000b537          	lui	a0,0xb
    37c8:	50550513          	addi	a0,a0,1285 # b505 <_end+0x4801>
    37cc:	666665b7          	lui	a1,0x66666
    37d0:	66658593          	addi	a1,a1,1638 # 66666666 <_end+0x6665f962>
    37d4:	02b55633          	divu	a2,a0,a1
    37d8:	1ec32023          	sw	a2,480(t1)

000037dc <inst_649>:
    37dc:	0000b537          	lui	a0,0xb
    37e0:	50550513          	addi	a0,a0,1285 # b505 <_end+0x4801>
    37e4:	0000b5b7          	lui	a1,0xb
    37e8:	50458593          	addi	a1,a1,1284 # b504 <_end+0x4800>
    37ec:	02b55633          	divu	a2,a0,a1
    37f0:	1ec32223          	sw	a2,484(t1)

000037f4 <inst_650>:
    37f4:	0000b537          	lui	a0,0xb
    37f8:	50550513          	addi	a0,a0,1285 # b505 <_end+0x4801>
    37fc:	00000593          	li	a1,0
    3800:	02b55633          	divu	a2,a0,a1
    3804:	1ec32423          	sw	a2,488(t1)

00003808 <inst_651>:
    3808:	0000b537          	lui	a0,0xb
    380c:	50550513          	addi	a0,a0,1285 # b505 <_end+0x4801>
    3810:	000105b7          	lui	a1,0x10
    3814:	fff58593          	addi	a1,a1,-1 # ffff <_end+0x92fb>
    3818:	02b55633          	divu	a2,a0,a1
    381c:	1ec32623          	sw	a2,492(t1)

00003820 <inst_652>:
    3820:	0000b537          	lui	a0,0xb
    3824:	50550513          	addi	a0,a0,1285 # b505 <_end+0x4801>
    3828:	00200593          	li	a1,2
    382c:	02b55633          	divu	a2,a0,a1
    3830:	1ec32823          	sw	a2,496(t1)

00003834 <inst_653>:
    3834:	0000b537          	lui	a0,0xb
    3838:	50550513          	addi	a0,a0,1285 # b505 <_end+0x4801>
    383c:	555555b7          	lui	a1,0x55555
    3840:	55458593          	addi	a1,a1,1364 # 55555554 <_end+0x5554e850>
    3844:	02b55633          	divu	a2,a0,a1
    3848:	1ec32a23          	sw	a2,500(t1)

0000384c <inst_654>:
    384c:	0000b537          	lui	a0,0xb
    3850:	50550513          	addi	a0,a0,1285 # b505 <_end+0x4801>
    3854:	aaaab5b7          	lui	a1,0xaaaab
    3858:	aa958593          	addi	a1,a1,-1367 # aaaaaaa9 <_end+0xaaaa3da5>
    385c:	02b55633          	divu	a2,a0,a1
    3860:	1ec32c23          	sw	a2,504(t1)

00003864 <inst_655>:
    3864:	0000b537          	lui	a0,0xb
    3868:	50550513          	addi	a0,a0,1285 # b505 <_end+0x4801>
    386c:	00400593          	li	a1,4
    3870:	02b55633          	divu	a2,a0,a1
    3874:	1ec32e23          	sw	a2,508(t1)

00003878 <inst_656>:
    3878:	0000b537          	lui	a0,0xb
    387c:	50550513          	addi	a0,a0,1285 # b505 <_end+0x4801>
    3880:	333335b7          	lui	a1,0x33333
    3884:	33258593          	addi	a1,a1,818 # 33333332 <_end+0x3332c62e>
    3888:	02b55633          	divu	a2,a0,a1
    388c:	20c32023          	sw	a2,512(t1)

00003890 <inst_657>:
    3890:	0000b537          	lui	a0,0xb
    3894:	50550513          	addi	a0,a0,1285 # b505 <_end+0x4801>
    3898:	666665b7          	lui	a1,0x66666
    389c:	66558593          	addi	a1,a1,1637 # 66666665 <_end+0x6665f961>
    38a0:	02b55633          	divu	a2,a0,a1
    38a4:	20c32223          	sw	a2,516(t1)

000038a8 <inst_658>:
    38a8:	0000b537          	lui	a0,0xb
    38ac:	50550513          	addi	a0,a0,1285 # b505 <_end+0x4801>
    38b0:	0000b5b7          	lui	a1,0xb
    38b4:	50358593          	addi	a1,a1,1283 # b503 <_end+0x47ff>
    38b8:	02b55633          	divu	a2,a0,a1
    38bc:	20c32423          	sw	a2,520(t1)

000038c0 <inst_659>:
    38c0:	0000b537          	lui	a0,0xb
    38c4:	50550513          	addi	a0,a0,1285 # b505 <_end+0x4801>
    38c8:	000105b7          	lui	a1,0x10
    38cc:	ffe58593          	addi	a1,a1,-2 # fffe <_end+0x92fa>
    38d0:	02b55633          	divu	a2,a0,a1
    38d4:	20c32623          	sw	a2,524(t1)

000038d8 <inst_660>:
    38d8:	0000b537          	lui	a0,0xb
    38dc:	50550513          	addi	a0,a0,1285 # b505 <_end+0x4801>
    38e0:	555555b7          	lui	a1,0x55555
    38e4:	55658593          	addi	a1,a1,1366 # 55555556 <_end+0x5554e852>
    38e8:	02b55633          	divu	a2,a0,a1
    38ec:	20c32823          	sw	a2,528(t1)

000038f0 <inst_661>:
    38f0:	0000b537          	lui	a0,0xb
    38f4:	50550513          	addi	a0,a0,1285 # b505 <_end+0x4801>
    38f8:	aaaab5b7          	lui	a1,0xaaaab
    38fc:	aab58593          	addi	a1,a1,-1365 # aaaaaaab <_end+0xaaaa3da7>
    3900:	02b55633          	divu	a2,a0,a1
    3904:	20c32a23          	sw	a2,532(t1)

00003908 <inst_662>:
    3908:	0000b537          	lui	a0,0xb
    390c:	50550513          	addi	a0,a0,1285 # b505 <_end+0x4801>
    3910:	00600593          	li	a1,6
    3914:	02b55633          	divu	a2,a0,a1
    3918:	20c32c23          	sw	a2,536(t1)

0000391c <inst_663>:
    391c:	0000b537          	lui	a0,0xb
    3920:	50550513          	addi	a0,a0,1285 # b505 <_end+0x4801>
    3924:	333335b7          	lui	a1,0x33333
    3928:	33458593          	addi	a1,a1,820 # 33333334 <_end+0x3332c630>
    392c:	02b55633          	divu	a2,a0,a1
    3930:	20c32e23          	sw	a2,540(t1)

00003934 <inst_664>:
    3934:	0000b537          	lui	a0,0xb
    3938:	50550513          	addi	a0,a0,1285 # b505 <_end+0x4801>
    393c:	666665b7          	lui	a1,0x66666
    3940:	66758593          	addi	a1,a1,1639 # 66666667 <_end+0x6665f963>
    3944:	02b55633          	divu	a2,a0,a1
    3948:	22c32023          	sw	a2,544(t1)

0000394c <inst_665>:
    394c:	0000b537          	lui	a0,0xb
    3950:	50550513          	addi	a0,a0,1285 # b505 <_end+0x4801>
    3954:	0000b5b7          	lui	a1,0xb
    3958:	50558593          	addi	a1,a1,1285 # b505 <_end+0x4801>
    395c:	02b55633          	divu	a2,a0,a1
    3960:	22c32223          	sw	a2,548(t1)

00003964 <inst_666>:
    3964:	0000b537          	lui	a0,0xb
    3968:	50550513          	addi	a0,a0,1285 # b505 <_end+0x4801>
    396c:	00100593          	li	a1,1
    3970:	02b55633          	divu	a2,a0,a1
    3974:	22c32423          	sw	a2,552(t1)

00003978 <inst_667>:
    3978:	0000b537          	lui	a0,0xb
    397c:	50550513          	addi	a0,a0,1285 # b505 <_end+0x4801>
    3980:	000105b7          	lui	a1,0x10
    3984:	02b55633          	divu	a2,a0,a1
    3988:	22c32623          	sw	a2,556(t1)

0000398c <inst_668>:
    398c:	00100513          	li	a0,1
    3990:	00300593          	li	a1,3
    3994:	02b55633          	divu	a2,a0,a1
    3998:	22c32823          	sw	a2,560(t1)

0000399c <inst_669>:
    399c:	00100513          	li	a0,1
    39a0:	555555b7          	lui	a1,0x55555
    39a4:	55558593          	addi	a1,a1,1365 # 55555555 <_end+0x5554e851>
    39a8:	02b55633          	divu	a2,a0,a1
    39ac:	22c32a23          	sw	a2,564(t1)

000039b0 <inst_670>:
    39b0:	00100513          	li	a0,1
    39b4:	aaaab5b7          	lui	a1,0xaaaab
    39b8:	aaa58593          	addi	a1,a1,-1366 # aaaaaaaa <_end+0xaaaa3da6>
    39bc:	02b55633          	divu	a2,a0,a1
    39c0:	22c32c23          	sw	a2,568(t1)

000039c4 <inst_671>:
    39c4:	00100513          	li	a0,1
    39c8:	00500593          	li	a1,5
    39cc:	02b55633          	divu	a2,a0,a1
    39d0:	22c32e23          	sw	a2,572(t1)

000039d4 <inst_672>:
    39d4:	00100513          	li	a0,1
    39d8:	333335b7          	lui	a1,0x33333
    39dc:	33358593          	addi	a1,a1,819 # 33333333 <_end+0x3332c62f>
    39e0:	02b55633          	divu	a2,a0,a1
    39e4:	24c32023          	sw	a2,576(t1)

000039e8 <inst_673>:
    39e8:	00100513          	li	a0,1
    39ec:	666665b7          	lui	a1,0x66666
    39f0:	66658593          	addi	a1,a1,1638 # 66666666 <_end+0x6665f962>
    39f4:	02b55633          	divu	a2,a0,a1
    39f8:	24c32223          	sw	a2,580(t1)

000039fc <inst_674>:
    39fc:	00100513          	li	a0,1
    3a00:	0000b5b7          	lui	a1,0xb
    3a04:	50458593          	addi	a1,a1,1284 # b504 <_end+0x4800>
    3a08:	02b55633          	divu	a2,a0,a1
    3a0c:	24c32423          	sw	a2,584(t1)

00003a10 <inst_675>:
    3a10:	00100513          	li	a0,1
    3a14:	00000593          	li	a1,0
    3a18:	02b55633          	divu	a2,a0,a1
    3a1c:	24c32623          	sw	a2,588(t1)

00003a20 <inst_676>:
    3a20:	00100513          	li	a0,1
    3a24:	000105b7          	lui	a1,0x10
    3a28:	fff58593          	addi	a1,a1,-1 # ffff <_end+0x92fb>
    3a2c:	02b55633          	divu	a2,a0,a1
    3a30:	24c32823          	sw	a2,592(t1)

00003a34 <inst_677>:
    3a34:	00100513          	li	a0,1
    3a38:	00200593          	li	a1,2
    3a3c:	02b55633          	divu	a2,a0,a1
    3a40:	24c32a23          	sw	a2,596(t1)

00003a44 <inst_678>:
    3a44:	00100513          	li	a0,1
    3a48:	555555b7          	lui	a1,0x55555
    3a4c:	55458593          	addi	a1,a1,1364 # 55555554 <_end+0x5554e850>
    3a50:	02b55633          	divu	a2,a0,a1
    3a54:	24c32c23          	sw	a2,600(t1)

00003a58 <inst_679>:
    3a58:	00100513          	li	a0,1
    3a5c:	aaaab5b7          	lui	a1,0xaaaab
    3a60:	aa958593          	addi	a1,a1,-1367 # aaaaaaa9 <_end+0xaaaa3da5>
    3a64:	02b55633          	divu	a2,a0,a1
    3a68:	24c32e23          	sw	a2,604(t1)

00003a6c <inst_680>:
    3a6c:	00100513          	li	a0,1
    3a70:	00400593          	li	a1,4
    3a74:	02b55633          	divu	a2,a0,a1
    3a78:	26c32023          	sw	a2,608(t1)

00003a7c <inst_681>:
    3a7c:	00100513          	li	a0,1
    3a80:	333335b7          	lui	a1,0x33333
    3a84:	33258593          	addi	a1,a1,818 # 33333332 <_end+0x3332c62e>
    3a88:	02b55633          	divu	a2,a0,a1
    3a8c:	26c32223          	sw	a2,612(t1)

00003a90 <inst_682>:
    3a90:	00100513          	li	a0,1
    3a94:	666665b7          	lui	a1,0x66666
    3a98:	66558593          	addi	a1,a1,1637 # 66666665 <_end+0x6665f961>
    3a9c:	02b55633          	divu	a2,a0,a1
    3aa0:	26c32423          	sw	a2,616(t1)

00003aa4 <inst_683>:
    3aa4:	00100513          	li	a0,1
    3aa8:	000105b7          	lui	a1,0x10
    3aac:	ffe58593          	addi	a1,a1,-2 # fffe <_end+0x92fa>
    3ab0:	02b55633          	divu	a2,a0,a1
    3ab4:	26c32623          	sw	a2,620(t1)

00003ab8 <inst_684>:
    3ab8:	00100513          	li	a0,1
    3abc:	555555b7          	lui	a1,0x55555
    3ac0:	55658593          	addi	a1,a1,1366 # 55555556 <_end+0x5554e852>
    3ac4:	02b55633          	divu	a2,a0,a1
    3ac8:	26c32823          	sw	a2,624(t1)

00003acc <inst_685>:
    3acc:	00100513          	li	a0,1
    3ad0:	aaaab5b7          	lui	a1,0xaaaab
    3ad4:	aab58593          	addi	a1,a1,-1365 # aaaaaaab <_end+0xaaaa3da7>
    3ad8:	02b55633          	divu	a2,a0,a1
    3adc:	26c32a23          	sw	a2,628(t1)

00003ae0 <inst_686>:
    3ae0:	00100513          	li	a0,1
    3ae4:	00600593          	li	a1,6
    3ae8:	02b55633          	divu	a2,a0,a1
    3aec:	26c32c23          	sw	a2,632(t1)

00003af0 <inst_687>:
    3af0:	00100513          	li	a0,1
    3af4:	333335b7          	lui	a1,0x33333
    3af8:	33458593          	addi	a1,a1,820 # 33333334 <_end+0x3332c630>
    3afc:	02b55633          	divu	a2,a0,a1
    3b00:	26c32e23          	sw	a2,636(t1)

00003b04 <inst_688>:
    3b04:	00100513          	li	a0,1
    3b08:	666665b7          	lui	a1,0x66666
    3b0c:	66758593          	addi	a1,a1,1639 # 66666667 <_end+0x6665f963>
    3b10:	02b55633          	divu	a2,a0,a1
    3b14:	28c32023          	sw	a2,640(t1)

00003b18 <inst_689>:
    3b18:	00100513          	li	a0,1
    3b1c:	0000b5b7          	lui	a1,0xb
    3b20:	50558593          	addi	a1,a1,1285 # b505 <_end+0x4801>
    3b24:	02b55633          	divu	a2,a0,a1
    3b28:	28c32223          	sw	a2,644(t1)

00003b2c <inst_690>:
    3b2c:	00100513          	li	a0,1
    3b30:	00100593          	li	a1,1
    3b34:	02b55633          	divu	a2,a0,a1
    3b38:	28c32423          	sw	a2,648(t1)

00003b3c <inst_691>:
    3b3c:	00100513          	li	a0,1
    3b40:	000105b7          	lui	a1,0x10
    3b44:	02b55633          	divu	a2,a0,a1
    3b48:	28c32623          	sw	a2,652(t1)

00003b4c <inst_692>:
    3b4c:	00010537          	lui	a0,0x10
    3b50:	00300593          	li	a1,3
    3b54:	02b55633          	divu	a2,a0,a1
    3b58:	28c32823          	sw	a2,656(t1)

00003b5c <inst_693>:
    3b5c:	00010537          	lui	a0,0x10
    3b60:	555555b7          	lui	a1,0x55555
    3b64:	55558593          	addi	a1,a1,1365 # 55555555 <_end+0x5554e851>
    3b68:	02b55633          	divu	a2,a0,a1
    3b6c:	28c32a23          	sw	a2,660(t1)

00003b70 <inst_694>:
    3b70:	00010537          	lui	a0,0x10
    3b74:	aaaab5b7          	lui	a1,0xaaaab
    3b78:	aaa58593          	addi	a1,a1,-1366 # aaaaaaaa <_end+0xaaaa3da6>
    3b7c:	02b55633          	divu	a2,a0,a1
    3b80:	28c32c23          	sw	a2,664(t1)

00003b84 <inst_695>:
    3b84:	00010537          	lui	a0,0x10
    3b88:	00500593          	li	a1,5
    3b8c:	02b55633          	divu	a2,a0,a1
    3b90:	28c32e23          	sw	a2,668(t1)

00003b94 <inst_696>:
    3b94:	00010537          	lui	a0,0x10
    3b98:	333335b7          	lui	a1,0x33333
    3b9c:	33358593          	addi	a1,a1,819 # 33333333 <_end+0x3332c62f>
    3ba0:	02b55633          	divu	a2,a0,a1
    3ba4:	2ac32023          	sw	a2,672(t1)

00003ba8 <inst_697>:
    3ba8:	00010537          	lui	a0,0x10
    3bac:	666665b7          	lui	a1,0x66666
    3bb0:	66658593          	addi	a1,a1,1638 # 66666666 <_end+0x6665f962>
    3bb4:	02b55633          	divu	a2,a0,a1
    3bb8:	2ac32223          	sw	a2,676(t1)

00003bbc <inst_698>:
    3bbc:	00010537          	lui	a0,0x10
    3bc0:	0000b5b7          	lui	a1,0xb
    3bc4:	50458593          	addi	a1,a1,1284 # b504 <_end+0x4800>
    3bc8:	02b55633          	divu	a2,a0,a1
    3bcc:	2ac32423          	sw	a2,680(t1)

00003bd0 <inst_699>:
    3bd0:	00010537          	lui	a0,0x10
    3bd4:	00000593          	li	a1,0
    3bd8:	02b55633          	divu	a2,a0,a1
    3bdc:	2ac32623          	sw	a2,684(t1)

00003be0 <inst_700>:
    3be0:	00010537          	lui	a0,0x10
    3be4:	000105b7          	lui	a1,0x10
    3be8:	fff58593          	addi	a1,a1,-1 # ffff <_end+0x92fb>
    3bec:	02b55633          	divu	a2,a0,a1
    3bf0:	2ac32823          	sw	a2,688(t1)

00003bf4 <inst_701>:
    3bf4:	00010537          	lui	a0,0x10
    3bf8:	00200593          	li	a1,2
    3bfc:	02b55633          	divu	a2,a0,a1
    3c00:	2ac32a23          	sw	a2,692(t1)

00003c04 <inst_702>:
    3c04:	00010537          	lui	a0,0x10
    3c08:	555555b7          	lui	a1,0x55555
    3c0c:	55458593          	addi	a1,a1,1364 # 55555554 <_end+0x5554e850>
    3c10:	02b55633          	divu	a2,a0,a1
    3c14:	2ac32c23          	sw	a2,696(t1)

00003c18 <inst_703>:
    3c18:	00010537          	lui	a0,0x10
    3c1c:	aaaab5b7          	lui	a1,0xaaaab
    3c20:	aa958593          	addi	a1,a1,-1367 # aaaaaaa9 <_end+0xaaaa3da5>
    3c24:	02b55633          	divu	a2,a0,a1
    3c28:	2ac32e23          	sw	a2,700(t1)

00003c2c <inst_704>:
    3c2c:	00010537          	lui	a0,0x10
    3c30:	00400593          	li	a1,4
    3c34:	02b55633          	divu	a2,a0,a1
    3c38:	2cc32023          	sw	a2,704(t1)

00003c3c <inst_705>:
    3c3c:	00010537          	lui	a0,0x10
    3c40:	333335b7          	lui	a1,0x33333
    3c44:	33258593          	addi	a1,a1,818 # 33333332 <_end+0x3332c62e>
    3c48:	02b55633          	divu	a2,a0,a1
    3c4c:	2cc32223          	sw	a2,708(t1)

00003c50 <inst_706>:
    3c50:	00010537          	lui	a0,0x10
    3c54:	666665b7          	lui	a1,0x66666
    3c58:	66558593          	addi	a1,a1,1637 # 66666665 <_end+0x6665f961>
    3c5c:	02b55633          	divu	a2,a0,a1
    3c60:	2cc32423          	sw	a2,712(t1)

00003c64 <inst_707>:
    3c64:	00010537          	lui	a0,0x10
    3c68:	0000b5b7          	lui	a1,0xb
    3c6c:	50358593          	addi	a1,a1,1283 # b503 <_end+0x47ff>
    3c70:	02b55633          	divu	a2,a0,a1
    3c74:	2cc32623          	sw	a2,716(t1)

00003c78 <inst_708>:
    3c78:	00010537          	lui	a0,0x10
    3c7c:	000105b7          	lui	a1,0x10
    3c80:	ffe58593          	addi	a1,a1,-2 # fffe <_end+0x92fa>
    3c84:	02b55633          	divu	a2,a0,a1
    3c88:	2cc32823          	sw	a2,720(t1)

00003c8c <inst_709>:
    3c8c:	00010537          	lui	a0,0x10
    3c90:	555555b7          	lui	a1,0x55555
    3c94:	55658593          	addi	a1,a1,1366 # 55555556 <_end+0x5554e852>
    3c98:	02b55633          	divu	a2,a0,a1
    3c9c:	2cc32a23          	sw	a2,724(t1)

00003ca0 <inst_710>:
    3ca0:	00010537          	lui	a0,0x10
    3ca4:	aaaab5b7          	lui	a1,0xaaaab
    3ca8:	aab58593          	addi	a1,a1,-1365 # aaaaaaab <_end+0xaaaa3da7>
    3cac:	02b55633          	divu	a2,a0,a1
    3cb0:	2cc32c23          	sw	a2,728(t1)

00003cb4 <inst_711>:
    3cb4:	00010537          	lui	a0,0x10
    3cb8:	00600593          	li	a1,6
    3cbc:	02b55633          	divu	a2,a0,a1
    3cc0:	2cc32e23          	sw	a2,732(t1)

00003cc4 <inst_712>:
    3cc4:	00010537          	lui	a0,0x10
    3cc8:	333335b7          	lui	a1,0x33333
    3ccc:	33458593          	addi	a1,a1,820 # 33333334 <_end+0x3332c630>
    3cd0:	02b55633          	divu	a2,a0,a1
    3cd4:	2ec32023          	sw	a2,736(t1)

00003cd8 <inst_713>:
    3cd8:	00010537          	lui	a0,0x10
    3cdc:	666665b7          	lui	a1,0x66666
    3ce0:	66758593          	addi	a1,a1,1639 # 66666667 <_end+0x6665f963>
    3ce4:	02b55633          	divu	a2,a0,a1
    3ce8:	2ec32223          	sw	a2,740(t1)

00003cec <inst_714>:
    3cec:	00010537          	lui	a0,0x10
    3cf0:	0000b5b7          	lui	a1,0xb
    3cf4:	50558593          	addi	a1,a1,1285 # b505 <_end+0x4801>
    3cf8:	02b55633          	divu	a2,a0,a1
    3cfc:	2ec32423          	sw	a2,744(t1)

00003d00 <inst_715>:
    3d00:	00010537          	lui	a0,0x10
    3d04:	00100593          	li	a1,1
    3d08:	02b55633          	divu	a2,a0,a1
    3d0c:	2ec32623          	sw	a2,748(t1)

00003d10 <inst_716>:
    3d10:	66666537          	lui	a0,0x66666
    3d14:	66550513          	addi	a0,a0,1637 # 66666665 <_end+0x6665f961>
    3d18:	aaaab5b7          	lui	a1,0xaaaab
    3d1c:	aab58593          	addi	a1,a1,-1365 # aaaaaaab <_end+0xaaaa3da7>
    3d20:	02b55633          	divu	a2,a0,a1
    3d24:	2ec32823          	sw	a2,752(t1)

00003d28 <inst_717>:
    3d28:	00010537          	lui	a0,0x10
    3d2c:	000105b7          	lui	a1,0x10
    3d30:	02b55633          	divu	a2,a0,a1
    3d34:	2ec32a23          	sw	a2,756(t1)

00003d38 <inst_718>:
    3d38:	66666537          	lui	a0,0x66666
    3d3c:	66550513          	addi	a0,a0,1637 # 66666665 <_end+0x6665f961>
    3d40:	00600593          	li	a1,6
    3d44:	02b55633          	divu	a2,a0,a1
    3d48:	2ec32c23          	sw	a2,760(t1)

00003d4c <inst_719>:
    3d4c:	66666537          	lui	a0,0x66666
    3d50:	66550513          	addi	a0,a0,1637 # 66666665 <_end+0x6665f961>
    3d54:	333335b7          	lui	a1,0x33333
    3d58:	33458593          	addi	a1,a1,820 # 33333334 <_end+0x3332c630>
    3d5c:	02b55633          	divu	a2,a0,a1
    3d60:	2ec32e23          	sw	a2,764(t1)

00003d64 <inst_720>:
    3d64:	66666537          	lui	a0,0x66666
    3d68:	66550513          	addi	a0,a0,1637 # 66666665 <_end+0x6665f961>
    3d6c:	666665b7          	lui	a1,0x66666
    3d70:	66758593          	addi	a1,a1,1639 # 66666667 <_end+0x6665f963>
    3d74:	02b55633          	divu	a2,a0,a1
    3d78:	30c32023          	sw	a2,768(t1)

00003d7c <inst_721>:
    3d7c:	00010537          	lui	a0,0x10
    3d80:	ffe50513          	addi	a0,a0,-2 # fffe <_end+0x92fa>
    3d84:	000105b7          	lui	a1,0x10
    3d88:	ffe58593          	addi	a1,a1,-2 # fffe <_end+0x92fa>
    3d8c:	02b55633          	divu	a2,a0,a1
    3d90:	30c32223          	sw	a2,772(t1)

00003d94 <inst_722>:
    3d94:	00100513          	li	a0,1
    3d98:	0000b5b7          	lui	a1,0xb
    3d9c:	50358593          	addi	a1,a1,1283 # b503 <_end+0x47ff>
    3da0:	02b55633          	divu	a2,a0,a1
    3da4:	30c32423          	sw	a2,776(t1)

00003da8 <inst_723>:
    3da8:	fc000537          	lui	a0,0xfc000
    3dac:	fff50513          	addi	a0,a0,-1 # fbffffff <_end+0xfbff92fb>
    3db0:	000405b7          	lui	a1,0x40
    3db4:	02b55633          	divu	a2,a0,a1
    3db8:	30c32623          	sw	a2,780(t1)

00003dbc <inst_724>:
    3dbc:	ffe00537          	lui	a0,0xffe00
    3dc0:	fff50513          	addi	a0,a0,-1 # ffdfffff <_end+0xffdf92fb>
    3dc4:	008005b7          	lui	a1,0x800
    3dc8:	02b55633          	divu	a2,a0,a1
    3dcc:	30c32823          	sw	a2,784(t1)

00003dd0 <halt>:
    3dd0:	0000006f          	j	3dd0 <halt>
    3dd4:	00000013          	nop
    3dd8:	00000013          	nop
    3ddc:	00000013          	nop

00003de0 <rvtest_code_end>:
    3de0:	0000006f          	j	3de0 <rvtest_code_end>

Disassembly of section .text:

00003de4 <FN_WriteStr>:
    3de4:	00008067          	ret

00003de8 <FN_WriteNmbr>:
    3de8:	00008067          	ret

Disassembly of section .tohost:

00003e00 <tohost>:
    3e00:	0000                	.insn	2, 0x0000
    3e02:	0000                	.insn	2, 0x0000
    3e04:	0000                	.insn	2, 0x0000
    3e06:	0000                	.insn	2, 0x0000
    3e08:	0000                	.insn	2, 0x0000
    3e0a:	0000                	.insn	2, 0x0000
    3e0c:	0000                	.insn	2, 0x0000
    3e0e:	0000                	.insn	2, 0x0000
    3e10:	0000                	.insn	2, 0x0000
    3e12:	0000                	.insn	2, 0x0000
    3e14:	0000                	.insn	2, 0x0000
    3e16:	0000                	.insn	2, 0x0000
    3e18:	0000                	.insn	2, 0x0000
    3e1a:	0000                	.insn	2, 0x0000
    3e1c:	0000                	.insn	2, 0x0000
    3e1e:	0000                	.insn	2, 0x0000
    3e20:	0000                	.insn	2, 0x0000
    3e22:	0000                	.insn	2, 0x0000
    3e24:	0000                	.insn	2, 0x0000
    3e26:	0000                	.insn	2, 0x0000
    3e28:	0000                	.insn	2, 0x0000
    3e2a:	0000                	.insn	2, 0x0000
    3e2c:	0000                	.insn	2, 0x0000
    3e2e:	0000                	.insn	2, 0x0000
    3e30:	0000                	.insn	2, 0x0000
    3e32:	0000                	.insn	2, 0x0000
    3e34:	0000                	.insn	2, 0x0000
    3e36:	0000                	.insn	2, 0x0000
    3e38:	0000                	.insn	2, 0x0000
    3e3a:	0000                	.insn	2, 0x0000
    3e3c:	0000                	.insn	2, 0x0000
    3e3e:	0000                	.insn	2, 0x0000
    3e40:	0000                	.insn	2, 0x0000
    3e42:	0000                	.insn	2, 0x0000
    3e44:	0000                	.insn	2, 0x0000
    3e46:	0000                	.insn	2, 0x0000
    3e48:	0000                	.insn	2, 0x0000
    3e4a:	0000                	.insn	2, 0x0000
    3e4c:	0000                	.insn	2, 0x0000
    3e4e:	0000                	.insn	2, 0x0000
    3e50:	0000                	.insn	2, 0x0000
    3e52:	0000                	.insn	2, 0x0000
    3e54:	0000                	.insn	2, 0x0000
    3e56:	0000                	.insn	2, 0x0000
    3e58:	0000                	.insn	2, 0x0000
    3e5a:	0000                	.insn	2, 0x0000
    3e5c:	0000                	.insn	2, 0x0000
    3e5e:	0000                	.insn	2, 0x0000
    3e60:	0000                	.insn	2, 0x0000
    3e62:	0000                	.insn	2, 0x0000
    3e64:	0000                	.insn	2, 0x0000
    3e66:	0000                	.insn	2, 0x0000
    3e68:	0000                	.insn	2, 0x0000
    3e6a:	0000                	.insn	2, 0x0000
    3e6c:	0000                	.insn	2, 0x0000
    3e6e:	0000                	.insn	2, 0x0000
    3e70:	0000                	.insn	2, 0x0000
    3e72:	0000                	.insn	2, 0x0000
    3e74:	0000                	.insn	2, 0x0000
    3e76:	0000                	.insn	2, 0x0000
    3e78:	0000                	.insn	2, 0x0000
    3e7a:	0000                	.insn	2, 0x0000
    3e7c:	0000                	.insn	2, 0x0000
    3e7e:	0000                	.insn	2, 0x0000
    3e80:	0000                	.insn	2, 0x0000
    3e82:	0000                	.insn	2, 0x0000
    3e84:	0000                	.insn	2, 0x0000
    3e86:	0000                	.insn	2, 0x0000
    3e88:	0000                	.insn	2, 0x0000
    3e8a:	0000                	.insn	2, 0x0000
    3e8c:	0000                	.insn	2, 0x0000
    3e8e:	0000                	.insn	2, 0x0000
    3e90:	0000                	.insn	2, 0x0000
    3e92:	0000                	.insn	2, 0x0000
    3e94:	0000                	.insn	2, 0x0000
    3e96:	0000                	.insn	2, 0x0000
    3e98:	0000                	.insn	2, 0x0000
    3e9a:	0000                	.insn	2, 0x0000
    3e9c:	0000                	.insn	2, 0x0000
    3e9e:	0000                	.insn	2, 0x0000
    3ea0:	0000                	.insn	2, 0x0000
    3ea2:	0000                	.insn	2, 0x0000
    3ea4:	0000                	.insn	2, 0x0000
    3ea6:	0000                	.insn	2, 0x0000
    3ea8:	0000                	.insn	2, 0x0000
    3eaa:	0000                	.insn	2, 0x0000
    3eac:	0000                	.insn	2, 0x0000
    3eae:	0000                	.insn	2, 0x0000
    3eb0:	0000                	.insn	2, 0x0000
    3eb2:	0000                	.insn	2, 0x0000
    3eb4:	0000                	.insn	2, 0x0000
    3eb6:	0000                	.insn	2, 0x0000
    3eb8:	0000                	.insn	2, 0x0000
    3eba:	0000                	.insn	2, 0x0000
    3ebc:	0000                	.insn	2, 0x0000
    3ebe:	0000                	.insn	2, 0x0000
    3ec0:	0000                	.insn	2, 0x0000
    3ec2:	0000                	.insn	2, 0x0000
    3ec4:	0000                	.insn	2, 0x0000
    3ec6:	0000                	.insn	2, 0x0000
    3ec8:	0000                	.insn	2, 0x0000
    3eca:	0000                	.insn	2, 0x0000
    3ecc:	0000                	.insn	2, 0x0000
    3ece:	0000                	.insn	2, 0x0000
    3ed0:	0000                	.insn	2, 0x0000
    3ed2:	0000                	.insn	2, 0x0000
    3ed4:	0000                	.insn	2, 0x0000
    3ed6:	0000                	.insn	2, 0x0000
    3ed8:	0000                	.insn	2, 0x0000
    3eda:	0000                	.insn	2, 0x0000
    3edc:	0000                	.insn	2, 0x0000
    3ede:	0000                	.insn	2, 0x0000
    3ee0:	0000                	.insn	2, 0x0000
    3ee2:	0000                	.insn	2, 0x0000
    3ee4:	0000                	.insn	2, 0x0000
    3ee6:	0000                	.insn	2, 0x0000
    3ee8:	0000                	.insn	2, 0x0000
    3eea:	0000                	.insn	2, 0x0000
    3eec:	0000                	.insn	2, 0x0000
    3eee:	0000                	.insn	2, 0x0000
    3ef0:	0000                	.insn	2, 0x0000
    3ef2:	0000                	.insn	2, 0x0000
    3ef4:	0000                	.insn	2, 0x0000
    3ef6:	0000                	.insn	2, 0x0000
    3ef8:	0000                	.insn	2, 0x0000
    3efa:	0000                	.insn	2, 0x0000
    3efc:	0000                	.insn	2, 0x0000
    3efe:	0000                	.insn	2, 0x0000

00003f00 <fromhost>:
    3f00:	0000                	.insn	2, 0x0000
    3f02:	0000                	.insn	2, 0x0000
    3f04:	0000                	.insn	2, 0x0000
    3f06:	0000                	.insn	2, 0x0000

Disassembly of section .io_buf:

00006000 <begin_signature>:
    6000:	deadbeef          	jal	t4,fffe15ea <_end+0xfffda8e6>
    6004:	deadbeef          	jal	t4,fffe15ee <_end+0xfffda8ea>
    6008:	deadbeef          	jal	t4,fffe15f2 <_end+0xfffda8ee>
    600c:	deadbeef          	jal	t4,fffe15f6 <_end+0xfffda8f2>
    6010:	deadbeef          	jal	t4,fffe15fa <_end+0xfffda8f6>
    6014:	deadbeef          	jal	t4,fffe15fe <_end+0xfffda8fa>
    6018:	deadbeef          	jal	t4,fffe1602 <_end+0xfffda8fe>
    601c:	deadbeef          	jal	t4,fffe1606 <_end+0xfffda902>
    6020:	deadbeef          	jal	t4,fffe160a <_end+0xfffda906>
    6024:	deadbeef          	jal	t4,fffe160e <_end+0xfffda90a>
    6028:	deadbeef          	jal	t4,fffe1612 <_end+0xfffda90e>
    602c:	deadbeef          	jal	t4,fffe1616 <_end+0xfffda912>
    6030:	deadbeef          	jal	t4,fffe161a <_end+0xfffda916>
    6034:	deadbeef          	jal	t4,fffe161e <_end+0xfffda91a>
    6038:	deadbeef          	jal	t4,fffe1622 <_end+0xfffda91e>
    603c:	deadbeef          	jal	t4,fffe1626 <_end+0xfffda922>

00006040 <signature_x6_0>:
    6040:	deadbeef          	jal	t4,fffe162a <_end+0xfffda926>
    6044:	deadbeef          	jal	t4,fffe162e <_end+0xfffda92a>
    6048:	deadbeef          	jal	t4,fffe1632 <_end+0xfffda92e>
    604c:	deadbeef          	jal	t4,fffe1636 <_end+0xfffda932>
    6050:	deadbeef          	jal	t4,fffe163a <_end+0xfffda936>
    6054:	deadbeef          	jal	t4,fffe163e <_end+0xfffda93a>
    6058:	deadbeef          	jal	t4,fffe1642 <_end+0xfffda93e>
    605c:	deadbeef          	jal	t4,fffe1646 <_end+0xfffda942>
    6060:	deadbeef          	jal	t4,fffe164a <_end+0xfffda946>
    6064:	deadbeef          	jal	t4,fffe164e <_end+0xfffda94a>
    6068:	deadbeef          	jal	t4,fffe1652 <_end+0xfffda94e>
    606c:	deadbeef          	jal	t4,fffe1656 <_end+0xfffda952>
    6070:	deadbeef          	jal	t4,fffe165a <_end+0xfffda956>
    6074:	deadbeef          	jal	t4,fffe165e <_end+0xfffda95a>
    6078:	deadbeef          	jal	t4,fffe1662 <_end+0xfffda95e>
    607c:	deadbeef          	jal	t4,fffe1666 <_end+0xfffda962>
    6080:	deadbeef          	jal	t4,fffe166a <_end+0xfffda966>
    6084:	deadbeef          	jal	t4,fffe166e <_end+0xfffda96a>
    6088:	deadbeef          	jal	t4,fffe1672 <_end+0xfffda96e>
    608c:	deadbeef          	jal	t4,fffe1676 <_end+0xfffda972>
    6090:	deadbeef          	jal	t4,fffe167a <_end+0xfffda976>
    6094:	deadbeef          	jal	t4,fffe167e <_end+0xfffda97a>
    6098:	deadbeef          	jal	t4,fffe1682 <_end+0xfffda97e>
    609c:	deadbeef          	jal	t4,fffe1686 <_end+0xfffda982>
    60a0:	deadbeef          	jal	t4,fffe168a <_end+0xfffda986>
    60a4:	deadbeef          	jal	t4,fffe168e <_end+0xfffda98a>
    60a8:	deadbeef          	jal	t4,fffe1692 <_end+0xfffda98e>
    60ac:	deadbeef          	jal	t4,fffe1696 <_end+0xfffda992>
    60b0:	deadbeef          	jal	t4,fffe169a <_end+0xfffda996>
    60b4:	deadbeef          	jal	t4,fffe169e <_end+0xfffda99a>
    60b8:	deadbeef          	jal	t4,fffe16a2 <_end+0xfffda99e>
    60bc:	deadbeef          	jal	t4,fffe16a6 <_end+0xfffda9a2>
    60c0:	deadbeef          	jal	t4,fffe16aa <_end+0xfffda9a6>
    60c4:	deadbeef          	jal	t4,fffe16ae <_end+0xfffda9aa>
    60c8:	deadbeef          	jal	t4,fffe16b2 <_end+0xfffda9ae>
    60cc:	deadbeef          	jal	t4,fffe16b6 <_end+0xfffda9b2>
    60d0:	deadbeef          	jal	t4,fffe16ba <_end+0xfffda9b6>
    60d4:	deadbeef          	jal	t4,fffe16be <_end+0xfffda9ba>
    60d8:	deadbeef          	jal	t4,fffe16c2 <_end+0xfffda9be>
    60dc:	deadbeef          	jal	t4,fffe16c6 <_end+0xfffda9c2>
    60e0:	deadbeef          	jal	t4,fffe16ca <_end+0xfffda9c6>
    60e4:	deadbeef          	jal	t4,fffe16ce <_end+0xfffda9ca>
    60e8:	deadbeef          	jal	t4,fffe16d2 <_end+0xfffda9ce>
    60ec:	deadbeef          	jal	t4,fffe16d6 <_end+0xfffda9d2>
    60f0:	deadbeef          	jal	t4,fffe16da <_end+0xfffda9d6>
    60f4:	deadbeef          	jal	t4,fffe16de <_end+0xfffda9da>
    60f8:	deadbeef          	jal	t4,fffe16e2 <_end+0xfffda9de>
    60fc:	deadbeef          	jal	t4,fffe16e6 <_end+0xfffda9e2>
    6100:	deadbeef          	jal	t4,fffe16ea <_end+0xfffda9e6>
    6104:	deadbeef          	jal	t4,fffe16ee <_end+0xfffda9ea>
    6108:	deadbeef          	jal	t4,fffe16f2 <_end+0xfffda9ee>
    610c:	deadbeef          	jal	t4,fffe16f6 <_end+0xfffda9f2>
    6110:	deadbeef          	jal	t4,fffe16fa <_end+0xfffda9f6>
    6114:	deadbeef          	jal	t4,fffe16fe <_end+0xfffda9fa>
    6118:	deadbeef          	jal	t4,fffe1702 <_end+0xfffda9fe>
    611c:	deadbeef          	jal	t4,fffe1706 <_end+0xfffdaa02>
    6120:	deadbeef          	jal	t4,fffe170a <_end+0xfffdaa06>
    6124:	deadbeef          	jal	t4,fffe170e <_end+0xfffdaa0a>
    6128:	deadbeef          	jal	t4,fffe1712 <_end+0xfffdaa0e>
    612c:	deadbeef          	jal	t4,fffe1716 <_end+0xfffdaa12>
    6130:	deadbeef          	jal	t4,fffe171a <_end+0xfffdaa16>
    6134:	deadbeef          	jal	t4,fffe171e <_end+0xfffdaa1a>
    6138:	deadbeef          	jal	t4,fffe1722 <_end+0xfffdaa1e>
    613c:	deadbeef          	jal	t4,fffe1726 <_end+0xfffdaa22>
    6140:	deadbeef          	jal	t4,fffe172a <_end+0xfffdaa26>
    6144:	deadbeef          	jal	t4,fffe172e <_end+0xfffdaa2a>
    6148:	deadbeef          	jal	t4,fffe1732 <_end+0xfffdaa2e>
    614c:	deadbeef          	jal	t4,fffe1736 <_end+0xfffdaa32>
    6150:	deadbeef          	jal	t4,fffe173a <_end+0xfffdaa36>
    6154:	deadbeef          	jal	t4,fffe173e <_end+0xfffdaa3a>
    6158:	deadbeef          	jal	t4,fffe1742 <_end+0xfffdaa3e>
    615c:	deadbeef          	jal	t4,fffe1746 <_end+0xfffdaa42>
    6160:	deadbeef          	jal	t4,fffe174a <_end+0xfffdaa46>
    6164:	deadbeef          	jal	t4,fffe174e <_end+0xfffdaa4a>
    6168:	deadbeef          	jal	t4,fffe1752 <_end+0xfffdaa4e>
    616c:	deadbeef          	jal	t4,fffe1756 <_end+0xfffdaa52>
    6170:	deadbeef          	jal	t4,fffe175a <_end+0xfffdaa56>
    6174:	deadbeef          	jal	t4,fffe175e <_end+0xfffdaa5a>
    6178:	deadbeef          	jal	t4,fffe1762 <_end+0xfffdaa5e>
    617c:	deadbeef          	jal	t4,fffe1766 <_end+0xfffdaa62>
    6180:	deadbeef          	jal	t4,fffe176a <_end+0xfffdaa66>
    6184:	deadbeef          	jal	t4,fffe176e <_end+0xfffdaa6a>
    6188:	deadbeef          	jal	t4,fffe1772 <_end+0xfffdaa6e>
    618c:	deadbeef          	jal	t4,fffe1776 <_end+0xfffdaa72>
    6190:	deadbeef          	jal	t4,fffe177a <_end+0xfffdaa76>
    6194:	deadbeef          	jal	t4,fffe177e <_end+0xfffdaa7a>
    6198:	deadbeef          	jal	t4,fffe1782 <_end+0xfffdaa7e>
    619c:	deadbeef          	jal	t4,fffe1786 <_end+0xfffdaa82>
    61a0:	deadbeef          	jal	t4,fffe178a <_end+0xfffdaa86>
    61a4:	deadbeef          	jal	t4,fffe178e <_end+0xfffdaa8a>
    61a8:	deadbeef          	jal	t4,fffe1792 <_end+0xfffdaa8e>
    61ac:	deadbeef          	jal	t4,fffe1796 <_end+0xfffdaa92>
    61b0:	deadbeef          	jal	t4,fffe179a <_end+0xfffdaa96>
    61b4:	deadbeef          	jal	t4,fffe179e <_end+0xfffdaa9a>
    61b8:	deadbeef          	jal	t4,fffe17a2 <_end+0xfffdaa9e>
    61bc:	deadbeef          	jal	t4,fffe17a6 <_end+0xfffdaaa2>
    61c0:	deadbeef          	jal	t4,fffe17aa <_end+0xfffdaaa6>
    61c4:	deadbeef          	jal	t4,fffe17ae <_end+0xfffdaaaa>
    61c8:	deadbeef          	jal	t4,fffe17b2 <_end+0xfffdaaae>
    61cc:	deadbeef          	jal	t4,fffe17b6 <_end+0xfffdaab2>
    61d0:	deadbeef          	jal	t4,fffe17ba <_end+0xfffdaab6>
    61d4:	deadbeef          	jal	t4,fffe17be <_end+0xfffdaaba>
    61d8:	deadbeef          	jal	t4,fffe17c2 <_end+0xfffdaabe>
    61dc:	deadbeef          	jal	t4,fffe17c6 <_end+0xfffdaac2>
    61e0:	deadbeef          	jal	t4,fffe17ca <_end+0xfffdaac6>
    61e4:	deadbeef          	jal	t4,fffe17ce <_end+0xfffdaaca>
    61e8:	deadbeef          	jal	t4,fffe17d2 <_end+0xfffdaace>
    61ec:	deadbeef          	jal	t4,fffe17d6 <_end+0xfffdaad2>
    61f0:	deadbeef          	jal	t4,fffe17da <_end+0xfffdaad6>
    61f4:	deadbeef          	jal	t4,fffe17de <_end+0xfffdaada>
    61f8:	deadbeef          	jal	t4,fffe17e2 <_end+0xfffdaade>
    61fc:	deadbeef          	jal	t4,fffe17e6 <_end+0xfffdaae2>
    6200:	deadbeef          	jal	t4,fffe17ea <_end+0xfffdaae6>
    6204:	deadbeef          	jal	t4,fffe17ee <_end+0xfffdaaea>
    6208:	deadbeef          	jal	t4,fffe17f2 <_end+0xfffdaaee>
    620c:	deadbeef          	jal	t4,fffe17f6 <_end+0xfffdaaf2>
    6210:	deadbeef          	jal	t4,fffe17fa <_end+0xfffdaaf6>
    6214:	deadbeef          	jal	t4,fffe17fe <_end+0xfffdaafa>
    6218:	deadbeef          	jal	t4,fffe1802 <_end+0xfffdaafe>
    621c:	deadbeef          	jal	t4,fffe1806 <_end+0xfffdab02>
    6220:	deadbeef          	jal	t4,fffe180a <_end+0xfffdab06>
    6224:	deadbeef          	jal	t4,fffe180e <_end+0xfffdab0a>
    6228:	deadbeef          	jal	t4,fffe1812 <_end+0xfffdab0e>
    622c:	deadbeef          	jal	t4,fffe1816 <_end+0xfffdab12>
    6230:	deadbeef          	jal	t4,fffe181a <_end+0xfffdab16>
    6234:	deadbeef          	jal	t4,fffe181e <_end+0xfffdab1a>
    6238:	deadbeef          	jal	t4,fffe1822 <_end+0xfffdab1e>
    623c:	deadbeef          	jal	t4,fffe1826 <_end+0xfffdab22>
    6240:	deadbeef          	jal	t4,fffe182a <_end+0xfffdab26>
    6244:	deadbeef          	jal	t4,fffe182e <_end+0xfffdab2a>
    6248:	deadbeef          	jal	t4,fffe1832 <_end+0xfffdab2e>
    624c:	deadbeef          	jal	t4,fffe1836 <_end+0xfffdab32>
    6250:	deadbeef          	jal	t4,fffe183a <_end+0xfffdab36>
    6254:	deadbeef          	jal	t4,fffe183e <_end+0xfffdab3a>
    6258:	deadbeef          	jal	t4,fffe1842 <_end+0xfffdab3e>
    625c:	deadbeef          	jal	t4,fffe1846 <_end+0xfffdab42>
    6260:	deadbeef          	jal	t4,fffe184a <_end+0xfffdab46>
    6264:	deadbeef          	jal	t4,fffe184e <_end+0xfffdab4a>
    6268:	deadbeef          	jal	t4,fffe1852 <_end+0xfffdab4e>
    626c:	deadbeef          	jal	t4,fffe1856 <_end+0xfffdab52>
    6270:	deadbeef          	jal	t4,fffe185a <_end+0xfffdab56>
    6274:	deadbeef          	jal	t4,fffe185e <_end+0xfffdab5a>
    6278:	deadbeef          	jal	t4,fffe1862 <_end+0xfffdab5e>
    627c:	deadbeef          	jal	t4,fffe1866 <_end+0xfffdab62>
    6280:	deadbeef          	jal	t4,fffe186a <_end+0xfffdab66>
    6284:	deadbeef          	jal	t4,fffe186e <_end+0xfffdab6a>
    6288:	deadbeef          	jal	t4,fffe1872 <_end+0xfffdab6e>
    628c:	deadbeef          	jal	t4,fffe1876 <_end+0xfffdab72>
    6290:	deadbeef          	jal	t4,fffe187a <_end+0xfffdab76>
    6294:	deadbeef          	jal	t4,fffe187e <_end+0xfffdab7a>
    6298:	deadbeef          	jal	t4,fffe1882 <_end+0xfffdab7e>
    629c:	deadbeef          	jal	t4,fffe1886 <_end+0xfffdab82>
    62a0:	deadbeef          	jal	t4,fffe188a <_end+0xfffdab86>
    62a4:	deadbeef          	jal	t4,fffe188e <_end+0xfffdab8a>
    62a8:	deadbeef          	jal	t4,fffe1892 <_end+0xfffdab8e>
    62ac:	deadbeef          	jal	t4,fffe1896 <_end+0xfffdab92>
    62b0:	deadbeef          	jal	t4,fffe189a <_end+0xfffdab96>
    62b4:	deadbeef          	jal	t4,fffe189e <_end+0xfffdab9a>
    62b8:	deadbeef          	jal	t4,fffe18a2 <_end+0xfffdab9e>
    62bc:	deadbeef          	jal	t4,fffe18a6 <_end+0xfffdaba2>
    62c0:	deadbeef          	jal	t4,fffe18aa <_end+0xfffdaba6>
    62c4:	deadbeef          	jal	t4,fffe18ae <_end+0xfffdabaa>
    62c8:	deadbeef          	jal	t4,fffe18b2 <_end+0xfffdabae>
    62cc:	deadbeef          	jal	t4,fffe18b6 <_end+0xfffdabb2>
    62d0:	deadbeef          	jal	t4,fffe18ba <_end+0xfffdabb6>
    62d4:	deadbeef          	jal	t4,fffe18be <_end+0xfffdabba>
    62d8:	deadbeef          	jal	t4,fffe18c2 <_end+0xfffdabbe>
    62dc:	deadbeef          	jal	t4,fffe18c6 <_end+0xfffdabc2>
    62e0:	deadbeef          	jal	t4,fffe18ca <_end+0xfffdabc6>
    62e4:	deadbeef          	jal	t4,fffe18ce <_end+0xfffdabca>
    62e8:	deadbeef          	jal	t4,fffe18d2 <_end+0xfffdabce>
    62ec:	deadbeef          	jal	t4,fffe18d6 <_end+0xfffdabd2>
    62f0:	deadbeef          	jal	t4,fffe18da <_end+0xfffdabd6>
    62f4:	deadbeef          	jal	t4,fffe18de <_end+0xfffdabda>
    62f8:	deadbeef          	jal	t4,fffe18e2 <_end+0xfffdabde>
    62fc:	deadbeef          	jal	t4,fffe18e6 <_end+0xfffdabe2>
    6300:	deadbeef          	jal	t4,fffe18ea <_end+0xfffdabe6>
    6304:	deadbeef          	jal	t4,fffe18ee <_end+0xfffdabea>
    6308:	deadbeef          	jal	t4,fffe18f2 <_end+0xfffdabee>
    630c:	deadbeef          	jal	t4,fffe18f6 <_end+0xfffdabf2>
    6310:	deadbeef          	jal	t4,fffe18fa <_end+0xfffdabf6>
    6314:	deadbeef          	jal	t4,fffe18fe <_end+0xfffdabfa>
    6318:	deadbeef          	jal	t4,fffe1902 <_end+0xfffdabfe>
    631c:	deadbeef          	jal	t4,fffe1906 <_end+0xfffdac02>
    6320:	deadbeef          	jal	t4,fffe190a <_end+0xfffdac06>
    6324:	deadbeef          	jal	t4,fffe190e <_end+0xfffdac0a>
    6328:	deadbeef          	jal	t4,fffe1912 <_end+0xfffdac0e>
    632c:	deadbeef          	jal	t4,fffe1916 <_end+0xfffdac12>
    6330:	deadbeef          	jal	t4,fffe191a <_end+0xfffdac16>
    6334:	deadbeef          	jal	t4,fffe191e <_end+0xfffdac1a>
    6338:	deadbeef          	jal	t4,fffe1922 <_end+0xfffdac1e>
    633c:	deadbeef          	jal	t4,fffe1926 <_end+0xfffdac22>
    6340:	deadbeef          	jal	t4,fffe192a <_end+0xfffdac26>
    6344:	deadbeef          	jal	t4,fffe192e <_end+0xfffdac2a>
    6348:	deadbeef          	jal	t4,fffe1932 <_end+0xfffdac2e>
    634c:	deadbeef          	jal	t4,fffe1936 <_end+0xfffdac32>
    6350:	deadbeef          	jal	t4,fffe193a <_end+0xfffdac36>
    6354:	deadbeef          	jal	t4,fffe193e <_end+0xfffdac3a>
    6358:	deadbeef          	jal	t4,fffe1942 <_end+0xfffdac3e>
    635c:	deadbeef          	jal	t4,fffe1946 <_end+0xfffdac42>
    6360:	deadbeef          	jal	t4,fffe194a <_end+0xfffdac46>
    6364:	deadbeef          	jal	t4,fffe194e <_end+0xfffdac4a>
    6368:	deadbeef          	jal	t4,fffe1952 <_end+0xfffdac4e>
    636c:	deadbeef          	jal	t4,fffe1956 <_end+0xfffdac52>
    6370:	deadbeef          	jal	t4,fffe195a <_end+0xfffdac56>
    6374:	deadbeef          	jal	t4,fffe195e <_end+0xfffdac5a>
    6378:	deadbeef          	jal	t4,fffe1962 <_end+0xfffdac5e>
    637c:	deadbeef          	jal	t4,fffe1966 <_end+0xfffdac62>
    6380:	deadbeef          	jal	t4,fffe196a <_end+0xfffdac66>
    6384:	deadbeef          	jal	t4,fffe196e <_end+0xfffdac6a>
    6388:	deadbeef          	jal	t4,fffe1972 <_end+0xfffdac6e>
    638c:	deadbeef          	jal	t4,fffe1976 <_end+0xfffdac72>
    6390:	deadbeef          	jal	t4,fffe197a <_end+0xfffdac76>
    6394:	deadbeef          	jal	t4,fffe197e <_end+0xfffdac7a>
    6398:	deadbeef          	jal	t4,fffe1982 <_end+0xfffdac7e>
    639c:	deadbeef          	jal	t4,fffe1986 <_end+0xfffdac82>
    63a0:	deadbeef          	jal	t4,fffe198a <_end+0xfffdac86>
    63a4:	deadbeef          	jal	t4,fffe198e <_end+0xfffdac8a>
    63a8:	deadbeef          	jal	t4,fffe1992 <_end+0xfffdac8e>
    63ac:	deadbeef          	jal	t4,fffe1996 <_end+0xfffdac92>
    63b0:	deadbeef          	jal	t4,fffe199a <_end+0xfffdac96>
    63b4:	deadbeef          	jal	t4,fffe199e <_end+0xfffdac9a>
    63b8:	deadbeef          	jal	t4,fffe19a2 <_end+0xfffdac9e>
    63bc:	deadbeef          	jal	t4,fffe19a6 <_end+0xfffdaca2>
    63c0:	deadbeef          	jal	t4,fffe19aa <_end+0xfffdaca6>
    63c4:	deadbeef          	jal	t4,fffe19ae <_end+0xfffdacaa>
    63c8:	deadbeef          	jal	t4,fffe19b2 <_end+0xfffdacae>
    63cc:	deadbeef          	jal	t4,fffe19b6 <_end+0xfffdacb2>
    63d0:	deadbeef          	jal	t4,fffe19ba <_end+0xfffdacb6>
    63d4:	deadbeef          	jal	t4,fffe19be <_end+0xfffdacba>
    63d8:	deadbeef          	jal	t4,fffe19c2 <_end+0xfffdacbe>
    63dc:	deadbeef          	jal	t4,fffe19c6 <_end+0xfffdacc2>
    63e0:	deadbeef          	jal	t4,fffe19ca <_end+0xfffdacc6>
    63e4:	deadbeef          	jal	t4,fffe19ce <_end+0xfffdacca>
    63e8:	deadbeef          	jal	t4,fffe19d2 <_end+0xfffdacce>
    63ec:	deadbeef          	jal	t4,fffe19d6 <_end+0xfffdacd2>
    63f0:	deadbeef          	jal	t4,fffe19da <_end+0xfffdacd6>
    63f4:	deadbeef          	jal	t4,fffe19de <_end+0xfffdacda>
    63f8:	deadbeef          	jal	t4,fffe19e2 <_end+0xfffdacde>
    63fc:	deadbeef          	jal	t4,fffe19e6 <_end+0xfffdace2>
    6400:	deadbeef          	jal	t4,fffe19ea <_end+0xfffdace6>
    6404:	deadbeef          	jal	t4,fffe19ee <_end+0xfffdacea>
    6408:	deadbeef          	jal	t4,fffe19f2 <_end+0xfffdacee>
    640c:	deadbeef          	jal	t4,fffe19f6 <_end+0xfffdacf2>
    6410:	deadbeef          	jal	t4,fffe19fa <_end+0xfffdacf6>
    6414:	deadbeef          	jal	t4,fffe19fe <_end+0xfffdacfa>
    6418:	deadbeef          	jal	t4,fffe1a02 <_end+0xfffdacfe>
    641c:	deadbeef          	jal	t4,fffe1a06 <_end+0xfffdad02>
    6420:	deadbeef          	jal	t4,fffe1a0a <_end+0xfffdad06>
    6424:	deadbeef          	jal	t4,fffe1a0e <_end+0xfffdad0a>
    6428:	deadbeef          	jal	t4,fffe1a12 <_end+0xfffdad0e>
    642c:	deadbeef          	jal	t4,fffe1a16 <_end+0xfffdad12>
    6430:	deadbeef          	jal	t4,fffe1a1a <_end+0xfffdad16>
    6434:	deadbeef          	jal	t4,fffe1a1e <_end+0xfffdad1a>
    6438:	deadbeef          	jal	t4,fffe1a22 <_end+0xfffdad1e>
    643c:	deadbeef          	jal	t4,fffe1a26 <_end+0xfffdad22>
    6440:	deadbeef          	jal	t4,fffe1a2a <_end+0xfffdad26>
    6444:	deadbeef          	jal	t4,fffe1a2e <_end+0xfffdad2a>
    6448:	deadbeef          	jal	t4,fffe1a32 <_end+0xfffdad2e>
    644c:	deadbeef          	jal	t4,fffe1a36 <_end+0xfffdad32>
    6450:	deadbeef          	jal	t4,fffe1a3a <_end+0xfffdad36>
    6454:	deadbeef          	jal	t4,fffe1a3e <_end+0xfffdad3a>
    6458:	deadbeef          	jal	t4,fffe1a42 <_end+0xfffdad3e>
    645c:	deadbeef          	jal	t4,fffe1a46 <_end+0xfffdad42>
    6460:	deadbeef          	jal	t4,fffe1a4a <_end+0xfffdad46>
    6464:	deadbeef          	jal	t4,fffe1a4e <_end+0xfffdad4a>
    6468:	deadbeef          	jal	t4,fffe1a52 <_end+0xfffdad4e>
    646c:	deadbeef          	jal	t4,fffe1a56 <_end+0xfffdad52>
    6470:	deadbeef          	jal	t4,fffe1a5a <_end+0xfffdad56>
    6474:	deadbeef          	jal	t4,fffe1a5e <_end+0xfffdad5a>
    6478:	deadbeef          	jal	t4,fffe1a62 <_end+0xfffdad5e>
    647c:	deadbeef          	jal	t4,fffe1a66 <_end+0xfffdad62>
    6480:	deadbeef          	jal	t4,fffe1a6a <_end+0xfffdad66>
    6484:	deadbeef          	jal	t4,fffe1a6e <_end+0xfffdad6a>
    6488:	deadbeef          	jal	t4,fffe1a72 <_end+0xfffdad6e>
    648c:	deadbeef          	jal	t4,fffe1a76 <_end+0xfffdad72>
    6490:	deadbeef          	jal	t4,fffe1a7a <_end+0xfffdad76>
    6494:	deadbeef          	jal	t4,fffe1a7e <_end+0xfffdad7a>
    6498:	deadbeef          	jal	t4,fffe1a82 <_end+0xfffdad7e>
    649c:	deadbeef          	jal	t4,fffe1a86 <_end+0xfffdad82>
    64a0:	deadbeef          	jal	t4,fffe1a8a <_end+0xfffdad86>
    64a4:	deadbeef          	jal	t4,fffe1a8e <_end+0xfffdad8a>
    64a8:	deadbeef          	jal	t4,fffe1a92 <_end+0xfffdad8e>
    64ac:	deadbeef          	jal	t4,fffe1a96 <_end+0xfffdad92>
    64b0:	deadbeef          	jal	t4,fffe1a9a <_end+0xfffdad96>
    64b4:	deadbeef          	jal	t4,fffe1a9e <_end+0xfffdad9a>
    64b8:	deadbeef          	jal	t4,fffe1aa2 <_end+0xfffdad9e>
    64bc:	deadbeef          	jal	t4,fffe1aa6 <_end+0xfffdada2>
    64c0:	deadbeef          	jal	t4,fffe1aaa <_end+0xfffdada6>
    64c4:	deadbeef          	jal	t4,fffe1aae <_end+0xfffdadaa>
    64c8:	deadbeef          	jal	t4,fffe1ab2 <_end+0xfffdadae>
    64cc:	deadbeef          	jal	t4,fffe1ab6 <_end+0xfffdadb2>
    64d0:	deadbeef          	jal	t4,fffe1aba <_end+0xfffdadb6>
    64d4:	deadbeef          	jal	t4,fffe1abe <_end+0xfffdadba>
    64d8:	deadbeef          	jal	t4,fffe1ac2 <_end+0xfffdadbe>
    64dc:	deadbeef          	jal	t4,fffe1ac6 <_end+0xfffdadc2>
    64e0:	deadbeef          	jal	t4,fffe1aca <_end+0xfffdadc6>
    64e4:	deadbeef          	jal	t4,fffe1ace <_end+0xfffdadca>
    64e8:	deadbeef          	jal	t4,fffe1ad2 <_end+0xfffdadce>
    64ec:	deadbeef          	jal	t4,fffe1ad6 <_end+0xfffdadd2>
    64f0:	deadbeef          	jal	t4,fffe1ada <_end+0xfffdadd6>
    64f4:	deadbeef          	jal	t4,fffe1ade <_end+0xfffdadda>
    64f8:	deadbeef          	jal	t4,fffe1ae2 <_end+0xfffdadde>
    64fc:	deadbeef          	jal	t4,fffe1ae6 <_end+0xfffdade2>
    6500:	deadbeef          	jal	t4,fffe1aea <_end+0xfffdade6>
    6504:	deadbeef          	jal	t4,fffe1aee <_end+0xfffdadea>
    6508:	deadbeef          	jal	t4,fffe1af2 <_end+0xfffdadee>
    650c:	deadbeef          	jal	t4,fffe1af6 <_end+0xfffdadf2>
    6510:	deadbeef          	jal	t4,fffe1afa <_end+0xfffdadf6>
    6514:	deadbeef          	jal	t4,fffe1afe <_end+0xfffdadfa>
    6518:	deadbeef          	jal	t4,fffe1b02 <_end+0xfffdadfe>
    651c:	deadbeef          	jal	t4,fffe1b06 <_end+0xfffdae02>
    6520:	deadbeef          	jal	t4,fffe1b0a <_end+0xfffdae06>
    6524:	deadbeef          	jal	t4,fffe1b0e <_end+0xfffdae0a>
    6528:	deadbeef          	jal	t4,fffe1b12 <_end+0xfffdae0e>
    652c:	deadbeef          	jal	t4,fffe1b16 <_end+0xfffdae12>
    6530:	deadbeef          	jal	t4,fffe1b1a <_end+0xfffdae16>
    6534:	deadbeef          	jal	t4,fffe1b1e <_end+0xfffdae1a>
    6538:	deadbeef          	jal	t4,fffe1b22 <_end+0xfffdae1e>
    653c:	deadbeef          	jal	t4,fffe1b26 <_end+0xfffdae22>
    6540:	deadbeef          	jal	t4,fffe1b2a <_end+0xfffdae26>
    6544:	deadbeef          	jal	t4,fffe1b2e <_end+0xfffdae2a>
    6548:	deadbeef          	jal	t4,fffe1b32 <_end+0xfffdae2e>
    654c:	deadbeef          	jal	t4,fffe1b36 <_end+0xfffdae32>
    6550:	deadbeef          	jal	t4,fffe1b3a <_end+0xfffdae36>
    6554:	deadbeef          	jal	t4,fffe1b3e <_end+0xfffdae3a>
    6558:	deadbeef          	jal	t4,fffe1b42 <_end+0xfffdae3e>
    655c:	deadbeef          	jal	t4,fffe1b46 <_end+0xfffdae42>
    6560:	deadbeef          	jal	t4,fffe1b4a <_end+0xfffdae46>
    6564:	deadbeef          	jal	t4,fffe1b4e <_end+0xfffdae4a>
    6568:	deadbeef          	jal	t4,fffe1b52 <_end+0xfffdae4e>
    656c:	deadbeef          	jal	t4,fffe1b56 <_end+0xfffdae52>
    6570:	deadbeef          	jal	t4,fffe1b5a <_end+0xfffdae56>
    6574:	deadbeef          	jal	t4,fffe1b5e <_end+0xfffdae5a>
    6578:	deadbeef          	jal	t4,fffe1b62 <_end+0xfffdae5e>
    657c:	deadbeef          	jal	t4,fffe1b66 <_end+0xfffdae62>
    6580:	deadbeef          	jal	t4,fffe1b6a <_end+0xfffdae66>
    6584:	deadbeef          	jal	t4,fffe1b6e <_end+0xfffdae6a>
    6588:	deadbeef          	jal	t4,fffe1b72 <_end+0xfffdae6e>
    658c:	deadbeef          	jal	t4,fffe1b76 <_end+0xfffdae72>
    6590:	deadbeef          	jal	t4,fffe1b7a <_end+0xfffdae76>
    6594:	deadbeef          	jal	t4,fffe1b7e <_end+0xfffdae7a>
    6598:	deadbeef          	jal	t4,fffe1b82 <_end+0xfffdae7e>
    659c:	deadbeef          	jal	t4,fffe1b86 <_end+0xfffdae82>
    65a0:	deadbeef          	jal	t4,fffe1b8a <_end+0xfffdae86>
    65a4:	deadbeef          	jal	t4,fffe1b8e <_end+0xfffdae8a>
    65a8:	deadbeef          	jal	t4,fffe1b92 <_end+0xfffdae8e>
    65ac:	deadbeef          	jal	t4,fffe1b96 <_end+0xfffdae92>
    65b0:	deadbeef          	jal	t4,fffe1b9a <_end+0xfffdae96>
    65b4:	deadbeef          	jal	t4,fffe1b9e <_end+0xfffdae9a>
    65b8:	deadbeef          	jal	t4,fffe1ba2 <_end+0xfffdae9e>
    65bc:	deadbeef          	jal	t4,fffe1ba6 <_end+0xfffdaea2>
    65c0:	deadbeef          	jal	t4,fffe1baa <_end+0xfffdaea6>
    65c4:	deadbeef          	jal	t4,fffe1bae <_end+0xfffdaeaa>
    65c8:	deadbeef          	jal	t4,fffe1bb2 <_end+0xfffdaeae>
    65cc:	deadbeef          	jal	t4,fffe1bb6 <_end+0xfffdaeb2>
    65d0:	deadbeef          	jal	t4,fffe1bba <_end+0xfffdaeb6>
    65d4:	deadbeef          	jal	t4,fffe1bbe <_end+0xfffdaeba>
    65d8:	deadbeef          	jal	t4,fffe1bc2 <_end+0xfffdaebe>
    65dc:	deadbeef          	jal	t4,fffe1bc6 <_end+0xfffdaec2>
    65e0:	deadbeef          	jal	t4,fffe1bca <_end+0xfffdaec6>
    65e4:	deadbeef          	jal	t4,fffe1bce <_end+0xfffdaeca>
    65e8:	deadbeef          	jal	t4,fffe1bd2 <_end+0xfffdaece>
    65ec:	deadbeef          	jal	t4,fffe1bd6 <_end+0xfffdaed2>
    65f0:	deadbeef          	jal	t4,fffe1bda <_end+0xfffdaed6>
    65f4:	deadbeef          	jal	t4,fffe1bde <_end+0xfffdaeda>
    65f8:	deadbeef          	jal	t4,fffe1be2 <_end+0xfffdaede>
    65fc:	deadbeef          	jal	t4,fffe1be6 <_end+0xfffdaee2>
    6600:	deadbeef          	jal	t4,fffe1bea <_end+0xfffdaee6>
    6604:	deadbeef          	jal	t4,fffe1bee <_end+0xfffdaeea>
    6608:	deadbeef          	jal	t4,fffe1bf2 <_end+0xfffdaeee>
    660c:	deadbeef          	jal	t4,fffe1bf6 <_end+0xfffdaef2>
    6610:	deadbeef          	jal	t4,fffe1bfa <_end+0xfffdaef6>
    6614:	deadbeef          	jal	t4,fffe1bfe <_end+0xfffdaefa>
    6618:	deadbeef          	jal	t4,fffe1c02 <_end+0xfffdaefe>
    661c:	deadbeef          	jal	t4,fffe1c06 <_end+0xfffdaf02>
    6620:	deadbeef          	jal	t4,fffe1c0a <_end+0xfffdaf06>
    6624:	deadbeef          	jal	t4,fffe1c0e <_end+0xfffdaf0a>
    6628:	deadbeef          	jal	t4,fffe1c12 <_end+0xfffdaf0e>
    662c:	deadbeef          	jal	t4,fffe1c16 <_end+0xfffdaf12>
    6630:	deadbeef          	jal	t4,fffe1c1a <_end+0xfffdaf16>
    6634:	deadbeef          	jal	t4,fffe1c1e <_end+0xfffdaf1a>
    6638:	deadbeef          	jal	t4,fffe1c22 <_end+0xfffdaf1e>
    663c:	deadbeef          	jal	t4,fffe1c26 <_end+0xfffdaf22>
    6640:	deadbeef          	jal	t4,fffe1c2a <_end+0xfffdaf26>
    6644:	deadbeef          	jal	t4,fffe1c2e <_end+0xfffdaf2a>
    6648:	deadbeef          	jal	t4,fffe1c32 <_end+0xfffdaf2e>
    664c:	deadbeef          	jal	t4,fffe1c36 <_end+0xfffdaf32>
    6650:	deadbeef          	jal	t4,fffe1c3a <_end+0xfffdaf36>
    6654:	deadbeef          	jal	t4,fffe1c3e <_end+0xfffdaf3a>
    6658:	deadbeef          	jal	t4,fffe1c42 <_end+0xfffdaf3e>
    665c:	deadbeef          	jal	t4,fffe1c46 <_end+0xfffdaf42>
    6660:	deadbeef          	jal	t4,fffe1c4a <_end+0xfffdaf46>
    6664:	deadbeef          	jal	t4,fffe1c4e <_end+0xfffdaf4a>
    6668:	deadbeef          	jal	t4,fffe1c52 <_end+0xfffdaf4e>
    666c:	deadbeef          	jal	t4,fffe1c56 <_end+0xfffdaf52>
    6670:	deadbeef          	jal	t4,fffe1c5a <_end+0xfffdaf56>
    6674:	deadbeef          	jal	t4,fffe1c5e <_end+0xfffdaf5a>
    6678:	deadbeef          	jal	t4,fffe1c62 <_end+0xfffdaf5e>
    667c:	deadbeef          	jal	t4,fffe1c66 <_end+0xfffdaf62>
    6680:	deadbeef          	jal	t4,fffe1c6a <_end+0xfffdaf66>
    6684:	deadbeef          	jal	t4,fffe1c6e <_end+0xfffdaf6a>
    6688:	deadbeef          	jal	t4,fffe1c72 <_end+0xfffdaf6e>
    668c:	deadbeef          	jal	t4,fffe1c76 <_end+0xfffdaf72>
    6690:	deadbeef          	jal	t4,fffe1c7a <_end+0xfffdaf76>
    6694:	deadbeef          	jal	t4,fffe1c7e <_end+0xfffdaf7a>
    6698:	deadbeef          	jal	t4,fffe1c82 <_end+0xfffdaf7e>
    669c:	deadbeef          	jal	t4,fffe1c86 <_end+0xfffdaf82>
    66a0:	deadbeef          	jal	t4,fffe1c8a <_end+0xfffdaf86>
    66a4:	deadbeef          	jal	t4,fffe1c8e <_end+0xfffdaf8a>
    66a8:	deadbeef          	jal	t4,fffe1c92 <_end+0xfffdaf8e>
    66ac:	deadbeef          	jal	t4,fffe1c96 <_end+0xfffdaf92>
    66b0:	deadbeef          	jal	t4,fffe1c9a <_end+0xfffdaf96>
    66b4:	deadbeef          	jal	t4,fffe1c9e <_end+0xfffdaf9a>
    66b8:	deadbeef          	jal	t4,fffe1ca2 <_end+0xfffdaf9e>
    66bc:	deadbeef          	jal	t4,fffe1ca6 <_end+0xfffdafa2>
    66c0:	deadbeef          	jal	t4,fffe1caa <_end+0xfffdafa6>
    66c4:	deadbeef          	jal	t4,fffe1cae <_end+0xfffdafaa>
    66c8:	deadbeef          	jal	t4,fffe1cb2 <_end+0xfffdafae>
    66cc:	deadbeef          	jal	t4,fffe1cb6 <_end+0xfffdafb2>
    66d0:	deadbeef          	jal	t4,fffe1cba <_end+0xfffdafb6>
    66d4:	deadbeef          	jal	t4,fffe1cbe <_end+0xfffdafba>
    66d8:	deadbeef          	jal	t4,fffe1cc2 <_end+0xfffdafbe>
    66dc:	deadbeef          	jal	t4,fffe1cc6 <_end+0xfffdafc2>
    66e0:	deadbeef          	jal	t4,fffe1cca <_end+0xfffdafc6>
    66e4:	deadbeef          	jal	t4,fffe1cce <_end+0xfffdafca>
    66e8:	deadbeef          	jal	t4,fffe1cd2 <_end+0xfffdafce>
    66ec:	deadbeef          	jal	t4,fffe1cd6 <_end+0xfffdafd2>
    66f0:	deadbeef          	jal	t4,fffe1cda <_end+0xfffdafd6>
    66f4:	deadbeef          	jal	t4,fffe1cde <_end+0xfffdafda>
    66f8:	deadbeef          	jal	t4,fffe1ce2 <_end+0xfffdafde>
    66fc:	deadbeef          	jal	t4,fffe1ce6 <_end+0xfffdafe2>
    6700:	deadbeef          	jal	t4,fffe1cea <_end+0xfffdafe6>
    6704:	deadbeef          	jal	t4,fffe1cee <_end+0xfffdafea>
    6708:	deadbeef          	jal	t4,fffe1cf2 <_end+0xfffdafee>
    670c:	deadbeef          	jal	t4,fffe1cf6 <_end+0xfffdaff2>
    6710:	deadbeef          	jal	t4,fffe1cfa <_end+0xfffdaff6>
    6714:	deadbeef          	jal	t4,fffe1cfe <_end+0xfffdaffa>
    6718:	deadbeef          	jal	t4,fffe1d02 <_end+0xfffdaffe>
    671c:	deadbeef          	jal	t4,fffe1d06 <_end+0xfffdb002>
    6720:	deadbeef          	jal	t4,fffe1d0a <_end+0xfffdb006>
    6724:	deadbeef          	jal	t4,fffe1d0e <_end+0xfffdb00a>
    6728:	deadbeef          	jal	t4,fffe1d12 <_end+0xfffdb00e>
    672c:	deadbeef          	jal	t4,fffe1d16 <_end+0xfffdb012>
    6730:	deadbeef          	jal	t4,fffe1d1a <_end+0xfffdb016>
    6734:	deadbeef          	jal	t4,fffe1d1e <_end+0xfffdb01a>
    6738:	deadbeef          	jal	t4,fffe1d22 <_end+0xfffdb01e>
    673c:	deadbeef          	jal	t4,fffe1d26 <_end+0xfffdb022>
    6740:	deadbeef          	jal	t4,fffe1d2a <_end+0xfffdb026>
    6744:	deadbeef          	jal	t4,fffe1d2e <_end+0xfffdb02a>
    6748:	deadbeef          	jal	t4,fffe1d32 <_end+0xfffdb02e>
    674c:	deadbeef          	jal	t4,fffe1d36 <_end+0xfffdb032>
    6750:	deadbeef          	jal	t4,fffe1d3a <_end+0xfffdb036>
    6754:	deadbeef          	jal	t4,fffe1d3e <_end+0xfffdb03a>
    6758:	deadbeef          	jal	t4,fffe1d42 <_end+0xfffdb03e>
    675c:	deadbeef          	jal	t4,fffe1d46 <_end+0xfffdb042>
    6760:	deadbeef          	jal	t4,fffe1d4a <_end+0xfffdb046>
    6764:	deadbeef          	jal	t4,fffe1d4e <_end+0xfffdb04a>
    6768:	deadbeef          	jal	t4,fffe1d52 <_end+0xfffdb04e>
    676c:	deadbeef          	jal	t4,fffe1d56 <_end+0xfffdb052>
    6770:	deadbeef          	jal	t4,fffe1d5a <_end+0xfffdb056>
    6774:	deadbeef          	jal	t4,fffe1d5e <_end+0xfffdb05a>
    6778:	deadbeef          	jal	t4,fffe1d62 <_end+0xfffdb05e>
    677c:	deadbeef          	jal	t4,fffe1d66 <_end+0xfffdb062>
    6780:	deadbeef          	jal	t4,fffe1d6a <_end+0xfffdb066>
    6784:	deadbeef          	jal	t4,fffe1d6e <_end+0xfffdb06a>
    6788:	deadbeef          	jal	t4,fffe1d72 <_end+0xfffdb06e>
    678c:	deadbeef          	jal	t4,fffe1d76 <_end+0xfffdb072>
    6790:	deadbeef          	jal	t4,fffe1d7a <_end+0xfffdb076>
    6794:	deadbeef          	jal	t4,fffe1d7e <_end+0xfffdb07a>
    6798:	deadbeef          	jal	t4,fffe1d82 <_end+0xfffdb07e>
    679c:	deadbeef          	jal	t4,fffe1d86 <_end+0xfffdb082>
    67a0:	deadbeef          	jal	t4,fffe1d8a <_end+0xfffdb086>
    67a4:	deadbeef          	jal	t4,fffe1d8e <_end+0xfffdb08a>
    67a8:	deadbeef          	jal	t4,fffe1d92 <_end+0xfffdb08e>
    67ac:	deadbeef          	jal	t4,fffe1d96 <_end+0xfffdb092>
    67b0:	deadbeef          	jal	t4,fffe1d9a <_end+0xfffdb096>
    67b4:	deadbeef          	jal	t4,fffe1d9e <_end+0xfffdb09a>
    67b8:	deadbeef          	jal	t4,fffe1da2 <_end+0xfffdb09e>
    67bc:	deadbeef          	jal	t4,fffe1da6 <_end+0xfffdb0a2>
    67c0:	deadbeef          	jal	t4,fffe1daa <_end+0xfffdb0a6>
    67c4:	deadbeef          	jal	t4,fffe1dae <_end+0xfffdb0aa>
    67c8:	deadbeef          	jal	t4,fffe1db2 <_end+0xfffdb0ae>
    67cc:	deadbeef          	jal	t4,fffe1db6 <_end+0xfffdb0b2>
    67d0:	deadbeef          	jal	t4,fffe1dba <_end+0xfffdb0b6>
    67d4:	deadbeef          	jal	t4,fffe1dbe <_end+0xfffdb0ba>
    67d8:	deadbeef          	jal	t4,fffe1dc2 <_end+0xfffdb0be>
    67dc:	deadbeef          	jal	t4,fffe1dc6 <_end+0xfffdb0c2>
    67e0:	deadbeef          	jal	t4,fffe1dca <_end+0xfffdb0c6>
    67e4:	deadbeef          	jal	t4,fffe1dce <_end+0xfffdb0ca>
    67e8:	deadbeef          	jal	t4,fffe1dd2 <_end+0xfffdb0ce>
    67ec:	deadbeef          	jal	t4,fffe1dd6 <_end+0xfffdb0d2>
    67f0:	deadbeef          	jal	t4,fffe1dda <_end+0xfffdb0d6>
    67f4:	deadbeef          	jal	t4,fffe1dde <_end+0xfffdb0da>
    67f8:	deadbeef          	jal	t4,fffe1de2 <_end+0xfffdb0de>
    67fc:	deadbeef          	jal	t4,fffe1de6 <_end+0xfffdb0e2>
    6800:	deadbeef          	jal	t4,fffe1dea <_end+0xfffdb0e6>
    6804:	deadbeef          	jal	t4,fffe1dee <_end+0xfffdb0ea>
    6808:	deadbeef          	jal	t4,fffe1df2 <_end+0xfffdb0ee>
    680c:	deadbeef          	jal	t4,fffe1df6 <_end+0xfffdb0f2>
    6810:	deadbeef          	jal	t4,fffe1dfa <_end+0xfffdb0f6>
    6814:	deadbeef          	jal	t4,fffe1dfe <_end+0xfffdb0fa>
    6818:	deadbeef          	jal	t4,fffe1e02 <_end+0xfffdb0fe>
    681c:	deadbeef          	jal	t4,fffe1e06 <_end+0xfffdb102>
    6820:	deadbeef          	jal	t4,fffe1e0a <_end+0xfffdb106>
    6824:	deadbeef          	jal	t4,fffe1e0e <_end+0xfffdb10a>
    6828:	deadbeef          	jal	t4,fffe1e12 <_end+0xfffdb10e>
    682c:	deadbeef          	jal	t4,fffe1e16 <_end+0xfffdb112>
    6830:	deadbeef          	jal	t4,fffe1e1a <_end+0xfffdb116>
    6834:	deadbeef          	jal	t4,fffe1e1e <_end+0xfffdb11a>
    6838:	deadbeef          	jal	t4,fffe1e22 <_end+0xfffdb11e>
    683c:	deadbeef          	jal	t4,fffe1e26 <_end+0xfffdb122>

00006840 <signature_x6_1>:
    6840:	deadbeef          	jal	t4,fffe1e2a <_end+0xfffdb126>
    6844:	deadbeef          	jal	t4,fffe1e2e <_end+0xfffdb12a>
    6848:	deadbeef          	jal	t4,fffe1e32 <_end+0xfffdb12e>
    684c:	deadbeef          	jal	t4,fffe1e36 <_end+0xfffdb132>
    6850:	deadbeef          	jal	t4,fffe1e3a <_end+0xfffdb136>
    6854:	deadbeef          	jal	t4,fffe1e3e <_end+0xfffdb13a>
    6858:	deadbeef          	jal	t4,fffe1e42 <_end+0xfffdb13e>
    685c:	deadbeef          	jal	t4,fffe1e46 <_end+0xfffdb142>
    6860:	deadbeef          	jal	t4,fffe1e4a <_end+0xfffdb146>
    6864:	deadbeef          	jal	t4,fffe1e4e <_end+0xfffdb14a>
    6868:	deadbeef          	jal	t4,fffe1e52 <_end+0xfffdb14e>
    686c:	deadbeef          	jal	t4,fffe1e56 <_end+0xfffdb152>
    6870:	deadbeef          	jal	t4,fffe1e5a <_end+0xfffdb156>
    6874:	deadbeef          	jal	t4,fffe1e5e <_end+0xfffdb15a>
    6878:	deadbeef          	jal	t4,fffe1e62 <_end+0xfffdb15e>
    687c:	deadbeef          	jal	t4,fffe1e66 <_end+0xfffdb162>
    6880:	deadbeef          	jal	t4,fffe1e6a <_end+0xfffdb166>
    6884:	deadbeef          	jal	t4,fffe1e6e <_end+0xfffdb16a>
    6888:	deadbeef          	jal	t4,fffe1e72 <_end+0xfffdb16e>
    688c:	deadbeef          	jal	t4,fffe1e76 <_end+0xfffdb172>
    6890:	deadbeef          	jal	t4,fffe1e7a <_end+0xfffdb176>
    6894:	deadbeef          	jal	t4,fffe1e7e <_end+0xfffdb17a>
    6898:	deadbeef          	jal	t4,fffe1e82 <_end+0xfffdb17e>
    689c:	deadbeef          	jal	t4,fffe1e86 <_end+0xfffdb182>
    68a0:	deadbeef          	jal	t4,fffe1e8a <_end+0xfffdb186>
    68a4:	deadbeef          	jal	t4,fffe1e8e <_end+0xfffdb18a>
    68a8:	deadbeef          	jal	t4,fffe1e92 <_end+0xfffdb18e>
    68ac:	deadbeef          	jal	t4,fffe1e96 <_end+0xfffdb192>
    68b0:	deadbeef          	jal	t4,fffe1e9a <_end+0xfffdb196>
    68b4:	deadbeef          	jal	t4,fffe1e9e <_end+0xfffdb19a>
    68b8:	deadbeef          	jal	t4,fffe1ea2 <_end+0xfffdb19e>
    68bc:	deadbeef          	jal	t4,fffe1ea6 <_end+0xfffdb1a2>
    68c0:	deadbeef          	jal	t4,fffe1eaa <_end+0xfffdb1a6>
    68c4:	deadbeef          	jal	t4,fffe1eae <_end+0xfffdb1aa>
    68c8:	deadbeef          	jal	t4,fffe1eb2 <_end+0xfffdb1ae>
    68cc:	deadbeef          	jal	t4,fffe1eb6 <_end+0xfffdb1b2>
    68d0:	deadbeef          	jal	t4,fffe1eba <_end+0xfffdb1b6>
    68d4:	deadbeef          	jal	t4,fffe1ebe <_end+0xfffdb1ba>
    68d8:	deadbeef          	jal	t4,fffe1ec2 <_end+0xfffdb1be>
    68dc:	deadbeef          	jal	t4,fffe1ec6 <_end+0xfffdb1c2>
    68e0:	deadbeef          	jal	t4,fffe1eca <_end+0xfffdb1c6>
    68e4:	deadbeef          	jal	t4,fffe1ece <_end+0xfffdb1ca>
    68e8:	deadbeef          	jal	t4,fffe1ed2 <_end+0xfffdb1ce>
    68ec:	deadbeef          	jal	t4,fffe1ed6 <_end+0xfffdb1d2>
    68f0:	deadbeef          	jal	t4,fffe1eda <_end+0xfffdb1d6>
    68f4:	deadbeef          	jal	t4,fffe1ede <_end+0xfffdb1da>
    68f8:	deadbeef          	jal	t4,fffe1ee2 <_end+0xfffdb1de>
    68fc:	deadbeef          	jal	t4,fffe1ee6 <_end+0xfffdb1e2>
    6900:	deadbeef          	jal	t4,fffe1eea <_end+0xfffdb1e6>
    6904:	deadbeef          	jal	t4,fffe1eee <_end+0xfffdb1ea>
    6908:	deadbeef          	jal	t4,fffe1ef2 <_end+0xfffdb1ee>
    690c:	deadbeef          	jal	t4,fffe1ef6 <_end+0xfffdb1f2>
    6910:	deadbeef          	jal	t4,fffe1efa <_end+0xfffdb1f6>
    6914:	deadbeef          	jal	t4,fffe1efe <_end+0xfffdb1fa>
    6918:	deadbeef          	jal	t4,fffe1f02 <_end+0xfffdb1fe>
    691c:	deadbeef          	jal	t4,fffe1f06 <_end+0xfffdb202>
    6920:	deadbeef          	jal	t4,fffe1f0a <_end+0xfffdb206>
    6924:	deadbeef          	jal	t4,fffe1f0e <_end+0xfffdb20a>
    6928:	deadbeef          	jal	t4,fffe1f12 <_end+0xfffdb20e>
    692c:	deadbeef          	jal	t4,fffe1f16 <_end+0xfffdb212>
    6930:	deadbeef          	jal	t4,fffe1f1a <_end+0xfffdb216>
    6934:	deadbeef          	jal	t4,fffe1f1e <_end+0xfffdb21a>
    6938:	deadbeef          	jal	t4,fffe1f22 <_end+0xfffdb21e>
    693c:	deadbeef          	jal	t4,fffe1f26 <_end+0xfffdb222>
    6940:	deadbeef          	jal	t4,fffe1f2a <_end+0xfffdb226>
    6944:	deadbeef          	jal	t4,fffe1f2e <_end+0xfffdb22a>
    6948:	deadbeef          	jal	t4,fffe1f32 <_end+0xfffdb22e>
    694c:	deadbeef          	jal	t4,fffe1f36 <_end+0xfffdb232>
    6950:	deadbeef          	jal	t4,fffe1f3a <_end+0xfffdb236>
    6954:	deadbeef          	jal	t4,fffe1f3e <_end+0xfffdb23a>
    6958:	deadbeef          	jal	t4,fffe1f42 <_end+0xfffdb23e>
    695c:	deadbeef          	jal	t4,fffe1f46 <_end+0xfffdb242>
    6960:	deadbeef          	jal	t4,fffe1f4a <_end+0xfffdb246>
    6964:	deadbeef          	jal	t4,fffe1f4e <_end+0xfffdb24a>
    6968:	deadbeef          	jal	t4,fffe1f52 <_end+0xfffdb24e>
