
mulhu-01.riscv:     file format elf32-littleriscv

Sections:
Idx Name          Size      VMA       LMA       File off  Algn
  0 .text.init    00003bd8  00000200  00000200  00000200  2**5
                  CONTENTS, ALLOC, LOAD, READONLY, CODE
  1 .text         00000008  00003dd8  00003dd8  00003dd8  2**2
                  CONTENTS, ALLOC, LOAD, READONLY, CODE
  2 .data         00000004  00003de0  00003de0  00003de0  2**4
                  CONTENTS, ALLOC, LOAD, DATA
  3 .tohost       00000108  00003e00  00003e00  00003e00  2**8
                  CONTENTS, ALLOC, LOAD, DATA
  4 .io_buf       00000d04  00006000  00006000  00004000  2**8
                  CONTENTS, ALLOC, LOAD, READONLY, DATA
  5 .riscv.attributes 00000031  00000000  00000000  00004d04  2**0
                  CONTENTS, READONLY

Disassembly of section .text.init:

00000200 <rvtest_code_begin>:
     200:	00006897          	auipc	a7,0x6
     204:	e0088893          	addi	a7,a7,-512 # 6000 <begin_signature>

00000208 <inst_0>:
     208:	00400f13          	li	t5,4
     20c:	ff700b93          	li	s7,-9
     210:	037f3f33          	mulhu	t5,t5,s7
     214:	01e8a023          	sw	t5,0(a7)

00000218 <inst_1>:
     218:	80000a37          	lui	s4,0x80000
     21c:	80000a37          	lui	s4,0x80000
     220:	034a37b3          	mulhu	a5,s4,s4
     224:	00f8a223          	sw	a5,4(a7)

00000228 <inst_2>:
     228:	00000413          	li	s0,0
     22c:	00000693          	li	a3,0
     230:	02d436b3          	mulhu	a3,s0,a3
     234:	00d8a423          	sw	a3,8(a7)

00000238 <inst_3>:
     238:	08000213          	li	tp,128
     23c:	fff00313          	li	t1,-1
     240:	02623533          	mulhu	a0,tp,t1
     244:	00a8a623          	sw	a0,12(a7)

00000248 <inst_4>:
     248:	66666d37          	lui	s10,0x66666
     24c:	666d0d13          	addi	s10,s10,1638 # 66666666 <_end+0x6665f962>
     250:	66666d37          	lui	s10,0x66666
     254:	666d0d13          	addi	s10,s10,1638 # 66666666 <_end+0x6665f962>
     258:	03ad3d33          	mulhu	s10,s10,s10
     25c:	01a8a823          	sw	s10,16(a7)

00000260 <inst_5>:
     260:	fff00a93          	li	s5,-1
     264:	00900213          	li	tp,9
     268:	024aba33          	mulhu	s4,s5,tp
     26c:	0148aa23          	sw	s4,20(a7)

00000270 <inst_6>:
     270:	00100b93          	li	s7,1
     274:	20000593          	li	a1,512
     278:	02bbb933          	mulhu	s2,s7,a1
     27c:	0128ac23          	sw	s2,24(a7)

00000280 <inst_7>:
     280:	00000813          	li	a6,0
     284:	00200913          	li	s2,2
     288:	03283db3          	mulhu	s11,a6,s2
     28c:	01b8ae23          	sw	s11,28(a7)

00000290 <inst_8>:
     290:	100003b7          	lui	t2,0x10000
     294:	00400293          	li	t0,4
     298:	0253bb33          	mulhu	s6,t2,t0
     29c:	0368a023          	sw	s6,32(a7)

000002a0 <inst_9>:
     2a0:	10000fb7          	lui	t6,0x10000
     2a4:	00800093          	li	ra,8
     2a8:	021fb1b3          	mulhu	gp,t6,ra
     2ac:	0238a223          	sw	gp,36(a7)

000002b0 <inst_10>:
     2b0:	20000793          	li	a5,512
     2b4:	01000613          	li	a2,16
     2b8:	02c7b133          	mulhu	sp,a5,a2
     2bc:	0228a423          	sw	sp,40(a7)

000002c0 <inst_11>:
     2c0:	00300093          	li	ra,3
     2c4:	02000793          	li	a5,32
     2c8:	02f0b2b3          	mulhu	t0,ra,a5
     2cc:	0258a623          	sw	t0,44(a7)

000002d0 <inst_12>:
     2d0:	aaaabe37          	lui	t3,0xaaaab
     2d4:	aaae0e13          	addi	t3,t3,-1366 # aaaaaaaa <_end+0xaaaa3da6>
     2d8:	04000493          	li	s1,64
     2dc:	029e3433          	mulhu	s0,t3,s1
     2e0:	0288a823          	sw	s0,48(a7)

000002e4 <inst_13>:
     2e4:	666662b7          	lui	t0,0x66666
     2e8:	66728293          	addi	t0,t0,1639 # 66666667 <_end+0x6665f963>
     2ec:	08000c13          	li	s8,128
     2f0:	0382b733          	mulhu	a4,t0,s8
     2f4:	02e8aa23          	sw	a4,52(a7)

000002f8 <inst_14>:
     2f8:	55555637          	lui	a2,0x55555
     2fc:	55560613          	addi	a2,a2,1365 # 55555555 <_end+0x5554e851>
     300:	10000113          	li	sp,256
     304:	02263033          	mulhu	zero,a2,sp
     308:	0208ac23          	sw	zero,56(a7)

0000030c <inst_15>:
     30c:	10000493          	li	s1,256
     310:	40000f13          	li	t5,1024
     314:	03e4b9b3          	mulhu	s3,s1,t5
     318:	0338ae23          	sw	s3,60(a7)
     31c:	00006297          	auipc	t0,0x6
     320:	d2428293          	addi	t0,t0,-732 # 6040 <signature_x5_0>

00000324 <inst_16>:
     324:	00600313          	li	t1,6
     328:	00001b37          	lui	s6,0x1
     32c:	800b0b13          	addi	s6,s6,-2048 # 800 <inst_82>
     330:	036338b3          	mulhu	a7,t1,s6
     334:	0112a023          	sw	a7,0(t0)

00000338 <inst_17>:
     338:	00200893          	li	a7,2
     33c:	00000013          	nop
     340:	0208b833          	mulhu	a6,a7,zero
     344:	0102a223          	sw	a6,4(t0)

00000348 <inst_18>:
     348:	ff700913          	li	s2,-9
     34c:	00002837          	lui	a6,0x2
     350:	03093c33          	mulhu	s8,s2,a6
     354:	0182a423          	sw	s8,8(t0)

00000358 <inst_19>:
     358:	000101b7          	lui	gp,0x10
     35c:	ffe18193          	addi	gp,gp,-2 # fffe <_end+0x92fa>
     360:	00004ab7          	lui	s5,0x4
     364:	0351be33          	mulhu	t3,gp,s5
     368:	01c2a623          	sw	t3,12(t0)

0000036c <inst_20>:
     36c:	00010b37          	lui	s6,0x10
     370:	ffeb0b13          	addi	s6,s6,-2 # fffe <_end+0x92fa>
     374:	000083b7          	lui	t2,0x8
     378:	027b3eb3          	mulhu	t4,s6,t2
     37c:	01d2a823          	sw	t4,16(t0)

00000380 <inst_21>:
     380:	00400993          	li	s3,4
     384:	000108b7          	lui	a7,0x10
     388:	0319b333          	mulhu	t1,s3,a7
     38c:	0062aa23          	sw	t1,20(t0)

00000390 <inst_22>:
     390:	c0000cb7          	lui	s9,0xc0000
     394:	fffc8c93          	addi	s9,s9,-1 # bfffffff <_end+0xbfff92fb>
     398:	00020537          	lui	a0,0x20
     39c:	02acbfb3          	mulhu	t6,s9,a0
     3a0:	01f2ac23          	sw	t6,24(t0)

000003a4 <inst_23>:
     3a4:	00900693          	li	a3,9
     3a8:	00040737          	lui	a4,0x40
     3ac:	02e6b0b3          	mulhu	ra,a3,a4
     3b0:	0012ae23          	sw	ra,28(t0)

000003b4 <inst_24>:
     3b4:	00000013          	nop
     3b8:	00080eb7          	lui	t4,0x80
     3bc:	03d03233          	mulhu	tp,zero,t4
     3c0:	0242a023          	sw	tp,32(t0)

000003c4 <inst_25>:
     3c4:	fff80537          	lui	a0,0xfff80
     3c8:	fff50513          	addi	a0,a0,-1 # fff7ffff <_end+0xfff792fb>
     3cc:	001001b7          	lui	gp,0x100
     3d0:	02353633          	mulhu	a2,a0,gp
     3d4:	02c2a223          	sw	a2,36(t0)

000003d8 <inst_26>:
     3d8:	bff00713          	li	a4,-1025
     3dc:	00200e37          	lui	t3,0x200
     3e0:	03c73bb3          	mulhu	s7,a4,t3
     3e4:	0372a423          	sw	s7,40(t0)

000003e8 <inst_27>:
     3e8:	00200113          	li	sp,2
     3ec:	00400cb7          	lui	s9,0x400
     3f0:	039134b3          	mulhu	s1,sp,s9
     3f4:	0292a623          	sw	s1,44(t0)

000003f8 <inst_28>:
     3f8:	00f00d93          	li	s11,15
     3fc:	00800437          	lui	s0,0x800
     400:	028db5b3          	mulhu	a1,s11,s0
     404:	02b2a823          	sw	a1,48(t0)

00000408 <inst_29>:
     408:	400005b7          	lui	a1,0x40000
     40c:	010009b7          	lui	s3,0x1000
     410:	0335bcb3          	mulhu	s9,a1,s3
     414:	0392aa23          	sw	s9,52(t0)

00000418 <inst_30>:
     418:	fffe0c37          	lui	s8,0xfffe0
     41c:	fffc0c13          	addi	s8,s8,-1 # fffdffff <_end+0xfffd92fb>
     420:	02000fb7          	lui	t6,0x2000
     424:	03fc3ab3          	mulhu	s5,s8,t6
     428:	0352ac23          	sw	s5,56(t0)

0000042c <inst_31>:
     42c:	00004eb7          	lui	t4,0x4
     430:	04000db7          	lui	s11,0x4000
     434:	03beb3b3          	mulhu	t2,t4,s11
     438:	0272ae23          	sw	t2,60(t0)

0000043c <inst_32>:
     43c:	00400513          	li	a0,4
     440:	080005b7          	lui	a1,0x8000
     444:	02b53633          	mulhu	a2,a0,a1
     448:	04c2a023          	sw	a2,64(t0)

0000044c <inst_33>:
     44c:	00800513          	li	a0,8
     450:	100005b7          	lui	a1,0x10000
     454:	02b53633          	mulhu	a2,a0,a1
     458:	04c2a223          	sw	a2,68(t0)

0000045c <inst_34>:
     45c:	04000537          	lui	a0,0x4000
     460:	200005b7          	lui	a1,0x20000
     464:	02b53633          	mulhu	a2,a0,a1
     468:	04c2a423          	sw	a2,72(t0)

0000046c <inst_35>:
     46c:	fffff537          	lui	a0,0xfffff
     470:	7ff50513          	addi	a0,a0,2047 # fffff7ff <_end+0xffff8afb>
     474:	400005b7          	lui	a1,0x40000
     478:	02b53633          	mulhu	a2,a0,a1
     47c:	04c2a623          	sw	a2,76(t0)

00000480 <inst_36>:
     480:	ffe00513          	li	a0,-2
     484:	ffe00593          	li	a1,-2
     488:	02b53633          	mulhu	a2,a0,a1
     48c:	04c2a823          	sw	a2,80(t0)

00000490 <inst_37>:
     490:	f0000537          	lui	a0,0xf0000
     494:	fff50513          	addi	a0,a0,-1 # efffffff <_end+0xefff92fb>
     498:	ffd00593          	li	a1,-3
     49c:	02b53633          	mulhu	a2,a0,a1
     4a0:	04c2aa23          	sw	a2,84(t0)

000004a4 <inst_38>:
     4a4:	aaaab537          	lui	a0,0xaaaab
     4a8:	aab50513          	addi	a0,a0,-1365 # aaaaaaab <_end+0xaaaa3da7>
     4ac:	ffb00593          	li	a1,-5
     4b0:	02b53633          	mulhu	a2,a0,a1
     4b4:	04c2ac23          	sw	a2,88(t0)

000004b8 <inst_39>:
     4b8:	00400513          	li	a0,4
     4bc:	fef00593          	li	a1,-17
     4c0:	02b53633          	mulhu	a2,a0,a1
     4c4:	04c2ae23          	sw	a2,92(t0)

000004c8 <inst_40>:
     4c8:	00100513          	li	a0,1
     4cc:	fdf00593          	li	a1,-33
     4d0:	02b53633          	mulhu	a2,a0,a1
     4d4:	06c2a023          	sw	a2,96(t0)

000004d8 <inst_41>:
     4d8:	55555537          	lui	a0,0x55555
     4dc:	55550513          	addi	a0,a0,1365 # 55555555 <_end+0x5554e851>
     4e0:	fbf00593          	li	a1,-65
     4e4:	02b53633          	mulhu	a2,a0,a1
     4e8:	06c2a223          	sw	a2,100(t0)

000004ec <inst_42>:
     4ec:	0000b537          	lui	a0,0xb
     4f0:	50350513          	addi	a0,a0,1283 # b503 <_end+0x47ff>
     4f4:	f7f00593          	li	a1,-129
     4f8:	02b53633          	mulhu	a2,a0,a1
     4fc:	06c2a423          	sw	a2,104(t0)

00000500 <inst_43>:
     500:	20000537          	lui	a0,0x20000
     504:	eff00593          	li	a1,-257
     508:	02b53633          	mulhu	a2,a0,a1
     50c:	06c2a623          	sw	a2,108(t0)

00000510 <inst_44>:
     510:	01100513          	li	a0,17
     514:	dff00593          	li	a1,-513
     518:	02b53633          	mulhu	a2,a0,a1
     51c:	06c2a823          	sw	a2,112(t0)

00000520 <inst_45>:
     520:	00400513          	li	a0,4
     524:	bff00593          	li	a1,-1025
     528:	02b53633          	mulhu	a2,a0,a1
     52c:	06c2aa23          	sw	a2,116(t0)

00000530 <inst_46>:
     530:	00040537          	lui	a0,0x40
     534:	fffff5b7          	lui	a1,0xfffff
     538:	7ff58593          	addi	a1,a1,2047 # fffff7ff <_end+0xffff8afb>
     53c:	02b53633          	mulhu	a2,a0,a1
     540:	06c2ac23          	sw	a2,120(t0)

00000544 <inst_47>:
     544:	f8000537          	lui	a0,0xf8000
     548:	fff50513          	addi	a0,a0,-1 # f7ffffff <_end+0xf7ff92fb>
     54c:	fffff5b7          	lui	a1,0xfffff
     550:	fff58593          	addi	a1,a1,-1 # ffffefff <_end+0xffff82fb>
     554:	02b53633          	mulhu	a2,a0,a1
     558:	06c2ae23          	sw	a2,124(t0)

0000055c <inst_48>:
     55c:	20000537          	lui	a0,0x20000
     560:	ffffe5b7          	lui	a1,0xffffe
     564:	fff58593          	addi	a1,a1,-1 # ffffdfff <_end+0xffff72fb>
     568:	02b53633          	mulhu	a2,a0,a1
     56c:	08c2a023          	sw	a2,128(t0)

00000570 <inst_49>:
     570:	20000537          	lui	a0,0x20000
     574:	ffffc5b7          	lui	a1,0xffffc
     578:	fff58593          	addi	a1,a1,-1 # ffffbfff <_end+0xffff52fb>
     57c:	02b53633          	mulhu	a2,a0,a1
     580:	08c2a223          	sw	a2,132(t0)

00000584 <inst_50>:
     584:	04000513          	li	a0,64
     588:	ffff85b7          	lui	a1,0xffff8
     58c:	fff58593          	addi	a1,a1,-1 # ffff7fff <_end+0xffff12fb>
     590:	02b53633          	mulhu	a2,a0,a1
     594:	08c2a423          	sw	a2,136(t0)

00000598 <inst_51>:
     598:	00000513          	li	a0,0
     59c:	ffff05b7          	lui	a1,0xffff0
     5a0:	fff58593          	addi	a1,a1,-1 # fffeffff <_end+0xfffe92fb>
     5a4:	02b53633          	mulhu	a2,a0,a1
     5a8:	08c2a623          	sw	a2,140(t0)

000005ac <inst_52>:
     5ac:	00020537          	lui	a0,0x20
     5b0:	fffe05b7          	lui	a1,0xfffe0
     5b4:	fff58593          	addi	a1,a1,-1 # fffdffff <_end+0xfffd92fb>
     5b8:	02b53633          	mulhu	a2,a0,a1
     5bc:	08c2a823          	sw	a2,144(t0)

000005c0 <inst_53>:
     5c0:	00e00513          	li	a0,14
     5c4:	fffc05b7          	lui	a1,0xfffc0
     5c8:	fff58593          	addi	a1,a1,-1 # fffbffff <_end+0xfffb92fb>
     5cc:	02b53633          	mulhu	a2,a0,a1
     5d0:	08c2aa23          	sw	a2,148(t0)

000005d4 <inst_54>:
     5d4:	00100537          	lui	a0,0x100
     5d8:	fff805b7          	lui	a1,0xfff80
     5dc:	fff58593          	addi	a1,a1,-1 # fff7ffff <_end+0xfff792fb>
     5e0:	02b53633          	mulhu	a2,a0,a1
     5e4:	08c2ac23          	sw	a2,152(t0)

000005e8 <inst_55>:
     5e8:	aaaab537          	lui	a0,0xaaaab
     5ec:	aa950513          	addi	a0,a0,-1367 # aaaaaaa9 <_end+0xaaaa3da5>
     5f0:	fff005b7          	lui	a1,0xfff00
     5f4:	fff58593          	addi	a1,a1,-1 # ffefffff <_end+0xffef92fb>
     5f8:	02b53633          	mulhu	a2,a0,a1
     5fc:	08c2ae23          	sw	a2,156(t0)

00000600 <inst_56>:
     600:	ffffe537          	lui	a0,0xffffe
     604:	fff50513          	addi	a0,a0,-1 # ffffdfff <_end+0xffff72fb>
     608:	ffe005b7          	lui	a1,0xffe00
     60c:	fff58593          	addi	a1,a1,-1 # ffdfffff <_end+0xffdf92fb>
     610:	02b53633          	mulhu	a2,a0,a1
     614:	0ac2a023          	sw	a2,160(t0)

00000618 <inst_57>:
     618:	ff700513          	li	a0,-9
     61c:	ffc005b7          	lui	a1,0xffc00
     620:	fff58593          	addi	a1,a1,-1 # ffbfffff <_end+0xffbf92fb>
     624:	02b53633          	mulhu	a2,a0,a1
     628:	0ac2a223          	sw	a2,164(t0)

0000062c <inst_58>:
     62c:	fff80537          	lui	a0,0xfff80
     630:	fff50513          	addi	a0,a0,-1 # fff7ffff <_end+0xfff792fb>
     634:	ff8005b7          	lui	a1,0xff800
     638:	fff58593          	addi	a1,a1,-1 # ff7fffff <_end+0xff7f92fb>
     63c:	02b53633          	mulhu	a2,a0,a1
     640:	0ac2a423          	sw	a2,168(t0)

00000644 <inst_59>:
     644:	00008537          	lui	a0,0x8
     648:	ff0005b7          	lui	a1,0xff000
     64c:	fff58593          	addi	a1,a1,-1 # feffffff <_end+0xfeff92fb>
     650:	02b53633          	mulhu	a2,a0,a1
     654:	0ac2a623          	sw	a2,172(t0)

00000658 <inst_60>:
     658:	00001537          	lui	a0,0x1
     65c:	80050513          	addi	a0,a0,-2048 # 800 <inst_82>
     660:	fe0005b7          	lui	a1,0xfe000
     664:	fff58593          	addi	a1,a1,-1 # fdffffff <_end+0xfdff92fb>
     668:	02b53633          	mulhu	a2,a0,a1
     66c:	0ac2a823          	sw	a2,176(t0)

00000670 <inst_61>:
     670:	00080537          	lui	a0,0x80
     674:	fc0005b7          	lui	a1,0xfc000
     678:	fff58593          	addi	a1,a1,-1 # fbffffff <_end+0xfbff92fb>
     67c:	02b53633          	mulhu	a2,a0,a1
     680:	0ac2aa23          	sw	a2,180(t0)

00000684 <inst_62>:
     684:	fffff537          	lui	a0,0xfffff
     688:	fff50513          	addi	a0,a0,-1 # ffffefff <_end+0xffff82fb>
     68c:	f80005b7          	lui	a1,0xf8000
     690:	fff58593          	addi	a1,a1,-1 # f7ffffff <_end+0xf7ff92fb>
     694:	02b53633          	mulhu	a2,a0,a1
     698:	0ac2ac23          	sw	a2,184(t0)

0000069c <inst_63>:
     69c:	00500513          	li	a0,5
     6a0:	f00005b7          	lui	a1,0xf0000
     6a4:	fff58593          	addi	a1,a1,-1 # efffffff <_end+0xefff92fb>
     6a8:	02b53633          	mulhu	a2,a0,a1
     6ac:	0ac2ae23          	sw	a2,188(t0)

000006b0 <inst_64>:
     6b0:	fef00513          	li	a0,-17
     6b4:	e00005b7          	lui	a1,0xe0000
     6b8:	fff58593          	addi	a1,a1,-1 # dfffffff <_end+0xdfff92fb>
     6bc:	02b53633          	mulhu	a2,a0,a1
     6c0:	0cc2a023          	sw	a2,192(t0)

000006c4 <inst_65>:
     6c4:	00500513          	li	a0,5
     6c8:	c00005b7          	lui	a1,0xc0000
     6cc:	fff58593          	addi	a1,a1,-1 # bfffffff <_end+0xbfff92fb>
     6d0:	02b53633          	mulhu	a2,a0,a1
     6d4:	0cc2a223          	sw	a2,196(t0)

000006d8 <inst_66>:
     6d8:	ffffc537          	lui	a0,0xffffc
     6dc:	fff50513          	addi	a0,a0,-1 # ffffbfff <_end+0xffff52fb>
     6e0:	800005b7          	lui	a1,0x80000
     6e4:	fff58593          	addi	a1,a1,-1 # 7fffffff <_end+0x7fff92fb>
     6e8:	02b53633          	mulhu	a2,a0,a1
     6ec:	0cc2a423          	sw	a2,200(t0)

000006f0 <inst_67>:
     6f0:	01000513          	li	a0,16
     6f4:	555555b7          	lui	a1,0x55555
     6f8:	55558593          	addi	a1,a1,1365 # 55555555 <_end+0x5554e851>
     6fc:	02b53633          	mulhu	a2,a0,a1
     700:	0cc2a623          	sw	a2,204(t0)

00000704 <inst_68>:
     704:	20000513          	li	a0,512
     708:	aaaab5b7          	lui	a1,0xaaaab
     70c:	aaa58593          	addi	a1,a1,-1366 # aaaaaaaa <_end+0xaaaa3da6>
     710:	02b53633          	mulhu	a2,a0,a1
     714:	0cc2a823          	sw	a2,208(t0)

00000718 <inst_69>:
     718:	02000513          	li	a0,32
     71c:	f80005b7          	lui	a1,0xf8000
     720:	fff58593          	addi	a1,a1,-1 # f7ffffff <_end+0xf7ff92fb>
     724:	02b53633          	mulhu	a2,a0,a1
     728:	0cc2aa23          	sw	a2,212(t0)

0000072c <inst_70>:
     72c:	40000513          	li	a0,1024
     730:	fffe05b7          	lui	a1,0xfffe0
     734:	fff58593          	addi	a1,a1,-1 # fffdffff <_end+0xfffd92fb>
     738:	02b53633          	mulhu	a2,a0,a1
     73c:	0cc2ac23          	sw	a2,216(t0)

00000740 <inst_71>:
     740:	00001537          	lui	a0,0x1
     744:	fdf00593          	li	a1,-33
     748:	02b53633          	mulhu	a2,a0,a1
     74c:	0cc2ae23          	sw	a2,220(t0)

00000750 <inst_72>:
     750:	00002537          	lui	a0,0x2
     754:	555555b7          	lui	a1,0x55555
     758:	55558593          	addi	a1,a1,1365 # 55555555 <_end+0x5554e851>
     75c:	02b53633          	mulhu	a2,a0,a1
     760:	0ec2a023          	sw	a2,224(t0)

00000764 <inst_73>:
     764:	00010537          	lui	a0,0x10
     768:	ffff05b7          	lui	a1,0xffff0
     76c:	fff58593          	addi	a1,a1,-1 # fffeffff <_end+0xfffe92fb>
     770:	02b53633          	mulhu	a2,a0,a1
     774:	0ec2a223          	sw	a2,228(t0)

00000778 <inst_74>:
     778:	00200537          	lui	a0,0x200
     77c:	00c00593          	li	a1,12
     780:	02b53633          	mulhu	a2,a0,a1
     784:	0ec2a423          	sw	a2,232(t0)

00000788 <inst_75>:
     788:	00400537          	lui	a0,0x400
     78c:	000405b7          	lui	a1,0x40
     790:	02b53633          	mulhu	a2,a0,a1
     794:	0ec2a623          	sw	a2,236(t0)

00000798 <inst_76>:
     798:	00800537          	lui	a0,0x800
     79c:	333335b7          	lui	a1,0x33333
     7a0:	33358593          	addi	a1,a1,819 # 33333333 <_end+0x3332c62f>
     7a4:	02b53633          	mulhu	a2,a0,a1
     7a8:	0ec2a823          	sw	a2,240(t0)

000007ac <inst_77>:
     7ac:	01000537          	lui	a0,0x1000
     7b0:	00500593          	li	a1,5
     7b4:	02b53633          	mulhu	a2,a0,a1
     7b8:	0ec2aa23          	sw	a2,244(t0)

000007bc <inst_78>:
     7bc:	02000537          	lui	a0,0x2000
     7c0:	00600593          	li	a1,6
     7c4:	02b53633          	mulhu	a2,a0,a1
     7c8:	0ec2ac23          	sw	a2,248(t0)

000007cc <inst_79>:
     7cc:	08000537          	lui	a0,0x8000
     7d0:	f80005b7          	lui	a1,0xf8000
     7d4:	fff58593          	addi	a1,a1,-1 # f7ffffff <_end+0xf7ff92fb>
     7d8:	02b53633          	mulhu	a2,a0,a1
     7dc:	0ec2ae23          	sw	a2,252(t0)

000007e0 <inst_80>:
     7e0:	ffd00513          	li	a0,-3
     7e4:	00600593          	li	a1,6
     7e8:	02b53633          	mulhu	a2,a0,a1
     7ec:	10c2a023          	sw	a2,256(t0)

000007f0 <inst_81>:
     7f0:	ffb00513          	li	a0,-5
     7f4:	020005b7          	lui	a1,0x2000
     7f8:	02b53633          	mulhu	a2,a0,a1
     7fc:	10c2a223          	sw	a2,260(t0)

00000800 <inst_82>:
     800:	fdf00513          	li	a0,-33
     804:	04000593          	li	a1,64
     808:	02b53633          	mulhu	a2,a0,a1
     80c:	10c2a423          	sw	a2,264(t0)

00000810 <inst_83>:
     810:	fbf00513          	li	a0,-65
     814:	08000593          	li	a1,128
     818:	02b53633          	mulhu	a2,a0,a1
     81c:	10c2a623          	sw	a2,268(t0)

00000820 <inst_84>:
     820:	f7f00513          	li	a0,-129
     824:	fffff5b7          	lui	a1,0xfffff
     828:	7ff58593          	addi	a1,a1,2047 # fffff7ff <_end+0xffff8afb>
     82c:	02b53633          	mulhu	a2,a0,a1
     830:	10c2a823          	sw	a2,272(t0)

00000834 <inst_85>:
     834:	eff00513          	li	a0,-257
     838:	0000b5b7          	lui	a1,0xb
     83c:	50558593          	addi	a1,a1,1285 # b505 <_end+0x4801>
     840:	02b53633          	mulhu	a2,a0,a1
     844:	10c2aa23          	sw	a2,276(t0)

00000848 <inst_86>:
     848:	dff00513          	li	a0,-513
     84c:	0000b5b7          	lui	a1,0xb
     850:	50458593          	addi	a1,a1,1284 # b504 <_end+0x4800>
     854:	02b53633          	mulhu	a2,a0,a1
     858:	10c2ac23          	sw	a2,280(t0)

0000085c <inst_87>:
     85c:	ffff8537          	lui	a0,0xffff8
     860:	fff50513          	addi	a0,a0,-1 # ffff7fff <_end+0xffff12fb>
     864:	000105b7          	lui	a1,0x10
     868:	ffe58593          	addi	a1,a1,-2 # fffe <_end+0x92fa>
     86c:	02b53633          	mulhu	a2,a0,a1
     870:	10c2ae23          	sw	a2,284(t0)

00000874 <inst_88>:
     874:	ffff0537          	lui	a0,0xffff0
     878:	fff50513          	addi	a0,a0,-1 # fffeffff <_end+0xfffe92fb>
     87c:	01000593          	li	a1,16
     880:	02b53633          	mulhu	a2,a0,a1
     884:	12c2a023          	sw	a2,288(t0)

00000888 <inst_89>:
     888:	fffc0537          	lui	a0,0xfffc0
     88c:	fff50513          	addi	a0,a0,-1 # fffbffff <_end+0xfffb92fb>
     890:	000015b7          	lui	a1,0x1
     894:	02b53633          	mulhu	a2,a0,a1
     898:	12c2a223          	sw	a2,292(t0)

0000089c <inst_90>:
     89c:	fff00537          	lui	a0,0xfff00
     8a0:	fff50513          	addi	a0,a0,-1 # ffefffff <_end+0xffef92fb>
     8a4:	20000593          	li	a1,512
     8a8:	02b53633          	mulhu	a2,a0,a1
     8ac:	12c2a423          	sw	a2,296(t0)

000008b0 <inst_91>:
     8b0:	ffe00537          	lui	a0,0xffe00
     8b4:	fff50513          	addi	a0,a0,-1 # ffdfffff <_end+0xffdf92fb>
     8b8:	555555b7          	lui	a1,0x55555
     8bc:	55658593          	addi	a1,a1,1366 # 55555556 <_end+0x5554e852>
     8c0:	02b53633          	mulhu	a2,a0,a1
     8c4:	12c2a623          	sw	a2,300(t0)

000008c8 <inst_92>:
     8c8:	ffc00537          	lui	a0,0xffc00
     8cc:	fff50513          	addi	a0,a0,-1 # ffbfffff <_end+0xffbf92fb>
     8d0:	00200593          	li	a1,2
     8d4:	02b53633          	mulhu	a2,a0,a1
     8d8:	12c2a823          	sw	a2,304(t0)

000008dc <inst_93>:
     8dc:	ff800537          	lui	a0,0xff800
     8e0:	fff50513          	addi	a0,a0,-1 # ff7fffff <_end+0xff7f92fb>
     8e4:	00000593          	li	a1,0
     8e8:	02b53633          	mulhu	a2,a0,a1
     8ec:	12c2aa23          	sw	a2,308(t0)

000008f0 <inst_94>:
     8f0:	ff000537          	lui	a0,0xff000
     8f4:	fff50513          	addi	a0,a0,-1 # feffffff <_end+0xfeff92fb>
     8f8:	00e00593          	li	a1,14
     8fc:	02b53633          	mulhu	a2,a0,a1
     900:	12c2ac23          	sw	a2,312(t0)

00000904 <inst_95>:
     904:	fe000537          	lui	a0,0xfe000
     908:	fff50513          	addi	a0,a0,-1 # fdffffff <_end+0xfdff92fb>
     90c:	555555b7          	lui	a1,0x55555
     910:	55458593          	addi	a1,a1,1364 # 55555554 <_end+0x5554e850>
     914:	02b53633          	mulhu	a2,a0,a1
     918:	12c2ae23          	sw	a2,316(t0)

0000091c <inst_96>:
     91c:	fc000537          	lui	a0,0xfc000
     920:	fff50513          	addi	a0,a0,-1 # fbffffff <_end+0xfbff92fb>
     924:	dff00593          	li	a1,-513
     928:	02b53633          	mulhu	a2,a0,a1
     92c:	14c2a023          	sw	a2,320(t0)

00000930 <inst_97>:
     930:	e0000537          	lui	a0,0xe0000
     934:	fff50513          	addi	a0,a0,-1 # dfffffff <_end+0xdfff92fb>
     938:	01000593          	li	a1,16
     93c:	02b53633          	mulhu	a2,a0,a1
     940:	14c2a223          	sw	a2,324(t0)

00000944 <inst_98>:
     944:	80000537          	lui	a0,0x80000
     948:	fff50513          	addi	a0,a0,-1 # 7fffffff <_end+0x7fff92fb>
     94c:	f7f00593          	li	a1,-129
     950:	02b53633          	mulhu	a2,a0,a1
     954:	14c2a423          	sw	a2,328(t0)

00000958 <inst_99>:
     958:	00300513          	li	a0,3
     95c:	00300593          	li	a1,3
     960:	02b53633          	mulhu	a2,a0,a1
     964:	14c2a623          	sw	a2,332(t0)

00000968 <inst_100>:
     968:	00300513          	li	a0,3
     96c:	555555b7          	lui	a1,0x55555
     970:	55558593          	addi	a1,a1,1365 # 55555555 <_end+0x5554e851>
     974:	02b53633          	mulhu	a2,a0,a1
     978:	14c2a823          	sw	a2,336(t0)

0000097c <inst_101>:
     97c:	00300513          	li	a0,3
     980:	aaaab5b7          	lui	a1,0xaaaab
     984:	aaa58593          	addi	a1,a1,-1366 # aaaaaaaa <_end+0xaaaa3da6>
     988:	02b53633          	mulhu	a2,a0,a1
     98c:	14c2aa23          	sw	a2,340(t0)

00000990 <inst_102>:
     990:	00300513          	li	a0,3
     994:	00500593          	li	a1,5
     998:	02b53633          	mulhu	a2,a0,a1
     99c:	14c2ac23          	sw	a2,344(t0)

000009a0 <inst_103>:
     9a0:	00300513          	li	a0,3
     9a4:	333335b7          	lui	a1,0x33333
     9a8:	33358593          	addi	a1,a1,819 # 33333333 <_end+0x3332c62f>
     9ac:	02b53633          	mulhu	a2,a0,a1
     9b0:	14c2ae23          	sw	a2,348(t0)

000009b4 <inst_104>:
     9b4:	00300513          	li	a0,3
     9b8:	666665b7          	lui	a1,0x66666
     9bc:	66658593          	addi	a1,a1,1638 # 66666666 <_end+0x6665f962>
     9c0:	02b53633          	mulhu	a2,a0,a1
     9c4:	16c2a023          	sw	a2,352(t0)

000009c8 <inst_105>:
     9c8:	00300513          	li	a0,3
     9cc:	0000b5b7          	lui	a1,0xb
     9d0:	50458593          	addi	a1,a1,1284 # b504 <_end+0x4800>
     9d4:	02b53633          	mulhu	a2,a0,a1
     9d8:	16c2a223          	sw	a2,356(t0)

000009dc <inst_106>:
     9dc:	00300513          	li	a0,3
     9e0:	00000593          	li	a1,0
     9e4:	02b53633          	mulhu	a2,a0,a1
     9e8:	16c2a423          	sw	a2,360(t0)

000009ec <inst_107>:
     9ec:	00300513          	li	a0,3
     9f0:	000105b7          	lui	a1,0x10
     9f4:	fff58593          	addi	a1,a1,-1 # ffff <_end+0x92fb>
     9f8:	02b53633          	mulhu	a2,a0,a1
     9fc:	16c2a623          	sw	a2,364(t0)

00000a00 <inst_108>:
     a00:	00300513          	li	a0,3
     a04:	00200593          	li	a1,2
     a08:	02b53633          	mulhu	a2,a0,a1
     a0c:	16c2a823          	sw	a2,368(t0)

00000a10 <inst_109>:
     a10:	00300513          	li	a0,3
     a14:	555555b7          	lui	a1,0x55555
     a18:	55458593          	addi	a1,a1,1364 # 55555554 <_end+0x5554e850>
     a1c:	02b53633          	mulhu	a2,a0,a1
     a20:	16c2aa23          	sw	a2,372(t0)

00000a24 <inst_110>:
     a24:	00300513          	li	a0,3
     a28:	aaaab5b7          	lui	a1,0xaaaab
     a2c:	aa958593          	addi	a1,a1,-1367 # aaaaaaa9 <_end+0xaaaa3da5>
     a30:	02b53633          	mulhu	a2,a0,a1
     a34:	16c2ac23          	sw	a2,376(t0)

00000a38 <inst_111>:
     a38:	00300513          	li	a0,3
     a3c:	00400593          	li	a1,4
     a40:	02b53633          	mulhu	a2,a0,a1
     a44:	16c2ae23          	sw	a2,380(t0)

00000a48 <inst_112>:
     a48:	00300513          	li	a0,3
     a4c:	333335b7          	lui	a1,0x33333
     a50:	33258593          	addi	a1,a1,818 # 33333332 <_end+0x3332c62e>
     a54:	02b53633          	mulhu	a2,a0,a1
     a58:	18c2a023          	sw	a2,384(t0)

00000a5c <inst_113>:
     a5c:	00300513          	li	a0,3
     a60:	666665b7          	lui	a1,0x66666
     a64:	66558593          	addi	a1,a1,1637 # 66666665 <_end+0x6665f961>
     a68:	02b53633          	mulhu	a2,a0,a1
     a6c:	18c2a223          	sw	a2,388(t0)

00000a70 <inst_114>:
     a70:	00300513          	li	a0,3
     a74:	0000b5b7          	lui	a1,0xb
     a78:	50358593          	addi	a1,a1,1283 # b503 <_end+0x47ff>
     a7c:	02b53633          	mulhu	a2,a0,a1
     a80:	18c2a423          	sw	a2,392(t0)

00000a84 <inst_115>:
     a84:	00300513          	li	a0,3
     a88:	000105b7          	lui	a1,0x10
     a8c:	ffe58593          	addi	a1,a1,-2 # fffe <_end+0x92fa>
     a90:	02b53633          	mulhu	a2,a0,a1
     a94:	18c2a623          	sw	a2,396(t0)

00000a98 <inst_116>:
     a98:	00300513          	li	a0,3
     a9c:	555555b7          	lui	a1,0x55555
     aa0:	55658593          	addi	a1,a1,1366 # 55555556 <_end+0x5554e852>
     aa4:	02b53633          	mulhu	a2,a0,a1
     aa8:	18c2a823          	sw	a2,400(t0)

00000aac <inst_117>:
     aac:	00300513          	li	a0,3
     ab0:	aaaab5b7          	lui	a1,0xaaaab
     ab4:	aab58593          	addi	a1,a1,-1365 # aaaaaaab <_end+0xaaaa3da7>
     ab8:	02b53633          	mulhu	a2,a0,a1
     abc:	18c2aa23          	sw	a2,404(t0)

00000ac0 <inst_118>:
     ac0:	00300513          	li	a0,3
     ac4:	00600593          	li	a1,6
     ac8:	02b53633          	mulhu	a2,a0,a1
     acc:	18c2ac23          	sw	a2,408(t0)

00000ad0 <inst_119>:
     ad0:	00300513          	li	a0,3
     ad4:	333335b7          	lui	a1,0x33333
     ad8:	33458593          	addi	a1,a1,820 # 33333334 <_end+0x3332c630>
     adc:	02b53633          	mulhu	a2,a0,a1
     ae0:	18c2ae23          	sw	a2,412(t0)

00000ae4 <inst_120>:
     ae4:	00300513          	li	a0,3
     ae8:	666665b7          	lui	a1,0x66666
     aec:	66758593          	addi	a1,a1,1639 # 66666667 <_end+0x6665f963>
     af0:	02b53633          	mulhu	a2,a0,a1
     af4:	1ac2a023          	sw	a2,416(t0)

00000af8 <inst_121>:
     af8:	00300513          	li	a0,3
     afc:	0000b5b7          	lui	a1,0xb
     b00:	50558593          	addi	a1,a1,1285 # b505 <_end+0x4801>
     b04:	02b53633          	mulhu	a2,a0,a1
     b08:	1ac2a223          	sw	a2,420(t0)

00000b0c <inst_122>:
     b0c:	00300513          	li	a0,3
     b10:	00100593          	li	a1,1
     b14:	02b53633          	mulhu	a2,a0,a1
     b18:	1ac2a423          	sw	a2,424(t0)

00000b1c <inst_123>:
     b1c:	00300513          	li	a0,3
     b20:	000105b7          	lui	a1,0x10
     b24:	02b53633          	mulhu	a2,a0,a1
     b28:	1ac2a623          	sw	a2,428(t0)

00000b2c <inst_124>:
     b2c:	55555537          	lui	a0,0x55555
     b30:	55550513          	addi	a0,a0,1365 # 55555555 <_end+0x5554e851>
     b34:	00300593          	li	a1,3
     b38:	02b53633          	mulhu	a2,a0,a1
     b3c:	1ac2a823          	sw	a2,432(t0)

00000b40 <inst_125>:
     b40:	55555537          	lui	a0,0x55555
     b44:	55550513          	addi	a0,a0,1365 # 55555555 <_end+0x5554e851>
     b48:	555555b7          	lui	a1,0x55555
     b4c:	55558593          	addi	a1,a1,1365 # 55555555 <_end+0x5554e851>
     b50:	02b53633          	mulhu	a2,a0,a1
     b54:	1ac2aa23          	sw	a2,436(t0)

00000b58 <inst_126>:
     b58:	55555537          	lui	a0,0x55555
     b5c:	55550513          	addi	a0,a0,1365 # 55555555 <_end+0x5554e851>
     b60:	aaaab5b7          	lui	a1,0xaaaab
     b64:	aaa58593          	addi	a1,a1,-1366 # aaaaaaaa <_end+0xaaaa3da6>
     b68:	02b53633          	mulhu	a2,a0,a1
     b6c:	1ac2ac23          	sw	a2,440(t0)

00000b70 <inst_127>:
     b70:	55555537          	lui	a0,0x55555
     b74:	55550513          	addi	a0,a0,1365 # 55555555 <_end+0x5554e851>
     b78:	00500593          	li	a1,5
     b7c:	02b53633          	mulhu	a2,a0,a1
     b80:	1ac2ae23          	sw	a2,444(t0)

00000b84 <inst_128>:
     b84:	55555537          	lui	a0,0x55555
     b88:	55550513          	addi	a0,a0,1365 # 55555555 <_end+0x5554e851>
     b8c:	333335b7          	lui	a1,0x33333
     b90:	33358593          	addi	a1,a1,819 # 33333333 <_end+0x3332c62f>
     b94:	02b53633          	mulhu	a2,a0,a1
     b98:	1cc2a023          	sw	a2,448(t0)

00000b9c <inst_129>:
     b9c:	55555537          	lui	a0,0x55555
     ba0:	55550513          	addi	a0,a0,1365 # 55555555 <_end+0x5554e851>
     ba4:	666665b7          	lui	a1,0x66666
     ba8:	66658593          	addi	a1,a1,1638 # 66666666 <_end+0x6665f962>
     bac:	02b53633          	mulhu	a2,a0,a1
     bb0:	1cc2a223          	sw	a2,452(t0)

00000bb4 <inst_130>:
     bb4:	55555537          	lui	a0,0x55555
     bb8:	55550513          	addi	a0,a0,1365 # 55555555 <_end+0x5554e851>
     bbc:	0000b5b7          	lui	a1,0xb
     bc0:	50458593          	addi	a1,a1,1284 # b504 <_end+0x4800>
     bc4:	02b53633          	mulhu	a2,a0,a1
     bc8:	1cc2a423          	sw	a2,456(t0)

00000bcc <inst_131>:
     bcc:	55555537          	lui	a0,0x55555
     bd0:	55550513          	addi	a0,a0,1365 # 55555555 <_end+0x5554e851>
     bd4:	00000593          	li	a1,0
     bd8:	02b53633          	mulhu	a2,a0,a1
     bdc:	1cc2a623          	sw	a2,460(t0)

00000be0 <inst_132>:
     be0:	55555537          	lui	a0,0x55555
     be4:	55550513          	addi	a0,a0,1365 # 55555555 <_end+0x5554e851>
     be8:	000105b7          	lui	a1,0x10
     bec:	fff58593          	addi	a1,a1,-1 # ffff <_end+0x92fb>
     bf0:	02b53633          	mulhu	a2,a0,a1
     bf4:	1cc2a823          	sw	a2,464(t0)

00000bf8 <inst_133>:
     bf8:	55555537          	lui	a0,0x55555
     bfc:	55550513          	addi	a0,a0,1365 # 55555555 <_end+0x5554e851>
     c00:	00200593          	li	a1,2
     c04:	02b53633          	mulhu	a2,a0,a1
     c08:	1cc2aa23          	sw	a2,468(t0)

00000c0c <inst_134>:
     c0c:	55555537          	lui	a0,0x55555
     c10:	55550513          	addi	a0,a0,1365 # 55555555 <_end+0x5554e851>
     c14:	555555b7          	lui	a1,0x55555
     c18:	55458593          	addi	a1,a1,1364 # 55555554 <_end+0x5554e850>
     c1c:	02b53633          	mulhu	a2,a0,a1
     c20:	1cc2ac23          	sw	a2,472(t0)

00000c24 <inst_135>:
     c24:	55555537          	lui	a0,0x55555
     c28:	55550513          	addi	a0,a0,1365 # 55555555 <_end+0x5554e851>
     c2c:	aaaab5b7          	lui	a1,0xaaaab
     c30:	aa958593          	addi	a1,a1,-1367 # aaaaaaa9 <_end+0xaaaa3da5>
     c34:	02b53633          	mulhu	a2,a0,a1
     c38:	1cc2ae23          	sw	a2,476(t0)

00000c3c <inst_136>:
     c3c:	55555537          	lui	a0,0x55555
     c40:	55550513          	addi	a0,a0,1365 # 55555555 <_end+0x5554e851>
     c44:	00400593          	li	a1,4
     c48:	02b53633          	mulhu	a2,a0,a1
     c4c:	1ec2a023          	sw	a2,480(t0)

00000c50 <inst_137>:
     c50:	55555537          	lui	a0,0x55555
     c54:	55550513          	addi	a0,a0,1365 # 55555555 <_end+0x5554e851>
     c58:	333335b7          	lui	a1,0x33333
     c5c:	33258593          	addi	a1,a1,818 # 33333332 <_end+0x3332c62e>
     c60:	02b53633          	mulhu	a2,a0,a1
     c64:	1ec2a223          	sw	a2,484(t0)

00000c68 <inst_138>:
     c68:	55555537          	lui	a0,0x55555
     c6c:	55550513          	addi	a0,a0,1365 # 55555555 <_end+0x5554e851>
     c70:	666665b7          	lui	a1,0x66666
     c74:	66558593          	addi	a1,a1,1637 # 66666665 <_end+0x6665f961>
     c78:	02b53633          	mulhu	a2,a0,a1
     c7c:	1ec2a423          	sw	a2,488(t0)

00000c80 <inst_139>:
     c80:	55555537          	lui	a0,0x55555
     c84:	55550513          	addi	a0,a0,1365 # 55555555 <_end+0x5554e851>
     c88:	0000b5b7          	lui	a1,0xb
     c8c:	50358593          	addi	a1,a1,1283 # b503 <_end+0x47ff>
     c90:	02b53633          	mulhu	a2,a0,a1
     c94:	1ec2a623          	sw	a2,492(t0)

00000c98 <inst_140>:
     c98:	55555537          	lui	a0,0x55555
     c9c:	55550513          	addi	a0,a0,1365 # 55555555 <_end+0x5554e851>
     ca0:	000105b7          	lui	a1,0x10
     ca4:	ffe58593          	addi	a1,a1,-2 # fffe <_end+0x92fa>
     ca8:	02b53633          	mulhu	a2,a0,a1
     cac:	1ec2a823          	sw	a2,496(t0)

00000cb0 <inst_141>:
     cb0:	55555537          	lui	a0,0x55555
     cb4:	55550513          	addi	a0,a0,1365 # 55555555 <_end+0x5554e851>
     cb8:	555555b7          	lui	a1,0x55555
     cbc:	55658593          	addi	a1,a1,1366 # 55555556 <_end+0x5554e852>
     cc0:	02b53633          	mulhu	a2,a0,a1
     cc4:	1ec2aa23          	sw	a2,500(t0)

00000cc8 <inst_142>:
     cc8:	55555537          	lui	a0,0x55555
     ccc:	55550513          	addi	a0,a0,1365 # 55555555 <_end+0x5554e851>
     cd0:	aaaab5b7          	lui	a1,0xaaaab
     cd4:	aab58593          	addi	a1,a1,-1365 # aaaaaaab <_end+0xaaaa3da7>
     cd8:	02b53633          	mulhu	a2,a0,a1
     cdc:	1ec2ac23          	sw	a2,504(t0)

00000ce0 <inst_143>:
     ce0:	55555537          	lui	a0,0x55555
     ce4:	55550513          	addi	a0,a0,1365 # 55555555 <_end+0x5554e851>
     ce8:	00600593          	li	a1,6
     cec:	02b53633          	mulhu	a2,a0,a1
     cf0:	1ec2ae23          	sw	a2,508(t0)

00000cf4 <inst_144>:
     cf4:	55555537          	lui	a0,0x55555
     cf8:	55550513          	addi	a0,a0,1365 # 55555555 <_end+0x5554e851>
     cfc:	333335b7          	lui	a1,0x33333
     d00:	33458593          	addi	a1,a1,820 # 33333334 <_end+0x3332c630>
     d04:	02b53633          	mulhu	a2,a0,a1
     d08:	20c2a023          	sw	a2,512(t0)

00000d0c <inst_145>:
     d0c:	55555537          	lui	a0,0x55555
     d10:	55550513          	addi	a0,a0,1365 # 55555555 <_end+0x5554e851>
     d14:	666665b7          	lui	a1,0x66666
     d18:	66758593          	addi	a1,a1,1639 # 66666667 <_end+0x6665f963>
     d1c:	02b53633          	mulhu	a2,a0,a1
     d20:	20c2a223          	sw	a2,516(t0)

00000d24 <inst_146>:
     d24:	55555537          	lui	a0,0x55555
     d28:	55550513          	addi	a0,a0,1365 # 55555555 <_end+0x5554e851>
     d2c:	0000b5b7          	lui	a1,0xb
     d30:	50558593          	addi	a1,a1,1285 # b505 <_end+0x4801>
     d34:	02b53633          	mulhu	a2,a0,a1
     d38:	20c2a423          	sw	a2,520(t0)

00000d3c <inst_147>:
     d3c:	55555537          	lui	a0,0x55555
     d40:	55550513          	addi	a0,a0,1365 # 55555555 <_end+0x5554e851>
     d44:	00100593          	li	a1,1
     d48:	02b53633          	mulhu	a2,a0,a1
     d4c:	20c2a623          	sw	a2,524(t0)

00000d50 <inst_148>:
     d50:	55555537          	lui	a0,0x55555
     d54:	55550513          	addi	a0,a0,1365 # 55555555 <_end+0x5554e851>
     d58:	000105b7          	lui	a1,0x10
     d5c:	02b53633          	mulhu	a2,a0,a1
     d60:	20c2a823          	sw	a2,528(t0)

00000d64 <inst_149>:
     d64:	aaaab537          	lui	a0,0xaaaab
     d68:	aaa50513          	addi	a0,a0,-1366 # aaaaaaaa <_end+0xaaaa3da6>
     d6c:	00300593          	li	a1,3
     d70:	02b53633          	mulhu	a2,a0,a1
     d74:	20c2aa23          	sw	a2,532(t0)

00000d78 <inst_150>:
     d78:	aaaab537          	lui	a0,0xaaaab
     d7c:	aaa50513          	addi	a0,a0,-1366 # aaaaaaaa <_end+0xaaaa3da6>
     d80:	555555b7          	lui	a1,0x55555
     d84:	55558593          	addi	a1,a1,1365 # 55555555 <_end+0x5554e851>
     d88:	02b53633          	mulhu	a2,a0,a1
     d8c:	20c2ac23          	sw	a2,536(t0)

00000d90 <inst_151>:
     d90:	aaaab537          	lui	a0,0xaaaab
     d94:	aaa50513          	addi	a0,a0,-1366 # aaaaaaaa <_end+0xaaaa3da6>
     d98:	aaaab5b7          	lui	a1,0xaaaab
     d9c:	aaa58593          	addi	a1,a1,-1366 # aaaaaaaa <_end+0xaaaa3da6>
     da0:	02b53633          	mulhu	a2,a0,a1
     da4:	20c2ae23          	sw	a2,540(t0)

00000da8 <inst_152>:
     da8:	aaaab537          	lui	a0,0xaaaab
     dac:	aaa50513          	addi	a0,a0,-1366 # aaaaaaaa <_end+0xaaaa3da6>
     db0:	00500593          	li	a1,5
     db4:	02b53633          	mulhu	a2,a0,a1
     db8:	22c2a023          	sw	a2,544(t0)

00000dbc <inst_153>:
     dbc:	aaaab537          	lui	a0,0xaaaab
     dc0:	aaa50513          	addi	a0,a0,-1366 # aaaaaaaa <_end+0xaaaa3da6>
     dc4:	333335b7          	lui	a1,0x33333
     dc8:	33358593          	addi	a1,a1,819 # 33333333 <_end+0x3332c62f>
     dcc:	02b53633          	mulhu	a2,a0,a1
     dd0:	22c2a223          	sw	a2,548(t0)

00000dd4 <inst_154>:
     dd4:	aaaab537          	lui	a0,0xaaaab
     dd8:	aaa50513          	addi	a0,a0,-1366 # aaaaaaaa <_end+0xaaaa3da6>
     ddc:	666665b7          	lui	a1,0x66666
     de0:	66658593          	addi	a1,a1,1638 # 66666666 <_end+0x6665f962>
     de4:	02b53633          	mulhu	a2,a0,a1
     de8:	22c2a423          	sw	a2,552(t0)

00000dec <inst_155>:
     dec:	aaaab537          	lui	a0,0xaaaab
     df0:	aaa50513          	addi	a0,a0,-1366 # aaaaaaaa <_end+0xaaaa3da6>
     df4:	0000b5b7          	lui	a1,0xb
     df8:	50458593          	addi	a1,a1,1284 # b504 <_end+0x4800>
     dfc:	02b53633          	mulhu	a2,a0,a1
     e00:	22c2a623          	sw	a2,556(t0)

00000e04 <inst_156>:
     e04:	aaaab537          	lui	a0,0xaaaab
     e08:	aaa50513          	addi	a0,a0,-1366 # aaaaaaaa <_end+0xaaaa3da6>
     e0c:	00000593          	li	a1,0
     e10:	02b53633          	mulhu	a2,a0,a1
     e14:	22c2a823          	sw	a2,560(t0)

00000e18 <inst_157>:
     e18:	aaaab537          	lui	a0,0xaaaab
     e1c:	aaa50513          	addi	a0,a0,-1366 # aaaaaaaa <_end+0xaaaa3da6>
     e20:	000105b7          	lui	a1,0x10
     e24:	fff58593          	addi	a1,a1,-1 # ffff <_end+0x92fb>
     e28:	02b53633          	mulhu	a2,a0,a1
     e2c:	22c2aa23          	sw	a2,564(t0)

00000e30 <inst_158>:
     e30:	aaaab537          	lui	a0,0xaaaab
     e34:	aaa50513          	addi	a0,a0,-1366 # aaaaaaaa <_end+0xaaaa3da6>
     e38:	00200593          	li	a1,2
     e3c:	02b53633          	mulhu	a2,a0,a1
     e40:	22c2ac23          	sw	a2,568(t0)

00000e44 <inst_159>:
     e44:	aaaab537          	lui	a0,0xaaaab
     e48:	aaa50513          	addi	a0,a0,-1366 # aaaaaaaa <_end+0xaaaa3da6>
     e4c:	555555b7          	lui	a1,0x55555
     e50:	55458593          	addi	a1,a1,1364 # 55555554 <_end+0x5554e850>
     e54:	02b53633          	mulhu	a2,a0,a1
     e58:	22c2ae23          	sw	a2,572(t0)

00000e5c <inst_160>:
     e5c:	aaaab537          	lui	a0,0xaaaab
     e60:	aaa50513          	addi	a0,a0,-1366 # aaaaaaaa <_end+0xaaaa3da6>
     e64:	aaaab5b7          	lui	a1,0xaaaab
     e68:	aa958593          	addi	a1,a1,-1367 # aaaaaaa9 <_end+0xaaaa3da5>
     e6c:	02b53633          	mulhu	a2,a0,a1
     e70:	24c2a023          	sw	a2,576(t0)

00000e74 <inst_161>:
     e74:	aaaab537          	lui	a0,0xaaaab
     e78:	aaa50513          	addi	a0,a0,-1366 # aaaaaaaa <_end+0xaaaa3da6>
     e7c:	00400593          	li	a1,4
     e80:	02b53633          	mulhu	a2,a0,a1
     e84:	24c2a223          	sw	a2,580(t0)

00000e88 <inst_162>:
     e88:	aaaab537          	lui	a0,0xaaaab
     e8c:	aaa50513          	addi	a0,a0,-1366 # aaaaaaaa <_end+0xaaaa3da6>
     e90:	333335b7          	lui	a1,0x33333
     e94:	33258593          	addi	a1,a1,818 # 33333332 <_end+0x3332c62e>
     e98:	02b53633          	mulhu	a2,a0,a1
     e9c:	24c2a423          	sw	a2,584(t0)

00000ea0 <inst_163>:
     ea0:	aaaab537          	lui	a0,0xaaaab
     ea4:	aaa50513          	addi	a0,a0,-1366 # aaaaaaaa <_end+0xaaaa3da6>
     ea8:	666665b7          	lui	a1,0x66666
     eac:	66558593          	addi	a1,a1,1637 # 66666665 <_end+0x6665f961>
     eb0:	02b53633          	mulhu	a2,a0,a1
     eb4:	24c2a623          	sw	a2,588(t0)

00000eb8 <inst_164>:
     eb8:	aaaab537          	lui	a0,0xaaaab
     ebc:	aaa50513          	addi	a0,a0,-1366 # aaaaaaaa <_end+0xaaaa3da6>
     ec0:	0000b5b7          	lui	a1,0xb
     ec4:	50358593          	addi	a1,a1,1283 # b503 <_end+0x47ff>
     ec8:	02b53633          	mulhu	a2,a0,a1
     ecc:	24c2a823          	sw	a2,592(t0)

00000ed0 <inst_165>:
     ed0:	aaaab537          	lui	a0,0xaaaab
     ed4:	aaa50513          	addi	a0,a0,-1366 # aaaaaaaa <_end+0xaaaa3da6>
     ed8:	000105b7          	lui	a1,0x10
     edc:	ffe58593          	addi	a1,a1,-2 # fffe <_end+0x92fa>
     ee0:	02b53633          	mulhu	a2,a0,a1
     ee4:	24c2aa23          	sw	a2,596(t0)

00000ee8 <inst_166>:
     ee8:	aaaab537          	lui	a0,0xaaaab
     eec:	aaa50513          	addi	a0,a0,-1366 # aaaaaaaa <_end+0xaaaa3da6>
     ef0:	555555b7          	lui	a1,0x55555
     ef4:	55658593          	addi	a1,a1,1366 # 55555556 <_end+0x5554e852>
     ef8:	02b53633          	mulhu	a2,a0,a1
     efc:	24c2ac23          	sw	a2,600(t0)

00000f00 <inst_167>:
     f00:	aaaab537          	lui	a0,0xaaaab
     f04:	aaa50513          	addi	a0,a0,-1366 # aaaaaaaa <_end+0xaaaa3da6>
     f08:	aaaab5b7          	lui	a1,0xaaaab
     f0c:	aab58593          	addi	a1,a1,-1365 # aaaaaaab <_end+0xaaaa3da7>
     f10:	02b53633          	mulhu	a2,a0,a1
     f14:	24c2ae23          	sw	a2,604(t0)

00000f18 <inst_168>:
     f18:	aaaab537          	lui	a0,0xaaaab
     f1c:	aaa50513          	addi	a0,a0,-1366 # aaaaaaaa <_end+0xaaaa3da6>
     f20:	00600593          	li	a1,6
     f24:	02b53633          	mulhu	a2,a0,a1
     f28:	26c2a023          	sw	a2,608(t0)

00000f2c <inst_169>:
     f2c:	aaaab537          	lui	a0,0xaaaab
     f30:	aaa50513          	addi	a0,a0,-1366 # aaaaaaaa <_end+0xaaaa3da6>
     f34:	333335b7          	lui	a1,0x33333
     f38:	33458593          	addi	a1,a1,820 # 33333334 <_end+0x3332c630>
     f3c:	02b53633          	mulhu	a2,a0,a1
     f40:	26c2a223          	sw	a2,612(t0)

00000f44 <inst_170>:
     f44:	aaaab537          	lui	a0,0xaaaab
     f48:	aaa50513          	addi	a0,a0,-1366 # aaaaaaaa <_end+0xaaaa3da6>
     f4c:	666665b7          	lui	a1,0x66666
     f50:	66758593          	addi	a1,a1,1639 # 66666667 <_end+0x6665f963>
     f54:	02b53633          	mulhu	a2,a0,a1
     f58:	26c2a423          	sw	a2,616(t0)

00000f5c <inst_171>:
     f5c:	aaaab537          	lui	a0,0xaaaab
     f60:	aaa50513          	addi	a0,a0,-1366 # aaaaaaaa <_end+0xaaaa3da6>
     f64:	0000b5b7          	lui	a1,0xb
     f68:	50558593          	addi	a1,a1,1285 # b505 <_end+0x4801>
     f6c:	02b53633          	mulhu	a2,a0,a1
     f70:	26c2a623          	sw	a2,620(t0)

00000f74 <inst_172>:
     f74:	aaaab537          	lui	a0,0xaaaab
     f78:	aaa50513          	addi	a0,a0,-1366 # aaaaaaaa <_end+0xaaaa3da6>
     f7c:	00100593          	li	a1,1
     f80:	02b53633          	mulhu	a2,a0,a1
     f84:	26c2a823          	sw	a2,624(t0)

00000f88 <inst_173>:
     f88:	aaaab537          	lui	a0,0xaaaab
     f8c:	aaa50513          	addi	a0,a0,-1366 # aaaaaaaa <_end+0xaaaa3da6>
     f90:	000105b7          	lui	a1,0x10
     f94:	02b53633          	mulhu	a2,a0,a1
     f98:	26c2aa23          	sw	a2,628(t0)

00000f9c <inst_174>:
     f9c:	00500513          	li	a0,5
     fa0:	00300593          	li	a1,3
     fa4:	02b53633          	mulhu	a2,a0,a1
     fa8:	26c2ac23          	sw	a2,632(t0)

00000fac <inst_175>:
     fac:	00500513          	li	a0,5
     fb0:	555555b7          	lui	a1,0x55555
     fb4:	55558593          	addi	a1,a1,1365 # 55555555 <_end+0x5554e851>
     fb8:	02b53633          	mulhu	a2,a0,a1
     fbc:	26c2ae23          	sw	a2,636(t0)

00000fc0 <inst_176>:
     fc0:	00500513          	li	a0,5
     fc4:	aaaab5b7          	lui	a1,0xaaaab
     fc8:	aaa58593          	addi	a1,a1,-1366 # aaaaaaaa <_end+0xaaaa3da6>
     fcc:	02b53633          	mulhu	a2,a0,a1
     fd0:	28c2a023          	sw	a2,640(t0)

00000fd4 <inst_177>:
     fd4:	00500513          	li	a0,5
     fd8:	00500593          	li	a1,5
     fdc:	02b53633          	mulhu	a2,a0,a1
     fe0:	28c2a223          	sw	a2,644(t0)

00000fe4 <inst_178>:
     fe4:	00500513          	li	a0,5
     fe8:	333335b7          	lui	a1,0x33333
     fec:	33358593          	addi	a1,a1,819 # 33333333 <_end+0x3332c62f>
     ff0:	02b53633          	mulhu	a2,a0,a1
     ff4:	28c2a423          	sw	a2,648(t0)

00000ff8 <inst_179>:
     ff8:	00500513          	li	a0,5
     ffc:	666665b7          	lui	a1,0x66666
    1000:	66658593          	addi	a1,a1,1638 # 66666666 <_end+0x6665f962>
    1004:	02b53633          	mulhu	a2,a0,a1
    1008:	28c2a623          	sw	a2,652(t0)

0000100c <inst_180>:
    100c:	00500513          	li	a0,5
    1010:	0000b5b7          	lui	a1,0xb
    1014:	50458593          	addi	a1,a1,1284 # b504 <_end+0x4800>
    1018:	02b53633          	mulhu	a2,a0,a1
    101c:	28c2a823          	sw	a2,656(t0)

00001020 <inst_181>:
    1020:	00500513          	li	a0,5
    1024:	00000593          	li	a1,0
    1028:	02b53633          	mulhu	a2,a0,a1
    102c:	28c2aa23          	sw	a2,660(t0)

00001030 <inst_182>:
    1030:	00500513          	li	a0,5
    1034:	000105b7          	lui	a1,0x10
    1038:	fff58593          	addi	a1,a1,-1 # ffff <_end+0x92fb>
    103c:	02b53633          	mulhu	a2,a0,a1
    1040:	28c2ac23          	sw	a2,664(t0)

00001044 <inst_183>:
    1044:	00500513          	li	a0,5
    1048:	00200593          	li	a1,2
    104c:	02b53633          	mulhu	a2,a0,a1
    1050:	28c2ae23          	sw	a2,668(t0)

00001054 <inst_184>:
    1054:	00500513          	li	a0,5
    1058:	555555b7          	lui	a1,0x55555
    105c:	55458593          	addi	a1,a1,1364 # 55555554 <_end+0x5554e850>
    1060:	02b53633          	mulhu	a2,a0,a1
    1064:	2ac2a023          	sw	a2,672(t0)

00001068 <inst_185>:
    1068:	00500513          	li	a0,5
    106c:	aaaab5b7          	lui	a1,0xaaaab
    1070:	aa958593          	addi	a1,a1,-1367 # aaaaaaa9 <_end+0xaaaa3da5>
    1074:	02b53633          	mulhu	a2,a0,a1
    1078:	2ac2a223          	sw	a2,676(t0)

0000107c <inst_186>:
    107c:	00500513          	li	a0,5
    1080:	00400593          	li	a1,4
    1084:	02b53633          	mulhu	a2,a0,a1
    1088:	2ac2a423          	sw	a2,680(t0)

0000108c <inst_187>:
    108c:	00500513          	li	a0,5
    1090:	333335b7          	lui	a1,0x33333
    1094:	33258593          	addi	a1,a1,818 # 33333332 <_end+0x3332c62e>
    1098:	02b53633          	mulhu	a2,a0,a1
    109c:	2ac2a623          	sw	a2,684(t0)

000010a0 <inst_188>:
    10a0:	00500513          	li	a0,5
    10a4:	666665b7          	lui	a1,0x66666
    10a8:	66558593          	addi	a1,a1,1637 # 66666665 <_end+0x6665f961>
    10ac:	02b53633          	mulhu	a2,a0,a1
    10b0:	2ac2a823          	sw	a2,688(t0)

000010b4 <inst_189>:
    10b4:	00500513          	li	a0,5
    10b8:	0000b5b7          	lui	a1,0xb
    10bc:	50358593          	addi	a1,a1,1283 # b503 <_end+0x47ff>
    10c0:	02b53633          	mulhu	a2,a0,a1
    10c4:	2ac2aa23          	sw	a2,692(t0)

000010c8 <inst_190>:
    10c8:	00500513          	li	a0,5
    10cc:	000105b7          	lui	a1,0x10
    10d0:	ffe58593          	addi	a1,a1,-2 # fffe <_end+0x92fa>
    10d4:	02b53633          	mulhu	a2,a0,a1
    10d8:	2ac2ac23          	sw	a2,696(t0)

000010dc <inst_191>:
    10dc:	00500513          	li	a0,5
    10e0:	555555b7          	lui	a1,0x55555
    10e4:	55658593          	addi	a1,a1,1366 # 55555556 <_end+0x5554e852>
    10e8:	02b53633          	mulhu	a2,a0,a1
    10ec:	2ac2ae23          	sw	a2,700(t0)

000010f0 <inst_192>:
    10f0:	00500513          	li	a0,5
    10f4:	aaaab5b7          	lui	a1,0xaaaab
    10f8:	aab58593          	addi	a1,a1,-1365 # aaaaaaab <_end+0xaaaa3da7>
    10fc:	02b53633          	mulhu	a2,a0,a1
    1100:	2cc2a023          	sw	a2,704(t0)

00001104 <inst_193>:
    1104:	00500513          	li	a0,5
    1108:	00600593          	li	a1,6
    110c:	02b53633          	mulhu	a2,a0,a1
    1110:	2cc2a223          	sw	a2,708(t0)

00001114 <inst_194>:
    1114:	00500513          	li	a0,5
    1118:	333335b7          	lui	a1,0x33333
    111c:	33458593          	addi	a1,a1,820 # 33333334 <_end+0x3332c630>
    1120:	02b53633          	mulhu	a2,a0,a1
    1124:	2cc2a423          	sw	a2,712(t0)

00001128 <inst_195>:
    1128:	00500513          	li	a0,5
    112c:	666665b7          	lui	a1,0x66666
    1130:	66758593          	addi	a1,a1,1639 # 66666667 <_end+0x6665f963>
    1134:	02b53633          	mulhu	a2,a0,a1
    1138:	2cc2a623          	sw	a2,716(t0)

0000113c <inst_196>:
    113c:	00500513          	li	a0,5
    1140:	0000b5b7          	lui	a1,0xb
    1144:	50558593          	addi	a1,a1,1285 # b505 <_end+0x4801>
    1148:	02b53633          	mulhu	a2,a0,a1
    114c:	2cc2a823          	sw	a2,720(t0)

00001150 <inst_197>:
    1150:	00500513          	li	a0,5
    1154:	00100593          	li	a1,1
    1158:	02b53633          	mulhu	a2,a0,a1
    115c:	2cc2aa23          	sw	a2,724(t0)

00001160 <inst_198>:
    1160:	00500513          	li	a0,5
    1164:	000105b7          	lui	a1,0x10
    1168:	02b53633          	mulhu	a2,a0,a1
    116c:	2cc2ac23          	sw	a2,728(t0)

00001170 <inst_199>:
    1170:	33333537          	lui	a0,0x33333
    1174:	33350513          	addi	a0,a0,819 # 33333333 <_end+0x3332c62f>
    1178:	00300593          	li	a1,3
    117c:	02b53633          	mulhu	a2,a0,a1
    1180:	2cc2ae23          	sw	a2,732(t0)

00001184 <inst_200>:
    1184:	33333537          	lui	a0,0x33333
    1188:	33350513          	addi	a0,a0,819 # 33333333 <_end+0x3332c62f>
    118c:	555555b7          	lui	a1,0x55555
    1190:	55558593          	addi	a1,a1,1365 # 55555555 <_end+0x5554e851>
    1194:	02b53633          	mulhu	a2,a0,a1
    1198:	2ec2a023          	sw	a2,736(t0)

0000119c <inst_201>:
    119c:	33333537          	lui	a0,0x33333
    11a0:	33350513          	addi	a0,a0,819 # 33333333 <_end+0x3332c62f>
    11a4:	aaaab5b7          	lui	a1,0xaaaab
    11a8:	aaa58593          	addi	a1,a1,-1366 # aaaaaaaa <_end+0xaaaa3da6>
    11ac:	02b53633          	mulhu	a2,a0,a1
    11b0:	2ec2a223          	sw	a2,740(t0)

000011b4 <inst_202>:
    11b4:	33333537          	lui	a0,0x33333
    11b8:	33350513          	addi	a0,a0,819 # 33333333 <_end+0x3332c62f>
    11bc:	00500593          	li	a1,5
    11c0:	02b53633          	mulhu	a2,a0,a1
    11c4:	2ec2a423          	sw	a2,744(t0)

000011c8 <inst_203>:
    11c8:	33333537          	lui	a0,0x33333
    11cc:	33350513          	addi	a0,a0,819 # 33333333 <_end+0x3332c62f>
    11d0:	333335b7          	lui	a1,0x33333
    11d4:	33358593          	addi	a1,a1,819 # 33333333 <_end+0x3332c62f>
    11d8:	02b53633          	mulhu	a2,a0,a1
    11dc:	2ec2a623          	sw	a2,748(t0)

000011e0 <inst_204>:
    11e0:	33333537          	lui	a0,0x33333
    11e4:	33350513          	addi	a0,a0,819 # 33333333 <_end+0x3332c62f>
    11e8:	666665b7          	lui	a1,0x66666
    11ec:	66658593          	addi	a1,a1,1638 # 66666666 <_end+0x6665f962>
    11f0:	02b53633          	mulhu	a2,a0,a1
    11f4:	2ec2a823          	sw	a2,752(t0)

000011f8 <inst_205>:
    11f8:	33333537          	lui	a0,0x33333
    11fc:	33350513          	addi	a0,a0,819 # 33333333 <_end+0x3332c62f>
    1200:	0000b5b7          	lui	a1,0xb
    1204:	50458593          	addi	a1,a1,1284 # b504 <_end+0x4800>
    1208:	02b53633          	mulhu	a2,a0,a1
    120c:	2ec2aa23          	sw	a2,756(t0)

00001210 <inst_206>:
    1210:	33333537          	lui	a0,0x33333
    1214:	33350513          	addi	a0,a0,819 # 33333333 <_end+0x3332c62f>
    1218:	00000593          	li	a1,0
    121c:	02b53633          	mulhu	a2,a0,a1
    1220:	2ec2ac23          	sw	a2,760(t0)

00001224 <inst_207>:
    1224:	33333537          	lui	a0,0x33333
    1228:	33350513          	addi	a0,a0,819 # 33333333 <_end+0x3332c62f>
    122c:	000105b7          	lui	a1,0x10
    1230:	fff58593          	addi	a1,a1,-1 # ffff <_end+0x92fb>
    1234:	02b53633          	mulhu	a2,a0,a1
    1238:	2ec2ae23          	sw	a2,764(t0)

0000123c <inst_208>:
    123c:	33333537          	lui	a0,0x33333
    1240:	33350513          	addi	a0,a0,819 # 33333333 <_end+0x3332c62f>
    1244:	00200593          	li	a1,2
    1248:	02b53633          	mulhu	a2,a0,a1
    124c:	30c2a023          	sw	a2,768(t0)

00001250 <inst_209>:
    1250:	33333537          	lui	a0,0x33333
    1254:	33350513          	addi	a0,a0,819 # 33333333 <_end+0x3332c62f>
    1258:	555555b7          	lui	a1,0x55555
    125c:	55458593          	addi	a1,a1,1364 # 55555554 <_end+0x5554e850>
    1260:	02b53633          	mulhu	a2,a0,a1
    1264:	30c2a223          	sw	a2,772(t0)

00001268 <inst_210>:
    1268:	33333537          	lui	a0,0x33333
    126c:	33350513          	addi	a0,a0,819 # 33333333 <_end+0x3332c62f>
    1270:	aaaab5b7          	lui	a1,0xaaaab
    1274:	aa958593          	addi	a1,a1,-1367 # aaaaaaa9 <_end+0xaaaa3da5>
    1278:	02b53633          	mulhu	a2,a0,a1
    127c:	30c2a423          	sw	a2,776(t0)

00001280 <inst_211>:
    1280:	33333537          	lui	a0,0x33333
    1284:	33350513          	addi	a0,a0,819 # 33333333 <_end+0x3332c62f>
    1288:	00400593          	li	a1,4
    128c:	02b53633          	mulhu	a2,a0,a1
    1290:	30c2a623          	sw	a2,780(t0)

00001294 <inst_212>:
    1294:	33333537          	lui	a0,0x33333
    1298:	33350513          	addi	a0,a0,819 # 33333333 <_end+0x3332c62f>
    129c:	333335b7          	lui	a1,0x33333
    12a0:	33258593          	addi	a1,a1,818 # 33333332 <_end+0x3332c62e>
    12a4:	02b53633          	mulhu	a2,a0,a1
    12a8:	30c2a823          	sw	a2,784(t0)

000012ac <inst_213>:
    12ac:	33333537          	lui	a0,0x33333
    12b0:	33350513          	addi	a0,a0,819 # 33333333 <_end+0x3332c62f>
    12b4:	666665b7          	lui	a1,0x66666
    12b8:	66558593          	addi	a1,a1,1637 # 66666665 <_end+0x6665f961>
    12bc:	02b53633          	mulhu	a2,a0,a1
    12c0:	30c2aa23          	sw	a2,788(t0)

000012c4 <inst_214>:
    12c4:	33333537          	lui	a0,0x33333
    12c8:	33350513          	addi	a0,a0,819 # 33333333 <_end+0x3332c62f>
    12cc:	0000b5b7          	lui	a1,0xb
    12d0:	50358593          	addi	a1,a1,1283 # b503 <_end+0x47ff>
    12d4:	02b53633          	mulhu	a2,a0,a1
    12d8:	30c2ac23          	sw	a2,792(t0)

000012dc <inst_215>:
    12dc:	33333537          	lui	a0,0x33333
    12e0:	33350513          	addi	a0,a0,819 # 33333333 <_end+0x3332c62f>
    12e4:	000105b7          	lui	a1,0x10
    12e8:	ffe58593          	addi	a1,a1,-2 # fffe <_end+0x92fa>
    12ec:	02b53633          	mulhu	a2,a0,a1
    12f0:	30c2ae23          	sw	a2,796(t0)

000012f4 <inst_216>:
    12f4:	33333537          	lui	a0,0x33333
    12f8:	33350513          	addi	a0,a0,819 # 33333333 <_end+0x3332c62f>
    12fc:	555555b7          	lui	a1,0x55555
    1300:	55658593          	addi	a1,a1,1366 # 55555556 <_end+0x5554e852>
    1304:	02b53633          	mulhu	a2,a0,a1
    1308:	32c2a023          	sw	a2,800(t0)

0000130c <inst_217>:
    130c:	33333537          	lui	a0,0x33333
    1310:	33350513          	addi	a0,a0,819 # 33333333 <_end+0x3332c62f>
    1314:	aaaab5b7          	lui	a1,0xaaaab
    1318:	aab58593          	addi	a1,a1,-1365 # aaaaaaab <_end+0xaaaa3da7>
    131c:	02b53633          	mulhu	a2,a0,a1
    1320:	32c2a223          	sw	a2,804(t0)

00001324 <inst_218>:
    1324:	33333537          	lui	a0,0x33333
    1328:	33350513          	addi	a0,a0,819 # 33333333 <_end+0x3332c62f>
    132c:	00600593          	li	a1,6
    1330:	02b53633          	mulhu	a2,a0,a1
    1334:	32c2a423          	sw	a2,808(t0)

00001338 <inst_219>:
    1338:	33333537          	lui	a0,0x33333
    133c:	33350513          	addi	a0,a0,819 # 33333333 <_end+0x3332c62f>
    1340:	333335b7          	lui	a1,0x33333
    1344:	33458593          	addi	a1,a1,820 # 33333334 <_end+0x3332c630>
    1348:	02b53633          	mulhu	a2,a0,a1
    134c:	32c2a623          	sw	a2,812(t0)

00001350 <inst_220>:
    1350:	33333537          	lui	a0,0x33333
    1354:	33350513          	addi	a0,a0,819 # 33333333 <_end+0x3332c62f>
    1358:	666665b7          	lui	a1,0x66666
    135c:	66758593          	addi	a1,a1,1639 # 66666667 <_end+0x6665f963>
    1360:	02b53633          	mulhu	a2,a0,a1
    1364:	32c2a823          	sw	a2,816(t0)

00001368 <inst_221>:
    1368:	33333537          	lui	a0,0x33333
    136c:	33350513          	addi	a0,a0,819 # 33333333 <_end+0x3332c62f>
    1370:	0000b5b7          	lui	a1,0xb
    1374:	50558593          	addi	a1,a1,1285 # b505 <_end+0x4801>
    1378:	02b53633          	mulhu	a2,a0,a1
    137c:	32c2aa23          	sw	a2,820(t0)

00001380 <inst_222>:
    1380:	33333537          	lui	a0,0x33333
    1384:	33350513          	addi	a0,a0,819 # 33333333 <_end+0x3332c62f>
    1388:	00100593          	li	a1,1
    138c:	02b53633          	mulhu	a2,a0,a1
    1390:	32c2ac23          	sw	a2,824(t0)

00001394 <inst_223>:
    1394:	33333537          	lui	a0,0x33333
    1398:	33350513          	addi	a0,a0,819 # 33333333 <_end+0x3332c62f>
    139c:	000105b7          	lui	a1,0x10
    13a0:	02b53633          	mulhu	a2,a0,a1
    13a4:	32c2ae23          	sw	a2,828(t0)

000013a8 <inst_224>:
    13a8:	66666537          	lui	a0,0x66666
    13ac:	66650513          	addi	a0,a0,1638 # 66666666 <_end+0x6665f962>
    13b0:	00300593          	li	a1,3
    13b4:	02b53633          	mulhu	a2,a0,a1
    13b8:	34c2a023          	sw	a2,832(t0)

000013bc <inst_225>:
    13bc:	66666537          	lui	a0,0x66666
    13c0:	66650513          	addi	a0,a0,1638 # 66666666 <_end+0x6665f962>
    13c4:	555555b7          	lui	a1,0x55555
    13c8:	55558593          	addi	a1,a1,1365 # 55555555 <_end+0x5554e851>
    13cc:	02b53633          	mulhu	a2,a0,a1
    13d0:	34c2a223          	sw	a2,836(t0)

000013d4 <inst_226>:
    13d4:	66666537          	lui	a0,0x66666
    13d8:	66650513          	addi	a0,a0,1638 # 66666666 <_end+0x6665f962>
    13dc:	aaaab5b7          	lui	a1,0xaaaab
    13e0:	aaa58593          	addi	a1,a1,-1366 # aaaaaaaa <_end+0xaaaa3da6>
    13e4:	02b53633          	mulhu	a2,a0,a1
    13e8:	34c2a423          	sw	a2,840(t0)

000013ec <inst_227>:
    13ec:	66666537          	lui	a0,0x66666
    13f0:	66650513          	addi	a0,a0,1638 # 66666666 <_end+0x6665f962>
    13f4:	00500593          	li	a1,5
    13f8:	02b53633          	mulhu	a2,a0,a1
    13fc:	34c2a623          	sw	a2,844(t0)

00001400 <inst_228>:
    1400:	66666537          	lui	a0,0x66666
    1404:	66650513          	addi	a0,a0,1638 # 66666666 <_end+0x6665f962>
    1408:	333335b7          	lui	a1,0x33333
    140c:	33358593          	addi	a1,a1,819 # 33333333 <_end+0x3332c62f>
    1410:	02b53633          	mulhu	a2,a0,a1
    1414:	34c2a823          	sw	a2,848(t0)

00001418 <inst_229>:
    1418:	66666537          	lui	a0,0x66666
    141c:	66650513          	addi	a0,a0,1638 # 66666666 <_end+0x6665f962>
    1420:	666665b7          	lui	a1,0x66666
    1424:	66658593          	addi	a1,a1,1638 # 66666666 <_end+0x6665f962>
    1428:	02b53633          	mulhu	a2,a0,a1
    142c:	34c2aa23          	sw	a2,852(t0)

00001430 <inst_230>:
    1430:	66666537          	lui	a0,0x66666
    1434:	66650513          	addi	a0,a0,1638 # 66666666 <_end+0x6665f962>
    1438:	0000b5b7          	lui	a1,0xb
    143c:	50458593          	addi	a1,a1,1284 # b504 <_end+0x4800>
    1440:	02b53633          	mulhu	a2,a0,a1
    1444:	34c2ac23          	sw	a2,856(t0)

00001448 <inst_231>:
    1448:	66666537          	lui	a0,0x66666
    144c:	66650513          	addi	a0,a0,1638 # 66666666 <_end+0x6665f962>
    1450:	00000593          	li	a1,0
    1454:	02b53633          	mulhu	a2,a0,a1
    1458:	34c2ae23          	sw	a2,860(t0)

0000145c <inst_232>:
    145c:	66666537          	lui	a0,0x66666
    1460:	66650513          	addi	a0,a0,1638 # 66666666 <_end+0x6665f962>
    1464:	000105b7          	lui	a1,0x10
    1468:	fff58593          	addi	a1,a1,-1 # ffff <_end+0x92fb>
    146c:	02b53633          	mulhu	a2,a0,a1
    1470:	36c2a023          	sw	a2,864(t0)

00001474 <inst_233>:
    1474:	66666537          	lui	a0,0x66666
    1478:	66650513          	addi	a0,a0,1638 # 66666666 <_end+0x6665f962>
    147c:	00200593          	li	a1,2
    1480:	02b53633          	mulhu	a2,a0,a1
    1484:	36c2a223          	sw	a2,868(t0)

00001488 <inst_234>:
    1488:	66666537          	lui	a0,0x66666
    148c:	66650513          	addi	a0,a0,1638 # 66666666 <_end+0x6665f962>
    1490:	555555b7          	lui	a1,0x55555
    1494:	55458593          	addi	a1,a1,1364 # 55555554 <_end+0x5554e850>
    1498:	02b53633          	mulhu	a2,a0,a1
    149c:	36c2a423          	sw	a2,872(t0)

000014a0 <inst_235>:
    14a0:	66666537          	lui	a0,0x66666
    14a4:	66650513          	addi	a0,a0,1638 # 66666666 <_end+0x6665f962>
    14a8:	aaaab5b7          	lui	a1,0xaaaab
    14ac:	aa958593          	addi	a1,a1,-1367 # aaaaaaa9 <_end+0xaaaa3da5>
    14b0:	02b53633          	mulhu	a2,a0,a1
    14b4:	36c2a623          	sw	a2,876(t0)

000014b8 <inst_236>:
    14b8:	66666537          	lui	a0,0x66666
    14bc:	66650513          	addi	a0,a0,1638 # 66666666 <_end+0x6665f962>
    14c0:	00400593          	li	a1,4
    14c4:	02b53633          	mulhu	a2,a0,a1
    14c8:	36c2a823          	sw	a2,880(t0)

000014cc <inst_237>:
    14cc:	66666537          	lui	a0,0x66666
    14d0:	66650513          	addi	a0,a0,1638 # 66666666 <_end+0x6665f962>
    14d4:	333335b7          	lui	a1,0x33333
    14d8:	33258593          	addi	a1,a1,818 # 33333332 <_end+0x3332c62e>
    14dc:	02b53633          	mulhu	a2,a0,a1
    14e0:	36c2aa23          	sw	a2,884(t0)

000014e4 <inst_238>:
    14e4:	66666537          	lui	a0,0x66666
    14e8:	66650513          	addi	a0,a0,1638 # 66666666 <_end+0x6665f962>
    14ec:	666665b7          	lui	a1,0x66666
    14f0:	66558593          	addi	a1,a1,1637 # 66666665 <_end+0x6665f961>
    14f4:	02b53633          	mulhu	a2,a0,a1
    14f8:	36c2ac23          	sw	a2,888(t0)

000014fc <inst_239>:
    14fc:	66666537          	lui	a0,0x66666
    1500:	66650513          	addi	a0,a0,1638 # 66666666 <_end+0x6665f962>
    1504:	0000b5b7          	lui	a1,0xb
    1508:	50358593          	addi	a1,a1,1283 # b503 <_end+0x47ff>
    150c:	02b53633          	mulhu	a2,a0,a1
    1510:	36c2ae23          	sw	a2,892(t0)

00001514 <inst_240>:
    1514:	66666537          	lui	a0,0x66666
    1518:	66650513          	addi	a0,a0,1638 # 66666666 <_end+0x6665f962>
    151c:	000105b7          	lui	a1,0x10
    1520:	ffe58593          	addi	a1,a1,-2 # fffe <_end+0x92fa>
    1524:	02b53633          	mulhu	a2,a0,a1
    1528:	38c2a023          	sw	a2,896(t0)

0000152c <inst_241>:
    152c:	66666537          	lui	a0,0x66666
    1530:	66650513          	addi	a0,a0,1638 # 66666666 <_end+0x6665f962>
    1534:	555555b7          	lui	a1,0x55555
    1538:	55658593          	addi	a1,a1,1366 # 55555556 <_end+0x5554e852>
    153c:	02b53633          	mulhu	a2,a0,a1
    1540:	38c2a223          	sw	a2,900(t0)

00001544 <inst_242>:
    1544:	66666537          	lui	a0,0x66666
    1548:	66650513          	addi	a0,a0,1638 # 66666666 <_end+0x6665f962>
    154c:	aaaab5b7          	lui	a1,0xaaaab
    1550:	aab58593          	addi	a1,a1,-1365 # aaaaaaab <_end+0xaaaa3da7>
    1554:	02b53633          	mulhu	a2,a0,a1
    1558:	38c2a423          	sw	a2,904(t0)

0000155c <inst_243>:
    155c:	66666537          	lui	a0,0x66666
    1560:	66650513          	addi	a0,a0,1638 # 66666666 <_end+0x6665f962>
    1564:	00600593          	li	a1,6
    1568:	02b53633          	mulhu	a2,a0,a1
    156c:	38c2a623          	sw	a2,908(t0)

00001570 <inst_244>:
    1570:	66666537          	lui	a0,0x66666
    1574:	66650513          	addi	a0,a0,1638 # 66666666 <_end+0x6665f962>
    1578:	333335b7          	lui	a1,0x33333
    157c:	33458593          	addi	a1,a1,820 # 33333334 <_end+0x3332c630>
    1580:	02b53633          	mulhu	a2,a0,a1
    1584:	38c2a823          	sw	a2,912(t0)

00001588 <inst_245>:
    1588:	66666537          	lui	a0,0x66666
    158c:	66650513          	addi	a0,a0,1638 # 66666666 <_end+0x6665f962>
    1590:	666665b7          	lui	a1,0x66666
    1594:	66758593          	addi	a1,a1,1639 # 66666667 <_end+0x6665f963>
    1598:	02b53633          	mulhu	a2,a0,a1
    159c:	38c2aa23          	sw	a2,916(t0)

000015a0 <inst_246>:
    15a0:	66666537          	lui	a0,0x66666
    15a4:	66650513          	addi	a0,a0,1638 # 66666666 <_end+0x6665f962>
    15a8:	0000b5b7          	lui	a1,0xb
    15ac:	50558593          	addi	a1,a1,1285 # b505 <_end+0x4801>
    15b0:	02b53633          	mulhu	a2,a0,a1
    15b4:	38c2ac23          	sw	a2,920(t0)

000015b8 <inst_247>:
    15b8:	66666537          	lui	a0,0x66666
    15bc:	66650513          	addi	a0,a0,1638 # 66666666 <_end+0x6665f962>
    15c0:	000105b7          	lui	a1,0x10
    15c4:	02b53633          	mulhu	a2,a0,a1
    15c8:	38c2ae23          	sw	a2,924(t0)

000015cc <inst_248>:
    15cc:	0000b537          	lui	a0,0xb
    15d0:	50450513          	addi	a0,a0,1284 # b504 <_end+0x4800>
    15d4:	00300593          	li	a1,3
    15d8:	02b53633          	mulhu	a2,a0,a1
    15dc:	3ac2a023          	sw	a2,928(t0)

000015e0 <inst_249>:
    15e0:	0000b537          	lui	a0,0xb
    15e4:	50450513          	addi	a0,a0,1284 # b504 <_end+0x4800>
    15e8:	555555b7          	lui	a1,0x55555
    15ec:	55558593          	addi	a1,a1,1365 # 55555555 <_end+0x5554e851>
    15f0:	02b53633          	mulhu	a2,a0,a1
    15f4:	3ac2a223          	sw	a2,932(t0)

000015f8 <inst_250>:
    15f8:	0000b537          	lui	a0,0xb
    15fc:	50450513          	addi	a0,a0,1284 # b504 <_end+0x4800>
    1600:	aaaab5b7          	lui	a1,0xaaaab
    1604:	aaa58593          	addi	a1,a1,-1366 # aaaaaaaa <_end+0xaaaa3da6>
    1608:	02b53633          	mulhu	a2,a0,a1
    160c:	3ac2a423          	sw	a2,936(t0)

00001610 <inst_251>:
    1610:	0000b537          	lui	a0,0xb
    1614:	50450513          	addi	a0,a0,1284 # b504 <_end+0x4800>
    1618:	00500593          	li	a1,5
    161c:	02b53633          	mulhu	a2,a0,a1
    1620:	3ac2a623          	sw	a2,940(t0)

00001624 <inst_252>:
    1624:	0000b537          	lui	a0,0xb
    1628:	50450513          	addi	a0,a0,1284 # b504 <_end+0x4800>
    162c:	333335b7          	lui	a1,0x33333
    1630:	33358593          	addi	a1,a1,819 # 33333333 <_end+0x3332c62f>
    1634:	02b53633          	mulhu	a2,a0,a1
    1638:	3ac2a823          	sw	a2,944(t0)

0000163c <inst_253>:
    163c:	0000b537          	lui	a0,0xb
    1640:	50450513          	addi	a0,a0,1284 # b504 <_end+0x4800>
    1644:	666665b7          	lui	a1,0x66666
    1648:	66658593          	addi	a1,a1,1638 # 66666666 <_end+0x6665f962>
    164c:	02b53633          	mulhu	a2,a0,a1
    1650:	3ac2aa23          	sw	a2,948(t0)

00001654 <inst_254>:
    1654:	0000b537          	lui	a0,0xb
    1658:	50450513          	addi	a0,a0,1284 # b504 <_end+0x4800>
    165c:	0000b5b7          	lui	a1,0xb
    1660:	50458593          	addi	a1,a1,1284 # b504 <_end+0x4800>
    1664:	02b53633          	mulhu	a2,a0,a1
    1668:	3ac2ac23          	sw	a2,952(t0)

0000166c <inst_255>:
    166c:	0000b537          	lui	a0,0xb
    1670:	50450513          	addi	a0,a0,1284 # b504 <_end+0x4800>
    1674:	00000593          	li	a1,0
    1678:	02b53633          	mulhu	a2,a0,a1
    167c:	3ac2ae23          	sw	a2,956(t0)

00001680 <inst_256>:
    1680:	0000b537          	lui	a0,0xb
    1684:	50450513          	addi	a0,a0,1284 # b504 <_end+0x4800>
    1688:	000105b7          	lui	a1,0x10
    168c:	fff58593          	addi	a1,a1,-1 # ffff <_end+0x92fb>
    1690:	02b53633          	mulhu	a2,a0,a1
    1694:	3cc2a023          	sw	a2,960(t0)

00001698 <inst_257>:
    1698:	0000b537          	lui	a0,0xb
    169c:	50450513          	addi	a0,a0,1284 # b504 <_end+0x4800>
    16a0:	00200593          	li	a1,2
    16a4:	02b53633          	mulhu	a2,a0,a1
    16a8:	3cc2a223          	sw	a2,964(t0)

000016ac <inst_258>:
    16ac:	0000b537          	lui	a0,0xb
    16b0:	50450513          	addi	a0,a0,1284 # b504 <_end+0x4800>
    16b4:	555555b7          	lui	a1,0x55555
    16b8:	55458593          	addi	a1,a1,1364 # 55555554 <_end+0x5554e850>
    16bc:	02b53633          	mulhu	a2,a0,a1
    16c0:	3cc2a423          	sw	a2,968(t0)

000016c4 <inst_259>:
    16c4:	0000b537          	lui	a0,0xb
    16c8:	50450513          	addi	a0,a0,1284 # b504 <_end+0x4800>
    16cc:	aaaab5b7          	lui	a1,0xaaaab
    16d0:	aa958593          	addi	a1,a1,-1367 # aaaaaaa9 <_end+0xaaaa3da5>
    16d4:	02b53633          	mulhu	a2,a0,a1
    16d8:	3cc2a623          	sw	a2,972(t0)

000016dc <inst_260>:
    16dc:	0000b537          	lui	a0,0xb
    16e0:	50450513          	addi	a0,a0,1284 # b504 <_end+0x4800>
    16e4:	00400593          	li	a1,4
    16e8:	02b53633          	mulhu	a2,a0,a1
    16ec:	3cc2a823          	sw	a2,976(t0)

000016f0 <inst_261>:
    16f0:	0000b537          	lui	a0,0xb
    16f4:	50450513          	addi	a0,a0,1284 # b504 <_end+0x4800>
    16f8:	333335b7          	lui	a1,0x33333
    16fc:	33258593          	addi	a1,a1,818 # 33333332 <_end+0x3332c62e>
    1700:	02b53633          	mulhu	a2,a0,a1
    1704:	3cc2aa23          	sw	a2,980(t0)

00001708 <inst_262>:
    1708:	0000b537          	lui	a0,0xb
    170c:	50450513          	addi	a0,a0,1284 # b504 <_end+0x4800>
    1710:	666665b7          	lui	a1,0x66666
    1714:	66558593          	addi	a1,a1,1637 # 66666665 <_end+0x6665f961>
    1718:	02b53633          	mulhu	a2,a0,a1
    171c:	3cc2ac23          	sw	a2,984(t0)

00001720 <inst_263>:
    1720:	0000b537          	lui	a0,0xb
    1724:	50450513          	addi	a0,a0,1284 # b504 <_end+0x4800>
    1728:	0000b5b7          	lui	a1,0xb
    172c:	50358593          	addi	a1,a1,1283 # b503 <_end+0x47ff>
    1730:	02b53633          	mulhu	a2,a0,a1
    1734:	3cc2ae23          	sw	a2,988(t0)

00001738 <inst_264>:
    1738:	0000b537          	lui	a0,0xb
    173c:	50450513          	addi	a0,a0,1284 # b504 <_end+0x4800>
    1740:	000105b7          	lui	a1,0x10
    1744:	ffe58593          	addi	a1,a1,-2 # fffe <_end+0x92fa>
    1748:	02b53633          	mulhu	a2,a0,a1
    174c:	3ec2a023          	sw	a2,992(t0)

00001750 <inst_265>:
    1750:	0000b537          	lui	a0,0xb
    1754:	50450513          	addi	a0,a0,1284 # b504 <_end+0x4800>
    1758:	555555b7          	lui	a1,0x55555
    175c:	55658593          	addi	a1,a1,1366 # 55555556 <_end+0x5554e852>
    1760:	02b53633          	mulhu	a2,a0,a1
    1764:	3ec2a223          	sw	a2,996(t0)

00001768 <inst_266>:
    1768:	0000b537          	lui	a0,0xb
    176c:	50450513          	addi	a0,a0,1284 # b504 <_end+0x4800>
    1770:	aaaab5b7          	lui	a1,0xaaaab
    1774:	aab58593          	addi	a1,a1,-1365 # aaaaaaab <_end+0xaaaa3da7>
    1778:	02b53633          	mulhu	a2,a0,a1
    177c:	3ec2a423          	sw	a2,1000(t0)

00001780 <inst_267>:
    1780:	0000b537          	lui	a0,0xb
    1784:	50450513          	addi	a0,a0,1284 # b504 <_end+0x4800>
    1788:	00600593          	li	a1,6
    178c:	02b53633          	mulhu	a2,a0,a1
    1790:	3ec2a623          	sw	a2,1004(t0)

00001794 <inst_268>:
    1794:	0000b537          	lui	a0,0xb
    1798:	50450513          	addi	a0,a0,1284 # b504 <_end+0x4800>
    179c:	333335b7          	lui	a1,0x33333
    17a0:	33458593          	addi	a1,a1,820 # 33333334 <_end+0x3332c630>
    17a4:	02b53633          	mulhu	a2,a0,a1
    17a8:	3ec2a823          	sw	a2,1008(t0)

000017ac <inst_269>:
    17ac:	0000b537          	lui	a0,0xb
    17b0:	50450513          	addi	a0,a0,1284 # b504 <_end+0x4800>
    17b4:	666665b7          	lui	a1,0x66666
    17b8:	66758593          	addi	a1,a1,1639 # 66666667 <_end+0x6665f963>
    17bc:	02b53633          	mulhu	a2,a0,a1
    17c0:	3ec2aa23          	sw	a2,1012(t0)

000017c4 <inst_270>:
    17c4:	0000b537          	lui	a0,0xb
    17c8:	50450513          	addi	a0,a0,1284 # b504 <_end+0x4800>
    17cc:	0000b5b7          	lui	a1,0xb
    17d0:	50558593          	addi	a1,a1,1285 # b505 <_end+0x4801>
    17d4:	02b53633          	mulhu	a2,a0,a1
    17d8:	3ec2ac23          	sw	a2,1016(t0)

000017dc <inst_271>:
    17dc:	0000b537          	lui	a0,0xb
    17e0:	50450513          	addi	a0,a0,1284 # b504 <_end+0x4800>
    17e4:	00100593          	li	a1,1
    17e8:	02b53633          	mulhu	a2,a0,a1
    17ec:	3ec2ae23          	sw	a2,1020(t0)

000017f0 <inst_272>:
    17f0:	0000b537          	lui	a0,0xb
    17f4:	50450513          	addi	a0,a0,1284 # b504 <_end+0x4800>
    17f8:	000105b7          	lui	a1,0x10
    17fc:	02b53633          	mulhu	a2,a0,a1
    1800:	40c2a023          	sw	a2,1024(t0)

00001804 <inst_273>:
    1804:	00000513          	li	a0,0
    1808:	00300593          	li	a1,3
    180c:	02b53633          	mulhu	a2,a0,a1
    1810:	40c2a223          	sw	a2,1028(t0)

00001814 <inst_274>:
    1814:	00000513          	li	a0,0
    1818:	555555b7          	lui	a1,0x55555
    181c:	55558593          	addi	a1,a1,1365 # 55555555 <_end+0x5554e851>
    1820:	02b53633          	mulhu	a2,a0,a1
    1824:	40c2a423          	sw	a2,1032(t0)

00001828 <inst_275>:
    1828:	00000513          	li	a0,0
    182c:	aaaab5b7          	lui	a1,0xaaaab
    1830:	aaa58593          	addi	a1,a1,-1366 # aaaaaaaa <_end+0xaaaa3da6>
    1834:	02b53633          	mulhu	a2,a0,a1
    1838:	40c2a623          	sw	a2,1036(t0)

0000183c <inst_276>:
    183c:	00000513          	li	a0,0
    1840:	00500593          	li	a1,5
    1844:	02b53633          	mulhu	a2,a0,a1
    1848:	40c2a823          	sw	a2,1040(t0)

0000184c <inst_277>:
    184c:	00000513          	li	a0,0
    1850:	333335b7          	lui	a1,0x33333
    1854:	33358593          	addi	a1,a1,819 # 33333333 <_end+0x3332c62f>
    1858:	02b53633          	mulhu	a2,a0,a1
    185c:	40c2aa23          	sw	a2,1044(t0)

00001860 <inst_278>:
    1860:	00000513          	li	a0,0
    1864:	666665b7          	lui	a1,0x66666
    1868:	66658593          	addi	a1,a1,1638 # 66666666 <_end+0x6665f962>
    186c:	02b53633          	mulhu	a2,a0,a1
    1870:	40c2ac23          	sw	a2,1048(t0)

00001874 <inst_279>:
    1874:	00000513          	li	a0,0
    1878:	0000b5b7          	lui	a1,0xb
    187c:	50458593          	addi	a1,a1,1284 # b504 <_end+0x4800>
    1880:	02b53633          	mulhu	a2,a0,a1
    1884:	40c2ae23          	sw	a2,1052(t0)

00001888 <inst_280>:
    1888:	00000513          	li	a0,0
    188c:	000105b7          	lui	a1,0x10
    1890:	fff58593          	addi	a1,a1,-1 # ffff <_end+0x92fb>
    1894:	02b53633          	mulhu	a2,a0,a1
    1898:	42c2a023          	sw	a2,1056(t0)

0000189c <inst_281>:
    189c:	00000513          	li	a0,0
    18a0:	555555b7          	lui	a1,0x55555
    18a4:	55458593          	addi	a1,a1,1364 # 55555554 <_end+0x5554e850>
    18a8:	02b53633          	mulhu	a2,a0,a1
    18ac:	42c2a223          	sw	a2,1060(t0)

000018b0 <inst_282>:
    18b0:	00000513          	li	a0,0
    18b4:	aaaab5b7          	lui	a1,0xaaaab
    18b8:	aa958593          	addi	a1,a1,-1367 # aaaaaaa9 <_end+0xaaaa3da5>
    18bc:	02b53633          	mulhu	a2,a0,a1
    18c0:	42c2a423          	sw	a2,1064(t0)

000018c4 <inst_283>:
    18c4:	00000513          	li	a0,0
    18c8:	00400593          	li	a1,4
    18cc:	02b53633          	mulhu	a2,a0,a1
    18d0:	42c2a623          	sw	a2,1068(t0)

000018d4 <inst_284>:
    18d4:	00000513          	li	a0,0
    18d8:	333335b7          	lui	a1,0x33333
    18dc:	33258593          	addi	a1,a1,818 # 33333332 <_end+0x3332c62e>
    18e0:	02b53633          	mulhu	a2,a0,a1
    18e4:	42c2a823          	sw	a2,1072(t0)

000018e8 <inst_285>:
    18e8:	00000513          	li	a0,0
    18ec:	666665b7          	lui	a1,0x66666
    18f0:	66558593          	addi	a1,a1,1637 # 66666665 <_end+0x6665f961>
    18f4:	02b53633          	mulhu	a2,a0,a1
    18f8:	42c2aa23          	sw	a2,1076(t0)

000018fc <inst_286>:
    18fc:	00000513          	li	a0,0
    1900:	0000b5b7          	lui	a1,0xb
    1904:	50358593          	addi	a1,a1,1283 # b503 <_end+0x47ff>
    1908:	02b53633          	mulhu	a2,a0,a1
    190c:	42c2ac23          	sw	a2,1080(t0)

00001910 <inst_287>:
    1910:	00000513          	li	a0,0
    1914:	000105b7          	lui	a1,0x10
    1918:	ffe58593          	addi	a1,a1,-2 # fffe <_end+0x92fa>
    191c:	02b53633          	mulhu	a2,a0,a1
    1920:	42c2ae23          	sw	a2,1084(t0)

00001924 <inst_288>:
    1924:	00000513          	li	a0,0
    1928:	555555b7          	lui	a1,0x55555
    192c:	55658593          	addi	a1,a1,1366 # 55555556 <_end+0x5554e852>
    1930:	02b53633          	mulhu	a2,a0,a1
    1934:	44c2a023          	sw	a2,1088(t0)

00001938 <inst_289>:
    1938:	00000513          	li	a0,0
    193c:	aaaab5b7          	lui	a1,0xaaaab
    1940:	aab58593          	addi	a1,a1,-1365 # aaaaaaab <_end+0xaaaa3da7>
    1944:	02b53633          	mulhu	a2,a0,a1
    1948:	44c2a223          	sw	a2,1092(t0)

0000194c <inst_290>:
    194c:	00000513          	li	a0,0
    1950:	00600593          	li	a1,6
    1954:	02b53633          	mulhu	a2,a0,a1
    1958:	44c2a423          	sw	a2,1096(t0)

0000195c <inst_291>:
    195c:	00000513          	li	a0,0
    1960:	333335b7          	lui	a1,0x33333
    1964:	33458593          	addi	a1,a1,820 # 33333334 <_end+0x3332c630>
    1968:	02b53633          	mulhu	a2,a0,a1
    196c:	44c2a623          	sw	a2,1100(t0)

00001970 <inst_292>:
    1970:	00000513          	li	a0,0
    1974:	666665b7          	lui	a1,0x66666
    1978:	66758593          	addi	a1,a1,1639 # 66666667 <_end+0x6665f963>
    197c:	02b53633          	mulhu	a2,a0,a1
    1980:	44c2a823          	sw	a2,1104(t0)

00001984 <inst_293>:
    1984:	00000513          	li	a0,0
    1988:	0000b5b7          	lui	a1,0xb
    198c:	50558593          	addi	a1,a1,1285 # b505 <_end+0x4801>
    1990:	02b53633          	mulhu	a2,a0,a1
    1994:	44c2aa23          	sw	a2,1108(t0)

00001998 <inst_294>:
    1998:	00000513          	li	a0,0
    199c:	00100593          	li	a1,1
    19a0:	02b53633          	mulhu	a2,a0,a1
    19a4:	44c2ac23          	sw	a2,1112(t0)

000019a8 <inst_295>:
    19a8:	00000513          	li	a0,0
    19ac:	000105b7          	lui	a1,0x10
    19b0:	02b53633          	mulhu	a2,a0,a1
    19b4:	44c2ae23          	sw	a2,1116(t0)

000019b8 <inst_296>:
    19b8:	00010537          	lui	a0,0x10
    19bc:	fff50513          	addi	a0,a0,-1 # ffff <_end+0x92fb>
    19c0:	00300593          	li	a1,3
    19c4:	02b53633          	mulhu	a2,a0,a1
    19c8:	46c2a023          	sw	a2,1120(t0)

000019cc <inst_297>:
    19cc:	00010537          	lui	a0,0x10
    19d0:	fff50513          	addi	a0,a0,-1 # ffff <_end+0x92fb>
    19d4:	555555b7          	lui	a1,0x55555
    19d8:	55558593          	addi	a1,a1,1365 # 55555555 <_end+0x5554e851>
    19dc:	02b53633          	mulhu	a2,a0,a1
    19e0:	46c2a223          	sw	a2,1124(t0)

000019e4 <inst_298>:
    19e4:	00010537          	lui	a0,0x10
    19e8:	fff50513          	addi	a0,a0,-1 # ffff <_end+0x92fb>
    19ec:	aaaab5b7          	lui	a1,0xaaaab
    19f0:	aaa58593          	addi	a1,a1,-1366 # aaaaaaaa <_end+0xaaaa3da6>
    19f4:	02b53633          	mulhu	a2,a0,a1
    19f8:	46c2a423          	sw	a2,1128(t0)

000019fc <inst_299>:
    19fc:	00010537          	lui	a0,0x10
    1a00:	fff50513          	addi	a0,a0,-1 # ffff <_end+0x92fb>
    1a04:	00500593          	li	a1,5
    1a08:	02b53633          	mulhu	a2,a0,a1
    1a0c:	46c2a623          	sw	a2,1132(t0)

00001a10 <inst_300>:
    1a10:	00010537          	lui	a0,0x10
    1a14:	fff50513          	addi	a0,a0,-1 # ffff <_end+0x92fb>
    1a18:	333335b7          	lui	a1,0x33333
    1a1c:	33358593          	addi	a1,a1,819 # 33333333 <_end+0x3332c62f>
    1a20:	02b53633          	mulhu	a2,a0,a1
    1a24:	46c2a823          	sw	a2,1136(t0)

00001a28 <inst_301>:
    1a28:	00010537          	lui	a0,0x10
    1a2c:	fff50513          	addi	a0,a0,-1 # ffff <_end+0x92fb>
    1a30:	666665b7          	lui	a1,0x66666
    1a34:	66658593          	addi	a1,a1,1638 # 66666666 <_end+0x6665f962>
    1a38:	02b53633          	mulhu	a2,a0,a1
    1a3c:	46c2aa23          	sw	a2,1140(t0)

00001a40 <inst_302>:
    1a40:	00010537          	lui	a0,0x10
    1a44:	fff50513          	addi	a0,a0,-1 # ffff <_end+0x92fb>
    1a48:	0000b5b7          	lui	a1,0xb
    1a4c:	50458593          	addi	a1,a1,1284 # b504 <_end+0x4800>
    1a50:	02b53633          	mulhu	a2,a0,a1
    1a54:	46c2ac23          	sw	a2,1144(t0)

00001a58 <inst_303>:
    1a58:	00010537          	lui	a0,0x10
    1a5c:	fff50513          	addi	a0,a0,-1 # ffff <_end+0x92fb>
    1a60:	00000593          	li	a1,0
    1a64:	02b53633          	mulhu	a2,a0,a1
    1a68:	46c2ae23          	sw	a2,1148(t0)

00001a6c <inst_304>:
    1a6c:	00010537          	lui	a0,0x10
    1a70:	fff50513          	addi	a0,a0,-1 # ffff <_end+0x92fb>
    1a74:	000105b7          	lui	a1,0x10
    1a78:	fff58593          	addi	a1,a1,-1 # ffff <_end+0x92fb>
    1a7c:	02b53633          	mulhu	a2,a0,a1
    1a80:	48c2a023          	sw	a2,1152(t0)

00001a84 <inst_305>:
    1a84:	00010537          	lui	a0,0x10
    1a88:	fff50513          	addi	a0,a0,-1 # ffff <_end+0x92fb>
    1a8c:	00200593          	li	a1,2
    1a90:	02b53633          	mulhu	a2,a0,a1
    1a94:	48c2a223          	sw	a2,1156(t0)

00001a98 <inst_306>:
    1a98:	00010537          	lui	a0,0x10
    1a9c:	fff50513          	addi	a0,a0,-1 # ffff <_end+0x92fb>
    1aa0:	555555b7          	lui	a1,0x55555
    1aa4:	55458593          	addi	a1,a1,1364 # 55555554 <_end+0x5554e850>
    1aa8:	02b53633          	mulhu	a2,a0,a1
    1aac:	48c2a423          	sw	a2,1160(t0)

00001ab0 <inst_307>:
    1ab0:	00010537          	lui	a0,0x10
    1ab4:	fff50513          	addi	a0,a0,-1 # ffff <_end+0x92fb>
    1ab8:	aaaab5b7          	lui	a1,0xaaaab
    1abc:	aa958593          	addi	a1,a1,-1367 # aaaaaaa9 <_end+0xaaaa3da5>
    1ac0:	02b53633          	mulhu	a2,a0,a1
    1ac4:	48c2a623          	sw	a2,1164(t0)

00001ac8 <inst_308>:
    1ac8:	00010537          	lui	a0,0x10
    1acc:	fff50513          	addi	a0,a0,-1 # ffff <_end+0x92fb>
    1ad0:	00400593          	li	a1,4
    1ad4:	02b53633          	mulhu	a2,a0,a1
    1ad8:	48c2a823          	sw	a2,1168(t0)

00001adc <inst_309>:
    1adc:	00010537          	lui	a0,0x10
    1ae0:	fff50513          	addi	a0,a0,-1 # ffff <_end+0x92fb>
    1ae4:	333335b7          	lui	a1,0x33333
    1ae8:	33258593          	addi	a1,a1,818 # 33333332 <_end+0x3332c62e>
    1aec:	02b53633          	mulhu	a2,a0,a1
    1af0:	48c2aa23          	sw	a2,1172(t0)

00001af4 <inst_310>:
    1af4:	00010537          	lui	a0,0x10
    1af8:	fff50513          	addi	a0,a0,-1 # ffff <_end+0x92fb>
    1afc:	666665b7          	lui	a1,0x66666
    1b00:	66558593          	addi	a1,a1,1637 # 66666665 <_end+0x6665f961>
    1b04:	02b53633          	mulhu	a2,a0,a1
    1b08:	48c2ac23          	sw	a2,1176(t0)

00001b0c <inst_311>:
    1b0c:	00010537          	lui	a0,0x10
    1b10:	fff50513          	addi	a0,a0,-1 # ffff <_end+0x92fb>
    1b14:	0000b5b7          	lui	a1,0xb
    1b18:	50358593          	addi	a1,a1,1283 # b503 <_end+0x47ff>
    1b1c:	02b53633          	mulhu	a2,a0,a1
    1b20:	48c2ae23          	sw	a2,1180(t0)

00001b24 <inst_312>:
    1b24:	00010537          	lui	a0,0x10
    1b28:	fff50513          	addi	a0,a0,-1 # ffff <_end+0x92fb>
    1b2c:	000105b7          	lui	a1,0x10
    1b30:	ffe58593          	addi	a1,a1,-2 # fffe <_end+0x92fa>
    1b34:	02b53633          	mulhu	a2,a0,a1
    1b38:	4ac2a023          	sw	a2,1184(t0)

00001b3c <inst_313>:
    1b3c:	00010537          	lui	a0,0x10
    1b40:	fff50513          	addi	a0,a0,-1 # ffff <_end+0x92fb>
    1b44:	555555b7          	lui	a1,0x55555
    1b48:	55658593          	addi	a1,a1,1366 # 55555556 <_end+0x5554e852>
    1b4c:	02b53633          	mulhu	a2,a0,a1
    1b50:	4ac2a223          	sw	a2,1188(t0)

00001b54 <inst_314>:
    1b54:	00010537          	lui	a0,0x10
    1b58:	fff50513          	addi	a0,a0,-1 # ffff <_end+0x92fb>
    1b5c:	aaaab5b7          	lui	a1,0xaaaab
    1b60:	aab58593          	addi	a1,a1,-1365 # aaaaaaab <_end+0xaaaa3da7>
    1b64:	02b53633          	mulhu	a2,a0,a1
    1b68:	4ac2a423          	sw	a2,1192(t0)

00001b6c <inst_315>:
    1b6c:	00010537          	lui	a0,0x10
    1b70:	fff50513          	addi	a0,a0,-1 # ffff <_end+0x92fb>
    1b74:	00600593          	li	a1,6
    1b78:	02b53633          	mulhu	a2,a0,a1
    1b7c:	4ac2a623          	sw	a2,1196(t0)

00001b80 <inst_316>:
    1b80:	00010537          	lui	a0,0x10
    1b84:	fff50513          	addi	a0,a0,-1 # ffff <_end+0x92fb>
    1b88:	333335b7          	lui	a1,0x33333
    1b8c:	33458593          	addi	a1,a1,820 # 33333334 <_end+0x3332c630>
    1b90:	02b53633          	mulhu	a2,a0,a1
    1b94:	4ac2a823          	sw	a2,1200(t0)

00001b98 <inst_317>:
    1b98:	00010537          	lui	a0,0x10
    1b9c:	fff50513          	addi	a0,a0,-1 # ffff <_end+0x92fb>
    1ba0:	666665b7          	lui	a1,0x66666
    1ba4:	66758593          	addi	a1,a1,1639 # 66666667 <_end+0x6665f963>
    1ba8:	02b53633          	mulhu	a2,a0,a1
    1bac:	4ac2aa23          	sw	a2,1204(t0)

00001bb0 <inst_318>:
    1bb0:	00010537          	lui	a0,0x10
    1bb4:	fff50513          	addi	a0,a0,-1 # ffff <_end+0x92fb>
    1bb8:	0000b5b7          	lui	a1,0xb
    1bbc:	50558593          	addi	a1,a1,1285 # b505 <_end+0x4801>
    1bc0:	02b53633          	mulhu	a2,a0,a1
    1bc4:	4ac2ac23          	sw	a2,1208(t0)

00001bc8 <inst_319>:
    1bc8:	00010537          	lui	a0,0x10
    1bcc:	fff50513          	addi	a0,a0,-1 # ffff <_end+0x92fb>
    1bd0:	00100593          	li	a1,1
    1bd4:	02b53633          	mulhu	a2,a0,a1
    1bd8:	4ac2ae23          	sw	a2,1212(t0)

00001bdc <inst_320>:
    1bdc:	00010537          	lui	a0,0x10
    1be0:	fff50513          	addi	a0,a0,-1 # ffff <_end+0x92fb>
    1be4:	000105b7          	lui	a1,0x10
    1be8:	02b53633          	mulhu	a2,a0,a1
    1bec:	4cc2a023          	sw	a2,1216(t0)

00001bf0 <inst_321>:
    1bf0:	00200513          	li	a0,2
    1bf4:	00300593          	li	a1,3
    1bf8:	02b53633          	mulhu	a2,a0,a1
    1bfc:	4cc2a223          	sw	a2,1220(t0)

00001c00 <inst_322>:
    1c00:	00200513          	li	a0,2
    1c04:	555555b7          	lui	a1,0x55555
    1c08:	55558593          	addi	a1,a1,1365 # 55555555 <_end+0x5554e851>
    1c0c:	02b53633          	mulhu	a2,a0,a1
    1c10:	4cc2a423          	sw	a2,1224(t0)

00001c14 <inst_323>:
    1c14:	00200513          	li	a0,2
    1c18:	aaaab5b7          	lui	a1,0xaaaab
    1c1c:	aaa58593          	addi	a1,a1,-1366 # aaaaaaaa <_end+0xaaaa3da6>
    1c20:	02b53633          	mulhu	a2,a0,a1
    1c24:	4cc2a623          	sw	a2,1228(t0)

00001c28 <inst_324>:
    1c28:	00200513          	li	a0,2
    1c2c:	00500593          	li	a1,5
    1c30:	02b53633          	mulhu	a2,a0,a1
    1c34:	4cc2a823          	sw	a2,1232(t0)

00001c38 <inst_325>:
    1c38:	00200513          	li	a0,2
    1c3c:	333335b7          	lui	a1,0x33333
    1c40:	33358593          	addi	a1,a1,819 # 33333333 <_end+0x3332c62f>
    1c44:	02b53633          	mulhu	a2,a0,a1
    1c48:	4cc2aa23          	sw	a2,1236(t0)

00001c4c <inst_326>:
    1c4c:	00200513          	li	a0,2
    1c50:	666665b7          	lui	a1,0x66666
    1c54:	66658593          	addi	a1,a1,1638 # 66666666 <_end+0x6665f962>
    1c58:	02b53633          	mulhu	a2,a0,a1
    1c5c:	4cc2ac23          	sw	a2,1240(t0)

00001c60 <inst_327>:
    1c60:	00200513          	li	a0,2
    1c64:	0000b5b7          	lui	a1,0xb
    1c68:	50458593          	addi	a1,a1,1284 # b504 <_end+0x4800>
    1c6c:	02b53633          	mulhu	a2,a0,a1
    1c70:	4cc2ae23          	sw	a2,1244(t0)

00001c74 <inst_328>:
    1c74:	00200513          	li	a0,2
    1c78:	00000593          	li	a1,0
    1c7c:	02b53633          	mulhu	a2,a0,a1
    1c80:	4ec2a023          	sw	a2,1248(t0)

00001c84 <inst_329>:
    1c84:	00200513          	li	a0,2
    1c88:	000105b7          	lui	a1,0x10
    1c8c:	fff58593          	addi	a1,a1,-1 # ffff <_end+0x92fb>
    1c90:	02b53633          	mulhu	a2,a0,a1
    1c94:	4ec2a223          	sw	a2,1252(t0)

00001c98 <inst_330>:
    1c98:	00200513          	li	a0,2
    1c9c:	00200593          	li	a1,2
    1ca0:	02b53633          	mulhu	a2,a0,a1
    1ca4:	4ec2a423          	sw	a2,1256(t0)

00001ca8 <inst_331>:
    1ca8:	00200513          	li	a0,2
    1cac:	555555b7          	lui	a1,0x55555
    1cb0:	55458593          	addi	a1,a1,1364 # 55555554 <_end+0x5554e850>
    1cb4:	02b53633          	mulhu	a2,a0,a1
    1cb8:	4ec2a623          	sw	a2,1260(t0)

00001cbc <inst_332>:
    1cbc:	00200513          	li	a0,2
    1cc0:	aaaab5b7          	lui	a1,0xaaaab
    1cc4:	aa958593          	addi	a1,a1,-1367 # aaaaaaa9 <_end+0xaaaa3da5>
    1cc8:	02b53633          	mulhu	a2,a0,a1
    1ccc:	4ec2a823          	sw	a2,1264(t0)

00001cd0 <inst_333>:
    1cd0:	00200513          	li	a0,2
    1cd4:	00400593          	li	a1,4
    1cd8:	02b53633          	mulhu	a2,a0,a1
    1cdc:	4ec2aa23          	sw	a2,1268(t0)

00001ce0 <inst_334>:
    1ce0:	00200513          	li	a0,2
    1ce4:	333335b7          	lui	a1,0x33333
    1ce8:	33258593          	addi	a1,a1,818 # 33333332 <_end+0x3332c62e>
    1cec:	02b53633          	mulhu	a2,a0,a1
    1cf0:	4ec2ac23          	sw	a2,1272(t0)

00001cf4 <inst_335>:
    1cf4:	00200513          	li	a0,2
    1cf8:	666665b7          	lui	a1,0x66666
    1cfc:	66558593          	addi	a1,a1,1637 # 66666665 <_end+0x6665f961>
    1d00:	02b53633          	mulhu	a2,a0,a1
    1d04:	4ec2ae23          	sw	a2,1276(t0)

00001d08 <inst_336>:
    1d08:	00200513          	li	a0,2
    1d0c:	0000b5b7          	lui	a1,0xb
    1d10:	50358593          	addi	a1,a1,1283 # b503 <_end+0x47ff>
    1d14:	02b53633          	mulhu	a2,a0,a1
    1d18:	50c2a023          	sw	a2,1280(t0)

00001d1c <inst_337>:
    1d1c:	00200513          	li	a0,2
    1d20:	000105b7          	lui	a1,0x10
    1d24:	ffe58593          	addi	a1,a1,-2 # fffe <_end+0x92fa>
    1d28:	02b53633          	mulhu	a2,a0,a1
    1d2c:	50c2a223          	sw	a2,1284(t0)

00001d30 <inst_338>:
    1d30:	00200513          	li	a0,2
    1d34:	555555b7          	lui	a1,0x55555
    1d38:	55658593          	addi	a1,a1,1366 # 55555556 <_end+0x5554e852>
    1d3c:	02b53633          	mulhu	a2,a0,a1
    1d40:	50c2a423          	sw	a2,1288(t0)

00001d44 <inst_339>:
    1d44:	00200513          	li	a0,2
    1d48:	aaaab5b7          	lui	a1,0xaaaab
    1d4c:	aab58593          	addi	a1,a1,-1365 # aaaaaaab <_end+0xaaaa3da7>
    1d50:	02b53633          	mulhu	a2,a0,a1
    1d54:	50c2a623          	sw	a2,1292(t0)

00001d58 <inst_340>:
    1d58:	00200513          	li	a0,2
    1d5c:	00600593          	li	a1,6
    1d60:	02b53633          	mulhu	a2,a0,a1
    1d64:	50c2a823          	sw	a2,1296(t0)

00001d68 <inst_341>:
    1d68:	00200513          	li	a0,2
    1d6c:	333335b7          	lui	a1,0x33333
    1d70:	33458593          	addi	a1,a1,820 # 33333334 <_end+0x3332c630>
    1d74:	02b53633          	mulhu	a2,a0,a1
    1d78:	50c2aa23          	sw	a2,1300(t0)

00001d7c <inst_342>:
    1d7c:	00200513          	li	a0,2
    1d80:	666665b7          	lui	a1,0x66666
    1d84:	66758593          	addi	a1,a1,1639 # 66666667 <_end+0x6665f963>
    1d88:	02b53633          	mulhu	a2,a0,a1
    1d8c:	50c2ac23          	sw	a2,1304(t0)

00001d90 <inst_343>:
    1d90:	00200513          	li	a0,2
    1d94:	0000b5b7          	lui	a1,0xb
    1d98:	50558593          	addi	a1,a1,1285 # b505 <_end+0x4801>
    1d9c:	02b53633          	mulhu	a2,a0,a1
    1da0:	50c2ae23          	sw	a2,1308(t0)

00001da4 <inst_344>:
    1da4:	00200513          	li	a0,2
    1da8:	00100593          	li	a1,1
    1dac:	02b53633          	mulhu	a2,a0,a1
    1db0:	52c2a023          	sw	a2,1312(t0)

00001db4 <inst_345>:
    1db4:	00200513          	li	a0,2
    1db8:	000105b7          	lui	a1,0x10
    1dbc:	02b53633          	mulhu	a2,a0,a1
    1dc0:	52c2a223          	sw	a2,1316(t0)

00001dc4 <inst_346>:
    1dc4:	55555537          	lui	a0,0x55555
    1dc8:	55450513          	addi	a0,a0,1364 # 55555554 <_end+0x5554e850>
    1dcc:	00300593          	li	a1,3
    1dd0:	02b53633          	mulhu	a2,a0,a1
    1dd4:	52c2a423          	sw	a2,1320(t0)

00001dd8 <inst_347>:
    1dd8:	55555537          	lui	a0,0x55555
    1ddc:	55450513          	addi	a0,a0,1364 # 55555554 <_end+0x5554e850>
    1de0:	555555b7          	lui	a1,0x55555
    1de4:	55558593          	addi	a1,a1,1365 # 55555555 <_end+0x5554e851>
    1de8:	02b53633          	mulhu	a2,a0,a1
    1dec:	52c2a623          	sw	a2,1324(t0)

00001df0 <inst_348>:
    1df0:	55555537          	lui	a0,0x55555
    1df4:	55450513          	addi	a0,a0,1364 # 55555554 <_end+0x5554e850>
    1df8:	aaaab5b7          	lui	a1,0xaaaab
    1dfc:	aaa58593          	addi	a1,a1,-1366 # aaaaaaaa <_end+0xaaaa3da6>
    1e00:	02b53633          	mulhu	a2,a0,a1
    1e04:	52c2a823          	sw	a2,1328(t0)

00001e08 <inst_349>:
    1e08:	55555537          	lui	a0,0x55555
    1e0c:	55450513          	addi	a0,a0,1364 # 55555554 <_end+0x5554e850>
    1e10:	00500593          	li	a1,5
    1e14:	02b53633          	mulhu	a2,a0,a1
    1e18:	52c2aa23          	sw	a2,1332(t0)

00001e1c <inst_350>:
    1e1c:	55555537          	lui	a0,0x55555
    1e20:	55450513          	addi	a0,a0,1364 # 55555554 <_end+0x5554e850>
    1e24:	333335b7          	lui	a1,0x33333
    1e28:	33358593          	addi	a1,a1,819 # 33333333 <_end+0x3332c62f>
    1e2c:	02b53633          	mulhu	a2,a0,a1
    1e30:	52c2ac23          	sw	a2,1336(t0)

00001e34 <inst_351>:
    1e34:	55555537          	lui	a0,0x55555
    1e38:	55450513          	addi	a0,a0,1364 # 55555554 <_end+0x5554e850>
    1e3c:	666665b7          	lui	a1,0x66666
    1e40:	66658593          	addi	a1,a1,1638 # 66666666 <_end+0x6665f962>
    1e44:	02b53633          	mulhu	a2,a0,a1
    1e48:	52c2ae23          	sw	a2,1340(t0)

00001e4c <inst_352>:
    1e4c:	55555537          	lui	a0,0x55555
    1e50:	55450513          	addi	a0,a0,1364 # 55555554 <_end+0x5554e850>
    1e54:	0000b5b7          	lui	a1,0xb
    1e58:	50458593          	addi	a1,a1,1284 # b504 <_end+0x4800>
    1e5c:	02b53633          	mulhu	a2,a0,a1
    1e60:	54c2a023          	sw	a2,1344(t0)

00001e64 <inst_353>:
    1e64:	55555537          	lui	a0,0x55555
    1e68:	55450513          	addi	a0,a0,1364 # 55555554 <_end+0x5554e850>
    1e6c:	00000593          	li	a1,0
    1e70:	02b53633          	mulhu	a2,a0,a1
    1e74:	54c2a223          	sw	a2,1348(t0)

00001e78 <inst_354>:
    1e78:	55555537          	lui	a0,0x55555
    1e7c:	55450513          	addi	a0,a0,1364 # 55555554 <_end+0x5554e850>
    1e80:	000105b7          	lui	a1,0x10
    1e84:	fff58593          	addi	a1,a1,-1 # ffff <_end+0x92fb>
    1e88:	02b53633          	mulhu	a2,a0,a1
    1e8c:	54c2a423          	sw	a2,1352(t0)

00001e90 <inst_355>:
    1e90:	55555537          	lui	a0,0x55555
    1e94:	55450513          	addi	a0,a0,1364 # 55555554 <_end+0x5554e850>
    1e98:	00200593          	li	a1,2
    1e9c:	02b53633          	mulhu	a2,a0,a1
    1ea0:	54c2a623          	sw	a2,1356(t0)

00001ea4 <inst_356>:
    1ea4:	55555537          	lui	a0,0x55555
    1ea8:	55450513          	addi	a0,a0,1364 # 55555554 <_end+0x5554e850>
    1eac:	555555b7          	lui	a1,0x55555
    1eb0:	55458593          	addi	a1,a1,1364 # 55555554 <_end+0x5554e850>
    1eb4:	02b53633          	mulhu	a2,a0,a1
    1eb8:	54c2a823          	sw	a2,1360(t0)

00001ebc <inst_357>:
    1ebc:	55555537          	lui	a0,0x55555
    1ec0:	55450513          	addi	a0,a0,1364 # 55555554 <_end+0x5554e850>
    1ec4:	aaaab5b7          	lui	a1,0xaaaab
    1ec8:	aa958593          	addi	a1,a1,-1367 # aaaaaaa9 <_end+0xaaaa3da5>
    1ecc:	02b53633          	mulhu	a2,a0,a1
    1ed0:	54c2aa23          	sw	a2,1364(t0)

00001ed4 <inst_358>:
    1ed4:	55555537          	lui	a0,0x55555
    1ed8:	55450513          	addi	a0,a0,1364 # 55555554 <_end+0x5554e850>
    1edc:	00400593          	li	a1,4
    1ee0:	02b53633          	mulhu	a2,a0,a1
    1ee4:	54c2ac23          	sw	a2,1368(t0)

00001ee8 <inst_359>:
    1ee8:	55555537          	lui	a0,0x55555
    1eec:	55450513          	addi	a0,a0,1364 # 55555554 <_end+0x5554e850>
    1ef0:	333335b7          	lui	a1,0x33333
    1ef4:	33258593          	addi	a1,a1,818 # 33333332 <_end+0x3332c62e>
    1ef8:	02b53633          	mulhu	a2,a0,a1
    1efc:	54c2ae23          	sw	a2,1372(t0)

00001f00 <inst_360>:
    1f00:	55555537          	lui	a0,0x55555
    1f04:	55450513          	addi	a0,a0,1364 # 55555554 <_end+0x5554e850>
    1f08:	666665b7          	lui	a1,0x66666
    1f0c:	66558593          	addi	a1,a1,1637 # 66666665 <_end+0x6665f961>
    1f10:	02b53633          	mulhu	a2,a0,a1
    1f14:	56c2a023          	sw	a2,1376(t0)

00001f18 <inst_361>:
    1f18:	55555537          	lui	a0,0x55555
    1f1c:	55450513          	addi	a0,a0,1364 # 55555554 <_end+0x5554e850>
    1f20:	0000b5b7          	lui	a1,0xb
    1f24:	50358593          	addi	a1,a1,1283 # b503 <_end+0x47ff>
    1f28:	02b53633          	mulhu	a2,a0,a1
    1f2c:	56c2a223          	sw	a2,1380(t0)

00001f30 <inst_362>:
    1f30:	55555537          	lui	a0,0x55555
    1f34:	55450513          	addi	a0,a0,1364 # 55555554 <_end+0x5554e850>
    1f38:	000105b7          	lui	a1,0x10
    1f3c:	ffe58593          	addi	a1,a1,-2 # fffe <_end+0x92fa>
    1f40:	02b53633          	mulhu	a2,a0,a1
    1f44:	56c2a423          	sw	a2,1384(t0)

00001f48 <inst_363>:
    1f48:	55555537          	lui	a0,0x55555
    1f4c:	55450513          	addi	a0,a0,1364 # 55555554 <_end+0x5554e850>
    1f50:	555555b7          	lui	a1,0x55555
    1f54:	55658593          	addi	a1,a1,1366 # 55555556 <_end+0x5554e852>
    1f58:	02b53633          	mulhu	a2,a0,a1
    1f5c:	56c2a623          	sw	a2,1388(t0)

00001f60 <inst_364>:
    1f60:	55555537          	lui	a0,0x55555
    1f64:	55450513          	addi	a0,a0,1364 # 55555554 <_end+0x5554e850>
    1f68:	aaaab5b7          	lui	a1,0xaaaab
    1f6c:	aab58593          	addi	a1,a1,-1365 # aaaaaaab <_end+0xaaaa3da7>
    1f70:	02b53633          	mulhu	a2,a0,a1
    1f74:	56c2a823          	sw	a2,1392(t0)

00001f78 <inst_365>:
    1f78:	55555537          	lui	a0,0x55555
    1f7c:	55450513          	addi	a0,a0,1364 # 55555554 <_end+0x5554e850>
    1f80:	00600593          	li	a1,6
    1f84:	02b53633          	mulhu	a2,a0,a1
    1f88:	56c2aa23          	sw	a2,1396(t0)

00001f8c <inst_366>:
    1f8c:	55555537          	lui	a0,0x55555
    1f90:	55450513          	addi	a0,a0,1364 # 55555554 <_end+0x5554e850>
    1f94:	333335b7          	lui	a1,0x33333
    1f98:	33458593          	addi	a1,a1,820 # 33333334 <_end+0x3332c630>
    1f9c:	02b53633          	mulhu	a2,a0,a1
    1fa0:	56c2ac23          	sw	a2,1400(t0)

00001fa4 <inst_367>:
    1fa4:	55555537          	lui	a0,0x55555
    1fa8:	55450513          	addi	a0,a0,1364 # 55555554 <_end+0x5554e850>
    1fac:	666665b7          	lui	a1,0x66666
    1fb0:	66758593          	addi	a1,a1,1639 # 66666667 <_end+0x6665f963>
    1fb4:	02b53633          	mulhu	a2,a0,a1
    1fb8:	56c2ae23          	sw	a2,1404(t0)

00001fbc <inst_368>:
    1fbc:	55555537          	lui	a0,0x55555
    1fc0:	55450513          	addi	a0,a0,1364 # 55555554 <_end+0x5554e850>
    1fc4:	0000b5b7          	lui	a1,0xb
    1fc8:	50558593          	addi	a1,a1,1285 # b505 <_end+0x4801>
    1fcc:	02b53633          	mulhu	a2,a0,a1
    1fd0:	58c2a023          	sw	a2,1408(t0)

00001fd4 <inst_369>:
    1fd4:	55555537          	lui	a0,0x55555
    1fd8:	55450513          	addi	a0,a0,1364 # 55555554 <_end+0x5554e850>
    1fdc:	00100593          	li	a1,1
    1fe0:	02b53633          	mulhu	a2,a0,a1
    1fe4:	58c2a223          	sw	a2,1412(t0)

00001fe8 <inst_370>:
    1fe8:	55555537          	lui	a0,0x55555
    1fec:	55450513          	addi	a0,a0,1364 # 55555554 <_end+0x5554e850>
    1ff0:	000105b7          	lui	a1,0x10
    1ff4:	02b53633          	mulhu	a2,a0,a1
    1ff8:	58c2a423          	sw	a2,1416(t0)

00001ffc <inst_371>:
    1ffc:	aaaab537          	lui	a0,0xaaaab
    2000:	aa950513          	addi	a0,a0,-1367 # aaaaaaa9 <_end+0xaaaa3da5>
    2004:	00300593          	li	a1,3
    2008:	02b53633          	mulhu	a2,a0,a1
    200c:	58c2a623          	sw	a2,1420(t0)

00002010 <inst_372>:
    2010:	aaaab537          	lui	a0,0xaaaab
    2014:	aa950513          	addi	a0,a0,-1367 # aaaaaaa9 <_end+0xaaaa3da5>
    2018:	555555b7          	lui	a1,0x55555
    201c:	55558593          	addi	a1,a1,1365 # 55555555 <_end+0x5554e851>
    2020:	02b53633          	mulhu	a2,a0,a1
    2024:	58c2a823          	sw	a2,1424(t0)

00002028 <inst_373>:
    2028:	aaaab537          	lui	a0,0xaaaab
    202c:	aa950513          	addi	a0,a0,-1367 # aaaaaaa9 <_end+0xaaaa3da5>
    2030:	aaaab5b7          	lui	a1,0xaaaab
    2034:	aaa58593          	addi	a1,a1,-1366 # aaaaaaaa <_end+0xaaaa3da6>
    2038:	02b53633          	mulhu	a2,a0,a1
    203c:	58c2aa23          	sw	a2,1428(t0)

00002040 <inst_374>:
    2040:	aaaab537          	lui	a0,0xaaaab
    2044:	aa950513          	addi	a0,a0,-1367 # aaaaaaa9 <_end+0xaaaa3da5>
    2048:	00500593          	li	a1,5
    204c:	02b53633          	mulhu	a2,a0,a1
    2050:	58c2ac23          	sw	a2,1432(t0)

00002054 <inst_375>:
    2054:	aaaab537          	lui	a0,0xaaaab
    2058:	aa950513          	addi	a0,a0,-1367 # aaaaaaa9 <_end+0xaaaa3da5>
    205c:	333335b7          	lui	a1,0x33333
    2060:	33358593          	addi	a1,a1,819 # 33333333 <_end+0x3332c62f>
    2064:	02b53633          	mulhu	a2,a0,a1
    2068:	58c2ae23          	sw	a2,1436(t0)

0000206c <inst_376>:
    206c:	aaaab537          	lui	a0,0xaaaab
    2070:	aa950513          	addi	a0,a0,-1367 # aaaaaaa9 <_end+0xaaaa3da5>
    2074:	666665b7          	lui	a1,0x66666
    2078:	66658593          	addi	a1,a1,1638 # 66666666 <_end+0x6665f962>
    207c:	02b53633          	mulhu	a2,a0,a1
    2080:	5ac2a023          	sw	a2,1440(t0)

00002084 <inst_377>:
    2084:	aaaab537          	lui	a0,0xaaaab
    2088:	aa950513          	addi	a0,a0,-1367 # aaaaaaa9 <_end+0xaaaa3da5>
    208c:	0000b5b7          	lui	a1,0xb
    2090:	50458593          	addi	a1,a1,1284 # b504 <_end+0x4800>
    2094:	02b53633          	mulhu	a2,a0,a1
    2098:	5ac2a223          	sw	a2,1444(t0)

0000209c <inst_378>:
    209c:	aaaab537          	lui	a0,0xaaaab
    20a0:	aa950513          	addi	a0,a0,-1367 # aaaaaaa9 <_end+0xaaaa3da5>
    20a4:	00000593          	li	a1,0
    20a8:	02b53633          	mulhu	a2,a0,a1
    20ac:	5ac2a423          	sw	a2,1448(t0)

000020b0 <inst_379>:
    20b0:	aaaab537          	lui	a0,0xaaaab
    20b4:	aa950513          	addi	a0,a0,-1367 # aaaaaaa9 <_end+0xaaaa3da5>
    20b8:	000105b7          	lui	a1,0x10
    20bc:	fff58593          	addi	a1,a1,-1 # ffff <_end+0x92fb>
    20c0:	02b53633          	mulhu	a2,a0,a1
    20c4:	5ac2a623          	sw	a2,1452(t0)

000020c8 <inst_380>:
    20c8:	aaaab537          	lui	a0,0xaaaab
    20cc:	aa950513          	addi	a0,a0,-1367 # aaaaaaa9 <_end+0xaaaa3da5>
    20d0:	00200593          	li	a1,2
    20d4:	02b53633          	mulhu	a2,a0,a1
    20d8:	5ac2a823          	sw	a2,1456(t0)

000020dc <inst_381>:
    20dc:	aaaab537          	lui	a0,0xaaaab
    20e0:	aa950513          	addi	a0,a0,-1367 # aaaaaaa9 <_end+0xaaaa3da5>
    20e4:	555555b7          	lui	a1,0x55555
    20e8:	55458593          	addi	a1,a1,1364 # 55555554 <_end+0x5554e850>
    20ec:	02b53633          	mulhu	a2,a0,a1
    20f0:	5ac2aa23          	sw	a2,1460(t0)

000020f4 <inst_382>:
    20f4:	aaaab537          	lui	a0,0xaaaab
    20f8:	aa950513          	addi	a0,a0,-1367 # aaaaaaa9 <_end+0xaaaa3da5>
    20fc:	aaaab5b7          	lui	a1,0xaaaab
    2100:	aa958593          	addi	a1,a1,-1367 # aaaaaaa9 <_end+0xaaaa3da5>
    2104:	02b53633          	mulhu	a2,a0,a1
    2108:	5ac2ac23          	sw	a2,1464(t0)

0000210c <inst_383>:
    210c:	aaaab537          	lui	a0,0xaaaab
    2110:	aa950513          	addi	a0,a0,-1367 # aaaaaaa9 <_end+0xaaaa3da5>
    2114:	00400593          	li	a1,4
    2118:	02b53633          	mulhu	a2,a0,a1
    211c:	5ac2ae23          	sw	a2,1468(t0)

00002120 <inst_384>:
    2120:	aaaab537          	lui	a0,0xaaaab
    2124:	aa950513          	addi	a0,a0,-1367 # aaaaaaa9 <_end+0xaaaa3da5>
    2128:	333335b7          	lui	a1,0x33333
    212c:	33258593          	addi	a1,a1,818 # 33333332 <_end+0x3332c62e>
    2130:	02b53633          	mulhu	a2,a0,a1
    2134:	5cc2a023          	sw	a2,1472(t0)

00002138 <inst_385>:
    2138:	aaaab537          	lui	a0,0xaaaab
    213c:	aa950513          	addi	a0,a0,-1367 # aaaaaaa9 <_end+0xaaaa3da5>
    2140:	666665b7          	lui	a1,0x66666
    2144:	66558593          	addi	a1,a1,1637 # 66666665 <_end+0x6665f961>
    2148:	02b53633          	mulhu	a2,a0,a1
    214c:	5cc2a223          	sw	a2,1476(t0)

00002150 <inst_386>:
    2150:	aaaab537          	lui	a0,0xaaaab
    2154:	aa950513          	addi	a0,a0,-1367 # aaaaaaa9 <_end+0xaaaa3da5>
    2158:	0000b5b7          	lui	a1,0xb
    215c:	50358593          	addi	a1,a1,1283 # b503 <_end+0x47ff>
    2160:	02b53633          	mulhu	a2,a0,a1
    2164:	5cc2a423          	sw	a2,1480(t0)

00002168 <inst_387>:
    2168:	aaaab537          	lui	a0,0xaaaab
    216c:	aa950513          	addi	a0,a0,-1367 # aaaaaaa9 <_end+0xaaaa3da5>
    2170:	000105b7          	lui	a1,0x10
    2174:	ffe58593          	addi	a1,a1,-2 # fffe <_end+0x92fa>
    2178:	02b53633          	mulhu	a2,a0,a1
    217c:	5cc2a623          	sw	a2,1484(t0)

00002180 <inst_388>:
    2180:	aaaab537          	lui	a0,0xaaaab
    2184:	aa950513          	addi	a0,a0,-1367 # aaaaaaa9 <_end+0xaaaa3da5>
    2188:	555555b7          	lui	a1,0x55555
    218c:	55658593          	addi	a1,a1,1366 # 55555556 <_end+0x5554e852>
    2190:	02b53633          	mulhu	a2,a0,a1
    2194:	5cc2a823          	sw	a2,1488(t0)

00002198 <inst_389>:
    2198:	aaaab537          	lui	a0,0xaaaab
    219c:	aa950513          	addi	a0,a0,-1367 # aaaaaaa9 <_end+0xaaaa3da5>
    21a0:	aaaab5b7          	lui	a1,0xaaaab
    21a4:	aab58593          	addi	a1,a1,-1365 # aaaaaaab <_end+0xaaaa3da7>
    21a8:	02b53633          	mulhu	a2,a0,a1
    21ac:	5cc2aa23          	sw	a2,1492(t0)

000021b0 <inst_390>:
    21b0:	aaaab537          	lui	a0,0xaaaab
    21b4:	aa950513          	addi	a0,a0,-1367 # aaaaaaa9 <_end+0xaaaa3da5>
    21b8:	00600593          	li	a1,6
    21bc:	02b53633          	mulhu	a2,a0,a1
    21c0:	5cc2ac23          	sw	a2,1496(t0)

000021c4 <inst_391>:
    21c4:	aaaab537          	lui	a0,0xaaaab
    21c8:	aa950513          	addi	a0,a0,-1367 # aaaaaaa9 <_end+0xaaaa3da5>
    21cc:	333335b7          	lui	a1,0x33333
    21d0:	33458593          	addi	a1,a1,820 # 33333334 <_end+0x3332c630>
    21d4:	02b53633          	mulhu	a2,a0,a1
    21d8:	5cc2ae23          	sw	a2,1500(t0)

000021dc <inst_392>:
    21dc:	aaaab537          	lui	a0,0xaaaab
    21e0:	aa950513          	addi	a0,a0,-1367 # aaaaaaa9 <_end+0xaaaa3da5>
    21e4:	666665b7          	lui	a1,0x66666
    21e8:	66758593          	addi	a1,a1,1639 # 66666667 <_end+0x6665f963>
    21ec:	02b53633          	mulhu	a2,a0,a1
    21f0:	5ec2a023          	sw	a2,1504(t0)

000021f4 <inst_393>:
    21f4:	aaaab537          	lui	a0,0xaaaab
    21f8:	aa950513          	addi	a0,a0,-1367 # aaaaaaa9 <_end+0xaaaa3da5>
    21fc:	0000b5b7          	lui	a1,0xb
    2200:	50558593          	addi	a1,a1,1285 # b505 <_end+0x4801>
    2204:	02b53633          	mulhu	a2,a0,a1
    2208:	5ec2a223          	sw	a2,1508(t0)

0000220c <inst_394>:
    220c:	aaaab537          	lui	a0,0xaaaab
    2210:	aa950513          	addi	a0,a0,-1367 # aaaaaaa9 <_end+0xaaaa3da5>
    2214:	00100593          	li	a1,1
    2218:	02b53633          	mulhu	a2,a0,a1
    221c:	5ec2a423          	sw	a2,1512(t0)

00002220 <inst_395>:
    2220:	aaaab537          	lui	a0,0xaaaab
    2224:	aa950513          	addi	a0,a0,-1367 # aaaaaaa9 <_end+0xaaaa3da5>
    2228:	000105b7          	lui	a1,0x10
    222c:	02b53633          	mulhu	a2,a0,a1
    2230:	5ec2a623          	sw	a2,1516(t0)

00002234 <inst_396>:
    2234:	00400513          	li	a0,4
    2238:	00300593          	li	a1,3
    223c:	02b53633          	mulhu	a2,a0,a1
    2240:	5ec2a823          	sw	a2,1520(t0)

00002244 <inst_397>:
    2244:	00400513          	li	a0,4
    2248:	555555b7          	lui	a1,0x55555
    224c:	55558593          	addi	a1,a1,1365 # 55555555 <_end+0x5554e851>
    2250:	02b53633          	mulhu	a2,a0,a1
    2254:	5ec2aa23          	sw	a2,1524(t0)

00002258 <inst_398>:
    2258:	00400513          	li	a0,4
    225c:	aaaab5b7          	lui	a1,0xaaaab
    2260:	aaa58593          	addi	a1,a1,-1366 # aaaaaaaa <_end+0xaaaa3da6>
    2264:	02b53633          	mulhu	a2,a0,a1
    2268:	5ec2ac23          	sw	a2,1528(t0)

0000226c <inst_399>:
    226c:	00400513          	li	a0,4
    2270:	00500593          	li	a1,5
    2274:	02b53633          	mulhu	a2,a0,a1
    2278:	5ec2ae23          	sw	a2,1532(t0)

0000227c <inst_400>:
    227c:	00400513          	li	a0,4
    2280:	333335b7          	lui	a1,0x33333
    2284:	33358593          	addi	a1,a1,819 # 33333333 <_end+0x3332c62f>
    2288:	02b53633          	mulhu	a2,a0,a1
    228c:	60c2a023          	sw	a2,1536(t0)

00002290 <inst_401>:
    2290:	00400513          	li	a0,4
    2294:	666665b7          	lui	a1,0x66666
    2298:	66658593          	addi	a1,a1,1638 # 66666666 <_end+0x6665f962>
    229c:	02b53633          	mulhu	a2,a0,a1
    22a0:	60c2a223          	sw	a2,1540(t0)

000022a4 <inst_402>:
    22a4:	00400513          	li	a0,4
    22a8:	0000b5b7          	lui	a1,0xb
    22ac:	50458593          	addi	a1,a1,1284 # b504 <_end+0x4800>
    22b0:	02b53633          	mulhu	a2,a0,a1
    22b4:	60c2a423          	sw	a2,1544(t0)

000022b8 <inst_403>:
    22b8:	00400513          	li	a0,4
    22bc:	00000593          	li	a1,0
    22c0:	02b53633          	mulhu	a2,a0,a1
    22c4:	60c2a623          	sw	a2,1548(t0)

000022c8 <inst_404>:
    22c8:	00400513          	li	a0,4
    22cc:	000105b7          	lui	a1,0x10
    22d0:	fff58593          	addi	a1,a1,-1 # ffff <_end+0x92fb>
    22d4:	02b53633          	mulhu	a2,a0,a1
    22d8:	60c2a823          	sw	a2,1552(t0)

000022dc <inst_405>:
    22dc:	00400513          	li	a0,4
    22e0:	00200593          	li	a1,2
    22e4:	02b53633          	mulhu	a2,a0,a1
    22e8:	60c2aa23          	sw	a2,1556(t0)

000022ec <inst_406>:
    22ec:	00400513          	li	a0,4
    22f0:	555555b7          	lui	a1,0x55555
    22f4:	55458593          	addi	a1,a1,1364 # 55555554 <_end+0x5554e850>
    22f8:	02b53633          	mulhu	a2,a0,a1
    22fc:	60c2ac23          	sw	a2,1560(t0)

00002300 <inst_407>:
    2300:	00400513          	li	a0,4
    2304:	aaaab5b7          	lui	a1,0xaaaab
    2308:	aa958593          	addi	a1,a1,-1367 # aaaaaaa9 <_end+0xaaaa3da5>
    230c:	02b53633          	mulhu	a2,a0,a1
    2310:	60c2ae23          	sw	a2,1564(t0)

00002314 <inst_408>:
    2314:	00400513          	li	a0,4
    2318:	00400593          	li	a1,4
    231c:	02b53633          	mulhu	a2,a0,a1
    2320:	62c2a023          	sw	a2,1568(t0)

00002324 <inst_409>:
    2324:	00400513          	li	a0,4
    2328:	333335b7          	lui	a1,0x33333
    232c:	33258593          	addi	a1,a1,818 # 33333332 <_end+0x3332c62e>
    2330:	02b53633          	mulhu	a2,a0,a1
    2334:	62c2a223          	sw	a2,1572(t0)

00002338 <inst_410>:
    2338:	00400513          	li	a0,4
    233c:	666665b7          	lui	a1,0x66666
    2340:	66558593          	addi	a1,a1,1637 # 66666665 <_end+0x6665f961>
    2344:	02b53633          	mulhu	a2,a0,a1
    2348:	62c2a423          	sw	a2,1576(t0)

0000234c <inst_411>:
    234c:	00400513          	li	a0,4
    2350:	0000b5b7          	lui	a1,0xb
    2354:	50358593          	addi	a1,a1,1283 # b503 <_end+0x47ff>
    2358:	02b53633          	mulhu	a2,a0,a1
    235c:	62c2a623          	sw	a2,1580(t0)

00002360 <inst_412>:
    2360:	00400513          	li	a0,4
    2364:	000105b7          	lui	a1,0x10
    2368:	ffe58593          	addi	a1,a1,-2 # fffe <_end+0x92fa>
    236c:	02b53633          	mulhu	a2,a0,a1
    2370:	62c2a823          	sw	a2,1584(t0)

00002374 <inst_413>:
    2374:	00400513          	li	a0,4
    2378:	555555b7          	lui	a1,0x55555
    237c:	55658593          	addi	a1,a1,1366 # 55555556 <_end+0x5554e852>
    2380:	02b53633          	mulhu	a2,a0,a1
    2384:	62c2aa23          	sw	a2,1588(t0)

00002388 <inst_414>:
    2388:	00400513          	li	a0,4
    238c:	aaaab5b7          	lui	a1,0xaaaab
    2390:	aab58593          	addi	a1,a1,-1365 # aaaaaaab <_end+0xaaaa3da7>
    2394:	02b53633          	mulhu	a2,a0,a1
    2398:	62c2ac23          	sw	a2,1592(t0)

0000239c <inst_415>:
    239c:	00400513          	li	a0,4
    23a0:	00600593          	li	a1,6
    23a4:	02b53633          	mulhu	a2,a0,a1
    23a8:	62c2ae23          	sw	a2,1596(t0)

000023ac <inst_416>:
    23ac:	00400513          	li	a0,4
    23b0:	333335b7          	lui	a1,0x33333
    23b4:	33458593          	addi	a1,a1,820 # 33333334 <_end+0x3332c630>
    23b8:	02b53633          	mulhu	a2,a0,a1
    23bc:	64c2a023          	sw	a2,1600(t0)

000023c0 <inst_417>:
    23c0:	00400513          	li	a0,4
    23c4:	666665b7          	lui	a1,0x66666
    23c8:	66758593          	addi	a1,a1,1639 # 66666667 <_end+0x6665f963>
    23cc:	02b53633          	mulhu	a2,a0,a1
    23d0:	64c2a223          	sw	a2,1604(t0)

000023d4 <inst_418>:
    23d4:	00400513          	li	a0,4
    23d8:	0000b5b7          	lui	a1,0xb
    23dc:	50558593          	addi	a1,a1,1285 # b505 <_end+0x4801>
    23e0:	02b53633          	mulhu	a2,a0,a1
    23e4:	64c2a423          	sw	a2,1608(t0)

000023e8 <inst_419>:
    23e8:	00400513          	li	a0,4
    23ec:	00100593          	li	a1,1
    23f0:	02b53633          	mulhu	a2,a0,a1
    23f4:	64c2a623          	sw	a2,1612(t0)

000023f8 <inst_420>:
    23f8:	33333537          	lui	a0,0x33333
    23fc:	33250513          	addi	a0,a0,818 # 33333332 <_end+0x3332c62e>
    2400:	00300593          	li	a1,3
    2404:	02b53633          	mulhu	a2,a0,a1
    2408:	64c2a823          	sw	a2,1616(t0)

0000240c <inst_421>:
    240c:	33333537          	lui	a0,0x33333
    2410:	33250513          	addi	a0,a0,818 # 33333332 <_end+0x3332c62e>
    2414:	555555b7          	lui	a1,0x55555
    2418:	55558593          	addi	a1,a1,1365 # 55555555 <_end+0x5554e851>
    241c:	02b53633          	mulhu	a2,a0,a1
    2420:	64c2aa23          	sw	a2,1620(t0)

00002424 <inst_422>:
    2424:	33333537          	lui	a0,0x33333
    2428:	33250513          	addi	a0,a0,818 # 33333332 <_end+0x3332c62e>
    242c:	aaaab5b7          	lui	a1,0xaaaab
    2430:	aaa58593          	addi	a1,a1,-1366 # aaaaaaaa <_end+0xaaaa3da6>
    2434:	02b53633          	mulhu	a2,a0,a1
    2438:	64c2ac23          	sw	a2,1624(t0)

0000243c <inst_423>:
    243c:	33333537          	lui	a0,0x33333
    2440:	33250513          	addi	a0,a0,818 # 33333332 <_end+0x3332c62e>
    2444:	00500593          	li	a1,5
    2448:	02b53633          	mulhu	a2,a0,a1
    244c:	64c2ae23          	sw	a2,1628(t0)

00002450 <inst_424>:
    2450:	33333537          	lui	a0,0x33333
    2454:	33250513          	addi	a0,a0,818 # 33333332 <_end+0x3332c62e>
    2458:	333335b7          	lui	a1,0x33333
    245c:	33358593          	addi	a1,a1,819 # 33333333 <_end+0x3332c62f>
    2460:	02b53633          	mulhu	a2,a0,a1
    2464:	66c2a023          	sw	a2,1632(t0)

00002468 <inst_425>:
    2468:	33333537          	lui	a0,0x33333
    246c:	33250513          	addi	a0,a0,818 # 33333332 <_end+0x3332c62e>
    2470:	666665b7          	lui	a1,0x66666
    2474:	66658593          	addi	a1,a1,1638 # 66666666 <_end+0x6665f962>
    2478:	02b53633          	mulhu	a2,a0,a1
    247c:	66c2a223          	sw	a2,1636(t0)

00002480 <inst_426>:
    2480:	33333537          	lui	a0,0x33333
    2484:	33250513          	addi	a0,a0,818 # 33333332 <_end+0x3332c62e>
    2488:	0000b5b7          	lui	a1,0xb
    248c:	50458593          	addi	a1,a1,1284 # b504 <_end+0x4800>
    2490:	02b53633          	mulhu	a2,a0,a1
    2494:	66c2a423          	sw	a2,1640(t0)

00002498 <inst_427>:
    2498:	33333537          	lui	a0,0x33333
    249c:	33250513          	addi	a0,a0,818 # 33333332 <_end+0x3332c62e>
    24a0:	00000593          	li	a1,0
    24a4:	02b53633          	mulhu	a2,a0,a1
    24a8:	66c2a623          	sw	a2,1644(t0)

000024ac <inst_428>:
    24ac:	33333537          	lui	a0,0x33333
    24b0:	33250513          	addi	a0,a0,818 # 33333332 <_end+0x3332c62e>
    24b4:	000105b7          	lui	a1,0x10
    24b8:	fff58593          	addi	a1,a1,-1 # ffff <_end+0x92fb>
    24bc:	02b53633          	mulhu	a2,a0,a1
    24c0:	66c2a823          	sw	a2,1648(t0)

000024c4 <inst_429>:
    24c4:	33333537          	lui	a0,0x33333
    24c8:	33250513          	addi	a0,a0,818 # 33333332 <_end+0x3332c62e>
    24cc:	00200593          	li	a1,2
    24d0:	02b53633          	mulhu	a2,a0,a1
    24d4:	66c2aa23          	sw	a2,1652(t0)

000024d8 <inst_430>:
    24d8:	33333537          	lui	a0,0x33333
    24dc:	33250513          	addi	a0,a0,818 # 33333332 <_end+0x3332c62e>
    24e0:	555555b7          	lui	a1,0x55555
    24e4:	55458593          	addi	a1,a1,1364 # 55555554 <_end+0x5554e850>
    24e8:	02b53633          	mulhu	a2,a0,a1
    24ec:	66c2ac23          	sw	a2,1656(t0)

000024f0 <inst_431>:
    24f0:	33333537          	lui	a0,0x33333
    24f4:	33250513          	addi	a0,a0,818 # 33333332 <_end+0x3332c62e>
    24f8:	aaaab5b7          	lui	a1,0xaaaab
    24fc:	aa958593          	addi	a1,a1,-1367 # aaaaaaa9 <_end+0xaaaa3da5>
    2500:	02b53633          	mulhu	a2,a0,a1
    2504:	66c2ae23          	sw	a2,1660(t0)

00002508 <inst_432>:
    2508:	33333537          	lui	a0,0x33333
    250c:	33250513          	addi	a0,a0,818 # 33333332 <_end+0x3332c62e>
    2510:	00400593          	li	a1,4
    2514:	02b53633          	mulhu	a2,a0,a1
    2518:	68c2a023          	sw	a2,1664(t0)

0000251c <inst_433>:
    251c:	33333537          	lui	a0,0x33333
    2520:	33250513          	addi	a0,a0,818 # 33333332 <_end+0x3332c62e>
    2524:	333335b7          	lui	a1,0x33333
    2528:	33258593          	addi	a1,a1,818 # 33333332 <_end+0x3332c62e>
    252c:	02b53633          	mulhu	a2,a0,a1
    2530:	68c2a223          	sw	a2,1668(t0)

00002534 <inst_434>:
    2534:	33333537          	lui	a0,0x33333
    2538:	33250513          	addi	a0,a0,818 # 33333332 <_end+0x3332c62e>
    253c:	666665b7          	lui	a1,0x66666
    2540:	66558593          	addi	a1,a1,1637 # 66666665 <_end+0x6665f961>
    2544:	02b53633          	mulhu	a2,a0,a1
    2548:	68c2a423          	sw	a2,1672(t0)

0000254c <inst_435>:
    254c:	33333537          	lui	a0,0x33333
    2550:	33250513          	addi	a0,a0,818 # 33333332 <_end+0x3332c62e>
    2554:	0000b5b7          	lui	a1,0xb
    2558:	50358593          	addi	a1,a1,1283 # b503 <_end+0x47ff>
    255c:	02b53633          	mulhu	a2,a0,a1
    2560:	68c2a623          	sw	a2,1676(t0)

00002564 <inst_436>:
    2564:	33333537          	lui	a0,0x33333
    2568:	33250513          	addi	a0,a0,818 # 33333332 <_end+0x3332c62e>
    256c:	000105b7          	lui	a1,0x10
    2570:	ffe58593          	addi	a1,a1,-2 # fffe <_end+0x92fa>
    2574:	02b53633          	mulhu	a2,a0,a1
    2578:	68c2a823          	sw	a2,1680(t0)

0000257c <inst_437>:
    257c:	33333537          	lui	a0,0x33333
    2580:	33250513          	addi	a0,a0,818 # 33333332 <_end+0x3332c62e>
    2584:	555555b7          	lui	a1,0x55555
    2588:	55658593          	addi	a1,a1,1366 # 55555556 <_end+0x5554e852>
    258c:	02b53633          	mulhu	a2,a0,a1
    2590:	68c2aa23          	sw	a2,1684(t0)

00002594 <inst_438>:
    2594:	33333537          	lui	a0,0x33333
    2598:	33250513          	addi	a0,a0,818 # 33333332 <_end+0x3332c62e>
    259c:	aaaab5b7          	lui	a1,0xaaaab
    25a0:	aab58593          	addi	a1,a1,-1365 # aaaaaaab <_end+0xaaaa3da7>
    25a4:	02b53633          	mulhu	a2,a0,a1
    25a8:	68c2ac23          	sw	a2,1688(t0)

000025ac <inst_439>:
    25ac:	33333537          	lui	a0,0x33333
    25b0:	33250513          	addi	a0,a0,818 # 33333332 <_end+0x3332c62e>
    25b4:	00600593          	li	a1,6
    25b8:	02b53633          	mulhu	a2,a0,a1
    25bc:	68c2ae23          	sw	a2,1692(t0)

000025c0 <inst_440>:
    25c0:	33333537          	lui	a0,0x33333
    25c4:	33250513          	addi	a0,a0,818 # 33333332 <_end+0x3332c62e>
    25c8:	333335b7          	lui	a1,0x33333
    25cc:	33458593          	addi	a1,a1,820 # 33333334 <_end+0x3332c630>
    25d0:	02b53633          	mulhu	a2,a0,a1
    25d4:	6ac2a023          	sw	a2,1696(t0)

000025d8 <inst_441>:
    25d8:	33333537          	lui	a0,0x33333
    25dc:	33250513          	addi	a0,a0,818 # 33333332 <_end+0x3332c62e>
    25e0:	666665b7          	lui	a1,0x66666
    25e4:	66758593          	addi	a1,a1,1639 # 66666667 <_end+0x6665f963>
    25e8:	02b53633          	mulhu	a2,a0,a1
    25ec:	6ac2a223          	sw	a2,1700(t0)

000025f0 <inst_442>:
    25f0:	33333537          	lui	a0,0x33333
    25f4:	33250513          	addi	a0,a0,818 # 33333332 <_end+0x3332c62e>
    25f8:	0000b5b7          	lui	a1,0xb
    25fc:	50558593          	addi	a1,a1,1285 # b505 <_end+0x4801>
    2600:	02b53633          	mulhu	a2,a0,a1
    2604:	6ac2a423          	sw	a2,1704(t0)

00002608 <inst_443>:
    2608:	33333537          	lui	a0,0x33333
    260c:	33250513          	addi	a0,a0,818 # 33333332 <_end+0x3332c62e>
    2610:	00100593          	li	a1,1
    2614:	02b53633          	mulhu	a2,a0,a1
    2618:	6ac2a623          	sw	a2,1708(t0)

0000261c <inst_444>:
    261c:	33333537          	lui	a0,0x33333
    2620:	33250513          	addi	a0,a0,818 # 33333332 <_end+0x3332c62e>
    2624:	000105b7          	lui	a1,0x10
    2628:	02b53633          	mulhu	a2,a0,a1
    262c:	6ac2a823          	sw	a2,1712(t0)

00002630 <inst_445>:
    2630:	66666537          	lui	a0,0x66666
    2634:	66550513          	addi	a0,a0,1637 # 66666665 <_end+0x6665f961>
    2638:	00300593          	li	a1,3
    263c:	02b53633          	mulhu	a2,a0,a1
    2640:	6ac2aa23          	sw	a2,1716(t0)

00002644 <inst_446>:
    2644:	66666537          	lui	a0,0x66666
    2648:	66550513          	addi	a0,a0,1637 # 66666665 <_end+0x6665f961>
    264c:	555555b7          	lui	a1,0x55555
    2650:	55558593          	addi	a1,a1,1365 # 55555555 <_end+0x5554e851>
    2654:	02b53633          	mulhu	a2,a0,a1
    2658:	6ac2ac23          	sw	a2,1720(t0)

0000265c <inst_447>:
    265c:	66666537          	lui	a0,0x66666
    2660:	66550513          	addi	a0,a0,1637 # 66666665 <_end+0x6665f961>
    2664:	aaaab5b7          	lui	a1,0xaaaab
    2668:	aaa58593          	addi	a1,a1,-1366 # aaaaaaaa <_end+0xaaaa3da6>
    266c:	02b53633          	mulhu	a2,a0,a1
    2670:	6ac2ae23          	sw	a2,1724(t0)

00002674 <inst_448>:
    2674:	66666537          	lui	a0,0x66666
    2678:	66550513          	addi	a0,a0,1637 # 66666665 <_end+0x6665f961>
    267c:	00500593          	li	a1,5
    2680:	02b53633          	mulhu	a2,a0,a1
    2684:	6cc2a023          	sw	a2,1728(t0)

00002688 <inst_449>:
    2688:	66666537          	lui	a0,0x66666
    268c:	66550513          	addi	a0,a0,1637 # 66666665 <_end+0x6665f961>
    2690:	333335b7          	lui	a1,0x33333
    2694:	33358593          	addi	a1,a1,819 # 33333333 <_end+0x3332c62f>
    2698:	02b53633          	mulhu	a2,a0,a1
    269c:	6cc2a223          	sw	a2,1732(t0)

000026a0 <inst_450>:
    26a0:	66666537          	lui	a0,0x66666
    26a4:	66550513          	addi	a0,a0,1637 # 66666665 <_end+0x6665f961>
    26a8:	666665b7          	lui	a1,0x66666
    26ac:	66658593          	addi	a1,a1,1638 # 66666666 <_end+0x6665f962>
    26b0:	02b53633          	mulhu	a2,a0,a1
    26b4:	6cc2a423          	sw	a2,1736(t0)

000026b8 <inst_451>:
    26b8:	66666537          	lui	a0,0x66666
    26bc:	66550513          	addi	a0,a0,1637 # 66666665 <_end+0x6665f961>
    26c0:	0000b5b7          	lui	a1,0xb
    26c4:	50458593          	addi	a1,a1,1284 # b504 <_end+0x4800>
    26c8:	02b53633          	mulhu	a2,a0,a1
    26cc:	6cc2a623          	sw	a2,1740(t0)

000026d0 <inst_452>:
    26d0:	66666537          	lui	a0,0x66666
    26d4:	66550513          	addi	a0,a0,1637 # 66666665 <_end+0x6665f961>
    26d8:	00000593          	li	a1,0
    26dc:	02b53633          	mulhu	a2,a0,a1
    26e0:	6cc2a823          	sw	a2,1744(t0)

000026e4 <inst_453>:
    26e4:	66666537          	lui	a0,0x66666
    26e8:	66550513          	addi	a0,a0,1637 # 66666665 <_end+0x6665f961>
    26ec:	000105b7          	lui	a1,0x10
    26f0:	fff58593          	addi	a1,a1,-1 # ffff <_end+0x92fb>
    26f4:	02b53633          	mulhu	a2,a0,a1
    26f8:	6cc2aa23          	sw	a2,1748(t0)

000026fc <inst_454>:
    26fc:	66666537          	lui	a0,0x66666
    2700:	66550513          	addi	a0,a0,1637 # 66666665 <_end+0x6665f961>
    2704:	00200593          	li	a1,2
    2708:	02b53633          	mulhu	a2,a0,a1
    270c:	6cc2ac23          	sw	a2,1752(t0)

00002710 <inst_455>:
    2710:	66666537          	lui	a0,0x66666
    2714:	66550513          	addi	a0,a0,1637 # 66666665 <_end+0x6665f961>
    2718:	555555b7          	lui	a1,0x55555
    271c:	55458593          	addi	a1,a1,1364 # 55555554 <_end+0x5554e850>
    2720:	02b53633          	mulhu	a2,a0,a1
    2724:	6cc2ae23          	sw	a2,1756(t0)

00002728 <inst_456>:
    2728:	66666537          	lui	a0,0x66666
    272c:	66550513          	addi	a0,a0,1637 # 66666665 <_end+0x6665f961>
    2730:	aaaab5b7          	lui	a1,0xaaaab
    2734:	aa958593          	addi	a1,a1,-1367 # aaaaaaa9 <_end+0xaaaa3da5>
    2738:	02b53633          	mulhu	a2,a0,a1
    273c:	6ec2a023          	sw	a2,1760(t0)

00002740 <inst_457>:
    2740:	66666537          	lui	a0,0x66666
    2744:	66550513          	addi	a0,a0,1637 # 66666665 <_end+0x6665f961>
    2748:	00400593          	li	a1,4
    274c:	02b53633          	mulhu	a2,a0,a1
    2750:	6ec2a223          	sw	a2,1764(t0)

00002754 <inst_458>:
    2754:	66666537          	lui	a0,0x66666
    2758:	66550513          	addi	a0,a0,1637 # 66666665 <_end+0x6665f961>
    275c:	333335b7          	lui	a1,0x33333
    2760:	33258593          	addi	a1,a1,818 # 33333332 <_end+0x3332c62e>
    2764:	02b53633          	mulhu	a2,a0,a1
    2768:	6ec2a423          	sw	a2,1768(t0)

0000276c <inst_459>:
    276c:	66666537          	lui	a0,0x66666
    2770:	66550513          	addi	a0,a0,1637 # 66666665 <_end+0x6665f961>
    2774:	666665b7          	lui	a1,0x66666
    2778:	66558593          	addi	a1,a1,1637 # 66666665 <_end+0x6665f961>
    277c:	02b53633          	mulhu	a2,a0,a1
    2780:	6ec2a623          	sw	a2,1772(t0)

00002784 <inst_460>:
    2784:	66666537          	lui	a0,0x66666
    2788:	66550513          	addi	a0,a0,1637 # 66666665 <_end+0x6665f961>
    278c:	0000b5b7          	lui	a1,0xb
    2790:	50358593          	addi	a1,a1,1283 # b503 <_end+0x47ff>
    2794:	02b53633          	mulhu	a2,a0,a1
    2798:	6ec2a823          	sw	a2,1776(t0)

0000279c <inst_461>:
    279c:	66666537          	lui	a0,0x66666
    27a0:	66550513          	addi	a0,a0,1637 # 66666665 <_end+0x6665f961>
    27a4:	000105b7          	lui	a1,0x10
    27a8:	ffe58593          	addi	a1,a1,-2 # fffe <_end+0x92fa>
    27ac:	02b53633          	mulhu	a2,a0,a1
    27b0:	6ec2aa23          	sw	a2,1780(t0)

000027b4 <inst_462>:
    27b4:	66666537          	lui	a0,0x66666
    27b8:	66550513          	addi	a0,a0,1637 # 66666665 <_end+0x6665f961>
    27bc:	555555b7          	lui	a1,0x55555
    27c0:	55658593          	addi	a1,a1,1366 # 55555556 <_end+0x5554e852>
    27c4:	02b53633          	mulhu	a2,a0,a1
    27c8:	6ec2ac23          	sw	a2,1784(t0)

000027cc <inst_463>:
    27cc:	66666537          	lui	a0,0x66666
    27d0:	66550513          	addi	a0,a0,1637 # 66666665 <_end+0x6665f961>
    27d4:	aaaab5b7          	lui	a1,0xaaaab
    27d8:	aab58593          	addi	a1,a1,-1365 # aaaaaaab <_end+0xaaaa3da7>
    27dc:	02b53633          	mulhu	a2,a0,a1
    27e0:	6ec2ae23          	sw	a2,1788(t0)

000027e4 <inst_464>:
    27e4:	66666537          	lui	a0,0x66666
    27e8:	66550513          	addi	a0,a0,1637 # 66666665 <_end+0x6665f961>
    27ec:	00600593          	li	a1,6
    27f0:	02b53633          	mulhu	a2,a0,a1
    27f4:	70c2a023          	sw	a2,1792(t0)

000027f8 <inst_465>:
    27f8:	66666537          	lui	a0,0x66666
    27fc:	66550513          	addi	a0,a0,1637 # 66666665 <_end+0x6665f961>
    2800:	00100593          	li	a1,1
    2804:	02b53633          	mulhu	a2,a0,a1
    2808:	70c2a223          	sw	a2,1796(t0)

0000280c <inst_466>:
    280c:	66666537          	lui	a0,0x66666
    2810:	66550513          	addi	a0,a0,1637 # 66666665 <_end+0x6665f961>
    2814:	000105b7          	lui	a1,0x10
    2818:	02b53633          	mulhu	a2,a0,a1
    281c:	70c2a423          	sw	a2,1800(t0)

00002820 <inst_467>:
    2820:	0000b537          	lui	a0,0xb
    2824:	50350513          	addi	a0,a0,1283 # b503 <_end+0x47ff>
    2828:	00300593          	li	a1,3
    282c:	02b53633          	mulhu	a2,a0,a1
    2830:	70c2a623          	sw	a2,1804(t0)

00002834 <inst_468>:
    2834:	0000b537          	lui	a0,0xb
    2838:	50350513          	addi	a0,a0,1283 # b503 <_end+0x47ff>
    283c:	555555b7          	lui	a1,0x55555
    2840:	55558593          	addi	a1,a1,1365 # 55555555 <_end+0x5554e851>
    2844:	02b53633          	mulhu	a2,a0,a1
    2848:	70c2a823          	sw	a2,1808(t0)

0000284c <inst_469>:
    284c:	0000b537          	lui	a0,0xb
    2850:	50350513          	addi	a0,a0,1283 # b503 <_end+0x47ff>
    2854:	aaaab5b7          	lui	a1,0xaaaab
    2858:	aaa58593          	addi	a1,a1,-1366 # aaaaaaaa <_end+0xaaaa3da6>
    285c:	02b53633          	mulhu	a2,a0,a1
    2860:	70c2aa23          	sw	a2,1812(t0)

00002864 <inst_470>:
    2864:	0000b537          	lui	a0,0xb
    2868:	50350513          	addi	a0,a0,1283 # b503 <_end+0x47ff>
    286c:	00500593          	li	a1,5
    2870:	02b53633          	mulhu	a2,a0,a1
    2874:	70c2ac23          	sw	a2,1816(t0)

00002878 <inst_471>:
    2878:	0000b537          	lui	a0,0xb
    287c:	50350513          	addi	a0,a0,1283 # b503 <_end+0x47ff>
    2880:	333335b7          	lui	a1,0x33333
    2884:	33358593          	addi	a1,a1,819 # 33333333 <_end+0x3332c62f>
    2888:	02b53633          	mulhu	a2,a0,a1
    288c:	70c2ae23          	sw	a2,1820(t0)

00002890 <inst_472>:
    2890:	0000b537          	lui	a0,0xb
    2894:	50350513          	addi	a0,a0,1283 # b503 <_end+0x47ff>
    2898:	666665b7          	lui	a1,0x66666
    289c:	66658593          	addi	a1,a1,1638 # 66666666 <_end+0x6665f962>
    28a0:	02b53633          	mulhu	a2,a0,a1
    28a4:	72c2a023          	sw	a2,1824(t0)

000028a8 <inst_473>:
    28a8:	0000b537          	lui	a0,0xb
    28ac:	50350513          	addi	a0,a0,1283 # b503 <_end+0x47ff>
    28b0:	0000b5b7          	lui	a1,0xb
    28b4:	50458593          	addi	a1,a1,1284 # b504 <_end+0x4800>
    28b8:	02b53633          	mulhu	a2,a0,a1
    28bc:	72c2a223          	sw	a2,1828(t0)

000028c0 <inst_474>:
    28c0:	0000b537          	lui	a0,0xb
    28c4:	50350513          	addi	a0,a0,1283 # b503 <_end+0x47ff>
    28c8:	00000593          	li	a1,0
    28cc:	02b53633          	mulhu	a2,a0,a1
    28d0:	72c2a423          	sw	a2,1832(t0)

000028d4 <inst_475>:
    28d4:	0000b537          	lui	a0,0xb
    28d8:	50350513          	addi	a0,a0,1283 # b503 <_end+0x47ff>
    28dc:	000105b7          	lui	a1,0x10
    28e0:	fff58593          	addi	a1,a1,-1 # ffff <_end+0x92fb>
    28e4:	02b53633          	mulhu	a2,a0,a1
    28e8:	72c2a623          	sw	a2,1836(t0)

000028ec <inst_476>:
    28ec:	0000b537          	lui	a0,0xb
    28f0:	50350513          	addi	a0,a0,1283 # b503 <_end+0x47ff>
    28f4:	00200593          	li	a1,2
    28f8:	02b53633          	mulhu	a2,a0,a1
    28fc:	72c2a823          	sw	a2,1840(t0)

00002900 <inst_477>:
    2900:	0000b537          	lui	a0,0xb
    2904:	50350513          	addi	a0,a0,1283 # b503 <_end+0x47ff>
    2908:	555555b7          	lui	a1,0x55555
    290c:	55458593          	addi	a1,a1,1364 # 55555554 <_end+0x5554e850>
    2910:	02b53633          	mulhu	a2,a0,a1
    2914:	72c2aa23          	sw	a2,1844(t0)

00002918 <inst_478>:
    2918:	0000b537          	lui	a0,0xb
    291c:	50350513          	addi	a0,a0,1283 # b503 <_end+0x47ff>
    2920:	aaaab5b7          	lui	a1,0xaaaab
    2924:	aa958593          	addi	a1,a1,-1367 # aaaaaaa9 <_end+0xaaaa3da5>
    2928:	02b53633          	mulhu	a2,a0,a1
    292c:	72c2ac23          	sw	a2,1848(t0)

00002930 <inst_479>:
    2930:	0000b537          	lui	a0,0xb
    2934:	50350513          	addi	a0,a0,1283 # b503 <_end+0x47ff>
    2938:	00400593          	li	a1,4
    293c:	02b53633          	mulhu	a2,a0,a1
    2940:	72c2ae23          	sw	a2,1852(t0)

00002944 <inst_480>:
    2944:	0000b537          	lui	a0,0xb
    2948:	50350513          	addi	a0,a0,1283 # b503 <_end+0x47ff>
    294c:	333335b7          	lui	a1,0x33333
    2950:	33258593          	addi	a1,a1,818 # 33333332 <_end+0x3332c62e>
    2954:	02b53633          	mulhu	a2,a0,a1
    2958:	74c2a023          	sw	a2,1856(t0)

0000295c <inst_481>:
    295c:	0000b537          	lui	a0,0xb
    2960:	50350513          	addi	a0,a0,1283 # b503 <_end+0x47ff>
    2964:	666665b7          	lui	a1,0x66666
    2968:	66558593          	addi	a1,a1,1637 # 66666665 <_end+0x6665f961>
    296c:	02b53633          	mulhu	a2,a0,a1
    2970:	74c2a223          	sw	a2,1860(t0)

00002974 <inst_482>:
    2974:	0000b537          	lui	a0,0xb
    2978:	50350513          	addi	a0,a0,1283 # b503 <_end+0x47ff>
    297c:	0000b5b7          	lui	a1,0xb
    2980:	50358593          	addi	a1,a1,1283 # b503 <_end+0x47ff>
    2984:	02b53633          	mulhu	a2,a0,a1
    2988:	74c2a423          	sw	a2,1864(t0)

0000298c <inst_483>:
    298c:	0000b537          	lui	a0,0xb
    2990:	50350513          	addi	a0,a0,1283 # b503 <_end+0x47ff>
    2994:	000105b7          	lui	a1,0x10
    2998:	ffe58593          	addi	a1,a1,-2 # fffe <_end+0x92fa>
    299c:	02b53633          	mulhu	a2,a0,a1
    29a0:	74c2a623          	sw	a2,1868(t0)

000029a4 <inst_484>:
    29a4:	0000b537          	lui	a0,0xb
    29a8:	50350513          	addi	a0,a0,1283 # b503 <_end+0x47ff>
    29ac:	555555b7          	lui	a1,0x55555
    29b0:	55658593          	addi	a1,a1,1366 # 55555556 <_end+0x5554e852>
    29b4:	02b53633          	mulhu	a2,a0,a1
    29b8:	74c2a823          	sw	a2,1872(t0)

000029bc <inst_485>:
    29bc:	0000b537          	lui	a0,0xb
    29c0:	50350513          	addi	a0,a0,1283 # b503 <_end+0x47ff>
    29c4:	aaaab5b7          	lui	a1,0xaaaab
    29c8:	aab58593          	addi	a1,a1,-1365 # aaaaaaab <_end+0xaaaa3da7>
    29cc:	02b53633          	mulhu	a2,a0,a1
    29d0:	74c2aa23          	sw	a2,1876(t0)

000029d4 <inst_486>:
    29d4:	0000b537          	lui	a0,0xb
    29d8:	50350513          	addi	a0,a0,1283 # b503 <_end+0x47ff>
    29dc:	00600593          	li	a1,6
    29e0:	02b53633          	mulhu	a2,a0,a1
    29e4:	74c2ac23          	sw	a2,1880(t0)

000029e8 <inst_487>:
    29e8:	0000b537          	lui	a0,0xb
    29ec:	50350513          	addi	a0,a0,1283 # b503 <_end+0x47ff>
    29f0:	333335b7          	lui	a1,0x33333
    29f4:	33458593          	addi	a1,a1,820 # 33333334 <_end+0x3332c630>
    29f8:	02b53633          	mulhu	a2,a0,a1
    29fc:	74c2ae23          	sw	a2,1884(t0)

00002a00 <inst_488>:
    2a00:	0000b537          	lui	a0,0xb
    2a04:	50350513          	addi	a0,a0,1283 # b503 <_end+0x47ff>
    2a08:	666665b7          	lui	a1,0x66666
    2a0c:	66758593          	addi	a1,a1,1639 # 66666667 <_end+0x6665f963>
    2a10:	02b53633          	mulhu	a2,a0,a1
    2a14:	76c2a023          	sw	a2,1888(t0)

00002a18 <inst_489>:
    2a18:	0000b537          	lui	a0,0xb
    2a1c:	50350513          	addi	a0,a0,1283 # b503 <_end+0x47ff>
    2a20:	0000b5b7          	lui	a1,0xb
    2a24:	50558593          	addi	a1,a1,1285 # b505 <_end+0x4801>
    2a28:	02b53633          	mulhu	a2,a0,a1
    2a2c:	76c2a223          	sw	a2,1892(t0)

00002a30 <inst_490>:
    2a30:	0000b537          	lui	a0,0xb
    2a34:	50350513          	addi	a0,a0,1283 # b503 <_end+0x47ff>
    2a38:	00100593          	li	a1,1
    2a3c:	02b53633          	mulhu	a2,a0,a1
    2a40:	76c2a423          	sw	a2,1896(t0)

00002a44 <inst_491>:
    2a44:	0000b537          	lui	a0,0xb
    2a48:	50350513          	addi	a0,a0,1283 # b503 <_end+0x47ff>
    2a4c:	000105b7          	lui	a1,0x10
    2a50:	02b53633          	mulhu	a2,a0,a1
    2a54:	76c2a623          	sw	a2,1900(t0)

00002a58 <inst_492>:
    2a58:	00010537          	lui	a0,0x10
    2a5c:	ffe50513          	addi	a0,a0,-2 # fffe <_end+0x92fa>
    2a60:	00300593          	li	a1,3
    2a64:	02b53633          	mulhu	a2,a0,a1
    2a68:	76c2a823          	sw	a2,1904(t0)

00002a6c <inst_493>:
    2a6c:	00010537          	lui	a0,0x10
    2a70:	ffe50513          	addi	a0,a0,-2 # fffe <_end+0x92fa>
    2a74:	555555b7          	lui	a1,0x55555
    2a78:	55558593          	addi	a1,a1,1365 # 55555555 <_end+0x5554e851>
    2a7c:	02b53633          	mulhu	a2,a0,a1
    2a80:	76c2aa23          	sw	a2,1908(t0)

00002a84 <inst_494>:
    2a84:	00010537          	lui	a0,0x10
    2a88:	ffe50513          	addi	a0,a0,-2 # fffe <_end+0x92fa>
    2a8c:	aaaab5b7          	lui	a1,0xaaaab
    2a90:	aaa58593          	addi	a1,a1,-1366 # aaaaaaaa <_end+0xaaaa3da6>
    2a94:	02b53633          	mulhu	a2,a0,a1
    2a98:	76c2ac23          	sw	a2,1912(t0)

00002a9c <inst_495>:
    2a9c:	00010537          	lui	a0,0x10
    2aa0:	ffe50513          	addi	a0,a0,-2 # fffe <_end+0x92fa>
    2aa4:	00500593          	li	a1,5
    2aa8:	02b53633          	mulhu	a2,a0,a1
    2aac:	76c2ae23          	sw	a2,1916(t0)

00002ab0 <inst_496>:
    2ab0:	00010537          	lui	a0,0x10
    2ab4:	ffe50513          	addi	a0,a0,-2 # fffe <_end+0x92fa>
    2ab8:	333335b7          	lui	a1,0x33333
    2abc:	33358593          	addi	a1,a1,819 # 33333333 <_end+0x3332c62f>
    2ac0:	02b53633          	mulhu	a2,a0,a1
    2ac4:	78c2a023          	sw	a2,1920(t0)

00002ac8 <inst_497>:
    2ac8:	00010537          	lui	a0,0x10
    2acc:	ffe50513          	addi	a0,a0,-2 # fffe <_end+0x92fa>
    2ad0:	666665b7          	lui	a1,0x66666
    2ad4:	66658593          	addi	a1,a1,1638 # 66666666 <_end+0x6665f962>
    2ad8:	02b53633          	mulhu	a2,a0,a1
    2adc:	78c2a223          	sw	a2,1924(t0)

00002ae0 <inst_498>:
    2ae0:	00010537          	lui	a0,0x10
    2ae4:	ffe50513          	addi	a0,a0,-2 # fffe <_end+0x92fa>
    2ae8:	0000b5b7          	lui	a1,0xb
    2aec:	50458593          	addi	a1,a1,1284 # b504 <_end+0x4800>
    2af0:	02b53633          	mulhu	a2,a0,a1
    2af4:	78c2a423          	sw	a2,1928(t0)

00002af8 <inst_499>:
    2af8:	00010537          	lui	a0,0x10
    2afc:	ffe50513          	addi	a0,a0,-2 # fffe <_end+0x92fa>
    2b00:	00000593          	li	a1,0
    2b04:	02b53633          	mulhu	a2,a0,a1
    2b08:	78c2a623          	sw	a2,1932(t0)

00002b0c <inst_500>:
    2b0c:	00010537          	lui	a0,0x10
    2b10:	ffe50513          	addi	a0,a0,-2 # fffe <_end+0x92fa>
    2b14:	000105b7          	lui	a1,0x10
    2b18:	fff58593          	addi	a1,a1,-1 # ffff <_end+0x92fb>
    2b1c:	02b53633          	mulhu	a2,a0,a1
    2b20:	78c2a823          	sw	a2,1936(t0)

00002b24 <inst_501>:
    2b24:	00010537          	lui	a0,0x10
    2b28:	ffe50513          	addi	a0,a0,-2 # fffe <_end+0x92fa>
    2b2c:	00200593          	li	a1,2
    2b30:	02b53633          	mulhu	a2,a0,a1
    2b34:	78c2aa23          	sw	a2,1940(t0)

00002b38 <inst_502>:
    2b38:	00010537          	lui	a0,0x10
    2b3c:	ffe50513          	addi	a0,a0,-2 # fffe <_end+0x92fa>
    2b40:	555555b7          	lui	a1,0x55555
    2b44:	55458593          	addi	a1,a1,1364 # 55555554 <_end+0x5554e850>
    2b48:	02b53633          	mulhu	a2,a0,a1
    2b4c:	78c2ac23          	sw	a2,1944(t0)

00002b50 <inst_503>:
    2b50:	00010537          	lui	a0,0x10
    2b54:	ffe50513          	addi	a0,a0,-2 # fffe <_end+0x92fa>
    2b58:	aaaab5b7          	lui	a1,0xaaaab
    2b5c:	aa958593          	addi	a1,a1,-1367 # aaaaaaa9 <_end+0xaaaa3da5>
    2b60:	02b53633          	mulhu	a2,a0,a1
    2b64:	78c2ae23          	sw	a2,1948(t0)

00002b68 <inst_504>:
    2b68:	00010537          	lui	a0,0x10
    2b6c:	ffe50513          	addi	a0,a0,-2 # fffe <_end+0x92fa>
    2b70:	00400593          	li	a1,4
    2b74:	02b53633          	mulhu	a2,a0,a1
    2b78:	7ac2a023          	sw	a2,1952(t0)

00002b7c <inst_505>:
    2b7c:	00010537          	lui	a0,0x10
    2b80:	ffe50513          	addi	a0,a0,-2 # fffe <_end+0x92fa>
    2b84:	333335b7          	lui	a1,0x33333
    2b88:	33258593          	addi	a1,a1,818 # 33333332 <_end+0x3332c62e>
    2b8c:	02b53633          	mulhu	a2,a0,a1
    2b90:	7ac2a223          	sw	a2,1956(t0)

00002b94 <inst_506>:
    2b94:	00010537          	lui	a0,0x10
    2b98:	ffe50513          	addi	a0,a0,-2 # fffe <_end+0x92fa>
    2b9c:	666665b7          	lui	a1,0x66666
    2ba0:	66558593          	addi	a1,a1,1637 # 66666665 <_end+0x6665f961>
    2ba4:	02b53633          	mulhu	a2,a0,a1
    2ba8:	7ac2a423          	sw	a2,1960(t0)

00002bac <inst_507>:
    2bac:	00010537          	lui	a0,0x10
    2bb0:	ffe50513          	addi	a0,a0,-2 # fffe <_end+0x92fa>
    2bb4:	0000b5b7          	lui	a1,0xb
    2bb8:	50358593          	addi	a1,a1,1283 # b503 <_end+0x47ff>
    2bbc:	02b53633          	mulhu	a2,a0,a1
    2bc0:	7ac2a623          	sw	a2,1964(t0)

00002bc4 <inst_508>:
    2bc4:	00010537          	lui	a0,0x10
    2bc8:	ffe50513          	addi	a0,a0,-2 # fffe <_end+0x92fa>
    2bcc:	000105b7          	lui	a1,0x10
    2bd0:	ffe58593          	addi	a1,a1,-2 # fffe <_end+0x92fa>
    2bd4:	02b53633          	mulhu	a2,a0,a1
    2bd8:	7ac2a823          	sw	a2,1968(t0)

00002bdc <inst_509>:
    2bdc:	00010537          	lui	a0,0x10
    2be0:	ffe50513          	addi	a0,a0,-2 # fffe <_end+0x92fa>
    2be4:	555555b7          	lui	a1,0x55555
    2be8:	55658593          	addi	a1,a1,1366 # 55555556 <_end+0x5554e852>
    2bec:	02b53633          	mulhu	a2,a0,a1
    2bf0:	7ac2aa23          	sw	a2,1972(t0)

00002bf4 <inst_510>:
    2bf4:	00010537          	lui	a0,0x10
    2bf8:	ffe50513          	addi	a0,a0,-2 # fffe <_end+0x92fa>
    2bfc:	aaaab5b7          	lui	a1,0xaaaab
    2c00:	aab58593          	addi	a1,a1,-1365 # aaaaaaab <_end+0xaaaa3da7>
    2c04:	02b53633          	mulhu	a2,a0,a1
    2c08:	7ac2ac23          	sw	a2,1976(t0)

00002c0c <inst_511>:
    2c0c:	00010537          	lui	a0,0x10
    2c10:	ffe50513          	addi	a0,a0,-2 # fffe <_end+0x92fa>
    2c14:	00600593          	li	a1,6
    2c18:	02b53633          	mulhu	a2,a0,a1
    2c1c:	7ac2ae23          	sw	a2,1980(t0)

00002c20 <inst_512>:
    2c20:	00010537          	lui	a0,0x10
    2c24:	ffe50513          	addi	a0,a0,-2 # fffe <_end+0x92fa>
    2c28:	333335b7          	lui	a1,0x33333
    2c2c:	33458593          	addi	a1,a1,820 # 33333334 <_end+0x3332c630>
    2c30:	02b53633          	mulhu	a2,a0,a1
    2c34:	7cc2a023          	sw	a2,1984(t0)

00002c38 <inst_513>:
    2c38:	00010537          	lui	a0,0x10
    2c3c:	ffe50513          	addi	a0,a0,-2 # fffe <_end+0x92fa>
    2c40:	666665b7          	lui	a1,0x66666
    2c44:	66758593          	addi	a1,a1,1639 # 66666667 <_end+0x6665f963>
    2c48:	02b53633          	mulhu	a2,a0,a1
    2c4c:	7cc2a223          	sw	a2,1988(t0)

00002c50 <inst_514>:
    2c50:	00010537          	lui	a0,0x10
    2c54:	ffe50513          	addi	a0,a0,-2 # fffe <_end+0x92fa>
    2c58:	0000b5b7          	lui	a1,0xb
    2c5c:	50558593          	addi	a1,a1,1285 # b505 <_end+0x4801>
    2c60:	02b53633          	mulhu	a2,a0,a1
    2c64:	7cc2a423          	sw	a2,1992(t0)

00002c68 <inst_515>:
    2c68:	00010537          	lui	a0,0x10
    2c6c:	ffe50513          	addi	a0,a0,-2 # fffe <_end+0x92fa>
    2c70:	00100593          	li	a1,1
    2c74:	02b53633          	mulhu	a2,a0,a1
    2c78:	7cc2a623          	sw	a2,1996(t0)

00002c7c <inst_516>:
    2c7c:	00010537          	lui	a0,0x10
    2c80:	ffe50513          	addi	a0,a0,-2 # fffe <_end+0x92fa>
    2c84:	000105b7          	lui	a1,0x10
    2c88:	02b53633          	mulhu	a2,a0,a1
    2c8c:	7cc2a823          	sw	a2,2000(t0)

00002c90 <inst_517>:
    2c90:	55555537          	lui	a0,0x55555
    2c94:	55650513          	addi	a0,a0,1366 # 55555556 <_end+0x5554e852>
    2c98:	00300593          	li	a1,3
    2c9c:	02b53633          	mulhu	a2,a0,a1
    2ca0:	7cc2aa23          	sw	a2,2004(t0)

00002ca4 <inst_518>:
    2ca4:	55555537          	lui	a0,0x55555
    2ca8:	55650513          	addi	a0,a0,1366 # 55555556 <_end+0x5554e852>
    2cac:	555555b7          	lui	a1,0x55555
    2cb0:	55558593          	addi	a1,a1,1365 # 55555555 <_end+0x5554e851>
    2cb4:	02b53633          	mulhu	a2,a0,a1
    2cb8:	7cc2ac23          	sw	a2,2008(t0)

00002cbc <inst_519>:
    2cbc:	55555537          	lui	a0,0x55555
    2cc0:	55650513          	addi	a0,a0,1366 # 55555556 <_end+0x5554e852>
    2cc4:	aaaab5b7          	lui	a1,0xaaaab
    2cc8:	aaa58593          	addi	a1,a1,-1366 # aaaaaaaa <_end+0xaaaa3da6>
    2ccc:	02b53633          	mulhu	a2,a0,a1
    2cd0:	7cc2ae23          	sw	a2,2012(t0)

00002cd4 <inst_520>:
    2cd4:	55555537          	lui	a0,0x55555
    2cd8:	55650513          	addi	a0,a0,1366 # 55555556 <_end+0x5554e852>
    2cdc:	00500593          	li	a1,5
    2ce0:	02b53633          	mulhu	a2,a0,a1
    2ce4:	7ec2a023          	sw	a2,2016(t0)

00002ce8 <inst_521>:
    2ce8:	55555537          	lui	a0,0x55555
    2cec:	55650513          	addi	a0,a0,1366 # 55555556 <_end+0x5554e852>
    2cf0:	333335b7          	lui	a1,0x33333
    2cf4:	33358593          	addi	a1,a1,819 # 33333333 <_end+0x3332c62f>
    2cf8:	02b53633          	mulhu	a2,a0,a1
    2cfc:	7ec2a223          	sw	a2,2020(t0)

00002d00 <inst_522>:
    2d00:	55555537          	lui	a0,0x55555
    2d04:	55650513          	addi	a0,a0,1366 # 55555556 <_end+0x5554e852>
    2d08:	666665b7          	lui	a1,0x66666
    2d0c:	66658593          	addi	a1,a1,1638 # 66666666 <_end+0x6665f962>
    2d10:	02b53633          	mulhu	a2,a0,a1
    2d14:	7ec2a423          	sw	a2,2024(t0)

00002d18 <inst_523>:
    2d18:	55555537          	lui	a0,0x55555
    2d1c:	55650513          	addi	a0,a0,1366 # 55555556 <_end+0x5554e852>
    2d20:	0000b5b7          	lui	a1,0xb
    2d24:	50458593          	addi	a1,a1,1284 # b504 <_end+0x4800>
    2d28:	02b53633          	mulhu	a2,a0,a1
    2d2c:	7ec2a623          	sw	a2,2028(t0)

00002d30 <inst_524>:
    2d30:	55555537          	lui	a0,0x55555
    2d34:	55650513          	addi	a0,a0,1366 # 55555556 <_end+0x5554e852>
    2d38:	00000593          	li	a1,0
    2d3c:	02b53633          	mulhu	a2,a0,a1
    2d40:	7ec2a823          	sw	a2,2032(t0)

00002d44 <inst_525>:
    2d44:	55555537          	lui	a0,0x55555
    2d48:	55650513          	addi	a0,a0,1366 # 55555556 <_end+0x5554e852>
    2d4c:	000105b7          	lui	a1,0x10
    2d50:	fff58593          	addi	a1,a1,-1 # ffff <_end+0x92fb>
    2d54:	02b53633          	mulhu	a2,a0,a1
    2d58:	7ec2aa23          	sw	a2,2036(t0)

00002d5c <inst_526>:
    2d5c:	55555537          	lui	a0,0x55555
    2d60:	55650513          	addi	a0,a0,1366 # 55555556 <_end+0x5554e852>
    2d64:	00200593          	li	a1,2
    2d68:	02b53633          	mulhu	a2,a0,a1
    2d6c:	7ec2ac23          	sw	a2,2040(t0)

00002d70 <inst_527>:
    2d70:	55555537          	lui	a0,0x55555
    2d74:	55650513          	addi	a0,a0,1366 # 55555556 <_end+0x5554e852>
    2d78:	555555b7          	lui	a1,0x55555
    2d7c:	55458593          	addi	a1,a1,1364 # 55555554 <_end+0x5554e850>
    2d80:	02b53633          	mulhu	a2,a0,a1
    2d84:	7ec2ae23          	sw	a2,2044(t0)
    2d88:	00004297          	auipc	t0,0x4
    2d8c:	ab828293          	addi	t0,t0,-1352 # 6840 <signature_x5_1>

00002d90 <inst_528>:
    2d90:	55555537          	lui	a0,0x55555
    2d94:	55650513          	addi	a0,a0,1366 # 55555556 <_end+0x5554e852>
    2d98:	aaaab5b7          	lui	a1,0xaaaab
    2d9c:	aa958593          	addi	a1,a1,-1367 # aaaaaaa9 <_end+0xaaaa3da5>
    2da0:	02b53633          	mulhu	a2,a0,a1
    2da4:	00c2a023          	sw	a2,0(t0)

00002da8 <inst_529>:
    2da8:	55555537          	lui	a0,0x55555
    2dac:	55650513          	addi	a0,a0,1366 # 55555556 <_end+0x5554e852>
    2db0:	00400593          	li	a1,4
    2db4:	02b53633          	mulhu	a2,a0,a1
    2db8:	00c2a223          	sw	a2,4(t0)

00002dbc <inst_530>:
    2dbc:	55555537          	lui	a0,0x55555
    2dc0:	55650513          	addi	a0,a0,1366 # 55555556 <_end+0x5554e852>
    2dc4:	333335b7          	lui	a1,0x33333
    2dc8:	33258593          	addi	a1,a1,818 # 33333332 <_end+0x3332c62e>
    2dcc:	02b53633          	mulhu	a2,a0,a1
    2dd0:	00c2a423          	sw	a2,8(t0)

00002dd4 <inst_531>:
    2dd4:	55555537          	lui	a0,0x55555
    2dd8:	55650513          	addi	a0,a0,1366 # 55555556 <_end+0x5554e852>
    2ddc:	666665b7          	lui	a1,0x66666
    2de0:	66558593          	addi	a1,a1,1637 # 66666665 <_end+0x6665f961>
    2de4:	02b53633          	mulhu	a2,a0,a1
    2de8:	00c2a623          	sw	a2,12(t0)

00002dec <inst_532>:
    2dec:	55555537          	lui	a0,0x55555
    2df0:	55650513          	addi	a0,a0,1366 # 55555556 <_end+0x5554e852>
    2df4:	0000b5b7          	lui	a1,0xb
    2df8:	50358593          	addi	a1,a1,1283 # b503 <_end+0x47ff>
    2dfc:	02b53633          	mulhu	a2,a0,a1
    2e00:	00c2a823          	sw	a2,16(t0)

00002e04 <inst_533>:
    2e04:	55555537          	lui	a0,0x55555
    2e08:	55650513          	addi	a0,a0,1366 # 55555556 <_end+0x5554e852>
    2e0c:	000105b7          	lui	a1,0x10
    2e10:	ffe58593          	addi	a1,a1,-2 # fffe <_end+0x92fa>
    2e14:	02b53633          	mulhu	a2,a0,a1
    2e18:	00c2aa23          	sw	a2,20(t0)

00002e1c <inst_534>:
    2e1c:	55555537          	lui	a0,0x55555
    2e20:	55650513          	addi	a0,a0,1366 # 55555556 <_end+0x5554e852>
    2e24:	555555b7          	lui	a1,0x55555
    2e28:	55658593          	addi	a1,a1,1366 # 55555556 <_end+0x5554e852>
    2e2c:	02b53633          	mulhu	a2,a0,a1
    2e30:	00c2ac23          	sw	a2,24(t0)

00002e34 <inst_535>:
    2e34:	55555537          	lui	a0,0x55555
    2e38:	55650513          	addi	a0,a0,1366 # 55555556 <_end+0x5554e852>
    2e3c:	aaaab5b7          	lui	a1,0xaaaab
    2e40:	aab58593          	addi	a1,a1,-1365 # aaaaaaab <_end+0xaaaa3da7>
    2e44:	02b53633          	mulhu	a2,a0,a1
    2e48:	00c2ae23          	sw	a2,28(t0)

00002e4c <inst_536>:
    2e4c:	55555537          	lui	a0,0x55555
    2e50:	55650513          	addi	a0,a0,1366 # 55555556 <_end+0x5554e852>
    2e54:	00600593          	li	a1,6
    2e58:	02b53633          	mulhu	a2,a0,a1
    2e5c:	02c2a023          	sw	a2,32(t0)

00002e60 <inst_537>:
    2e60:	55555537          	lui	a0,0x55555
    2e64:	55650513          	addi	a0,a0,1366 # 55555556 <_end+0x5554e852>
    2e68:	333335b7          	lui	a1,0x33333
    2e6c:	33458593          	addi	a1,a1,820 # 33333334 <_end+0x3332c630>
    2e70:	02b53633          	mulhu	a2,a0,a1
    2e74:	02c2a223          	sw	a2,36(t0)

00002e78 <inst_538>:
    2e78:	55555537          	lui	a0,0x55555
    2e7c:	55650513          	addi	a0,a0,1366 # 55555556 <_end+0x5554e852>
    2e80:	666665b7          	lui	a1,0x66666
    2e84:	66758593          	addi	a1,a1,1639 # 66666667 <_end+0x6665f963>
    2e88:	02b53633          	mulhu	a2,a0,a1
    2e8c:	02c2a423          	sw	a2,40(t0)

00002e90 <inst_539>:
    2e90:	55555537          	lui	a0,0x55555
    2e94:	55650513          	addi	a0,a0,1366 # 55555556 <_end+0x5554e852>
    2e98:	0000b5b7          	lui	a1,0xb
    2e9c:	50558593          	addi	a1,a1,1285 # b505 <_end+0x4801>
    2ea0:	02b53633          	mulhu	a2,a0,a1
    2ea4:	02c2a623          	sw	a2,44(t0)

00002ea8 <inst_540>:
    2ea8:	55555537          	lui	a0,0x55555
    2eac:	55650513          	addi	a0,a0,1366 # 55555556 <_end+0x5554e852>
    2eb0:	00100593          	li	a1,1
    2eb4:	02b53633          	mulhu	a2,a0,a1
    2eb8:	02c2a823          	sw	a2,48(t0)

00002ebc <inst_541>:
    2ebc:	55555537          	lui	a0,0x55555
    2ec0:	55650513          	addi	a0,a0,1366 # 55555556 <_end+0x5554e852>
    2ec4:	000105b7          	lui	a1,0x10
    2ec8:	02b53633          	mulhu	a2,a0,a1
    2ecc:	02c2aa23          	sw	a2,52(t0)

00002ed0 <inst_542>:
    2ed0:	aaaab537          	lui	a0,0xaaaab
    2ed4:	aab50513          	addi	a0,a0,-1365 # aaaaaaab <_end+0xaaaa3da7>
    2ed8:	00300593          	li	a1,3
    2edc:	02b53633          	mulhu	a2,a0,a1
    2ee0:	02c2ac23          	sw	a2,56(t0)

00002ee4 <inst_543>:
    2ee4:	aaaab537          	lui	a0,0xaaaab
    2ee8:	aab50513          	addi	a0,a0,-1365 # aaaaaaab <_end+0xaaaa3da7>
    2eec:	555555b7          	lui	a1,0x55555
    2ef0:	55558593          	addi	a1,a1,1365 # 55555555 <_end+0x5554e851>
    2ef4:	02b53633          	mulhu	a2,a0,a1
    2ef8:	02c2ae23          	sw	a2,60(t0)

00002efc <inst_544>:
    2efc:	aaaab537          	lui	a0,0xaaaab
    2f00:	aab50513          	addi	a0,a0,-1365 # aaaaaaab <_end+0xaaaa3da7>
    2f04:	aaaab5b7          	lui	a1,0xaaaab
    2f08:	aaa58593          	addi	a1,a1,-1366 # aaaaaaaa <_end+0xaaaa3da6>
    2f0c:	02b53633          	mulhu	a2,a0,a1
    2f10:	04c2a023          	sw	a2,64(t0)

00002f14 <inst_545>:
    2f14:	aaaab537          	lui	a0,0xaaaab
    2f18:	aab50513          	addi	a0,a0,-1365 # aaaaaaab <_end+0xaaaa3da7>
    2f1c:	00500593          	li	a1,5
    2f20:	02b53633          	mulhu	a2,a0,a1
    2f24:	04c2a223          	sw	a2,68(t0)

00002f28 <inst_546>:
    2f28:	aaaab537          	lui	a0,0xaaaab
    2f2c:	aab50513          	addi	a0,a0,-1365 # aaaaaaab <_end+0xaaaa3da7>
    2f30:	333335b7          	lui	a1,0x33333
    2f34:	33358593          	addi	a1,a1,819 # 33333333 <_end+0x3332c62f>
    2f38:	02b53633          	mulhu	a2,a0,a1
    2f3c:	04c2a423          	sw	a2,72(t0)

00002f40 <inst_547>:
    2f40:	aaaab537          	lui	a0,0xaaaab
    2f44:	aab50513          	addi	a0,a0,-1365 # aaaaaaab <_end+0xaaaa3da7>
    2f48:	666665b7          	lui	a1,0x66666
    2f4c:	66658593          	addi	a1,a1,1638 # 66666666 <_end+0x6665f962>
    2f50:	02b53633          	mulhu	a2,a0,a1
    2f54:	04c2a623          	sw	a2,76(t0)

00002f58 <inst_548>:
    2f58:	aaaab537          	lui	a0,0xaaaab
    2f5c:	aab50513          	addi	a0,a0,-1365 # aaaaaaab <_end+0xaaaa3da7>
    2f60:	0000b5b7          	lui	a1,0xb
    2f64:	50458593          	addi	a1,a1,1284 # b504 <_end+0x4800>
    2f68:	02b53633          	mulhu	a2,a0,a1
    2f6c:	04c2a823          	sw	a2,80(t0)

00002f70 <inst_549>:
    2f70:	aaaab537          	lui	a0,0xaaaab
    2f74:	aab50513          	addi	a0,a0,-1365 # aaaaaaab <_end+0xaaaa3da7>
    2f78:	00000593          	li	a1,0
    2f7c:	02b53633          	mulhu	a2,a0,a1
    2f80:	04c2aa23          	sw	a2,84(t0)

00002f84 <inst_550>:
    2f84:	aaaab537          	lui	a0,0xaaaab
    2f88:	aab50513          	addi	a0,a0,-1365 # aaaaaaab <_end+0xaaaa3da7>
    2f8c:	000105b7          	lui	a1,0x10
    2f90:	fff58593          	addi	a1,a1,-1 # ffff <_end+0x92fb>
    2f94:	02b53633          	mulhu	a2,a0,a1
    2f98:	04c2ac23          	sw	a2,88(t0)

00002f9c <inst_551>:
    2f9c:	aaaab537          	lui	a0,0xaaaab
    2fa0:	aab50513          	addi	a0,a0,-1365 # aaaaaaab <_end+0xaaaa3da7>
    2fa4:	00200593          	li	a1,2
    2fa8:	02b53633          	mulhu	a2,a0,a1
    2fac:	04c2ae23          	sw	a2,92(t0)

00002fb0 <inst_552>:
    2fb0:	aaaab537          	lui	a0,0xaaaab
    2fb4:	aab50513          	addi	a0,a0,-1365 # aaaaaaab <_end+0xaaaa3da7>
    2fb8:	555555b7          	lui	a1,0x55555
    2fbc:	55458593          	addi	a1,a1,1364 # 55555554 <_end+0x5554e850>
    2fc0:	02b53633          	mulhu	a2,a0,a1
    2fc4:	06c2a023          	sw	a2,96(t0)

00002fc8 <inst_553>:
    2fc8:	aaaab537          	lui	a0,0xaaaab
    2fcc:	aab50513          	addi	a0,a0,-1365 # aaaaaaab <_end+0xaaaa3da7>
    2fd0:	aaaab5b7          	lui	a1,0xaaaab
    2fd4:	aa958593          	addi	a1,a1,-1367 # aaaaaaa9 <_end+0xaaaa3da5>
    2fd8:	02b53633          	mulhu	a2,a0,a1
    2fdc:	06c2a223          	sw	a2,100(t0)

00002fe0 <inst_554>:
    2fe0:	aaaab537          	lui	a0,0xaaaab
    2fe4:	aab50513          	addi	a0,a0,-1365 # aaaaaaab <_end+0xaaaa3da7>
    2fe8:	00400593          	li	a1,4
    2fec:	02b53633          	mulhu	a2,a0,a1
    2ff0:	06c2a423          	sw	a2,104(t0)

00002ff4 <inst_555>:
    2ff4:	aaaab537          	lui	a0,0xaaaab
    2ff8:	aab50513          	addi	a0,a0,-1365 # aaaaaaab <_end+0xaaaa3da7>
    2ffc:	333335b7          	lui	a1,0x33333
    3000:	33258593          	addi	a1,a1,818 # 33333332 <_end+0x3332c62e>
    3004:	02b53633          	mulhu	a2,a0,a1
    3008:	06c2a623          	sw	a2,108(t0)

0000300c <inst_556>:
    300c:	aaaab537          	lui	a0,0xaaaab
    3010:	aab50513          	addi	a0,a0,-1365 # aaaaaaab <_end+0xaaaa3da7>
    3014:	666665b7          	lui	a1,0x66666
    3018:	66558593          	addi	a1,a1,1637 # 66666665 <_end+0x6665f961>
    301c:	02b53633          	mulhu	a2,a0,a1
    3020:	06c2a823          	sw	a2,112(t0)

00003024 <inst_557>:
    3024:	aaaab537          	lui	a0,0xaaaab
    3028:	aab50513          	addi	a0,a0,-1365 # aaaaaaab <_end+0xaaaa3da7>
    302c:	0000b5b7          	lui	a1,0xb
    3030:	50358593          	addi	a1,a1,1283 # b503 <_end+0x47ff>
    3034:	02b53633          	mulhu	a2,a0,a1
    3038:	06c2aa23          	sw	a2,116(t0)

0000303c <inst_558>:
    303c:	aaaab537          	lui	a0,0xaaaab
    3040:	aab50513          	addi	a0,a0,-1365 # aaaaaaab <_end+0xaaaa3da7>
    3044:	000105b7          	lui	a1,0x10
    3048:	ffe58593          	addi	a1,a1,-2 # fffe <_end+0x92fa>
    304c:	02b53633          	mulhu	a2,a0,a1
    3050:	06c2ac23          	sw	a2,120(t0)

00003054 <inst_559>:
    3054:	aaaab537          	lui	a0,0xaaaab
    3058:	aab50513          	addi	a0,a0,-1365 # aaaaaaab <_end+0xaaaa3da7>
    305c:	555555b7          	lui	a1,0x55555
    3060:	55658593          	addi	a1,a1,1366 # 55555556 <_end+0x5554e852>
    3064:	02b53633          	mulhu	a2,a0,a1
    3068:	06c2ae23          	sw	a2,124(t0)

0000306c <inst_560>:
    306c:	aaaab537          	lui	a0,0xaaaab
    3070:	aab50513          	addi	a0,a0,-1365 # aaaaaaab <_end+0xaaaa3da7>
    3074:	aaaab5b7          	lui	a1,0xaaaab
    3078:	aab58593          	addi	a1,a1,-1365 # aaaaaaab <_end+0xaaaa3da7>
    307c:	02b53633          	mulhu	a2,a0,a1
    3080:	08c2a023          	sw	a2,128(t0)

00003084 <inst_561>:
    3084:	aaaab537          	lui	a0,0xaaaab
    3088:	aab50513          	addi	a0,a0,-1365 # aaaaaaab <_end+0xaaaa3da7>
    308c:	00600593          	li	a1,6
    3090:	02b53633          	mulhu	a2,a0,a1
    3094:	08c2a223          	sw	a2,132(t0)

00003098 <inst_562>:
    3098:	aaaab537          	lui	a0,0xaaaab
    309c:	aab50513          	addi	a0,a0,-1365 # aaaaaaab <_end+0xaaaa3da7>
    30a0:	333335b7          	lui	a1,0x33333
    30a4:	33458593          	addi	a1,a1,820 # 33333334 <_end+0x3332c630>
    30a8:	02b53633          	mulhu	a2,a0,a1
    30ac:	08c2a423          	sw	a2,136(t0)

000030b0 <inst_563>:
    30b0:	aaaab537          	lui	a0,0xaaaab
    30b4:	aab50513          	addi	a0,a0,-1365 # aaaaaaab <_end+0xaaaa3da7>
    30b8:	666665b7          	lui	a1,0x66666
    30bc:	66758593          	addi	a1,a1,1639 # 66666667 <_end+0x6665f963>
    30c0:	02b53633          	mulhu	a2,a0,a1
    30c4:	08c2a623          	sw	a2,140(t0)

000030c8 <inst_564>:
    30c8:	aaaab537          	lui	a0,0xaaaab
    30cc:	aab50513          	addi	a0,a0,-1365 # aaaaaaab <_end+0xaaaa3da7>
    30d0:	0000b5b7          	lui	a1,0xb
    30d4:	50558593          	addi	a1,a1,1285 # b505 <_end+0x4801>
    30d8:	02b53633          	mulhu	a2,a0,a1
    30dc:	08c2a823          	sw	a2,144(t0)

000030e0 <inst_565>:
    30e0:	aaaab537          	lui	a0,0xaaaab
    30e4:	aab50513          	addi	a0,a0,-1365 # aaaaaaab <_end+0xaaaa3da7>
    30e8:	00100593          	li	a1,1
    30ec:	02b53633          	mulhu	a2,a0,a1
    30f0:	08c2aa23          	sw	a2,148(t0)

000030f4 <inst_566>:
    30f4:	aaaab537          	lui	a0,0xaaaab
    30f8:	aab50513          	addi	a0,a0,-1365 # aaaaaaab <_end+0xaaaa3da7>
    30fc:	000105b7          	lui	a1,0x10
    3100:	02b53633          	mulhu	a2,a0,a1
    3104:	08c2ac23          	sw	a2,152(t0)

00003108 <inst_567>:
    3108:	00600513          	li	a0,6
    310c:	00300593          	li	a1,3
    3110:	02b53633          	mulhu	a2,a0,a1
    3114:	08c2ae23          	sw	a2,156(t0)

00003118 <inst_568>:
    3118:	00600513          	li	a0,6
    311c:	555555b7          	lui	a1,0x55555
    3120:	55558593          	addi	a1,a1,1365 # 55555555 <_end+0x5554e851>
    3124:	02b53633          	mulhu	a2,a0,a1
    3128:	0ac2a023          	sw	a2,160(t0)

0000312c <inst_569>:
    312c:	00600513          	li	a0,6
    3130:	aaaab5b7          	lui	a1,0xaaaab
    3134:	aaa58593          	addi	a1,a1,-1366 # aaaaaaaa <_end+0xaaaa3da6>
    3138:	02b53633          	mulhu	a2,a0,a1
    313c:	0ac2a223          	sw	a2,164(t0)

00003140 <inst_570>:
    3140:	00600513          	li	a0,6
    3144:	00500593          	li	a1,5
    3148:	02b53633          	mulhu	a2,a0,a1
    314c:	0ac2a423          	sw	a2,168(t0)

00003150 <inst_571>:
    3150:	00600513          	li	a0,6
    3154:	333335b7          	lui	a1,0x33333
    3158:	33358593          	addi	a1,a1,819 # 33333333 <_end+0x3332c62f>
    315c:	02b53633          	mulhu	a2,a0,a1
    3160:	0ac2a623          	sw	a2,172(t0)

00003164 <inst_572>:
    3164:	00600513          	li	a0,6
    3168:	666665b7          	lui	a1,0x66666
    316c:	66658593          	addi	a1,a1,1638 # 66666666 <_end+0x6665f962>
    3170:	02b53633          	mulhu	a2,a0,a1
    3174:	0ac2a823          	sw	a2,176(t0)

00003178 <inst_573>:
    3178:	00600513          	li	a0,6
    317c:	0000b5b7          	lui	a1,0xb
    3180:	50458593          	addi	a1,a1,1284 # b504 <_end+0x4800>
    3184:	02b53633          	mulhu	a2,a0,a1
    3188:	0ac2aa23          	sw	a2,180(t0)

0000318c <inst_574>:
    318c:	00600513          	li	a0,6
    3190:	00000593          	li	a1,0
    3194:	02b53633          	mulhu	a2,a0,a1
    3198:	0ac2ac23          	sw	a2,184(t0)

0000319c <inst_575>:
    319c:	00600513          	li	a0,6
    31a0:	000105b7          	lui	a1,0x10
    31a4:	fff58593          	addi	a1,a1,-1 # ffff <_end+0x92fb>
    31a8:	02b53633          	mulhu	a2,a0,a1
    31ac:	0ac2ae23          	sw	a2,188(t0)

000031b0 <inst_576>:
    31b0:	00600513          	li	a0,6
    31b4:	00200593          	li	a1,2
    31b8:	02b53633          	mulhu	a2,a0,a1
    31bc:	0cc2a023          	sw	a2,192(t0)

000031c0 <inst_577>:
    31c0:	00600513          	li	a0,6
    31c4:	555555b7          	lui	a1,0x55555
    31c8:	55458593          	addi	a1,a1,1364 # 55555554 <_end+0x5554e850>
    31cc:	02b53633          	mulhu	a2,a0,a1
    31d0:	0cc2a223          	sw	a2,196(t0)

000031d4 <inst_578>:
    31d4:	00600513          	li	a0,6
    31d8:	aaaab5b7          	lui	a1,0xaaaab
    31dc:	aa958593          	addi	a1,a1,-1367 # aaaaaaa9 <_end+0xaaaa3da5>
    31e0:	02b53633          	mulhu	a2,a0,a1
    31e4:	0cc2a423          	sw	a2,200(t0)

000031e8 <inst_579>:
    31e8:	00600513          	li	a0,6
    31ec:	00400593          	li	a1,4
    31f0:	02b53633          	mulhu	a2,a0,a1
    31f4:	0cc2a623          	sw	a2,204(t0)

000031f8 <inst_580>:
    31f8:	00600513          	li	a0,6
    31fc:	333335b7          	lui	a1,0x33333
    3200:	33258593          	addi	a1,a1,818 # 33333332 <_end+0x3332c62e>
    3204:	02b53633          	mulhu	a2,a0,a1
    3208:	0cc2a823          	sw	a2,208(t0)

0000320c <inst_581>:
    320c:	00600513          	li	a0,6
    3210:	666665b7          	lui	a1,0x66666
    3214:	66558593          	addi	a1,a1,1637 # 66666665 <_end+0x6665f961>
    3218:	02b53633          	mulhu	a2,a0,a1
    321c:	0cc2aa23          	sw	a2,212(t0)

00003220 <inst_582>:
    3220:	00600513          	li	a0,6
    3224:	0000b5b7          	lui	a1,0xb
    3228:	50358593          	addi	a1,a1,1283 # b503 <_end+0x47ff>
    322c:	02b53633          	mulhu	a2,a0,a1
    3230:	0cc2ac23          	sw	a2,216(t0)

00003234 <inst_583>:
    3234:	00600513          	li	a0,6
    3238:	000105b7          	lui	a1,0x10
    323c:	ffe58593          	addi	a1,a1,-2 # fffe <_end+0x92fa>
    3240:	02b53633          	mulhu	a2,a0,a1
    3244:	0cc2ae23          	sw	a2,220(t0)

00003248 <inst_584>:
    3248:	00600513          	li	a0,6
    324c:	555555b7          	lui	a1,0x55555
    3250:	55658593          	addi	a1,a1,1366 # 55555556 <_end+0x5554e852>
    3254:	02b53633          	mulhu	a2,a0,a1
    3258:	0ec2a023          	sw	a2,224(t0)

0000325c <inst_585>:
    325c:	00600513          	li	a0,6
    3260:	aaaab5b7          	lui	a1,0xaaaab
    3264:	aab58593          	addi	a1,a1,-1365 # aaaaaaab <_end+0xaaaa3da7>
    3268:	02b53633          	mulhu	a2,a0,a1
    326c:	0ec2a223          	sw	a2,228(t0)

00003270 <inst_586>:
    3270:	00600513          	li	a0,6
    3274:	00600593          	li	a1,6
    3278:	02b53633          	mulhu	a2,a0,a1
    327c:	0ec2a423          	sw	a2,232(t0)

00003280 <inst_587>:
    3280:	00600513          	li	a0,6
    3284:	333335b7          	lui	a1,0x33333
    3288:	33458593          	addi	a1,a1,820 # 33333334 <_end+0x3332c630>
    328c:	02b53633          	mulhu	a2,a0,a1
    3290:	0ec2a623          	sw	a2,236(t0)

00003294 <inst_588>:
    3294:	00600513          	li	a0,6
    3298:	666665b7          	lui	a1,0x66666
    329c:	66758593          	addi	a1,a1,1639 # 66666667 <_end+0x6665f963>
    32a0:	02b53633          	mulhu	a2,a0,a1
    32a4:	0ec2a823          	sw	a2,240(t0)

000032a8 <inst_589>:
    32a8:	00600513          	li	a0,6
    32ac:	0000b5b7          	lui	a1,0xb
    32b0:	50558593          	addi	a1,a1,1285 # b505 <_end+0x4801>
    32b4:	02b53633          	mulhu	a2,a0,a1
    32b8:	0ec2aa23          	sw	a2,244(t0)

000032bc <inst_590>:
    32bc:	00600513          	li	a0,6
    32c0:	00100593          	li	a1,1
    32c4:	02b53633          	mulhu	a2,a0,a1
    32c8:	0ec2ac23          	sw	a2,248(t0)

000032cc <inst_591>:
    32cc:	00600513          	li	a0,6
    32d0:	000105b7          	lui	a1,0x10
    32d4:	02b53633          	mulhu	a2,a0,a1
    32d8:	0ec2ae23          	sw	a2,252(t0)

000032dc <inst_592>:
    32dc:	33333537          	lui	a0,0x33333
    32e0:	33450513          	addi	a0,a0,820 # 33333334 <_end+0x3332c630>
    32e4:	00300593          	li	a1,3
    32e8:	02b53633          	mulhu	a2,a0,a1
    32ec:	10c2a023          	sw	a2,256(t0)

000032f0 <inst_593>:
    32f0:	33333537          	lui	a0,0x33333
    32f4:	33450513          	addi	a0,a0,820 # 33333334 <_end+0x3332c630>
    32f8:	555555b7          	lui	a1,0x55555
    32fc:	55558593          	addi	a1,a1,1365 # 55555555 <_end+0x5554e851>
    3300:	02b53633          	mulhu	a2,a0,a1
    3304:	10c2a223          	sw	a2,260(t0)

00003308 <inst_594>:
    3308:	33333537          	lui	a0,0x33333
    330c:	33450513          	addi	a0,a0,820 # 33333334 <_end+0x3332c630>
    3310:	aaaab5b7          	lui	a1,0xaaaab
    3314:	aaa58593          	addi	a1,a1,-1366 # aaaaaaaa <_end+0xaaaa3da6>
    3318:	02b53633          	mulhu	a2,a0,a1
    331c:	10c2a423          	sw	a2,264(t0)

00003320 <inst_595>:
    3320:	33333537          	lui	a0,0x33333
    3324:	33450513          	addi	a0,a0,820 # 33333334 <_end+0x3332c630>
    3328:	00500593          	li	a1,5
    332c:	02b53633          	mulhu	a2,a0,a1
    3330:	10c2a623          	sw	a2,268(t0)

00003334 <inst_596>:
    3334:	33333537          	lui	a0,0x33333
    3338:	33450513          	addi	a0,a0,820 # 33333334 <_end+0x3332c630>
    333c:	333335b7          	lui	a1,0x33333
    3340:	33358593          	addi	a1,a1,819 # 33333333 <_end+0x3332c62f>
    3344:	02b53633          	mulhu	a2,a0,a1
    3348:	10c2a823          	sw	a2,272(t0)

0000334c <inst_597>:
    334c:	33333537          	lui	a0,0x33333
    3350:	33450513          	addi	a0,a0,820 # 33333334 <_end+0x3332c630>
    3354:	666665b7          	lui	a1,0x66666
    3358:	66658593          	addi	a1,a1,1638 # 66666666 <_end+0x6665f962>
    335c:	02b53633          	mulhu	a2,a0,a1
    3360:	10c2aa23          	sw	a2,276(t0)

00003364 <inst_598>:
    3364:	33333537          	lui	a0,0x33333
    3368:	33450513          	addi	a0,a0,820 # 33333334 <_end+0x3332c630>
    336c:	0000b5b7          	lui	a1,0xb
    3370:	50458593          	addi	a1,a1,1284 # b504 <_end+0x4800>
    3374:	02b53633          	mulhu	a2,a0,a1
    3378:	10c2ac23          	sw	a2,280(t0)

0000337c <inst_599>:
    337c:	33333537          	lui	a0,0x33333
    3380:	33450513          	addi	a0,a0,820 # 33333334 <_end+0x3332c630>
    3384:	00000593          	li	a1,0
    3388:	02b53633          	mulhu	a2,a0,a1
    338c:	10c2ae23          	sw	a2,284(t0)

00003390 <inst_600>:
    3390:	33333537          	lui	a0,0x33333
    3394:	33450513          	addi	a0,a0,820 # 33333334 <_end+0x3332c630>
    3398:	000105b7          	lui	a1,0x10
    339c:	fff58593          	addi	a1,a1,-1 # ffff <_end+0x92fb>
    33a0:	02b53633          	mulhu	a2,a0,a1
    33a4:	12c2a023          	sw	a2,288(t0)

000033a8 <inst_601>:
    33a8:	33333537          	lui	a0,0x33333
    33ac:	33450513          	addi	a0,a0,820 # 33333334 <_end+0x3332c630>
    33b0:	00200593          	li	a1,2
    33b4:	02b53633          	mulhu	a2,a0,a1
    33b8:	12c2a223          	sw	a2,292(t0)

000033bc <inst_602>:
    33bc:	33333537          	lui	a0,0x33333
    33c0:	33450513          	addi	a0,a0,820 # 33333334 <_end+0x3332c630>
    33c4:	555555b7          	lui	a1,0x55555
    33c8:	55458593          	addi	a1,a1,1364 # 55555554 <_end+0x5554e850>
    33cc:	02b53633          	mulhu	a2,a0,a1
    33d0:	12c2a423          	sw	a2,296(t0)

000033d4 <inst_603>:
    33d4:	33333537          	lui	a0,0x33333
    33d8:	33450513          	addi	a0,a0,820 # 33333334 <_end+0x3332c630>
    33dc:	aaaab5b7          	lui	a1,0xaaaab
    33e0:	aa958593          	addi	a1,a1,-1367 # aaaaaaa9 <_end+0xaaaa3da5>
    33e4:	02b53633          	mulhu	a2,a0,a1
    33e8:	12c2a623          	sw	a2,300(t0)

000033ec <inst_604>:
    33ec:	33333537          	lui	a0,0x33333
    33f0:	33450513          	addi	a0,a0,820 # 33333334 <_end+0x3332c630>
    33f4:	00400593          	li	a1,4
    33f8:	02b53633          	mulhu	a2,a0,a1
    33fc:	12c2a823          	sw	a2,304(t0)

00003400 <inst_605>:
    3400:	33333537          	lui	a0,0x33333
    3404:	33450513          	addi	a0,a0,820 # 33333334 <_end+0x3332c630>
    3408:	333335b7          	lui	a1,0x33333
    340c:	33258593          	addi	a1,a1,818 # 33333332 <_end+0x3332c62e>
    3410:	02b53633          	mulhu	a2,a0,a1
    3414:	12c2aa23          	sw	a2,308(t0)

00003418 <inst_606>:
    3418:	33333537          	lui	a0,0x33333
    341c:	33450513          	addi	a0,a0,820 # 33333334 <_end+0x3332c630>
    3420:	666665b7          	lui	a1,0x66666
    3424:	66558593          	addi	a1,a1,1637 # 66666665 <_end+0x6665f961>
    3428:	02b53633          	mulhu	a2,a0,a1
    342c:	12c2ac23          	sw	a2,312(t0)

00003430 <inst_607>:
    3430:	33333537          	lui	a0,0x33333
    3434:	33450513          	addi	a0,a0,820 # 33333334 <_end+0x3332c630>
    3438:	0000b5b7          	lui	a1,0xb
    343c:	50358593          	addi	a1,a1,1283 # b503 <_end+0x47ff>
    3440:	02b53633          	mulhu	a2,a0,a1
    3444:	12c2ae23          	sw	a2,316(t0)

00003448 <inst_608>:
    3448:	33333537          	lui	a0,0x33333
    344c:	33450513          	addi	a0,a0,820 # 33333334 <_end+0x3332c630>
    3450:	000105b7          	lui	a1,0x10
    3454:	ffe58593          	addi	a1,a1,-2 # fffe <_end+0x92fa>
    3458:	02b53633          	mulhu	a2,a0,a1
    345c:	14c2a023          	sw	a2,320(t0)

00003460 <inst_609>:
    3460:	33333537          	lui	a0,0x33333
    3464:	33450513          	addi	a0,a0,820 # 33333334 <_end+0x3332c630>
    3468:	555555b7          	lui	a1,0x55555
    346c:	55658593          	addi	a1,a1,1366 # 55555556 <_end+0x5554e852>
    3470:	02b53633          	mulhu	a2,a0,a1
    3474:	14c2a223          	sw	a2,324(t0)

00003478 <inst_610>:
    3478:	33333537          	lui	a0,0x33333
    347c:	33450513          	addi	a0,a0,820 # 33333334 <_end+0x3332c630>
    3480:	aaaab5b7          	lui	a1,0xaaaab
    3484:	aab58593          	addi	a1,a1,-1365 # aaaaaaab <_end+0xaaaa3da7>
    3488:	02b53633          	mulhu	a2,a0,a1
    348c:	14c2a423          	sw	a2,328(t0)

00003490 <inst_611>:
    3490:	33333537          	lui	a0,0x33333
    3494:	33450513          	addi	a0,a0,820 # 33333334 <_end+0x3332c630>
    3498:	00600593          	li	a1,6
    349c:	02b53633          	mulhu	a2,a0,a1
    34a0:	14c2a623          	sw	a2,332(t0)

000034a4 <inst_612>:
    34a4:	33333537          	lui	a0,0x33333
    34a8:	33450513          	addi	a0,a0,820 # 33333334 <_end+0x3332c630>
    34ac:	333335b7          	lui	a1,0x33333
    34b0:	33458593          	addi	a1,a1,820 # 33333334 <_end+0x3332c630>
    34b4:	02b53633          	mulhu	a2,a0,a1
    34b8:	14c2a823          	sw	a2,336(t0)

000034bc <inst_613>:
    34bc:	33333537          	lui	a0,0x33333
    34c0:	33450513          	addi	a0,a0,820 # 33333334 <_end+0x3332c630>
    34c4:	666665b7          	lui	a1,0x66666
    34c8:	66758593          	addi	a1,a1,1639 # 66666667 <_end+0x6665f963>
    34cc:	02b53633          	mulhu	a2,a0,a1
    34d0:	14c2aa23          	sw	a2,340(t0)

000034d4 <inst_614>:
    34d4:	33333537          	lui	a0,0x33333
    34d8:	33450513          	addi	a0,a0,820 # 33333334 <_end+0x3332c630>
    34dc:	0000b5b7          	lui	a1,0xb
    34e0:	50558593          	addi	a1,a1,1285 # b505 <_end+0x4801>
    34e4:	02b53633          	mulhu	a2,a0,a1
    34e8:	14c2ac23          	sw	a2,344(t0)

000034ec <inst_615>:
    34ec:	33333537          	lui	a0,0x33333
    34f0:	33450513          	addi	a0,a0,820 # 33333334 <_end+0x3332c630>
    34f4:	00100593          	li	a1,1
    34f8:	02b53633          	mulhu	a2,a0,a1
    34fc:	14c2ae23          	sw	a2,348(t0)

00003500 <inst_616>:
    3500:	33333537          	lui	a0,0x33333
    3504:	33450513          	addi	a0,a0,820 # 33333334 <_end+0x3332c630>
    3508:	000105b7          	lui	a1,0x10
    350c:	02b53633          	mulhu	a2,a0,a1
    3510:	16c2a023          	sw	a2,352(t0)

00003514 <inst_617>:
    3514:	66666537          	lui	a0,0x66666
    3518:	66750513          	addi	a0,a0,1639 # 66666667 <_end+0x6665f963>
    351c:	00300593          	li	a1,3
    3520:	02b53633          	mulhu	a2,a0,a1
    3524:	16c2a223          	sw	a2,356(t0)

00003528 <inst_618>:
    3528:	66666537          	lui	a0,0x66666
    352c:	66750513          	addi	a0,a0,1639 # 66666667 <_end+0x6665f963>
    3530:	555555b7          	lui	a1,0x55555
    3534:	55558593          	addi	a1,a1,1365 # 55555555 <_end+0x5554e851>
    3538:	02b53633          	mulhu	a2,a0,a1
    353c:	16c2a423          	sw	a2,360(t0)

00003540 <inst_619>:
    3540:	66666537          	lui	a0,0x66666
    3544:	66750513          	addi	a0,a0,1639 # 66666667 <_end+0x6665f963>
    3548:	aaaab5b7          	lui	a1,0xaaaab
    354c:	aaa58593          	addi	a1,a1,-1366 # aaaaaaaa <_end+0xaaaa3da6>
    3550:	02b53633          	mulhu	a2,a0,a1
    3554:	16c2a623          	sw	a2,364(t0)

00003558 <inst_620>:
    3558:	66666537          	lui	a0,0x66666
    355c:	66750513          	addi	a0,a0,1639 # 66666667 <_end+0x6665f963>
    3560:	00500593          	li	a1,5
    3564:	02b53633          	mulhu	a2,a0,a1
    3568:	16c2a823          	sw	a2,368(t0)

0000356c <inst_621>:
    356c:	66666537          	lui	a0,0x66666
    3570:	66750513          	addi	a0,a0,1639 # 66666667 <_end+0x6665f963>
    3574:	333335b7          	lui	a1,0x33333
    3578:	33358593          	addi	a1,a1,819 # 33333333 <_end+0x3332c62f>
    357c:	02b53633          	mulhu	a2,a0,a1
    3580:	16c2aa23          	sw	a2,372(t0)

00003584 <inst_622>:
    3584:	66666537          	lui	a0,0x66666
    3588:	66750513          	addi	a0,a0,1639 # 66666667 <_end+0x6665f963>
    358c:	666665b7          	lui	a1,0x66666
    3590:	66658593          	addi	a1,a1,1638 # 66666666 <_end+0x6665f962>
    3594:	02b53633          	mulhu	a2,a0,a1
    3598:	16c2ac23          	sw	a2,376(t0)

0000359c <inst_623>:
    359c:	66666537          	lui	a0,0x66666
    35a0:	66750513          	addi	a0,a0,1639 # 66666667 <_end+0x6665f963>
    35a4:	0000b5b7          	lui	a1,0xb
    35a8:	50458593          	addi	a1,a1,1284 # b504 <_end+0x4800>
    35ac:	02b53633          	mulhu	a2,a0,a1
    35b0:	16c2ae23          	sw	a2,380(t0)

000035b4 <inst_624>:
    35b4:	66666537          	lui	a0,0x66666
    35b8:	66750513          	addi	a0,a0,1639 # 66666667 <_end+0x6665f963>
    35bc:	00000593          	li	a1,0
    35c0:	02b53633          	mulhu	a2,a0,a1
    35c4:	18c2a023          	sw	a2,384(t0)

000035c8 <inst_625>:
    35c8:	66666537          	lui	a0,0x66666
    35cc:	66750513          	addi	a0,a0,1639 # 66666667 <_end+0x6665f963>
    35d0:	000105b7          	lui	a1,0x10
    35d4:	fff58593          	addi	a1,a1,-1 # ffff <_end+0x92fb>
    35d8:	02b53633          	mulhu	a2,a0,a1
    35dc:	18c2a223          	sw	a2,388(t0)

000035e0 <inst_626>:
    35e0:	66666537          	lui	a0,0x66666
    35e4:	66750513          	addi	a0,a0,1639 # 66666667 <_end+0x6665f963>
    35e8:	00200593          	li	a1,2
    35ec:	02b53633          	mulhu	a2,a0,a1
    35f0:	18c2a423          	sw	a2,392(t0)

000035f4 <inst_627>:
    35f4:	66666537          	lui	a0,0x66666
    35f8:	66750513          	addi	a0,a0,1639 # 66666667 <_end+0x6665f963>
    35fc:	555555b7          	lui	a1,0x55555
    3600:	55458593          	addi	a1,a1,1364 # 55555554 <_end+0x5554e850>
    3604:	02b53633          	mulhu	a2,a0,a1
    3608:	18c2a623          	sw	a2,396(t0)

0000360c <inst_628>:
    360c:	66666537          	lui	a0,0x66666
    3610:	66750513          	addi	a0,a0,1639 # 66666667 <_end+0x6665f963>
    3614:	aaaab5b7          	lui	a1,0xaaaab
    3618:	aa958593          	addi	a1,a1,-1367 # aaaaaaa9 <_end+0xaaaa3da5>
    361c:	02b53633          	mulhu	a2,a0,a1
    3620:	18c2a823          	sw	a2,400(t0)

00003624 <inst_629>:
    3624:	66666537          	lui	a0,0x66666
    3628:	66750513          	addi	a0,a0,1639 # 66666667 <_end+0x6665f963>
    362c:	00400593          	li	a1,4
    3630:	02b53633          	mulhu	a2,a0,a1
    3634:	18c2aa23          	sw	a2,404(t0)

00003638 <inst_630>:
    3638:	66666537          	lui	a0,0x66666
    363c:	66750513          	addi	a0,a0,1639 # 66666667 <_end+0x6665f963>
    3640:	333335b7          	lui	a1,0x33333
    3644:	33258593          	addi	a1,a1,818 # 33333332 <_end+0x3332c62e>
    3648:	02b53633          	mulhu	a2,a0,a1
    364c:	18c2ac23          	sw	a2,408(t0)

00003650 <inst_631>:
    3650:	66666537          	lui	a0,0x66666
    3654:	66750513          	addi	a0,a0,1639 # 66666667 <_end+0x6665f963>
    3658:	666665b7          	lui	a1,0x66666
    365c:	66558593          	addi	a1,a1,1637 # 66666665 <_end+0x6665f961>
    3660:	02b53633          	mulhu	a2,a0,a1
    3664:	18c2ae23          	sw	a2,412(t0)

00003668 <inst_632>:
    3668:	66666537          	lui	a0,0x66666
    366c:	66750513          	addi	a0,a0,1639 # 66666667 <_end+0x6665f963>
    3670:	0000b5b7          	lui	a1,0xb
    3674:	50358593          	addi	a1,a1,1283 # b503 <_end+0x47ff>
    3678:	02b53633          	mulhu	a2,a0,a1
    367c:	1ac2a023          	sw	a2,416(t0)

00003680 <inst_633>:
    3680:	66666537          	lui	a0,0x66666
    3684:	66750513          	addi	a0,a0,1639 # 66666667 <_end+0x6665f963>
    3688:	000105b7          	lui	a1,0x10
    368c:	ffe58593          	addi	a1,a1,-2 # fffe <_end+0x92fa>
    3690:	02b53633          	mulhu	a2,a0,a1
    3694:	1ac2a223          	sw	a2,420(t0)

00003698 <inst_634>:
    3698:	66666537          	lui	a0,0x66666
    369c:	66750513          	addi	a0,a0,1639 # 66666667 <_end+0x6665f963>
    36a0:	555555b7          	lui	a1,0x55555
    36a4:	55658593          	addi	a1,a1,1366 # 55555556 <_end+0x5554e852>
    36a8:	02b53633          	mulhu	a2,a0,a1
    36ac:	1ac2a423          	sw	a2,424(t0)

000036b0 <inst_635>:
    36b0:	66666537          	lui	a0,0x66666
    36b4:	66750513          	addi	a0,a0,1639 # 66666667 <_end+0x6665f963>
    36b8:	aaaab5b7          	lui	a1,0xaaaab
    36bc:	aab58593          	addi	a1,a1,-1365 # aaaaaaab <_end+0xaaaa3da7>
    36c0:	02b53633          	mulhu	a2,a0,a1
    36c4:	1ac2a623          	sw	a2,428(t0)

000036c8 <inst_636>:
    36c8:	66666537          	lui	a0,0x66666
    36cc:	66750513          	addi	a0,a0,1639 # 66666667 <_end+0x6665f963>
    36d0:	00600593          	li	a1,6
    36d4:	02b53633          	mulhu	a2,a0,a1
    36d8:	1ac2a823          	sw	a2,432(t0)

000036dc <inst_637>:
    36dc:	66666537          	lui	a0,0x66666
    36e0:	66750513          	addi	a0,a0,1639 # 66666667 <_end+0x6665f963>
    36e4:	333335b7          	lui	a1,0x33333
    36e8:	33458593          	addi	a1,a1,820 # 33333334 <_end+0x3332c630>
    36ec:	02b53633          	mulhu	a2,a0,a1
    36f0:	1ac2aa23          	sw	a2,436(t0)

000036f4 <inst_638>:
    36f4:	66666537          	lui	a0,0x66666
    36f8:	66750513          	addi	a0,a0,1639 # 66666667 <_end+0x6665f963>
    36fc:	666665b7          	lui	a1,0x66666
    3700:	66758593          	addi	a1,a1,1639 # 66666667 <_end+0x6665f963>
    3704:	02b53633          	mulhu	a2,a0,a1
    3708:	1ac2ac23          	sw	a2,440(t0)

0000370c <inst_639>:
    370c:	66666537          	lui	a0,0x66666
    3710:	66750513          	addi	a0,a0,1639 # 66666667 <_end+0x6665f963>
    3714:	0000b5b7          	lui	a1,0xb
    3718:	50558593          	addi	a1,a1,1285 # b505 <_end+0x4801>
    371c:	02b53633          	mulhu	a2,a0,a1
    3720:	1ac2ae23          	sw	a2,444(t0)

00003724 <inst_640>:
    3724:	66666537          	lui	a0,0x66666
    3728:	66750513          	addi	a0,a0,1639 # 66666667 <_end+0x6665f963>
    372c:	00100593          	li	a1,1
    3730:	02b53633          	mulhu	a2,a0,a1
    3734:	1cc2a023          	sw	a2,448(t0)

00003738 <inst_641>:
    3738:	66666537          	lui	a0,0x66666
    373c:	66750513          	addi	a0,a0,1639 # 66666667 <_end+0x6665f963>
    3740:	000105b7          	lui	a1,0x10
    3744:	02b53633          	mulhu	a2,a0,a1
    3748:	1cc2a223          	sw	a2,452(t0)

0000374c <inst_642>:
    374c:	0000b537          	lui	a0,0xb
    3750:	50550513          	addi	a0,a0,1285 # b505 <_end+0x4801>
    3754:	00300593          	li	a1,3
    3758:	02b53633          	mulhu	a2,a0,a1
    375c:	1cc2a423          	sw	a2,456(t0)

00003760 <inst_643>:
    3760:	0000b537          	lui	a0,0xb
    3764:	50550513          	addi	a0,a0,1285 # b505 <_end+0x4801>
    3768:	555555b7          	lui	a1,0x55555
    376c:	55558593          	addi	a1,a1,1365 # 55555555 <_end+0x5554e851>
    3770:	02b53633          	mulhu	a2,a0,a1
    3774:	1cc2a623          	sw	a2,460(t0)

00003778 <inst_644>:
    3778:	0000b537          	lui	a0,0xb
    377c:	50550513          	addi	a0,a0,1285 # b505 <_end+0x4801>
    3780:	aaaab5b7          	lui	a1,0xaaaab
    3784:	aaa58593          	addi	a1,a1,-1366 # aaaaaaaa <_end+0xaaaa3da6>
    3788:	02b53633          	mulhu	a2,a0,a1
    378c:	1cc2a823          	sw	a2,464(t0)

00003790 <inst_645>:
    3790:	0000b537          	lui	a0,0xb
    3794:	50550513          	addi	a0,a0,1285 # b505 <_end+0x4801>
    3798:	00500593          	li	a1,5
    379c:	02b53633          	mulhu	a2,a0,a1
    37a0:	1cc2aa23          	sw	a2,468(t0)

000037a4 <inst_646>:
    37a4:	0000b537          	lui	a0,0xb
    37a8:	50550513          	addi	a0,a0,1285 # b505 <_end+0x4801>
    37ac:	333335b7          	lui	a1,0x33333
    37b0:	33358593          	addi	a1,a1,819 # 33333333 <_end+0x3332c62f>
    37b4:	02b53633          	mulhu	a2,a0,a1
    37b8:	1cc2ac23          	sw	a2,472(t0)

000037bc <inst_647>:
    37bc:	0000b537          	lui	a0,0xb
    37c0:	50550513          	addi	a0,a0,1285 # b505 <_end+0x4801>
    37c4:	666665b7          	lui	a1,0x66666
    37c8:	66658593          	addi	a1,a1,1638 # 66666666 <_end+0x6665f962>
    37cc:	02b53633          	mulhu	a2,a0,a1
    37d0:	1cc2ae23          	sw	a2,476(t0)

000037d4 <inst_648>:
    37d4:	0000b537          	lui	a0,0xb
    37d8:	50550513          	addi	a0,a0,1285 # b505 <_end+0x4801>
    37dc:	0000b5b7          	lui	a1,0xb
    37e0:	50458593          	addi	a1,a1,1284 # b504 <_end+0x4800>
    37e4:	02b53633          	mulhu	a2,a0,a1
    37e8:	1ec2a023          	sw	a2,480(t0)

000037ec <inst_649>:
    37ec:	0000b537          	lui	a0,0xb
    37f0:	50550513          	addi	a0,a0,1285 # b505 <_end+0x4801>
    37f4:	00000593          	li	a1,0
    37f8:	02b53633          	mulhu	a2,a0,a1
    37fc:	1ec2a223          	sw	a2,484(t0)

00003800 <inst_650>:
    3800:	0000b537          	lui	a0,0xb
    3804:	50550513          	addi	a0,a0,1285 # b505 <_end+0x4801>
    3808:	000105b7          	lui	a1,0x10
    380c:	fff58593          	addi	a1,a1,-1 # ffff <_end+0x92fb>
    3810:	02b53633          	mulhu	a2,a0,a1
    3814:	1ec2a423          	sw	a2,488(t0)

00003818 <inst_651>:
    3818:	0000b537          	lui	a0,0xb
    381c:	50550513          	addi	a0,a0,1285 # b505 <_end+0x4801>
    3820:	00200593          	li	a1,2
    3824:	02b53633          	mulhu	a2,a0,a1
    3828:	1ec2a623          	sw	a2,492(t0)

0000382c <inst_652>:
    382c:	0000b537          	lui	a0,0xb
    3830:	50550513          	addi	a0,a0,1285 # b505 <_end+0x4801>
    3834:	555555b7          	lui	a1,0x55555
    3838:	55458593          	addi	a1,a1,1364 # 55555554 <_end+0x5554e850>
    383c:	02b53633          	mulhu	a2,a0,a1
    3840:	1ec2a823          	sw	a2,496(t0)

00003844 <inst_653>:
    3844:	0000b537          	lui	a0,0xb
    3848:	50550513          	addi	a0,a0,1285 # b505 <_end+0x4801>
    384c:	aaaab5b7          	lui	a1,0xaaaab
    3850:	aa958593          	addi	a1,a1,-1367 # aaaaaaa9 <_end+0xaaaa3da5>
    3854:	02b53633          	mulhu	a2,a0,a1
    3858:	1ec2aa23          	sw	a2,500(t0)

0000385c <inst_654>:
    385c:	0000b537          	lui	a0,0xb
    3860:	50550513          	addi	a0,a0,1285 # b505 <_end+0x4801>
    3864:	00400593          	li	a1,4
    3868:	02b53633          	mulhu	a2,a0,a1
    386c:	1ec2ac23          	sw	a2,504(t0)

00003870 <inst_655>:
    3870:	0000b537          	lui	a0,0xb
    3874:	50550513          	addi	a0,a0,1285 # b505 <_end+0x4801>
    3878:	333335b7          	lui	a1,0x33333
    387c:	33258593          	addi	a1,a1,818 # 33333332 <_end+0x3332c62e>
    3880:	02b53633          	mulhu	a2,a0,a1
    3884:	1ec2ae23          	sw	a2,508(t0)

00003888 <inst_656>:
    3888:	0000b537          	lui	a0,0xb
    388c:	50550513          	addi	a0,a0,1285 # b505 <_end+0x4801>
    3890:	666665b7          	lui	a1,0x66666
    3894:	66558593          	addi	a1,a1,1637 # 66666665 <_end+0x6665f961>
    3898:	02b53633          	mulhu	a2,a0,a1
    389c:	20c2a023          	sw	a2,512(t0)

000038a0 <inst_657>:
    38a0:	0000b537          	lui	a0,0xb
    38a4:	50550513          	addi	a0,a0,1285 # b505 <_end+0x4801>
    38a8:	0000b5b7          	lui	a1,0xb
    38ac:	50358593          	addi	a1,a1,1283 # b503 <_end+0x47ff>
    38b0:	02b53633          	mulhu	a2,a0,a1
    38b4:	20c2a223          	sw	a2,516(t0)

000038b8 <inst_658>:
    38b8:	0000b537          	lui	a0,0xb
    38bc:	50550513          	addi	a0,a0,1285 # b505 <_end+0x4801>
    38c0:	000105b7          	lui	a1,0x10
    38c4:	ffe58593          	addi	a1,a1,-2 # fffe <_end+0x92fa>
    38c8:	02b53633          	mulhu	a2,a0,a1
    38cc:	20c2a423          	sw	a2,520(t0)

000038d0 <inst_659>:
    38d0:	0000b537          	lui	a0,0xb
    38d4:	50550513          	addi	a0,a0,1285 # b505 <_end+0x4801>
    38d8:	555555b7          	lui	a1,0x55555
    38dc:	55658593          	addi	a1,a1,1366 # 55555556 <_end+0x5554e852>
    38e0:	02b53633          	mulhu	a2,a0,a1
    38e4:	20c2a623          	sw	a2,524(t0)

000038e8 <inst_660>:
    38e8:	0000b537          	lui	a0,0xb
    38ec:	50550513          	addi	a0,a0,1285 # b505 <_end+0x4801>
    38f0:	aaaab5b7          	lui	a1,0xaaaab
    38f4:	aab58593          	addi	a1,a1,-1365 # aaaaaaab <_end+0xaaaa3da7>
    38f8:	02b53633          	mulhu	a2,a0,a1
    38fc:	20c2a823          	sw	a2,528(t0)

00003900 <inst_661>:
    3900:	0000b537          	lui	a0,0xb
    3904:	50550513          	addi	a0,a0,1285 # b505 <_end+0x4801>
    3908:	00600593          	li	a1,6
    390c:	02b53633          	mulhu	a2,a0,a1
    3910:	20c2aa23          	sw	a2,532(t0)

00003914 <inst_662>:
    3914:	0000b537          	lui	a0,0xb
    3918:	50550513          	addi	a0,a0,1285 # b505 <_end+0x4801>
    391c:	333335b7          	lui	a1,0x33333
    3920:	33458593          	addi	a1,a1,820 # 33333334 <_end+0x3332c630>
    3924:	02b53633          	mulhu	a2,a0,a1
    3928:	20c2ac23          	sw	a2,536(t0)

0000392c <inst_663>:
    392c:	0000b537          	lui	a0,0xb
    3930:	50550513          	addi	a0,a0,1285 # b505 <_end+0x4801>
    3934:	666665b7          	lui	a1,0x66666
    3938:	66758593          	addi	a1,a1,1639 # 66666667 <_end+0x6665f963>
    393c:	02b53633          	mulhu	a2,a0,a1
    3940:	20c2ae23          	sw	a2,540(t0)

00003944 <inst_664>:
    3944:	0000b537          	lui	a0,0xb
    3948:	50550513          	addi	a0,a0,1285 # b505 <_end+0x4801>
    394c:	0000b5b7          	lui	a1,0xb
    3950:	50558593          	addi	a1,a1,1285 # b505 <_end+0x4801>
    3954:	02b53633          	mulhu	a2,a0,a1
    3958:	22c2a023          	sw	a2,544(t0)

0000395c <inst_665>:
    395c:	0000b537          	lui	a0,0xb
    3960:	50550513          	addi	a0,a0,1285 # b505 <_end+0x4801>
    3964:	00100593          	li	a1,1
    3968:	02b53633          	mulhu	a2,a0,a1
    396c:	22c2a223          	sw	a2,548(t0)

00003970 <inst_666>:
    3970:	0000b537          	lui	a0,0xb
    3974:	50550513          	addi	a0,a0,1285 # b505 <_end+0x4801>
    3978:	000105b7          	lui	a1,0x10
    397c:	02b53633          	mulhu	a2,a0,a1
    3980:	22c2a423          	sw	a2,552(t0)

00003984 <inst_667>:
    3984:	00100513          	li	a0,1
    3988:	00300593          	li	a1,3
    398c:	02b53633          	mulhu	a2,a0,a1
    3990:	22c2a623          	sw	a2,556(t0)

00003994 <inst_668>:
    3994:	00100513          	li	a0,1
    3998:	555555b7          	lui	a1,0x55555
    399c:	55558593          	addi	a1,a1,1365 # 55555555 <_end+0x5554e851>
    39a0:	02b53633          	mulhu	a2,a0,a1
    39a4:	22c2a823          	sw	a2,560(t0)

000039a8 <inst_669>:
    39a8:	00100513          	li	a0,1
    39ac:	aaaab5b7          	lui	a1,0xaaaab
    39b0:	aaa58593          	addi	a1,a1,-1366 # aaaaaaaa <_end+0xaaaa3da6>
    39b4:	02b53633          	mulhu	a2,a0,a1
    39b8:	22c2aa23          	sw	a2,564(t0)

000039bc <inst_670>:
    39bc:	00100513          	li	a0,1
    39c0:	00500593          	li	a1,5
    39c4:	02b53633          	mulhu	a2,a0,a1
    39c8:	22c2ac23          	sw	a2,568(t0)

000039cc <inst_671>:
    39cc:	00100513          	li	a0,1
    39d0:	333335b7          	lui	a1,0x33333
    39d4:	33358593          	addi	a1,a1,819 # 33333333 <_end+0x3332c62f>
    39d8:	02b53633          	mulhu	a2,a0,a1
    39dc:	22c2ae23          	sw	a2,572(t0)

000039e0 <inst_672>:
    39e0:	00100513          	li	a0,1
    39e4:	666665b7          	lui	a1,0x66666
    39e8:	66658593          	addi	a1,a1,1638 # 66666666 <_end+0x6665f962>
    39ec:	02b53633          	mulhu	a2,a0,a1
    39f0:	24c2a023          	sw	a2,576(t0)

000039f4 <inst_673>:
    39f4:	00100513          	li	a0,1
    39f8:	0000b5b7          	lui	a1,0xb
    39fc:	50458593          	addi	a1,a1,1284 # b504 <_end+0x4800>
    3a00:	02b53633          	mulhu	a2,a0,a1
    3a04:	24c2a223          	sw	a2,580(t0)

00003a08 <inst_674>:
    3a08:	00100513          	li	a0,1
    3a0c:	00000593          	li	a1,0
    3a10:	02b53633          	mulhu	a2,a0,a1
    3a14:	24c2a423          	sw	a2,584(t0)

00003a18 <inst_675>:
    3a18:	00100513          	li	a0,1
    3a1c:	000105b7          	lui	a1,0x10
    3a20:	fff58593          	addi	a1,a1,-1 # ffff <_end+0x92fb>
    3a24:	02b53633          	mulhu	a2,a0,a1
    3a28:	24c2a623          	sw	a2,588(t0)

00003a2c <inst_676>:
    3a2c:	00100513          	li	a0,1
    3a30:	00200593          	li	a1,2
    3a34:	02b53633          	mulhu	a2,a0,a1
    3a38:	24c2a823          	sw	a2,592(t0)

00003a3c <inst_677>:
    3a3c:	00100513          	li	a0,1
    3a40:	555555b7          	lui	a1,0x55555
    3a44:	55458593          	addi	a1,a1,1364 # 55555554 <_end+0x5554e850>
    3a48:	02b53633          	mulhu	a2,a0,a1
    3a4c:	24c2aa23          	sw	a2,596(t0)

00003a50 <inst_678>:
    3a50:	00100513          	li	a0,1
    3a54:	aaaab5b7          	lui	a1,0xaaaab
    3a58:	aa958593          	addi	a1,a1,-1367 # aaaaaaa9 <_end+0xaaaa3da5>
    3a5c:	02b53633          	mulhu	a2,a0,a1
    3a60:	24c2ac23          	sw	a2,600(t0)

00003a64 <inst_679>:
    3a64:	00100513          	li	a0,1
    3a68:	00400593          	li	a1,4
    3a6c:	02b53633          	mulhu	a2,a0,a1
    3a70:	24c2ae23          	sw	a2,604(t0)

00003a74 <inst_680>:
    3a74:	00100513          	li	a0,1
    3a78:	333335b7          	lui	a1,0x33333
    3a7c:	33258593          	addi	a1,a1,818 # 33333332 <_end+0x3332c62e>
    3a80:	02b53633          	mulhu	a2,a0,a1
    3a84:	26c2a023          	sw	a2,608(t0)

00003a88 <inst_681>:
    3a88:	00100513          	li	a0,1
    3a8c:	666665b7          	lui	a1,0x66666
    3a90:	66558593          	addi	a1,a1,1637 # 66666665 <_end+0x6665f961>
    3a94:	02b53633          	mulhu	a2,a0,a1
    3a98:	26c2a223          	sw	a2,612(t0)

00003a9c <inst_682>:
    3a9c:	00100513          	li	a0,1
    3aa0:	0000b5b7          	lui	a1,0xb
    3aa4:	50358593          	addi	a1,a1,1283 # b503 <_end+0x47ff>
    3aa8:	02b53633          	mulhu	a2,a0,a1
    3aac:	26c2a423          	sw	a2,616(t0)

00003ab0 <inst_683>:
    3ab0:	00100513          	li	a0,1
    3ab4:	000105b7          	lui	a1,0x10
    3ab8:	ffe58593          	addi	a1,a1,-2 # fffe <_end+0x92fa>
    3abc:	02b53633          	mulhu	a2,a0,a1
    3ac0:	26c2a623          	sw	a2,620(t0)

00003ac4 <inst_684>:
    3ac4:	00100513          	li	a0,1
    3ac8:	555555b7          	lui	a1,0x55555
    3acc:	55658593          	addi	a1,a1,1366 # 55555556 <_end+0x5554e852>
    3ad0:	02b53633          	mulhu	a2,a0,a1
    3ad4:	26c2a823          	sw	a2,624(t0)

00003ad8 <inst_685>:
    3ad8:	00100513          	li	a0,1
    3adc:	aaaab5b7          	lui	a1,0xaaaab
    3ae0:	aab58593          	addi	a1,a1,-1365 # aaaaaaab <_end+0xaaaa3da7>
    3ae4:	02b53633          	mulhu	a2,a0,a1
    3ae8:	26c2aa23          	sw	a2,628(t0)

00003aec <inst_686>:
    3aec:	00100513          	li	a0,1
    3af0:	00600593          	li	a1,6
    3af4:	02b53633          	mulhu	a2,a0,a1
    3af8:	26c2ac23          	sw	a2,632(t0)

00003afc <inst_687>:
    3afc:	00100513          	li	a0,1
    3b00:	333335b7          	lui	a1,0x33333
    3b04:	33458593          	addi	a1,a1,820 # 33333334 <_end+0x3332c630>
    3b08:	02b53633          	mulhu	a2,a0,a1
    3b0c:	26c2ae23          	sw	a2,636(t0)

00003b10 <inst_688>:
    3b10:	00100513          	li	a0,1
    3b14:	666665b7          	lui	a1,0x66666
    3b18:	66758593          	addi	a1,a1,1639 # 66666667 <_end+0x6665f963>
    3b1c:	02b53633          	mulhu	a2,a0,a1
    3b20:	28c2a023          	sw	a2,640(t0)

00003b24 <inst_689>:
    3b24:	00100513          	li	a0,1
    3b28:	0000b5b7          	lui	a1,0xb
    3b2c:	50558593          	addi	a1,a1,1285 # b505 <_end+0x4801>
    3b30:	02b53633          	mulhu	a2,a0,a1
    3b34:	28c2a223          	sw	a2,644(t0)

00003b38 <inst_690>:
    3b38:	00100513          	li	a0,1
    3b3c:	00100593          	li	a1,1
    3b40:	02b53633          	mulhu	a2,a0,a1
    3b44:	28c2a423          	sw	a2,648(t0)

00003b48 <inst_691>:
    3b48:	00100513          	li	a0,1
    3b4c:	000105b7          	lui	a1,0x10
    3b50:	02b53633          	mulhu	a2,a0,a1
    3b54:	28c2a623          	sw	a2,652(t0)

00003b58 <inst_692>:
    3b58:	00010537          	lui	a0,0x10
    3b5c:	00300593          	li	a1,3
    3b60:	02b53633          	mulhu	a2,a0,a1
    3b64:	28c2a823          	sw	a2,656(t0)

00003b68 <inst_693>:
    3b68:	00010537          	lui	a0,0x10
    3b6c:	555555b7          	lui	a1,0x55555
    3b70:	55558593          	addi	a1,a1,1365 # 55555555 <_end+0x5554e851>
    3b74:	02b53633          	mulhu	a2,a0,a1
    3b78:	28c2aa23          	sw	a2,660(t0)

00003b7c <inst_694>:
    3b7c:	00010537          	lui	a0,0x10
    3b80:	aaaab5b7          	lui	a1,0xaaaab
    3b84:	aaa58593          	addi	a1,a1,-1366 # aaaaaaaa <_end+0xaaaa3da6>
    3b88:	02b53633          	mulhu	a2,a0,a1
    3b8c:	28c2ac23          	sw	a2,664(t0)

00003b90 <inst_695>:
    3b90:	00010537          	lui	a0,0x10
    3b94:	00500593          	li	a1,5
    3b98:	02b53633          	mulhu	a2,a0,a1
    3b9c:	28c2ae23          	sw	a2,668(t0)

00003ba0 <inst_696>:
    3ba0:	00010537          	lui	a0,0x10
    3ba4:	333335b7          	lui	a1,0x33333
    3ba8:	33358593          	addi	a1,a1,819 # 33333333 <_end+0x3332c62f>
    3bac:	02b53633          	mulhu	a2,a0,a1
    3bb0:	2ac2a023          	sw	a2,672(t0)

00003bb4 <inst_697>:
    3bb4:	00010537          	lui	a0,0x10
    3bb8:	666665b7          	lui	a1,0x66666
    3bbc:	66658593          	addi	a1,a1,1638 # 66666666 <_end+0x6665f962>
    3bc0:	02b53633          	mulhu	a2,a0,a1
    3bc4:	2ac2a223          	sw	a2,676(t0)

00003bc8 <inst_698>:
    3bc8:	00010537          	lui	a0,0x10
    3bcc:	0000b5b7          	lui	a1,0xb
    3bd0:	50458593          	addi	a1,a1,1284 # b504 <_end+0x4800>
    3bd4:	02b53633          	mulhu	a2,a0,a1
    3bd8:	2ac2a423          	sw	a2,680(t0)

00003bdc <inst_699>:
    3bdc:	00010537          	lui	a0,0x10
    3be0:	00000593          	li	a1,0
    3be4:	02b53633          	mulhu	a2,a0,a1
    3be8:	2ac2a623          	sw	a2,684(t0)

00003bec <inst_700>:
    3bec:	00010537          	lui	a0,0x10
    3bf0:	000105b7          	lui	a1,0x10
    3bf4:	fff58593          	addi	a1,a1,-1 # ffff <_end+0x92fb>
    3bf8:	02b53633          	mulhu	a2,a0,a1
    3bfc:	2ac2a823          	sw	a2,688(t0)

00003c00 <inst_701>:
    3c00:	00010537          	lui	a0,0x10
    3c04:	00200593          	li	a1,2
    3c08:	02b53633          	mulhu	a2,a0,a1
    3c0c:	2ac2aa23          	sw	a2,692(t0)

00003c10 <inst_702>:
    3c10:	00010537          	lui	a0,0x10
    3c14:	555555b7          	lui	a1,0x55555
    3c18:	55458593          	addi	a1,a1,1364 # 55555554 <_end+0x5554e850>
    3c1c:	02b53633          	mulhu	a2,a0,a1
    3c20:	2ac2ac23          	sw	a2,696(t0)

00003c24 <inst_703>:
    3c24:	00010537          	lui	a0,0x10
    3c28:	aaaab5b7          	lui	a1,0xaaaab
    3c2c:	aa958593          	addi	a1,a1,-1367 # aaaaaaa9 <_end+0xaaaa3da5>
    3c30:	02b53633          	mulhu	a2,a0,a1
    3c34:	2ac2ae23          	sw	a2,700(t0)

00003c38 <inst_704>:
    3c38:	00010537          	lui	a0,0x10
    3c3c:	00400593          	li	a1,4
    3c40:	02b53633          	mulhu	a2,a0,a1
    3c44:	2cc2a023          	sw	a2,704(t0)

00003c48 <inst_705>:
    3c48:	00010537          	lui	a0,0x10
    3c4c:	333335b7          	lui	a1,0x33333
    3c50:	33258593          	addi	a1,a1,818 # 33333332 <_end+0x3332c62e>
    3c54:	02b53633          	mulhu	a2,a0,a1
    3c58:	2cc2a223          	sw	a2,708(t0)

00003c5c <inst_706>:
    3c5c:	00010537          	lui	a0,0x10
    3c60:	666665b7          	lui	a1,0x66666
    3c64:	66558593          	addi	a1,a1,1637 # 66666665 <_end+0x6665f961>
    3c68:	02b53633          	mulhu	a2,a0,a1
    3c6c:	2cc2a423          	sw	a2,712(t0)

00003c70 <inst_707>:
    3c70:	00010537          	lui	a0,0x10
    3c74:	0000b5b7          	lui	a1,0xb
    3c78:	50358593          	addi	a1,a1,1283 # b503 <_end+0x47ff>
    3c7c:	02b53633          	mulhu	a2,a0,a1
    3c80:	2cc2a623          	sw	a2,716(t0)

00003c84 <inst_708>:
    3c84:	00010537          	lui	a0,0x10
    3c88:	000105b7          	lui	a1,0x10
    3c8c:	ffe58593          	addi	a1,a1,-2 # fffe <_end+0x92fa>
    3c90:	02b53633          	mulhu	a2,a0,a1
    3c94:	2cc2a823          	sw	a2,720(t0)

00003c98 <inst_709>:
    3c98:	00010537          	lui	a0,0x10
    3c9c:	555555b7          	lui	a1,0x55555
    3ca0:	55658593          	addi	a1,a1,1366 # 55555556 <_end+0x5554e852>
    3ca4:	02b53633          	mulhu	a2,a0,a1
    3ca8:	2cc2aa23          	sw	a2,724(t0)

00003cac <inst_710>:
    3cac:	00010537          	lui	a0,0x10
    3cb0:	aaaab5b7          	lui	a1,0xaaaab
    3cb4:	aab58593          	addi	a1,a1,-1365 # aaaaaaab <_end+0xaaaa3da7>
    3cb8:	02b53633          	mulhu	a2,a0,a1
    3cbc:	2cc2ac23          	sw	a2,728(t0)

00003cc0 <inst_711>:
    3cc0:	00010537          	lui	a0,0x10
    3cc4:	00600593          	li	a1,6
    3cc8:	02b53633          	mulhu	a2,a0,a1
    3ccc:	2cc2ae23          	sw	a2,732(t0)

00003cd0 <inst_712>:
    3cd0:	00010537          	lui	a0,0x10
    3cd4:	333335b7          	lui	a1,0x33333
    3cd8:	33458593          	addi	a1,a1,820 # 33333334 <_end+0x3332c630>
    3cdc:	02b53633          	mulhu	a2,a0,a1
    3ce0:	2ec2a023          	sw	a2,736(t0)

00003ce4 <inst_713>:
    3ce4:	00010537          	lui	a0,0x10
    3ce8:	666665b7          	lui	a1,0x66666
    3cec:	66758593          	addi	a1,a1,1639 # 66666667 <_end+0x6665f963>
    3cf0:	02b53633          	mulhu	a2,a0,a1
    3cf4:	2ec2a223          	sw	a2,740(t0)

00003cf8 <inst_714>:
    3cf8:	00010537          	lui	a0,0x10
    3cfc:	0000b5b7          	lui	a1,0xb
    3d00:	50558593          	addi	a1,a1,1285 # b505 <_end+0x4801>
    3d04:	02b53633          	mulhu	a2,a0,a1
    3d08:	2ec2a423          	sw	a2,744(t0)

00003d0c <inst_715>:
    3d0c:	00010537          	lui	a0,0x10
    3d10:	00100593          	li	a1,1
    3d14:	02b53633          	mulhu	a2,a0,a1
    3d18:	2ec2a623          	sw	a2,748(t0)

00003d1c <inst_716>:
    3d1c:	00010537          	lui	a0,0x10
    3d20:	000105b7          	lui	a1,0x10
    3d24:	02b53633          	mulhu	a2,a0,a1
    3d28:	2ec2a823          	sw	a2,752(t0)

00003d2c <inst_717>:
    3d2c:	66666537          	lui	a0,0x66666
    3d30:	66550513          	addi	a0,a0,1637 # 66666665 <_end+0x6665f961>
    3d34:	333335b7          	lui	a1,0x33333
    3d38:	33458593          	addi	a1,a1,820 # 33333334 <_end+0x3332c630>
    3d3c:	02b53633          	mulhu	a2,a0,a1
    3d40:	2ec2aa23          	sw	a2,756(t0)

00003d44 <inst_718>:
    3d44:	66666537          	lui	a0,0x66666
    3d48:	66550513          	addi	a0,a0,1637 # 66666665 <_end+0x6665f961>
    3d4c:	666665b7          	lui	a1,0x66666
    3d50:	66758593          	addi	a1,a1,1639 # 66666667 <_end+0x6665f963>
    3d54:	02b53633          	mulhu	a2,a0,a1
    3d58:	2ec2ac23          	sw	a2,760(t0)

00003d5c <inst_719>:
    3d5c:	66666537          	lui	a0,0x66666
    3d60:	66550513          	addi	a0,a0,1637 # 66666665 <_end+0x6665f961>
    3d64:	0000b5b7          	lui	a1,0xb
    3d68:	50558593          	addi	a1,a1,1285 # b505 <_end+0x4801>
    3d6c:	02b53633          	mulhu	a2,a0,a1
    3d70:	2ec2ae23          	sw	a2,764(t0)

00003d74 <inst_720>:
    3d74:	80000537          	lui	a0,0x80000
    3d78:	800005b7          	lui	a1,0x80000
    3d7c:	02b53633          	mulhu	a2,a0,a1
    3d80:	30c2a023          	sw	a2,768(t0)

00003d84 <inst_721>:
    3d84:	66666537          	lui	a0,0x66666
    3d88:	66650513          	addi	a0,a0,1638 # 66666666 <_end+0x6665f962>
    3d8c:	00100593          	li	a1,1
    3d90:	02b53633          	mulhu	a2,a0,a1
    3d94:	30c2a223          	sw	a2,772(t0)

00003d98 <inst_722>:
    3d98:	55555537          	lui	a0,0x55555
    3d9c:	55550513          	addi	a0,a0,1365 # 55555555 <_end+0x5554e851>
    3da0:	10000593          	li	a1,256
    3da4:	02b53633          	mulhu	a2,a0,a1
    3da8:	30c2a423          	sw	a2,776(t0)

00003dac <inst_723>:
    3dac:	00400513          	li	a0,4
    3db0:	000805b7          	lui	a1,0x80
    3db4:	02b53633          	mulhu	a2,a0,a1
    3db8:	30c2a623          	sw	a2,780(t0)

00003dbc <halt>:
    3dbc:	0000006f          	j	3dbc <halt>

00003dc0 <rvtest_code_end>:
    3dc0:	0000006f          	j	3dc0 <rvtest_code_end>
    3dc4:	00000013          	nop
    3dc8:	00000013          	nop
    3dcc:	00000013          	nop
    3dd0:	00000013          	nop
    3dd4:	00000013          	nop

Disassembly of section .text:

00003dd8 <FN_WriteStr>:
    3dd8:	00008067          	ret

00003ddc <FN_WriteNmbr>:
    3ddc:	00008067          	ret

Disassembly of section .tohost:

00003e00 <tohost>:
    3e00:	0000                	.insn	2, 0x0000
    3e02:	0000                	.insn	2, 0x0000
    3e04:	0000                	.insn	2, 0x0000
    3e06:	0000                	.insn	2, 0x0000
    3e08:	0000                	.insn	2, 0x0000
    3e0a:	0000                	.insn	2, 0x0000
    3e0c:	0000                	.insn	2, 0x0000
    3e0e:	0000                	.insn	2, 0x0000
    3e10:	0000                	.insn	2, 0x0000
    3e12:	0000                	.insn	2, 0x0000
    3e14:	0000                	.insn	2, 0x0000
    3e16:	0000                	.insn	2, 0x0000
    3e18:	0000                	.insn	2, 0x0000
    3e1a:	0000                	.insn	2, 0x0000
    3e1c:	0000                	.insn	2, 0x0000
    3e1e:	0000                	.insn	2, 0x0000
    3e20:	0000                	.insn	2, 0x0000
    3e22:	0000                	.insn	2, 0x0000
    3e24:	0000                	.insn	2, 0x0000
    3e26:	0000                	.insn	2, 0x0000
    3e28:	0000                	.insn	2, 0x0000
    3e2a:	0000                	.insn	2, 0x0000
    3e2c:	0000                	.insn	2, 0x0000
    3e2e:	0000                	.insn	2, 0x0000
    3e30:	0000                	.insn	2, 0x0000
    3e32:	0000                	.insn	2, 0x0000
    3e34:	0000                	.insn	2, 0x0000
    3e36:	0000                	.insn	2, 0x0000
    3e38:	0000                	.insn	2, 0x0000
    3e3a:	0000                	.insn	2, 0x0000
    3e3c:	0000                	.insn	2, 0x0000
    3e3e:	0000                	.insn	2, 0x0000
    3e40:	0000                	.insn	2, 0x0000
    3e42:	0000                	.insn	2, 0x0000
    3e44:	0000                	.insn	2, 0x0000
    3e46:	0000                	.insn	2, 0x0000
    3e48:	0000                	.insn	2, 0x0000
    3e4a:	0000                	.insn	2, 0x0000
    3e4c:	0000                	.insn	2, 0x0000
    3e4e:	0000                	.insn	2, 0x0000
    3e50:	0000                	.insn	2, 0x0000
    3e52:	0000                	.insn	2, 0x0000
    3e54:	0000                	.insn	2, 0x0000
    3e56:	0000                	.insn	2, 0x0000
    3e58:	0000                	.insn	2, 0x0000
    3e5a:	0000                	.insn	2, 0x0000
    3e5c:	0000                	.insn	2, 0x0000
    3e5e:	0000                	.insn	2, 0x0000
    3e60:	0000                	.insn	2, 0x0000
    3e62:	0000                	.insn	2, 0x0000
    3e64:	0000                	.insn	2, 0x0000
    3e66:	0000                	.insn	2, 0x0000
    3e68:	0000                	.insn	2, 0x0000
    3e6a:	0000                	.insn	2, 0x0000
    3e6c:	0000                	.insn	2, 0x0000
    3e6e:	0000                	.insn	2, 0x0000
    3e70:	0000                	.insn	2, 0x0000
    3e72:	0000                	.insn	2, 0x0000
    3e74:	0000                	.insn	2, 0x0000
    3e76:	0000                	.insn	2, 0x0000
    3e78:	0000                	.insn	2, 0x0000
    3e7a:	0000                	.insn	2, 0x0000
    3e7c:	0000                	.insn	2, 0x0000
    3e7e:	0000                	.insn	2, 0x0000
    3e80:	0000                	.insn	2, 0x0000
    3e82:	0000                	.insn	2, 0x0000
    3e84:	0000                	.insn	2, 0x0000
    3e86:	0000                	.insn	2, 0x0000
    3e88:	0000                	.insn	2, 0x0000
    3e8a:	0000                	.insn	2, 0x0000
    3e8c:	0000                	.insn	2, 0x0000
    3e8e:	0000                	.insn	2, 0x0000
    3e90:	0000                	.insn	2, 0x0000
    3e92:	0000                	.insn	2, 0x0000
    3e94:	0000                	.insn	2, 0x0000
    3e96:	0000                	.insn	2, 0x0000
    3e98:	0000                	.insn	2, 0x0000
    3e9a:	0000                	.insn	2, 0x0000
    3e9c:	0000                	.insn	2, 0x0000
    3e9e:	0000                	.insn	2, 0x0000
    3ea0:	0000                	.insn	2, 0x0000
    3ea2:	0000                	.insn	2, 0x0000
    3ea4:	0000                	.insn	2, 0x0000
    3ea6:	0000                	.insn	2, 0x0000
    3ea8:	0000                	.insn	2, 0x0000
    3eaa:	0000                	.insn	2, 0x0000
    3eac:	0000                	.insn	2, 0x0000
    3eae:	0000                	.insn	2, 0x0000
    3eb0:	0000                	.insn	2, 0x0000
    3eb2:	0000                	.insn	2, 0x0000
    3eb4:	0000                	.insn	2, 0x0000
    3eb6:	0000                	.insn	2, 0x0000
    3eb8:	0000                	.insn	2, 0x0000
    3eba:	0000                	.insn	2, 0x0000
    3ebc:	0000                	.insn	2, 0x0000
    3ebe:	0000                	.insn	2, 0x0000
    3ec0:	0000                	.insn	2, 0x0000
    3ec2:	0000                	.insn	2, 0x0000
    3ec4:	0000                	.insn	2, 0x0000
    3ec6:	0000                	.insn	2, 0x0000
    3ec8:	0000                	.insn	2, 0x0000
    3eca:	0000                	.insn	2, 0x0000
    3ecc:	0000                	.insn	2, 0x0000
    3ece:	0000                	.insn	2, 0x0000
    3ed0:	0000                	.insn	2, 0x0000
    3ed2:	0000                	.insn	2, 0x0000
    3ed4:	0000                	.insn	2, 0x0000
    3ed6:	0000                	.insn	2, 0x0000
    3ed8:	0000                	.insn	2, 0x0000
    3eda:	0000                	.insn	2, 0x0000
    3edc:	0000                	.insn	2, 0x0000
    3ede:	0000                	.insn	2, 0x0000
    3ee0:	0000                	.insn	2, 0x0000
    3ee2:	0000                	.insn	2, 0x0000
    3ee4:	0000                	.insn	2, 0x0000
    3ee6:	0000                	.insn	2, 0x0000
    3ee8:	0000                	.insn	2, 0x0000
    3eea:	0000                	.insn	2, 0x0000
    3eec:	0000                	.insn	2, 0x0000
    3eee:	0000                	.insn	2, 0x0000
    3ef0:	0000                	.insn	2, 0x0000
    3ef2:	0000                	.insn	2, 0x0000
    3ef4:	0000                	.insn	2, 0x0000
    3ef6:	0000                	.insn	2, 0x0000
    3ef8:	0000                	.insn	2, 0x0000
    3efa:	0000                	.insn	2, 0x0000
    3efc:	0000                	.insn	2, 0x0000
    3efe:	0000                	.insn	2, 0x0000

00003f00 <fromhost>:
    3f00:	0000                	.insn	2, 0x0000
    3f02:	0000                	.insn	2, 0x0000
    3f04:	0000                	.insn	2, 0x0000
    3f06:	0000                	.insn	2, 0x0000

Disassembly of section .io_buf:

00006000 <begin_signature>:
    6000:	deadbeef          	jal	t4,fffe15ea <_end+0xfffda8e6>
    6004:	deadbeef          	jal	t4,fffe15ee <_end+0xfffda8ea>
    6008:	deadbeef          	jal	t4,fffe15f2 <_end+0xfffda8ee>
    600c:	deadbeef          	jal	t4,fffe15f6 <_end+0xfffda8f2>
    6010:	deadbeef          	jal	t4,fffe15fa <_end+0xfffda8f6>
    6014:	deadbeef          	jal	t4,fffe15fe <_end+0xfffda8fa>
    6018:	deadbeef          	jal	t4,fffe1602 <_end+0xfffda8fe>
    601c:	deadbeef          	jal	t4,fffe1606 <_end+0xfffda902>
    6020:	deadbeef          	jal	t4,fffe160a <_end+0xfffda906>
    6024:	deadbeef          	jal	t4,fffe160e <_end+0xfffda90a>
    6028:	deadbeef          	jal	t4,fffe1612 <_end+0xfffda90e>
    602c:	deadbeef          	jal	t4,fffe1616 <_end+0xfffda912>
    6030:	deadbeef          	jal	t4,fffe161a <_end+0xfffda916>
    6034:	deadbeef          	jal	t4,fffe161e <_end+0xfffda91a>
    6038:	deadbeef          	jal	t4,fffe1622 <_end+0xfffda91e>
    603c:	deadbeef          	jal	t4,fffe1626 <_end+0xfffda922>

00006040 <signature_x5_0>:
    6040:	deadbeef          	jal	t4,fffe162a <_end+0xfffda926>
    6044:	deadbeef          	jal	t4,fffe162e <_end+0xfffda92a>
    6048:	deadbeef          	jal	t4,fffe1632 <_end+0xfffda92e>
    604c:	deadbeef          	jal	t4,fffe1636 <_end+0xfffda932>
    6050:	deadbeef          	jal	t4,fffe163a <_end+0xfffda936>
    6054:	deadbeef          	jal	t4,fffe163e <_end+0xfffda93a>
    6058:	deadbeef          	jal	t4,fffe1642 <_end+0xfffda93e>
    605c:	deadbeef          	jal	t4,fffe1646 <_end+0xfffda942>
    6060:	deadbeef          	jal	t4,fffe164a <_end+0xfffda946>
    6064:	deadbeef          	jal	t4,fffe164e <_end+0xfffda94a>
    6068:	deadbeef          	jal	t4,fffe1652 <_end+0xfffda94e>
    606c:	deadbeef          	jal	t4,fffe1656 <_end+0xfffda952>
    6070:	deadbeef          	jal	t4,fffe165a <_end+0xfffda956>
    6074:	deadbeef          	jal	t4,fffe165e <_end+0xfffda95a>
    6078:	deadbeef          	jal	t4,fffe1662 <_end+0xfffda95e>
    607c:	deadbeef          	jal	t4,fffe1666 <_end+0xfffda962>
    6080:	deadbeef          	jal	t4,fffe166a <_end+0xfffda966>
    6084:	deadbeef          	jal	t4,fffe166e <_end+0xfffda96a>
    6088:	deadbeef          	jal	t4,fffe1672 <_end+0xfffda96e>
    608c:	deadbeef          	jal	t4,fffe1676 <_end+0xfffda972>
    6090:	deadbeef          	jal	t4,fffe167a <_end+0xfffda976>
    6094:	deadbeef          	jal	t4,fffe167e <_end+0xfffda97a>
    6098:	deadbeef          	jal	t4,fffe1682 <_end+0xfffda97e>
    609c:	deadbeef          	jal	t4,fffe1686 <_end+0xfffda982>
    60a0:	deadbeef          	jal	t4,fffe168a <_end+0xfffda986>
    60a4:	deadbeef          	jal	t4,fffe168e <_end+0xfffda98a>
    60a8:	deadbeef          	jal	t4,fffe1692 <_end+0xfffda98e>
    60ac:	deadbeef          	jal	t4,fffe1696 <_end+0xfffda992>
    60b0:	deadbeef          	jal	t4,fffe169a <_end+0xfffda996>
    60b4:	deadbeef          	jal	t4,fffe169e <_end+0xfffda99a>
    60b8:	deadbeef          	jal	t4,fffe16a2 <_end+0xfffda99e>
    60bc:	deadbeef          	jal	t4,fffe16a6 <_end+0xfffda9a2>
    60c0:	deadbeef          	jal	t4,fffe16aa <_end+0xfffda9a6>
    60c4:	deadbeef          	jal	t4,fffe16ae <_end+0xfffda9aa>
    60c8:	deadbeef          	jal	t4,fffe16b2 <_end+0xfffda9ae>
    60cc:	deadbeef          	jal	t4,fffe16b6 <_end+0xfffda9b2>
    60d0:	deadbeef          	jal	t4,fffe16ba <_end+0xfffda9b6>
    60d4:	deadbeef          	jal	t4,fffe16be <_end+0xfffda9ba>
    60d8:	deadbeef          	jal	t4,fffe16c2 <_end+0xfffda9be>
    60dc:	deadbeef          	jal	t4,fffe16c6 <_end+0xfffda9c2>
    60e0:	deadbeef          	jal	t4,fffe16ca <_end+0xfffda9c6>
    60e4:	deadbeef          	jal	t4,fffe16ce <_end+0xfffda9ca>
    60e8:	deadbeef          	jal	t4,fffe16d2 <_end+0xfffda9ce>
    60ec:	deadbeef          	jal	t4,fffe16d6 <_end+0xfffda9d2>
    60f0:	deadbeef          	jal	t4,fffe16da <_end+0xfffda9d6>
    60f4:	deadbeef          	jal	t4,fffe16de <_end+0xfffda9da>
    60f8:	deadbeef          	jal	t4,fffe16e2 <_end+0xfffda9de>
    60fc:	deadbeef          	jal	t4,fffe16e6 <_end+0xfffda9e2>
    6100:	deadbeef          	jal	t4,fffe16ea <_end+0xfffda9e6>
    6104:	deadbeef          	jal	t4,fffe16ee <_end+0xfffda9ea>
    6108:	deadbeef          	jal	t4,fffe16f2 <_end+0xfffda9ee>
    610c:	deadbeef          	jal	t4,fffe16f6 <_end+0xfffda9f2>
    6110:	deadbeef          	jal	t4,fffe16fa <_end+0xfffda9f6>
    6114:	deadbeef          	jal	t4,fffe16fe <_end+0xfffda9fa>
    6118:	deadbeef          	jal	t4,fffe1702 <_end+0xfffda9fe>
    611c:	deadbeef          	jal	t4,fffe1706 <_end+0xfffdaa02>
    6120:	deadbeef          	jal	t4,fffe170a <_end+0xfffdaa06>
    6124:	deadbeef          	jal	t4,fffe170e <_end+0xfffdaa0a>
    6128:	deadbeef          	jal	t4,fffe1712 <_end+0xfffdaa0e>
    612c:	deadbeef          	jal	t4,fffe1716 <_end+0xfffdaa12>
    6130:	deadbeef          	jal	t4,fffe171a <_end+0xfffdaa16>
    6134:	deadbeef          	jal	t4,fffe171e <_end+0xfffdaa1a>
    6138:	deadbeef          	jal	t4,fffe1722 <_end+0xfffdaa1e>
    613c:	deadbeef          	jal	t4,fffe1726 <_end+0xfffdaa22>
    6140:	deadbeef          	jal	t4,fffe172a <_end+0xfffdaa26>
    6144:	deadbeef          	jal	t4,fffe172e <_end+0xfffdaa2a>
    6148:	deadbeef          	jal	t4,fffe1732 <_end+0xfffdaa2e>
    614c:	deadbeef          	jal	t4,fffe1736 <_end+0xfffdaa32>
    6150:	deadbeef          	jal	t4,fffe173a <_end+0xfffdaa36>
    6154:	deadbeef          	jal	t4,fffe173e <_end+0xfffdaa3a>
    6158:	deadbeef          	jal	t4,fffe1742 <_end+0xfffdaa3e>
    615c:	deadbeef          	jal	t4,fffe1746 <_end+0xfffdaa42>
    6160:	deadbeef          	jal	t4,fffe174a <_end+0xfffdaa46>
    6164:	deadbeef          	jal	t4,fffe174e <_end+0xfffdaa4a>
    6168:	deadbeef          	jal	t4,fffe1752 <_end+0xfffdaa4e>
    616c:	deadbeef          	jal	t4,fffe1756 <_end+0xfffdaa52>
    6170:	deadbeef          	jal	t4,fffe175a <_end+0xfffdaa56>
    6174:	deadbeef          	jal	t4,fffe175e <_end+0xfffdaa5a>
    6178:	deadbeef          	jal	t4,fffe1762 <_end+0xfffdaa5e>
    617c:	deadbeef          	jal	t4,fffe1766 <_end+0xfffdaa62>
    6180:	deadbeef          	jal	t4,fffe176a <_end+0xfffdaa66>
    6184:	deadbeef          	jal	t4,fffe176e <_end+0xfffdaa6a>
    6188:	deadbeef          	jal	t4,fffe1772 <_end+0xfffdaa6e>
    618c:	deadbeef          	jal	t4,fffe1776 <_end+0xfffdaa72>
    6190:	deadbeef          	jal	t4,fffe177a <_end+0xfffdaa76>
    6194:	deadbeef          	jal	t4,fffe177e <_end+0xfffdaa7a>
    6198:	deadbeef          	jal	t4,fffe1782 <_end+0xfffdaa7e>
    619c:	deadbeef          	jal	t4,fffe1786 <_end+0xfffdaa82>
    61a0:	deadbeef          	jal	t4,fffe178a <_end+0xfffdaa86>
    61a4:	deadbeef          	jal	t4,fffe178e <_end+0xfffdaa8a>
    61a8:	deadbeef          	jal	t4,fffe1792 <_end+0xfffdaa8e>
    61ac:	deadbeef          	jal	t4,fffe1796 <_end+0xfffdaa92>
    61b0:	deadbeef          	jal	t4,fffe179a <_end+0xfffdaa96>
    61b4:	deadbeef          	jal	t4,fffe179e <_end+0xfffdaa9a>
    61b8:	deadbeef          	jal	t4,fffe17a2 <_end+0xfffdaa9e>
    61bc:	deadbeef          	jal	t4,fffe17a6 <_end+0xfffdaaa2>
    61c0:	deadbeef          	jal	t4,fffe17aa <_end+0xfffdaaa6>
    61c4:	deadbeef          	jal	t4,fffe17ae <_end+0xfffdaaaa>
    61c8:	deadbeef          	jal	t4,fffe17b2 <_end+0xfffdaaae>
    61cc:	deadbeef          	jal	t4,fffe17b6 <_end+0xfffdaab2>
    61d0:	deadbeef          	jal	t4,fffe17ba <_end+0xfffdaab6>
    61d4:	deadbeef          	jal	t4,fffe17be <_end+0xfffdaaba>
    61d8:	deadbeef          	jal	t4,fffe17c2 <_end+0xfffdaabe>
    61dc:	deadbeef          	jal	t4,fffe17c6 <_end+0xfffdaac2>
    61e0:	deadbeef          	jal	t4,fffe17ca <_end+0xfffdaac6>
    61e4:	deadbeef          	jal	t4,fffe17ce <_end+0xfffdaaca>
    61e8:	deadbeef          	jal	t4,fffe17d2 <_end+0xfffdaace>
    61ec:	deadbeef          	jal	t4,fffe17d6 <_end+0xfffdaad2>
    61f0:	deadbeef          	jal	t4,fffe17da <_end+0xfffdaad6>
    61f4:	deadbeef          	jal	t4,fffe17de <_end+0xfffdaada>
    61f8:	deadbeef          	jal	t4,fffe17e2 <_end+0xfffdaade>
    61fc:	deadbeef          	jal	t4,fffe17e6 <_end+0xfffdaae2>
    6200:	deadbeef          	jal	t4,fffe17ea <_end+0xfffdaae6>
    6204:	deadbeef          	jal	t4,fffe17ee <_end+0xfffdaaea>
    6208:	deadbeef          	jal	t4,fffe17f2 <_end+0xfffdaaee>
    620c:	deadbeef          	jal	t4,fffe17f6 <_end+0xfffdaaf2>
    6210:	deadbeef          	jal	t4,fffe17fa <_end+0xfffdaaf6>
    6214:	deadbeef          	jal	t4,fffe17fe <_end+0xfffdaafa>
    6218:	deadbeef          	jal	t4,fffe1802 <_end+0xfffdaafe>
    621c:	deadbeef          	jal	t4,fffe1806 <_end+0xfffdab02>
    6220:	deadbeef          	jal	t4,fffe180a <_end+0xfffdab06>
    6224:	deadbeef          	jal	t4,fffe180e <_end+0xfffdab0a>
    6228:	deadbeef          	jal	t4,fffe1812 <_end+0xfffdab0e>
    622c:	deadbeef          	jal	t4,fffe1816 <_end+0xfffdab12>
    6230:	deadbeef          	jal	t4,fffe181a <_end+0xfffdab16>
    6234:	deadbeef          	jal	t4,fffe181e <_end+0xfffdab1a>
    6238:	deadbeef          	jal	t4,fffe1822 <_end+0xfffdab1e>
    623c:	deadbeef          	jal	t4,fffe1826 <_end+0xfffdab22>
    6240:	deadbeef          	jal	t4,fffe182a <_end+0xfffdab26>
    6244:	deadbeef          	jal	t4,fffe182e <_end+0xfffdab2a>
    6248:	deadbeef          	jal	t4,fffe1832 <_end+0xfffdab2e>
    624c:	deadbeef          	jal	t4,fffe1836 <_end+0xfffdab32>
    6250:	deadbeef          	jal	t4,fffe183a <_end+0xfffdab36>
    6254:	deadbeef          	jal	t4,fffe183e <_end+0xfffdab3a>
    6258:	deadbeef          	jal	t4,fffe1842 <_end+0xfffdab3e>
    625c:	deadbeef          	jal	t4,fffe1846 <_end+0xfffdab42>
    6260:	deadbeef          	jal	t4,fffe184a <_end+0xfffdab46>
    6264:	deadbeef          	jal	t4,fffe184e <_end+0xfffdab4a>
    6268:	deadbeef          	jal	t4,fffe1852 <_end+0xfffdab4e>
    626c:	deadbeef          	jal	t4,fffe1856 <_end+0xfffdab52>
    6270:	deadbeef          	jal	t4,fffe185a <_end+0xfffdab56>
    6274:	deadbeef          	jal	t4,fffe185e <_end+0xfffdab5a>
    6278:	deadbeef          	jal	t4,fffe1862 <_end+0xfffdab5e>
    627c:	deadbeef          	jal	t4,fffe1866 <_end+0xfffdab62>
    6280:	deadbeef          	jal	t4,fffe186a <_end+0xfffdab66>
    6284:	deadbeef          	jal	t4,fffe186e <_end+0xfffdab6a>
    6288:	deadbeef          	jal	t4,fffe1872 <_end+0xfffdab6e>
    628c:	deadbeef          	jal	t4,fffe1876 <_end+0xfffdab72>
    6290:	deadbeef          	jal	t4,fffe187a <_end+0xfffdab76>
    6294:	deadbeef          	jal	t4,fffe187e <_end+0xfffdab7a>
    6298:	deadbeef          	jal	t4,fffe1882 <_end+0xfffdab7e>
    629c:	deadbeef          	jal	t4,fffe1886 <_end+0xfffdab82>
    62a0:	deadbeef          	jal	t4,fffe188a <_end+0xfffdab86>
    62a4:	deadbeef          	jal	t4,fffe188e <_end+0xfffdab8a>
    62a8:	deadbeef          	jal	t4,fffe1892 <_end+0xfffdab8e>
    62ac:	deadbeef          	jal	t4,fffe1896 <_end+0xfffdab92>
    62b0:	deadbeef          	jal	t4,fffe189a <_end+0xfffdab96>
    62b4:	deadbeef          	jal	t4,fffe189e <_end+0xfffdab9a>
    62b8:	deadbeef          	jal	t4,fffe18a2 <_end+0xfffdab9e>
    62bc:	deadbeef          	jal	t4,fffe18a6 <_end+0xfffdaba2>
    62c0:	deadbeef          	jal	t4,fffe18aa <_end+0xfffdaba6>
    62c4:	deadbeef          	jal	t4,fffe18ae <_end+0xfffdabaa>
    62c8:	deadbeef          	jal	t4,fffe18b2 <_end+0xfffdabae>
    62cc:	deadbeef          	jal	t4,fffe18b6 <_end+0xfffdabb2>
    62d0:	deadbeef          	jal	t4,fffe18ba <_end+0xfffdabb6>
    62d4:	deadbeef          	jal	t4,fffe18be <_end+0xfffdabba>
    62d8:	deadbeef          	jal	t4,fffe18c2 <_end+0xfffdabbe>
    62dc:	deadbeef          	jal	t4,fffe18c6 <_end+0xfffdabc2>
    62e0:	deadbeef          	jal	t4,fffe18ca <_end+0xfffdabc6>
    62e4:	deadbeef          	jal	t4,fffe18ce <_end+0xfffdabca>
    62e8:	deadbeef          	jal	t4,fffe18d2 <_end+0xfffdabce>
    62ec:	deadbeef          	jal	t4,fffe18d6 <_end+0xfffdabd2>
    62f0:	deadbeef          	jal	t4,fffe18da <_end+0xfffdabd6>
    62f4:	deadbeef          	jal	t4,fffe18de <_end+0xfffdabda>
    62f8:	deadbeef          	jal	t4,fffe18e2 <_end+0xfffdabde>
    62fc:	deadbeef          	jal	t4,fffe18e6 <_end+0xfffdabe2>
    6300:	deadbeef          	jal	t4,fffe18ea <_end+0xfffdabe6>
    6304:	deadbeef          	jal	t4,fffe18ee <_end+0xfffdabea>
    6308:	deadbeef          	jal	t4,fffe18f2 <_end+0xfffdabee>
    630c:	deadbeef          	jal	t4,fffe18f6 <_end+0xfffdabf2>
    6310:	deadbeef          	jal	t4,fffe18fa <_end+0xfffdabf6>
    6314:	deadbeef          	jal	t4,fffe18fe <_end+0xfffdabfa>
    6318:	deadbeef          	jal	t4,fffe1902 <_end+0xfffdabfe>
    631c:	deadbeef          	jal	t4,fffe1906 <_end+0xfffdac02>
    6320:	deadbeef          	jal	t4,fffe190a <_end+0xfffdac06>
    6324:	deadbeef          	jal	t4,fffe190e <_end+0xfffdac0a>
    6328:	deadbeef          	jal	t4,fffe1912 <_end+0xfffdac0e>
    632c:	deadbeef          	jal	t4,fffe1916 <_end+0xfffdac12>
    6330:	deadbeef          	jal	t4,fffe191a <_end+0xfffdac16>
    6334:	deadbeef          	jal	t4,fffe191e <_end+0xfffdac1a>
    6338:	deadbeef          	jal	t4,fffe1922 <_end+0xfffdac1e>
    633c:	deadbeef          	jal	t4,fffe1926 <_end+0xfffdac22>
    6340:	deadbeef          	jal	t4,fffe192a <_end+0xfffdac26>
    6344:	deadbeef          	jal	t4,fffe192e <_end+0xfffdac2a>
    6348:	deadbeef          	jal	t4,fffe1932 <_end+0xfffdac2e>
    634c:	deadbeef          	jal	t4,fffe1936 <_end+0xfffdac32>
    6350:	deadbeef          	jal	t4,fffe193a <_end+0xfffdac36>
    6354:	deadbeef          	jal	t4,fffe193e <_end+0xfffdac3a>
    6358:	deadbeef          	jal	t4,fffe1942 <_end+0xfffdac3e>
    635c:	deadbeef          	jal	t4,fffe1946 <_end+0xfffdac42>
    6360:	deadbeef          	jal	t4,fffe194a <_end+0xfffdac46>
    6364:	deadbeef          	jal	t4,fffe194e <_end+0xfffdac4a>
    6368:	deadbeef          	jal	t4,fffe1952 <_end+0xfffdac4e>
    636c:	deadbeef          	jal	t4,fffe1956 <_end+0xfffdac52>
    6370:	deadbeef          	jal	t4,fffe195a <_end+0xfffdac56>
    6374:	deadbeef          	jal	t4,fffe195e <_end+0xfffdac5a>
    6378:	deadbeef          	jal	t4,fffe1962 <_end+0xfffdac5e>
    637c:	deadbeef          	jal	t4,fffe1966 <_end+0xfffdac62>
    6380:	deadbeef          	jal	t4,fffe196a <_end+0xfffdac66>
    6384:	deadbeef          	jal	t4,fffe196e <_end+0xfffdac6a>
    6388:	deadbeef          	jal	t4,fffe1972 <_end+0xfffdac6e>
    638c:	deadbeef          	jal	t4,fffe1976 <_end+0xfffdac72>
    6390:	deadbeef          	jal	t4,fffe197a <_end+0xfffdac76>
    6394:	deadbeef          	jal	t4,fffe197e <_end+0xfffdac7a>
    6398:	deadbeef          	jal	t4,fffe1982 <_end+0xfffdac7e>
    639c:	deadbeef          	jal	t4,fffe1986 <_end+0xfffdac82>
    63a0:	deadbeef          	jal	t4,fffe198a <_end+0xfffdac86>
    63a4:	deadbeef          	jal	t4,fffe198e <_end+0xfffdac8a>
    63a8:	deadbeef          	jal	t4,fffe1992 <_end+0xfffdac8e>
    63ac:	deadbeef          	jal	t4,fffe1996 <_end+0xfffdac92>
    63b0:	deadbeef          	jal	t4,fffe199a <_end+0xfffdac96>
    63b4:	deadbeef          	jal	t4,fffe199e <_end+0xfffdac9a>
    63b8:	deadbeef          	jal	t4,fffe19a2 <_end+0xfffdac9e>
    63bc:	deadbeef          	jal	t4,fffe19a6 <_end+0xfffdaca2>
    63c0:	deadbeef          	jal	t4,fffe19aa <_end+0xfffdaca6>
    63c4:	deadbeef          	jal	t4,fffe19ae <_end+0xfffdacaa>
    63c8:	deadbeef          	jal	t4,fffe19b2 <_end+0xfffdacae>
    63cc:	deadbeef          	jal	t4,fffe19b6 <_end+0xfffdacb2>
    63d0:	deadbeef          	jal	t4,fffe19ba <_end+0xfffdacb6>
    63d4:	deadbeef          	jal	t4,fffe19be <_end+0xfffdacba>
    63d8:	deadbeef          	jal	t4,fffe19c2 <_end+0xfffdacbe>
    63dc:	deadbeef          	jal	t4,fffe19c6 <_end+0xfffdacc2>
    63e0:	deadbeef          	jal	t4,fffe19ca <_end+0xfffdacc6>
    63e4:	deadbeef          	jal	t4,fffe19ce <_end+0xfffdacca>
    63e8:	deadbeef          	jal	t4,fffe19d2 <_end+0xfffdacce>
    63ec:	deadbeef          	jal	t4,fffe19d6 <_end+0xfffdacd2>
    63f0:	deadbeef          	jal	t4,fffe19da <_end+0xfffdacd6>
    63f4:	deadbeef          	jal	t4,fffe19de <_end+0xfffdacda>
    63f8:	deadbeef          	jal	t4,fffe19e2 <_end+0xfffdacde>
    63fc:	deadbeef          	jal	t4,fffe19e6 <_end+0xfffdace2>
    6400:	deadbeef          	jal	t4,fffe19ea <_end+0xfffdace6>
    6404:	deadbeef          	jal	t4,fffe19ee <_end+0xfffdacea>
    6408:	deadbeef          	jal	t4,fffe19f2 <_end+0xfffdacee>
    640c:	deadbeef          	jal	t4,fffe19f6 <_end+0xfffdacf2>
    6410:	deadbeef          	jal	t4,fffe19fa <_end+0xfffdacf6>
    6414:	deadbeef          	jal	t4,fffe19fe <_end+0xfffdacfa>
    6418:	deadbeef          	jal	t4,fffe1a02 <_end+0xfffdacfe>
    641c:	deadbeef          	jal	t4,fffe1a06 <_end+0xfffdad02>
    6420:	deadbeef          	jal	t4,fffe1a0a <_end+0xfffdad06>
    6424:	deadbeef          	jal	t4,fffe1a0e <_end+0xfffdad0a>
    6428:	deadbeef          	jal	t4,fffe1a12 <_end+0xfffdad0e>
    642c:	deadbeef          	jal	t4,fffe1a16 <_end+0xfffdad12>
    6430:	deadbeef          	jal	t4,fffe1a1a <_end+0xfffdad16>
    6434:	deadbeef          	jal	t4,fffe1a1e <_end+0xfffdad1a>
    6438:	deadbeef          	jal	t4,fffe1a22 <_end+0xfffdad1e>
    643c:	deadbeef          	jal	t4,fffe1a26 <_end+0xfffdad22>
    6440:	deadbeef          	jal	t4,fffe1a2a <_end+0xfffdad26>
    6444:	deadbeef          	jal	t4,fffe1a2e <_end+0xfffdad2a>
    6448:	deadbeef          	jal	t4,fffe1a32 <_end+0xfffdad2e>
    644c:	deadbeef          	jal	t4,fffe1a36 <_end+0xfffdad32>
    6450:	deadbeef          	jal	t4,fffe1a3a <_end+0xfffdad36>
    6454:	deadbeef          	jal	t4,fffe1a3e <_end+0xfffdad3a>
    6458:	deadbeef          	jal	t4,fffe1a42 <_end+0xfffdad3e>
    645c:	deadbeef          	jal	t4,fffe1a46 <_end+0xfffdad42>
    6460:	deadbeef          	jal	t4,fffe1a4a <_end+0xfffdad46>
    6464:	deadbeef          	jal	t4,fffe1a4e <_end+0xfffdad4a>
    6468:	deadbeef          	jal	t4,fffe1a52 <_end+0xfffdad4e>
    646c:	deadbeef          	jal	t4,fffe1a56 <_end+0xfffdad52>
    6470:	deadbeef          	jal	t4,fffe1a5a <_end+0xfffdad56>
    6474:	deadbeef          	jal	t4,fffe1a5e <_end+0xfffdad5a>
    6478:	deadbeef          	jal	t4,fffe1a62 <_end+0xfffdad5e>
    647c:	deadbeef          	jal	t4,fffe1a66 <_end+0xfffdad62>
    6480:	deadbeef          	jal	t4,fffe1a6a <_end+0xfffdad66>
    6484:	deadbeef          	jal	t4,fffe1a6e <_end+0xfffdad6a>
    6488:	deadbeef          	jal	t4,fffe1a72 <_end+0xfffdad6e>
    648c:	deadbeef          	jal	t4,fffe1a76 <_end+0xfffdad72>
    6490:	deadbeef          	jal	t4,fffe1a7a <_end+0xfffdad76>
    6494:	deadbeef          	jal	t4,fffe1a7e <_end+0xfffdad7a>
    6498:	deadbeef          	jal	t4,fffe1a82 <_end+0xfffdad7e>
    649c:	deadbeef          	jal	t4,fffe1a86 <_end+0xfffdad82>
    64a0:	deadbeef          	jal	t4,fffe1a8a <_end+0xfffdad86>
    64a4:	deadbeef          	jal	t4,fffe1a8e <_end+0xfffdad8a>
    64a8:	deadbeef          	jal	t4,fffe1a92 <_end+0xfffdad8e>
    64ac:	deadbeef          	jal	t4,fffe1a96 <_end+0xfffdad92>
    64b0:	deadbeef          	jal	t4,fffe1a9a <_end+0xfffdad96>
    64b4:	deadbeef          	jal	t4,fffe1a9e <_end+0xfffdad9a>
    64b8:	deadbeef          	jal	t4,fffe1aa2 <_end+0xfffdad9e>
    64bc:	deadbeef          	jal	t4,fffe1aa6 <_end+0xfffdada2>
    64c0:	deadbeef          	jal	t4,fffe1aaa <_end+0xfffdada6>
    64c4:	deadbeef          	jal	t4,fffe1aae <_end+0xfffdadaa>
    64c8:	deadbeef          	jal	t4,fffe1ab2 <_end+0xfffdadae>
    64cc:	deadbeef          	jal	t4,fffe1ab6 <_end+0xfffdadb2>
    64d0:	deadbeef          	jal	t4,fffe1aba <_end+0xfffdadb6>
    64d4:	deadbeef          	jal	t4,fffe1abe <_end+0xfffdadba>
    64d8:	deadbeef          	jal	t4,fffe1ac2 <_end+0xfffdadbe>
    64dc:	deadbeef          	jal	t4,fffe1ac6 <_end+0xfffdadc2>
    64e0:	deadbeef          	jal	t4,fffe1aca <_end+0xfffdadc6>
    64e4:	deadbeef          	jal	t4,fffe1ace <_end+0xfffdadca>
    64e8:	deadbeef          	jal	t4,fffe1ad2 <_end+0xfffdadce>
    64ec:	deadbeef          	jal	t4,fffe1ad6 <_end+0xfffdadd2>
    64f0:	deadbeef          	jal	t4,fffe1ada <_end+0xfffdadd6>
    64f4:	deadbeef          	jal	t4,fffe1ade <_end+0xfffdadda>
    64f8:	deadbeef          	jal	t4,fffe1ae2 <_end+0xfffdadde>
    64fc:	deadbeef          	jal	t4,fffe1ae6 <_end+0xfffdade2>
    6500:	deadbeef          	jal	t4,fffe1aea <_end+0xfffdade6>
    6504:	deadbeef          	jal	t4,fffe1aee <_end+0xfffdadea>
    6508:	deadbeef          	jal	t4,fffe1af2 <_end+0xfffdadee>
    650c:	deadbeef          	jal	t4,fffe1af6 <_end+0xfffdadf2>
    6510:	deadbeef          	jal	t4,fffe1afa <_end+0xfffdadf6>
    6514:	deadbeef          	jal	t4,fffe1afe <_end+0xfffdadfa>
    6518:	deadbeef          	jal	t4,fffe1b02 <_end+0xfffdadfe>
    651c:	deadbeef          	jal	t4,fffe1b06 <_end+0xfffdae02>
    6520:	deadbeef          	jal	t4,fffe1b0a <_end+0xfffdae06>
    6524:	deadbeef          	jal	t4,fffe1b0e <_end+0xfffdae0a>
    6528:	deadbeef          	jal	t4,fffe1b12 <_end+0xfffdae0e>
    652c:	deadbeef          	jal	t4,fffe1b16 <_end+0xfffdae12>
    6530:	deadbeef          	jal	t4,fffe1b1a <_end+0xfffdae16>
    6534:	deadbeef          	jal	t4,fffe1b1e <_end+0xfffdae1a>
    6538:	deadbeef          	jal	t4,fffe1b22 <_end+0xfffdae1e>
    653c:	deadbeef          	jal	t4,fffe1b26 <_end+0xfffdae22>
    6540:	deadbeef          	jal	t4,fffe1b2a <_end+0xfffdae26>
    6544:	deadbeef          	jal	t4,fffe1b2e <_end+0xfffdae2a>
    6548:	deadbeef          	jal	t4,fffe1b32 <_end+0xfffdae2e>
    654c:	deadbeef          	jal	t4,fffe1b36 <_end+0xfffdae32>
    6550:	deadbeef          	jal	t4,fffe1b3a <_end+0xfffdae36>
    6554:	deadbeef          	jal	t4,fffe1b3e <_end+0xfffdae3a>
    6558:	deadbeef          	jal	t4,fffe1b42 <_end+0xfffdae3e>
    655c:	deadbeef          	jal	t4,fffe1b46 <_end+0xfffdae42>
    6560:	deadbeef          	jal	t4,fffe1b4a <_end+0xfffdae46>
    6564:	deadbeef          	jal	t4,fffe1b4e <_end+0xfffdae4a>
    6568:	deadbeef          	jal	t4,fffe1b52 <_end+0xfffdae4e>
    656c:	deadbeef          	jal	t4,fffe1b56 <_end+0xfffdae52>
    6570:	deadbeef          	jal	t4,fffe1b5a <_end+0xfffdae56>
    6574:	deadbeef          	jal	t4,fffe1b5e <_end+0xfffdae5a>
    6578:	deadbeef          	jal	t4,fffe1b62 <_end+0xfffdae5e>
    657c:	deadbeef          	jal	t4,fffe1b66 <_end+0xfffdae62>
    6580:	deadbeef          	jal	t4,fffe1b6a <_end+0xfffdae66>
    6584:	deadbeef          	jal	t4,fffe1b6e <_end+0xfffdae6a>
    6588:	deadbeef          	jal	t4,fffe1b72 <_end+0xfffdae6e>
    658c:	deadbeef          	jal	t4,fffe1b76 <_end+0xfffdae72>
    6590:	deadbeef          	jal	t4,fffe1b7a <_end+0xfffdae76>
    6594:	deadbeef          	jal	t4,fffe1b7e <_end+0xfffdae7a>
    6598:	deadbeef          	jal	t4,fffe1b82 <_end+0xfffdae7e>
    659c:	deadbeef          	jal	t4,fffe1b86 <_end+0xfffdae82>
    65a0:	deadbeef          	jal	t4,fffe1b8a <_end+0xfffdae86>
    65a4:	deadbeef          	jal	t4,fffe1b8e <_end+0xfffdae8a>
    65a8:	deadbeef          	jal	t4,fffe1b92 <_end+0xfffdae8e>
    65ac:	deadbeef          	jal	t4,fffe1b96 <_end+0xfffdae92>
    65b0:	deadbeef          	jal	t4,fffe1b9a <_end+0xfffdae96>
    65b4:	deadbeef          	jal	t4,fffe1b9e <_end+0xfffdae9a>
    65b8:	deadbeef          	jal	t4,fffe1ba2 <_end+0xfffdae9e>
    65bc:	deadbeef          	jal	t4,fffe1ba6 <_end+0xfffdaea2>
    65c0:	deadbeef          	jal	t4,fffe1baa <_end+0xfffdaea6>
    65c4:	deadbeef          	jal	t4,fffe1bae <_end+0xfffdaeaa>
    65c8:	deadbeef          	jal	t4,fffe1bb2 <_end+0xfffdaeae>
    65cc:	deadbeef          	jal	t4,fffe1bb6 <_end+0xfffdaeb2>
    65d0:	deadbeef          	jal	t4,fffe1bba <_end+0xfffdaeb6>
    65d4:	deadbeef          	jal	t4,fffe1bbe <_end+0xfffdaeba>
    65d8:	deadbeef          	jal	t4,fffe1bc2 <_end+0xfffdaebe>
    65dc:	deadbeef          	jal	t4,fffe1bc6 <_end+0xfffdaec2>
    65e0:	deadbeef          	jal	t4,fffe1bca <_end+0xfffdaec6>
    65e4:	deadbeef          	jal	t4,fffe1bce <_end+0xfffdaeca>
    65e8:	deadbeef          	jal	t4,fffe1bd2 <_end+0xfffdaece>
    65ec:	deadbeef          	jal	t4,fffe1bd6 <_end+0xfffdaed2>
    65f0:	deadbeef          	jal	t4,fffe1bda <_end+0xfffdaed6>
    65f4:	deadbeef          	jal	t4,fffe1bde <_end+0xfffdaeda>
    65f8:	deadbeef          	jal	t4,fffe1be2 <_end+0xfffdaede>
    65fc:	deadbeef          	jal	t4,fffe1be6 <_end+0xfffdaee2>
    6600:	deadbeef          	jal	t4,fffe1bea <_end+0xfffdaee6>
    6604:	deadbeef          	jal	t4,fffe1bee <_end+0xfffdaeea>
    6608:	deadbeef          	jal	t4,fffe1bf2 <_end+0xfffdaeee>
    660c:	deadbeef          	jal	t4,fffe1bf6 <_end+0xfffdaef2>
    6610:	deadbeef          	jal	t4,fffe1bfa <_end+0xfffdaef6>
    6614:	deadbeef          	jal	t4,fffe1bfe <_end+0xfffdaefa>
    6618:	deadbeef          	jal	t4,fffe1c02 <_end+0xfffdaefe>
    661c:	deadbeef          	jal	t4,fffe1c06 <_end+0xfffdaf02>
    6620:	deadbeef          	jal	t4,fffe1c0a <_end+0xfffdaf06>
    6624:	deadbeef          	jal	t4,fffe1c0e <_end+0xfffdaf0a>
    6628:	deadbeef          	jal	t4,fffe1c12 <_end+0xfffdaf0e>
    662c:	deadbeef          	jal	t4,fffe1c16 <_end+0xfffdaf12>
    6630:	deadbeef          	jal	t4,fffe1c1a <_end+0xfffdaf16>
    6634:	deadbeef          	jal	t4,fffe1c1e <_end+0xfffdaf1a>
    6638:	deadbeef          	jal	t4,fffe1c22 <_end+0xfffdaf1e>
    663c:	deadbeef          	jal	t4,fffe1c26 <_end+0xfffdaf22>
    6640:	deadbeef          	jal	t4,fffe1c2a <_end+0xfffdaf26>
    6644:	deadbeef          	jal	t4,fffe1c2e <_end+0xfffdaf2a>
    6648:	deadbeef          	jal	t4,fffe1c32 <_end+0xfffdaf2e>
    664c:	deadbeef          	jal	t4,fffe1c36 <_end+0xfffdaf32>
    6650:	deadbeef          	jal	t4,fffe1c3a <_end+0xfffdaf36>
    6654:	deadbeef          	jal	t4,fffe1c3e <_end+0xfffdaf3a>
    6658:	deadbeef          	jal	t4,fffe1c42 <_end+0xfffdaf3e>
    665c:	deadbeef          	jal	t4,fffe1c46 <_end+0xfffdaf42>
    6660:	deadbeef          	jal	t4,fffe1c4a <_end+0xfffdaf46>
    6664:	deadbeef          	jal	t4,fffe1c4e <_end+0xfffdaf4a>
    6668:	deadbeef          	jal	t4,fffe1c52 <_end+0xfffdaf4e>
    666c:	deadbeef          	jal	t4,fffe1c56 <_end+0xfffdaf52>
    6670:	deadbeef          	jal	t4,fffe1c5a <_end+0xfffdaf56>
    6674:	deadbeef          	jal	t4,fffe1c5e <_end+0xfffdaf5a>
    6678:	deadbeef          	jal	t4,fffe1c62 <_end+0xfffdaf5e>
    667c:	deadbeef          	jal	t4,fffe1c66 <_end+0xfffdaf62>
    6680:	deadbeef          	jal	t4,fffe1c6a <_end+0xfffdaf66>
    6684:	deadbeef          	jal	t4,fffe1c6e <_end+0xfffdaf6a>
    6688:	deadbeef          	jal	t4,fffe1c72 <_end+0xfffdaf6e>
    668c:	deadbeef          	jal	t4,fffe1c76 <_end+0xfffdaf72>
    6690:	deadbeef          	jal	t4,fffe1c7a <_end+0xfffdaf76>
    6694:	deadbeef          	jal	t4,fffe1c7e <_end+0xfffdaf7a>
    6698:	deadbeef          	jal	t4,fffe1c82 <_end+0xfffdaf7e>
    669c:	deadbeef          	jal	t4,fffe1c86 <_end+0xfffdaf82>
    66a0:	deadbeef          	jal	t4,fffe1c8a <_end+0xfffdaf86>
    66a4:	deadbeef          	jal	t4,fffe1c8e <_end+0xfffdaf8a>
    66a8:	deadbeef          	jal	t4,fffe1c92 <_end+0xfffdaf8e>
    66ac:	deadbeef          	jal	t4,fffe1c96 <_end+0xfffdaf92>
    66b0:	deadbeef          	jal	t4,fffe1c9a <_end+0xfffdaf96>
    66b4:	deadbeef          	jal	t4,fffe1c9e <_end+0xfffdaf9a>
    66b8:	deadbeef          	jal	t4,fffe1ca2 <_end+0xfffdaf9e>
    66bc:	deadbeef          	jal	t4,fffe1ca6 <_end+0xfffdafa2>
    66c0:	deadbeef          	jal	t4,fffe1caa <_end+0xfffdafa6>
    66c4:	deadbeef          	jal	t4,fffe1cae <_end+0xfffdafaa>
    66c8:	deadbeef          	jal	t4,fffe1cb2 <_end+0xfffdafae>
    66cc:	deadbeef          	jal	t4,fffe1cb6 <_end+0xfffdafb2>
    66d0:	deadbeef          	jal	t4,fffe1cba <_end+0xfffdafb6>
    66d4:	deadbeef          	jal	t4,fffe1cbe <_end+0xfffdafba>
    66d8:	deadbeef          	jal	t4,fffe1cc2 <_end+0xfffdafbe>
    66dc:	deadbeef          	jal	t4,fffe1cc6 <_end+0xfffdafc2>
    66e0:	deadbeef          	jal	t4,fffe1cca <_end+0xfffdafc6>
    66e4:	deadbeef          	jal	t4,fffe1cce <_end+0xfffdafca>
    66e8:	deadbeef          	jal	t4,fffe1cd2 <_end+0xfffdafce>
    66ec:	deadbeef          	jal	t4,fffe1cd6 <_end+0xfffdafd2>
    66f0:	deadbeef          	jal	t4,fffe1cda <_end+0xfffdafd6>
    66f4:	deadbeef          	jal	t4,fffe1cde <_end+0xfffdafda>
    66f8:	deadbeef          	jal	t4,fffe1ce2 <_end+0xfffdafde>
    66fc:	deadbeef          	jal	t4,fffe1ce6 <_end+0xfffdafe2>
    6700:	deadbeef          	jal	t4,fffe1cea <_end+0xfffdafe6>
    6704:	deadbeef          	jal	t4,fffe1cee <_end+0xfffdafea>
    6708:	deadbeef          	jal	t4,fffe1cf2 <_end+0xfffdafee>
    670c:	deadbeef          	jal	t4,fffe1cf6 <_end+0xfffdaff2>
    6710:	deadbeef          	jal	t4,fffe1cfa <_end+0xfffdaff6>
    6714:	deadbeef          	jal	t4,fffe1cfe <_end+0xfffdaffa>
    6718:	deadbeef          	jal	t4,fffe1d02 <_end+0xfffdaffe>
    671c:	deadbeef          	jal	t4,fffe1d06 <_end+0xfffdb002>
    6720:	deadbeef          	jal	t4,fffe1d0a <_end+0xfffdb006>
    6724:	deadbeef          	jal	t4,fffe1d0e <_end+0xfffdb00a>
    6728:	deadbeef          	jal	t4,fffe1d12 <_end+0xfffdb00e>
    672c:	deadbeef          	jal	t4,fffe1d16 <_end+0xfffdb012>
    6730:	deadbeef          	jal	t4,fffe1d1a <_end+0xfffdb016>
    6734:	deadbeef          	jal	t4,fffe1d1e <_end+0xfffdb01a>
    6738:	deadbeef          	jal	t4,fffe1d22 <_end+0xfffdb01e>
    673c:	deadbeef          	jal	t4,fffe1d26 <_end+0xfffdb022>
    6740:	deadbeef          	jal	t4,fffe1d2a <_end+0xfffdb026>
    6744:	deadbeef          	jal	t4,fffe1d2e <_end+0xfffdb02a>
    6748:	deadbeef          	jal	t4,fffe1d32 <_end+0xfffdb02e>
    674c:	deadbeef          	jal	t4,fffe1d36 <_end+0xfffdb032>
    6750:	deadbeef          	jal	t4,fffe1d3a <_end+0xfffdb036>
    6754:	deadbeef          	jal	t4,fffe1d3e <_end+0xfffdb03a>
    6758:	deadbeef          	jal	t4,fffe1d42 <_end+0xfffdb03e>
    675c:	deadbeef          	jal	t4,fffe1d46 <_end+0xfffdb042>
    6760:	deadbeef          	jal	t4,fffe1d4a <_end+0xfffdb046>
    6764:	deadbeef          	jal	t4,fffe1d4e <_end+0xfffdb04a>
    6768:	deadbeef          	jal	t4,fffe1d52 <_end+0xfffdb04e>
    676c:	deadbeef          	jal	t4,fffe1d56 <_end+0xfffdb052>
    6770:	deadbeef          	jal	t4,fffe1d5a <_end+0xfffdb056>
    6774:	deadbeef          	jal	t4,fffe1d5e <_end+0xfffdb05a>
    6778:	deadbeef          	jal	t4,fffe1d62 <_end+0xfffdb05e>
    677c:	deadbeef          	jal	t4,fffe1d66 <_end+0xfffdb062>
    6780:	deadbeef          	jal	t4,fffe1d6a <_end+0xfffdb066>
    6784:	deadbeef          	jal	t4,fffe1d6e <_end+0xfffdb06a>
    6788:	deadbeef          	jal	t4,fffe1d72 <_end+0xfffdb06e>
    678c:	deadbeef          	jal	t4,fffe1d76 <_end+0xfffdb072>
    6790:	deadbeef          	jal	t4,fffe1d7a <_end+0xfffdb076>
    6794:	deadbeef          	jal	t4,fffe1d7e <_end+0xfffdb07a>
    6798:	deadbeef          	jal	t4,fffe1d82 <_end+0xfffdb07e>
    679c:	deadbeef          	jal	t4,fffe1d86 <_end+0xfffdb082>
    67a0:	deadbeef          	jal	t4,fffe1d8a <_end+0xfffdb086>
    67a4:	deadbeef          	jal	t4,fffe1d8e <_end+0xfffdb08a>
    67a8:	deadbeef          	jal	t4,fffe1d92 <_end+0xfffdb08e>
    67ac:	deadbeef          	jal	t4,fffe1d96 <_end+0xfffdb092>
    67b0:	deadbeef          	jal	t4,fffe1d9a <_end+0xfffdb096>
    67b4:	deadbeef          	jal	t4,fffe1d9e <_end+0xfffdb09a>
    67b8:	deadbeef          	jal	t4,fffe1da2 <_end+0xfffdb09e>
    67bc:	deadbeef          	jal	t4,fffe1da6 <_end+0xfffdb0a2>
    67c0:	deadbeef          	jal	t4,fffe1daa <_end+0xfffdb0a6>
    67c4:	deadbeef          	jal	t4,fffe1dae <_end+0xfffdb0aa>
    67c8:	deadbeef          	jal	t4,fffe1db2 <_end+0xfffdb0ae>
    67cc:	deadbeef          	jal	t4,fffe1db6 <_end+0xfffdb0b2>
    67d0:	deadbeef          	jal	t4,fffe1dba <_end+0xfffdb0b6>
    67d4:	deadbeef          	jal	t4,fffe1dbe <_end+0xfffdb0ba>
    67d8:	deadbeef          	jal	t4,fffe1dc2 <_end+0xfffdb0be>
    67dc:	deadbeef          	jal	t4,fffe1dc6 <_end+0xfffdb0c2>
    67e0:	deadbeef          	jal	t4,fffe1dca <_end+0xfffdb0c6>
    67e4:	deadbeef          	jal	t4,fffe1dce <_end+0xfffdb0ca>
    67e8:	deadbeef          	jal	t4,fffe1dd2 <_end+0xfffdb0ce>
    67ec:	deadbeef          	jal	t4,fffe1dd6 <_end+0xfffdb0d2>
    67f0:	deadbeef          	jal	t4,fffe1dda <_end+0xfffdb0d6>
    67f4:	deadbeef          	jal	t4,fffe1dde <_end+0xfffdb0da>
    67f8:	deadbeef          	jal	t4,fffe1de2 <_end+0xfffdb0de>
    67fc:	deadbeef          	jal	t4,fffe1de6 <_end+0xfffdb0e2>
    6800:	deadbeef          	jal	t4,fffe1dea <_end+0xfffdb0e6>
    6804:	deadbeef          	jal	t4,fffe1dee <_end+0xfffdb0ea>
    6808:	deadbeef          	jal	t4,fffe1df2 <_end+0xfffdb0ee>
    680c:	deadbeef          	jal	t4,fffe1df6 <_end+0xfffdb0f2>
    6810:	deadbeef          	jal	t4,fffe1dfa <_end+0xfffdb0f6>
    6814:	deadbeef          	jal	t4,fffe1dfe <_end+0xfffdb0fa>
    6818:	deadbeef          	jal	t4,fffe1e02 <_end+0xfffdb0fe>
    681c:	deadbeef          	jal	t4,fffe1e06 <_end+0xfffdb102>
    6820:	deadbeef          	jal	t4,fffe1e0a <_end+0xfffdb106>
    6824:	deadbeef          	jal	t4,fffe1e0e <_end+0xfffdb10a>
    6828:	deadbeef          	jal	t4,fffe1e12 <_end+0xfffdb10e>
    682c:	deadbeef          	jal	t4,fffe1e16 <_end+0xfffdb112>
    6830:	deadbeef          	jal	t4,fffe1e1a <_end+0xfffdb116>
    6834:	deadbeef          	jal	t4,fffe1e1e <_end+0xfffdb11a>
    6838:	deadbeef          	jal	t4,fffe1e22 <_end+0xfffdb11e>
    683c:	deadbeef          	jal	t4,fffe1e26 <_end+0xfffdb122>

00006840 <signature_x5_1>:
    6840:	deadbeef          	jal	t4,fffe1e2a <_end+0xfffdb126>
    6844:	deadbeef          	jal	t4,fffe1e2e <_end+0xfffdb12a>
    6848:	deadbeef          	jal	t4,fffe1e32 <_end+0xfffdb12e>
    684c:	deadbeef          	jal	t4,fffe1e36 <_end+0xfffdb132>
    6850:	deadbeef          	jal	t4,fffe1e3a <_end+0xfffdb136>
    6854:	deadbeef          	jal	t4,fffe1e3e <_end+0xfffdb13a>
    6858:	deadbeef          	jal	t4,fffe1e42 <_end+0xfffdb13e>
    685c:	deadbeef          	jal	t4,fffe1e46 <_end+0xfffdb142>
    6860:	deadbeef          	jal	t4,fffe1e4a <_end+0xfffdb146>
    6864:	deadbeef          	jal	t4,fffe1e4e <_end+0xfffdb14a>
    6868:	deadbeef          	jal	t4,fffe1e52 <_end+0xfffdb14e>
    686c:	deadbeef          	jal	t4,fffe1e56 <_end+0xfffdb152>
    6870:	deadbeef          	jal	t4,fffe1e5a <_end+0xfffdb156>
    6874:	deadbeef          	jal	t4,fffe1e5e <_end+0xfffdb15a>
    6878:	deadbeef          	jal	t4,fffe1e62 <_end+0xfffdb15e>
    687c:	deadbeef          	jal	t4,fffe1e66 <_end+0xfffdb162>
    6880:	deadbeef          	jal	t4,fffe1e6a <_end+0xfffdb166>
    6884:	deadbeef          	jal	t4,fffe1e6e <_end+0xfffdb16a>
    6888:	deadbeef          	jal	t4,fffe1e72 <_end+0xfffdb16e>
    688c:	deadbeef          	jal	t4,fffe1e76 <_end+0xfffdb172>
    6890:	deadbeef          	jal	t4,fffe1e7a <_end+0xfffdb176>
    6894:	deadbeef          	jal	t4,fffe1e7e <_end+0xfffdb17a>
    6898:	deadbeef          	jal	t4,fffe1e82 <_end+0xfffdb17e>
    689c:	deadbeef          	jal	t4,fffe1e86 <_end+0xfffdb182>
    68a0:	deadbeef          	jal	t4,fffe1e8a <_end+0xfffdb186>
    68a4:	deadbeef          	jal	t4,fffe1e8e <_end+0xfffdb18a>
    68a8:	deadbeef          	jal	t4,fffe1e92 <_end+0xfffdb18e>
    68ac:	deadbeef          	jal	t4,fffe1e96 <_end+0xfffdb192>
    68b0:	deadbeef          	jal	t4,fffe1e9a <_end+0xfffdb196>
    68b4:	deadbeef          	jal	t4,fffe1e9e <_end+0xfffdb19a>
    68b8:	deadbeef          	jal	t4,fffe1ea2 <_end+0xfffdb19e>
    68bc:	deadbeef          	jal	t4,fffe1ea6 <_end+0xfffdb1a2>
    68c0:	deadbeef          	jal	t4,fffe1eaa <_end+0xfffdb1a6>
    68c4:	deadbeef          	jal	t4,fffe1eae <_end+0xfffdb1aa>
    68c8:	deadbeef          	jal	t4,fffe1eb2 <_end+0xfffdb1ae>
    68cc:	deadbeef          	jal	t4,fffe1eb6 <_end+0xfffdb1b2>
    68d0:	deadbeef          	jal	t4,fffe1eba <_end+0xfffdb1b6>
    68d4:	deadbeef          	jal	t4,fffe1ebe <_end+0xfffdb1ba>
    68d8:	deadbeef          	jal	t4,fffe1ec2 <_end+0xfffdb1be>
    68dc:	deadbeef          	jal	t4,fffe1ec6 <_end+0xfffdb1c2>
    68e0:	deadbeef          	jal	t4,fffe1eca <_end+0xfffdb1c6>
    68e4:	deadbeef          	jal	t4,fffe1ece <_end+0xfffdb1ca>
    68e8:	deadbeef          	jal	t4,fffe1ed2 <_end+0xfffdb1ce>
    68ec:	deadbeef          	jal	t4,fffe1ed6 <_end+0xfffdb1d2>
    68f0:	deadbeef          	jal	t4,fffe1eda <_end+0xfffdb1d6>
    68f4:	deadbeef          	jal	t4,fffe1ede <_end+0xfffdb1da>
    68f8:	deadbeef          	jal	t4,fffe1ee2 <_end+0xfffdb1de>
    68fc:	deadbeef          	jal	t4,fffe1ee6 <_end+0xfffdb1e2>
    6900:	deadbeef          	jal	t4,fffe1eea <_end+0xfffdb1e6>
    6904:	deadbeef          	jal	t4,fffe1eee <_end+0xfffdb1ea>
    6908:	deadbeef          	jal	t4,fffe1ef2 <_end+0xfffdb1ee>
    690c:	deadbeef          	jal	t4,fffe1ef6 <_end+0xfffdb1f2>
    6910:	deadbeef          	jal	t4,fffe1efa <_end+0xfffdb1f6>
    6914:	deadbeef          	jal	t4,fffe1efe <_end+0xfffdb1fa>
    6918:	deadbeef          	jal	t4,fffe1f02 <_end+0xfffdb1fe>
    691c:	deadbeef          	jal	t4,fffe1f06 <_end+0xfffdb202>
    6920:	deadbeef          	jal	t4,fffe1f0a <_end+0xfffdb206>
    6924:	deadbeef          	jal	t4,fffe1f0e <_end+0xfffdb20a>
    6928:	deadbeef          	jal	t4,fffe1f12 <_end+0xfffdb20e>
    692c:	deadbeef          	jal	t4,fffe1f16 <_end+0xfffdb212>
    6930:	deadbeef          	jal	t4,fffe1f1a <_end+0xfffdb216>
    6934:	deadbeef          	jal	t4,fffe1f1e <_end+0xfffdb21a>
    6938:	deadbeef          	jal	t4,fffe1f22 <_end+0xfffdb21e>
    693c:	deadbeef          	jal	t4,fffe1f26 <_end+0xfffdb222>
    6940:	deadbeef          	jal	t4,fffe1f2a <_end+0xfffdb226>
    6944:	deadbeef          	jal	t4,fffe1f2e <_end+0xfffdb22a>
    6948:	deadbeef          	jal	t4,fffe1f32 <_end+0xfffdb22e>
