
mulh-01.riscv:     file format elf32-littleriscv

Sections:
Idx Name          Size      VMA       LMA       File off  Algn
  0 .text.init    00003104  00000200  00000200  00000200  2**5
                  CONTENTS, ALLOC, LOAD, READONLY, CODE
  1 .text         00000008  00003304  00003304  00003304  2**2
                  CONTENTS, ALLOC, LOAD, READONLY, CODE
  2 .data         00000004  00003310  00003310  00003310  2**4
                  CONTENTS, ALLOC, LOAD, DATA
  3 .tohost       00000108  00003400  00003400  00003400  2**8
                  CONTENTS, ALLOC, LOAD, DATA
  4 .io_buf       00000b04  00006000  00006000  00004000  2**8
                  CONTENTS, ALLOC, LOAD, READONLY, DATA
  5 .riscv.attributes 00000031  00000000  00000000  00004b04  2**0
                  CONTENTS, READONLY

Disassembly of section .text.init:

00000200 <rvtest_code_begin>:
     200:	00006217          	auipc	tp,0x6
     204:	e0020213          	addi	tp,tp,-512 # 6000 <begin_signature>

00000208 <inst_0>:
     208:	0000b7b7          	lui	a5,0xb
     20c:	50478793          	addi	a5,a5,1284 # b504 <_end+0x4a00>
     210:	08000ab7          	lui	s5,0x8000
     214:	035797b3          	mulh	a5,a5,s5
     218:	00f22023          	sw	a5,0(tp) # 0 <offset>

0000021c <inst_1>:
     21c:	333330b7          	lui	ra,0x33333
     220:	33208093          	addi	ra,ra,818 # 33333332 <_end+0x3332c82e>
     224:	333330b7          	lui	ra,0x33333
     228:	33208093          	addi	ra,ra,818 # 33333332 <_end+0x3332c82e>
     22c:	021093b3          	mulh	t2,ra,ra
     230:	00722223          	sw	t2,4(tp) # 4 <offset+0x4>

00000234 <inst_2>:
     234:	ffff83b7          	lui	t2,0xffff8
     238:	fff38393          	addi	t2,t2,-1 # ffff7fff <_end+0xffff14fb>
     23c:	fffff337          	lui	t1,0xfffff
     240:	7ff30313          	addi	t1,t1,2047 # fffff7ff <_end+0xffff8cfb>
     244:	02639333          	mulh	t1,t2,t1
     248:	00622423          	sw	t1,8(tp) # 8 <offset+0x8>

0000024c <inst_3>:
     24c:	ffff5db7          	lui	s11,0xffff5
     250:	afdd8d93          	addi	s11,s11,-1283 # ffff4afd <_end+0xfffedff9>
     254:	04000813          	li	a6,64
     258:	030d92b3          	mulh	t0,s11,a6
     25c:	00522623          	sw	t0,12(tp) # c <offset+0xc>

00000260 <inst_4>:
     260:	00700d13          	li	s10,7
     264:	00700d13          	li	s10,7
     268:	03ad1d33          	mulh	s10,s10,s10
     26c:	01a22823          	sw	s10,16(tp) # 10 <offset+0x10>

00000270 <inst_5>:
     270:	ffff5c37          	lui	s8,0xffff5
     274:	afdc0c13          	addi	s8,s8,-1283 # ffff4afd <_end+0xfffedff9>
     278:	800003b7          	lui	t2,0x80000
     27c:	027c1533          	mulh	a0,s8,t2
     280:	00a22a23          	sw	a0,20(tp) # 14 <offset+0x14>

00000284 <inst_6>:
     284:	ffffef37          	lui	t5,0xffffe
     288:	ffff0f13          	addi	t5,t5,-1 # ffffdfff <_end+0xffff74fb>
     28c:	00000113          	li	sp,0
     290:	022f1433          	mulh	s0,t5,sp
     294:	00822c23          	sw	s0,24(tp) # 18 <offset+0x18>

00000298 <inst_7>:
     298:	00000013          	nop
     29c:	800005b7          	lui	a1,0x80000
     2a0:	fff58593          	addi	a1,a1,-1 # 7fffffff <_end+0x7fff94fb>
     2a4:	02b019b3          	mulh	s3,zero,a1
     2a8:	01322e23          	sw	s3,28(tp) # 1c <offset+0x1c>

000002ac <inst_8>:
     2ac:	00002ab7          	lui	s5,0x2
     2b0:	00100893          	li	a7,1
     2b4:	031a9c33          	mulh	s8,s5,a7
     2b8:	03822023          	sw	s8,32(tp) # 20 <offset+0x20>

000002bc <inst_9>:
     2bc:	80000bb7          	lui	s7,0x80000
     2c0:	ffc00493          	li	s1,-4
     2c4:	029b9eb3          	mulh	t4,s7,s1
     2c8:	03d22223          	sw	t4,36(tp) # 24 <offset+0x24>

000002cc <inst_10>:
     2cc:	00000b13          	li	s6,0
     2d0:	00700193          	li	gp,7
     2d4:	023b1db3          	mulh	s11,s6,gp
     2d8:	03b22423          	sw	s11,40(tp) # 28 <offset+0x28>

000002dc <inst_11>:
     2dc:	80000137          	lui	sp,0x80000
     2e0:	fff10113          	addi	sp,sp,-1 # 7fffffff <_end+0x7fff94fb>
     2e4:	00600b13          	li	s6,6
     2e8:	03611e33          	mulh	t3,sp,s6
     2ec:	03c22623          	sw	t3,44(tp) # 2c <offset+0x2c>

000002f0 <inst_12>:
     2f0:	00100e13          	li	t3,1
     2f4:	55555eb7          	lui	t4,0x55555
     2f8:	555e8e93          	addi	t4,t4,1365 # 55555555 <_end+0x5554ea51>
     2fc:	03de1bb3          	mulh	s7,t3,t4
     300:	03722823          	sw	s7,48(tp) # 30 <offset+0x30>

00000304 <inst_13>:
     304:	666666b7          	lui	a3,0x66666
     308:	66768693          	addi	a3,a3,1639 # 66666667 <_end+0x6665fb63>
     30c:	00200993          	li	s3,2
     310:	03369a33          	mulh	s4,a3,s3
     314:	03422a23          	sw	s4,52(tp) # 34 <offset+0x34>

00000318 <inst_14>:
     318:	00000293          	li	t0,0
     31c:	00400613          	li	a2,4
     320:	02c29b33          	mulh	s6,t0,a2
     324:	03622c23          	sw	s6,56(tp) # 38 <offset+0x38>

00000328 <inst_15>:
     328:	00400513          	li	a0,4
     32c:	00800913          	li	s2,8
     330:	03251cb3          	mulh	s9,a0,s2
     334:	03922e23          	sw	s9,60(tp) # 3c <offset+0x3c>
     338:	00006397          	auipc	t2,0x6
     33c:	d0838393          	addi	t2,t2,-760 # 6040 <signature_x7_0>

00000340 <inst_16>:
     340:	fef00c93          	li	s9,-17
     344:	01000793          	li	a5,16
     348:	02fc94b3          	mulh	s1,s9,a5
     34c:	0093a023          	sw	s1,0(t2)

00000350 <inst_17>:
     350:	00500813          	li	a6,5
     354:	02000e13          	li	t3,32
     358:	03c81133          	mulh	sp,a6,t3
     35c:	0023a223          	sw	sp,4(t2)

00000360 <inst_18>:
     360:	000404b7          	lui	s1,0x40
     364:	08000513          	li	a0,128
     368:	02a490b3          	mulh	ra,s1,a0
     36c:	0013a423          	sw	ra,8(t2)

00000370 <inst_19>:
     370:	e0000a37          	lui	s4,0xe0000
     374:	fffa0a13          	addi	s4,s4,-1 # dfffffff <_end+0xdfff94fb>
     378:	10000293          	li	t0,256
     37c:	025a15b3          	mulh	a1,s4,t0
     380:	00b3a623          	sw	a1,12(t2)

00000384 <inst_20>:
     384:	55555337          	lui	t1,0x55555
     388:	55430313          	addi	t1,t1,1364 # 55555554 <_end+0x5554ea50>
     38c:	20000a13          	li	s4,512
     390:	034316b3          	mulh	a3,t1,s4
     394:	00d3a823          	sw	a3,16(t2)

00000398 <inst_21>:
     398:	c00009b7          	lui	s3,0xc0000
     39c:	fff98993          	addi	s3,s3,-1 # bfffffff <_end+0xbfff94fb>
     3a0:	40000c93          	li	s9,1024
     3a4:	03999633          	mulh	a2,s3,s9
     3a8:	00c3aa23          	sw	a2,20(t2)

000003ac <inst_22>:
     3ac:	ffff5237          	lui	tp,0xffff5
     3b0:	afc20213          	addi	tp,tp,-1284 # ffff4afc <_end+0xfffedff8>
     3b4:	00001db7          	lui	s11,0x1
     3b8:	800d8d93          	addi	s11,s11,-2048 # 800 <inst_79+0x4>
     3bc:	03b21833          	mulh	a6,tp,s11
     3c0:	0103ac23          	sw	a6,24(t2)

000003c4 <inst_23>:
     3c4:	ffffe8b7          	lui	a7,0xffffe
     3c8:	fff88893          	addi	a7,a7,-1 # ffffdfff <_end+0xffff74fb>
     3cc:	00001237          	lui	tp,0x1
     3d0:	02489f33          	mulh	t5,a7,tp
     3d4:	01e3ae23          	sw	t5,28(t2)

000003d8 <inst_24>:
     3d8:	00500f93          	li	t6,5
     3dc:	00002737          	lui	a4,0x2
     3e0:	02ef9033          	mulh	zero,t6,a4
     3e4:	0203a023          	sw	zero,32(t2)

000003e8 <inst_25>:
     3e8:	00200713          	li	a4,2
     3ec:	000046b7          	lui	a3,0x4
     3f0:	02d71fb3          	mulh	t6,a4,a3
     3f4:	03f3a223          	sw	t6,36(t2)

000003f8 <inst_26>:
     3f8:	fdf00613          	li	a2,-33
     3fc:	00008437          	lui	s0,0x8
     400:	02861733          	mulh	a4,a2,s0
     404:	02e3a423          	sw	a4,40(t2)

00000408 <inst_27>:
     408:	ffe00593          	li	a1,-2
     40c:	00010bb7          	lui	s7,0x10
     410:	037598b3          	mulh	a7,a1,s7
     414:	0313a623          	sw	a7,44(t2)

00000418 <inst_28>:
     418:	02000eb7          	lui	t4,0x2000
     41c:	00000013          	nop
     420:	020e9ab3          	mulh	s5,t4,zero
     424:	0353a823          	sw	s5,48(t2)

00000428 <inst_29>:
     428:	fe000937          	lui	s2,0xfe000
     42c:	fff90913          	addi	s2,s2,-1 # fdffffff <_end+0xfdff94fb>
     430:	00040f37          	lui	t5,0x40
     434:	03e911b3          	mulh	gp,s2,t5
     438:	0233aa23          	sw	gp,52(t2)

0000043c <inst_30>:
     43c:	40000413          	li	s0,1024
     440:	00080c37          	lui	s8,0x80
     444:	03841933          	mulh	s2,s0,s8
     448:	0323ac23          	sw	s2,56(t2)
     44c:	00006097          	auipc	ra,0x6
     450:	c3008093          	addi	ra,ra,-976 # 607c <signature_x1_0>

00000454 <inst_31>:
     454:	fff801b7          	lui	gp,0xfff80
     458:	fff18193          	addi	gp,gp,-1 # fff7ffff <_end+0xfff794fb>
     45c:	00100fb7          	lui	t6,0x100
     460:	03f19233          	mulh	tp,gp,t6
     464:	0040a023          	sw	tp,0(ra)

00000468 <inst_32>:
     468:	fffe0537          	lui	a0,0xfffe0
     46c:	fff50513          	addi	a0,a0,-1 # fffdffff <_end+0xfffd94fb>
     470:	002005b7          	lui	a1,0x200
     474:	02b51633          	mulh	a2,a0,a1
     478:	00c0a223          	sw	a2,4(ra)

0000047c <inst_33>:
     47c:	aaaab537          	lui	a0,0xaaaab
     480:	aaa50513          	addi	a0,a0,-1366 # aaaaaaaa <_end+0xaaaa3fa6>
     484:	004005b7          	lui	a1,0x400
     488:	02b51633          	mulh	a2,a0,a1
     48c:	00c0a423          	sw	a2,8(ra)

00000490 <inst_34>:
     490:	f7f00513          	li	a0,-129
     494:	008005b7          	lui	a1,0x800
     498:	02b51633          	mulh	a2,a0,a1
     49c:	00c0a623          	sw	a2,12(ra)

000004a0 <inst_35>:
     4a0:	fffff537          	lui	a0,0xfffff
     4a4:	fff50513          	addi	a0,a0,-1 # ffffefff <_end+0xffff84fb>
     4a8:	010005b7          	lui	a1,0x1000
     4ac:	02b51633          	mulh	a2,a0,a1
     4b0:	00c0a823          	sw	a2,16(ra)

000004b4 <inst_36>:
     4b4:	ffff5537          	lui	a0,0xffff5
     4b8:	afd50513          	addi	a0,a0,-1283 # ffff4afd <_end+0xfffedff9>
     4bc:	020005b7          	lui	a1,0x2000
     4c0:	02b51633          	mulh	a2,a0,a1
     4c4:	00c0aa23          	sw	a2,20(ra)

000004c8 <inst_37>:
     4c8:	00080537          	lui	a0,0x80
     4cc:	040005b7          	lui	a1,0x4000
     4d0:	02b51633          	mulh	a2,a0,a1
     4d4:	00c0ac23          	sw	a2,24(ra)

000004d8 <inst_38>:
     4d8:	00900513          	li	a0,9
     4dc:	100005b7          	lui	a1,0x10000
     4e0:	02b51633          	mulh	a2,a0,a1
     4e4:	00c0ae23          	sw	a2,28(ra)

000004e8 <inst_39>:
     4e8:	00400513          	li	a0,4
     4ec:	200005b7          	lui	a1,0x20000
     4f0:	02b51633          	mulh	a2,a0,a1
     4f4:	02c0a023          	sw	a2,32(ra)

000004f8 <inst_40>:
     4f8:	fdf00513          	li	a0,-33
     4fc:	400005b7          	lui	a1,0x40000
     500:	02b51633          	mulh	a2,a0,a1
     504:	02c0a223          	sw	a2,36(ra)

00000508 <inst_41>:
     508:	ff800537          	lui	a0,0xff800
     50c:	fff50513          	addi	a0,a0,-1 # ff7fffff <_end+0xff7f94fb>
     510:	ffd00593          	li	a1,-3
     514:	02b51633          	mulh	a2,a0,a1
     518:	02c0a423          	sw	a2,40(ra)

0000051c <inst_42>:
     51c:	20000513          	li	a0,512
     520:	ffb00593          	li	a1,-5
     524:	02b51633          	mulh	a2,a0,a1
     528:	02c0a623          	sw	a2,44(ra)

0000052c <inst_43>:
     52c:	08000513          	li	a0,128
     530:	ff700593          	li	a1,-9
     534:	02b51633          	mulh	a2,a0,a1
     538:	02c0a823          	sw	a2,48(ra)

0000053c <inst_44>:
     53c:	00700513          	li	a0,7
     540:	fef00593          	li	a1,-17
     544:	02b51633          	mulh	a2,a0,a1
     548:	02c0aa23          	sw	a2,52(ra)

0000054c <inst_45>:
     54c:	01000537          	lui	a0,0x1000
     550:	fdf00593          	li	a1,-33
     554:	02b51633          	mulh	a2,a0,a1
     558:	02c0ac23          	sw	a2,56(ra)

0000055c <inst_46>:
     55c:	00100537          	lui	a0,0x100
     560:	fbf00593          	li	a1,-65
     564:	02b51633          	mulh	a2,a0,a1
     568:	02c0ae23          	sw	a2,60(ra)

0000056c <inst_47>:
     56c:	aaaab537          	lui	a0,0xaaaab
     570:	aaa50513          	addi	a0,a0,-1366 # aaaaaaaa <_end+0xaaaa3fa6>
     574:	f7f00593          	li	a1,-129
     578:	02b51633          	mulh	a2,a0,a1
     57c:	04c0a023          	sw	a2,64(ra)

00000580 <inst_48>:
     580:	55555537          	lui	a0,0x55555
     584:	55650513          	addi	a0,a0,1366 # 55555556 <_end+0x5554ea52>
     588:	eff00593          	li	a1,-257
     58c:	02b51633          	mulh	a2,a0,a1
     590:	04c0a223          	sw	a2,68(ra)

00000594 <inst_49>:
     594:	00010537          	lui	a0,0x10
     598:	dff00593          	li	a1,-513
     59c:	02b51633          	mulh	a2,a0,a1
     5a0:	04c0a423          	sw	a2,72(ra)

000005a4 <inst_50>:
     5a4:	00800537          	lui	a0,0x800
     5a8:	bff00593          	li	a1,-1025
     5ac:	02b51633          	mulh	a2,a0,a1
     5b0:	04c0a623          	sw	a2,76(ra)

000005b4 <inst_51>:
     5b4:	00500513          	li	a0,5
     5b8:	fffff5b7          	lui	a1,0xfffff
     5bc:	fff58593          	addi	a1,a1,-1 # ffffefff <_end+0xffff84fb>
     5c0:	02b51633          	mulh	a2,a0,a1
     5c4:	04c0a823          	sw	a2,80(ra)

000005c8 <inst_52>:
     5c8:	33333537          	lui	a0,0x33333
     5cc:	33350513          	addi	a0,a0,819 # 33333333 <_end+0x3332c82f>
     5d0:	ffffe5b7          	lui	a1,0xffffe
     5d4:	fff58593          	addi	a1,a1,-1 # ffffdfff <_end+0xffff74fb>
     5d8:	02b51633          	mulh	a2,a0,a1
     5dc:	04c0aa23          	sw	a2,84(ra)

000005e0 <inst_53>:
     5e0:	fffff537          	lui	a0,0xfffff
     5e4:	7ff50513          	addi	a0,a0,2047 # fffff7ff <_end+0xffff8cfb>
     5e8:	ffffc5b7          	lui	a1,0xffffc
     5ec:	fff58593          	addi	a1,a1,-1 # ffffbfff <_end+0xffff54fb>
     5f0:	02b51633          	mulh	a2,a0,a1
     5f4:	04c0ac23          	sw	a2,88(ra)

000005f8 <inst_54>:
     5f8:	00040537          	lui	a0,0x40
     5fc:	ffff85b7          	lui	a1,0xffff8
     600:	fff58593          	addi	a1,a1,-1 # ffff7fff <_end+0xffff14fb>
     604:	02b51633          	mulh	a2,a0,a1
     608:	04c0ae23          	sw	a2,92(ra)

0000060c <inst_55>:
     60c:	fbf00513          	li	a0,-65
     610:	ffff05b7          	lui	a1,0xffff0
     614:	fff58593          	addi	a1,a1,-1 # fffeffff <_end+0xfffe94fb>
     618:	02b51633          	mulh	a2,a0,a1
     61c:	06c0a023          	sw	a2,96(ra)

00000620 <inst_56>:
     620:	ff000537          	lui	a0,0xff000
     624:	fff50513          	addi	a0,a0,-1 # feffffff <_end+0xfeff94fb>
     628:	fffe05b7          	lui	a1,0xfffe0
     62c:	fff58593          	addi	a1,a1,-1 # fffdffff <_end+0xfffd94fb>
     630:	02b51633          	mulh	a2,a0,a1
     634:	06c0a223          	sw	a2,100(ra)

00000638 <inst_57>:
     638:	ffa00513          	li	a0,-6
     63c:	fffc05b7          	lui	a1,0xfffc0
     640:	fff58593          	addi	a1,a1,-1 # fffbffff <_end+0xfffb94fb>
     644:	02b51633          	mulh	a2,a0,a1
     648:	06c0a423          	sw	a2,104(ra)

0000064c <inst_58>:
     64c:	ff800537          	lui	a0,0xff800
     650:	fff50513          	addi	a0,a0,-1 # ff7fffff <_end+0xff7f94fb>
     654:	fff805b7          	lui	a1,0xfff80
     658:	fff58593          	addi	a1,a1,-1 # fff7ffff <_end+0xfff794fb>
     65c:	02b51633          	mulh	a2,a0,a1
     660:	06c0a623          	sw	a2,108(ra)

00000664 <inst_59>:
     664:	fef00513          	li	a0,-17
     668:	fff005b7          	lui	a1,0xfff00
     66c:	fff58593          	addi	a1,a1,-1 # ffefffff <_end+0xffef94fb>
     670:	02b51633          	mulh	a2,a0,a1
     674:	06c0a823          	sw	a2,112(ra)

00000678 <inst_60>:
     678:	00002537          	lui	a0,0x2
     67c:	ffe005b7          	lui	a1,0xffe00
     680:	fff58593          	addi	a1,a1,-1 # ffdfffff <_end+0xffdf94fb>
     684:	02b51633          	mulh	a2,a0,a1
     688:	06c0aa23          	sw	a2,116(ra)

0000068c <inst_61>:
     68c:	0000b537          	lui	a0,0xb
     690:	50550513          	addi	a0,a0,1285 # b505 <_end+0x4a01>
     694:	ffc005b7          	lui	a1,0xffc00
     698:	fff58593          	addi	a1,a1,-1 # ffbfffff <_end+0xffbf94fb>
     69c:	02b51633          	mulh	a2,a0,a1
     6a0:	06c0ac23          	sw	a2,120(ra)

000006a4 <inst_62>:
     6a4:	f7f00513          	li	a0,-129
     6a8:	ff8005b7          	lui	a1,0xff800
     6ac:	fff58593          	addi	a1,a1,-1 # ff7fffff <_end+0xff7f94fb>
     6b0:	02b51633          	mulh	a2,a0,a1
     6b4:	06c0ae23          	sw	a2,124(ra)

000006b8 <inst_63>:
     6b8:	aaaab537          	lui	a0,0xaaaab
     6bc:	aab50513          	addi	a0,a0,-1365 # aaaaaaab <_end+0xaaaa3fa7>
     6c0:	ff0005b7          	lui	a1,0xff000
     6c4:	fff58593          	addi	a1,a1,-1 # feffffff <_end+0xfeff94fb>
     6c8:	02b51633          	mulh	a2,a0,a1
     6cc:	08c0a023          	sw	a2,128(ra)

000006d0 <inst_64>:
     6d0:	fe000537          	lui	a0,0xfe000
     6d4:	fff50513          	addi	a0,a0,-1 # fdffffff <_end+0xfdff94fb>
     6d8:	fe0005b7          	lui	a1,0xfe000
     6dc:	fff58593          	addi	a1,a1,-1 # fdffffff <_end+0xfdff94fb>
     6e0:	02b51633          	mulh	a2,a0,a1
     6e4:	08c0a223          	sw	a2,132(ra)

000006e8 <inst_65>:
     6e8:	00100513          	li	a0,1
     6ec:	fc0005b7          	lui	a1,0xfc000
     6f0:	fff58593          	addi	a1,a1,-1 # fbffffff <_end+0xfbff94fb>
     6f4:	02b51633          	mulh	a2,a0,a1
     6f8:	08c0a423          	sw	a2,136(ra)

000006fc <inst_66>:
     6fc:	ffff5537          	lui	a0,0xffff5
     700:	afc50513          	addi	a0,a0,-1284 # ffff4afc <_end+0xfffedff8>
     704:	f80005b7          	lui	a1,0xf8000
     708:	fff58593          	addi	a1,a1,-1 # f7ffffff <_end+0xf7ff94fb>
     70c:	02b51633          	mulh	a2,a0,a1
     710:	08c0a623          	sw	a2,140(ra)

00000714 <inst_67>:
     714:	00001537          	lui	a0,0x1
     718:	80050513          	addi	a0,a0,-2048 # 800 <inst_79+0x4>
     71c:	f00005b7          	lui	a1,0xf0000
     720:	fff58593          	addi	a1,a1,-1 # efffffff <_end+0xefff94fb>
     724:	02b51633          	mulh	a2,a0,a1
     728:	08c0a823          	sw	a2,144(ra)

0000072c <inst_68>:
     72c:	00020537          	lui	a0,0x20
     730:	e00005b7          	lui	a1,0xe0000
     734:	fff58593          	addi	a1,a1,-1 # dfffffff <_end+0xdfff94fb>
     738:	02b51633          	mulh	a2,a0,a1
     73c:	08c0aa23          	sw	a2,148(ra)

00000740 <inst_69>:
     740:	ffffc537          	lui	a0,0xffffc
     744:	fff50513          	addi	a0,a0,-1 # ffffbfff <_end+0xffff54fb>
     748:	c00005b7          	lui	a1,0xc0000
     74c:	fff58593          	addi	a1,a1,-1 # bfffffff <_end+0xbfff94fb>
     750:	02b51633          	mulh	a2,a0,a1
     754:	08c0ac23          	sw	a2,152(ra)

00000758 <inst_70>:
     758:	00600513          	li	a0,6
     75c:	aaaab5b7          	lui	a1,0xaaaab
     760:	aaa58593          	addi	a1,a1,-1366 # aaaaaaaa <_end+0xaaaa3fa6>
     764:	02b51633          	mulh	a2,a0,a1
     768:	08c0ae23          	sw	a2,156(ra)

0000076c <inst_71>:
     76c:	00800513          	li	a0,8
     770:	333335b7          	lui	a1,0x33333
     774:	33358593          	addi	a1,a1,819 # 33333333 <_end+0x3332c82f>
     778:	02b51633          	mulh	a2,a0,a1
     77c:	0ac0a023          	sw	a2,160(ra)

00000780 <inst_72>:
     780:	01000513          	li	a0,16
     784:	00400593          	li	a1,4
     788:	02b51633          	mulh	a2,a0,a1
     78c:	0ac0a223          	sw	a2,164(ra)

00000790 <inst_73>:
     790:	02000513          	li	a0,32
     794:	000805b7          	lui	a1,0x80
     798:	02b51633          	mulh	a2,a0,a1
     79c:	0ac0a423          	sw	a2,168(ra)

000007a0 <inst_74>:
     7a0:	04000513          	li	a0,64
     7a4:	333335b7          	lui	a1,0x33333
     7a8:	33258593          	addi	a1,a1,818 # 33333332 <_end+0x3332c82e>
     7ac:	02b51633          	mulh	a2,a0,a1
     7b0:	0ac0a623          	sw	a2,172(ra)

000007b4 <inst_75>:
     7b4:	10000513          	li	a0,256
     7b8:	fff005b7          	lui	a1,0xfff00
     7bc:	fff58593          	addi	a1,a1,-1 # ffefffff <_end+0xffef94fb>
     7c0:	02b51633          	mulh	a2,a0,a1
     7c4:	0ac0a823          	sw	a2,176(ra)

000007c8 <inst_76>:
     7c8:	00001537          	lui	a0,0x1
     7cc:	00000593          	li	a1,0
     7d0:	02b51633          	mulh	a2,a0,a1
     7d4:	0ac0aa23          	sw	a2,180(ra)

000007d8 <inst_77>:
     7d8:	00004537          	lui	a0,0x4
     7dc:	10000593          	li	a1,256
     7e0:	02b51633          	mulh	a2,a0,a1
     7e4:	0ac0ac23          	sw	a2,184(ra)

000007e8 <inst_78>:
     7e8:	00008537          	lui	a0,0x8
     7ec:	0000b5b7          	lui	a1,0xb
     7f0:	50558593          	addi	a1,a1,1285 # b505 <_end+0x4a01>
     7f4:	02b51633          	mulh	a2,a0,a1
     7f8:	0ac0ae23          	sw	a2,188(ra)

000007fc <inst_79>:
     7fc:	00200537          	lui	a0,0x200
     800:	00000593          	li	a1,0
     804:	02b51633          	mulh	a2,a0,a1
     808:	0cc0a023          	sw	a2,192(ra)

0000080c <inst_80>:
     80c:	00400537          	lui	a0,0x400
     810:	100005b7          	lui	a1,0x10000
     814:	02b51633          	mulh	a2,a0,a1
     818:	0cc0a223          	sw	a2,196(ra)

0000081c <inst_81>:
     81c:	04000537          	lui	a0,0x4000
     820:	aaaab5b7          	lui	a1,0xaaaab
     824:	aab58593          	addi	a1,a1,-1365 # aaaaaaab <_end+0xaaaa3fa7>
     828:	02b51633          	mulh	a2,a0,a1
     82c:	0cc0a423          	sw	a2,200(ra)

00000830 <inst_82>:
     830:	08000537          	lui	a0,0x8000
     834:	0000b5b7          	lui	a1,0xb
     838:	50458593          	addi	a1,a1,1284 # b504 <_end+0x4a00>
     83c:	02b51633          	mulh	a2,a0,a1
     840:	0cc0a623          	sw	a2,204(ra)

00000844 <inst_83>:
     844:	10000537          	lui	a0,0x10000
     848:	c00005b7          	lui	a1,0xc0000
     84c:	fff58593          	addi	a1,a1,-1 # bfffffff <_end+0xbfff94fb>
     850:	02b51633          	mulh	a2,a0,a1
     854:	0cc0a823          	sw	a2,208(ra)

00000858 <inst_84>:
     858:	20000537          	lui	a0,0x20000
     85c:	fef00593          	li	a1,-17
     860:	02b51633          	mulh	a2,a0,a1
     864:	0cc0aa23          	sw	a2,212(ra)

00000868 <inst_85>:
     868:	40000537          	lui	a0,0x40000
     86c:	ffffe5b7          	lui	a1,0xffffe
     870:	fff58593          	addi	a1,a1,-1 # ffffdfff <_end+0xffff74fb>
     874:	02b51633          	mulh	a2,a0,a1
     878:	0cc0ac23          	sw	a2,216(ra)

0000087c <inst_86>:
     87c:	ffd00513          	li	a0,-3
     880:	04000593          	li	a1,64
     884:	02b51633          	mulh	a2,a0,a1
     888:	0cc0ae23          	sw	a2,220(ra)

0000088c <inst_87>:
     88c:	ff700513          	li	a0,-9
     890:	555555b7          	lui	a1,0x55555
     894:	55458593          	addi	a1,a1,1364 # 55555554 <_end+0x5554ea50>
     898:	02b51633          	mulh	a2,a0,a1
     89c:	0ec0a023          	sw	a2,224(ra)

000008a0 <inst_88>:
     8a0:	eff00513          	li	a0,-257
     8a4:	00000593          	li	a1,0
     8a8:	02b51633          	mulh	a2,a0,a1
     8ac:	0ec0a223          	sw	a2,228(ra)

000008b0 <inst_89>:
     8b0:	dff00513          	li	a0,-513
     8b4:	04000593          	li	a1,64
     8b8:	02b51633          	mulh	a2,a0,a1
     8bc:	0ec0a423          	sw	a2,232(ra)

000008c0 <inst_90>:
     8c0:	bff00513          	li	a0,-1025
     8c4:	800005b7          	lui	a1,0x80000
     8c8:	fff58593          	addi	a1,a1,-1 # 7fffffff <_end+0x7fff94fb>
     8cc:	02b51633          	mulh	a2,a0,a1
     8d0:	0ec0a623          	sw	a2,236(ra)

000008d4 <inst_91>:
     8d4:	ffff0537          	lui	a0,0xffff0
     8d8:	fff50513          	addi	a0,a0,-1 # fffeffff <_end+0xfffe94fb>
     8dc:	ffff05b7          	lui	a1,0xffff0
     8e0:	fff58593          	addi	a1,a1,-1 # fffeffff <_end+0xfffe94fb>
     8e4:	02b51633          	mulh	a2,a0,a1
     8e8:	0ec0a823          	sw	a2,240(ra)

000008ec <inst_92>:
     8ec:	fffc0537          	lui	a0,0xfffc0
     8f0:	fff50513          	addi	a0,a0,-1 # fffbffff <_end+0xfffb94fb>
     8f4:	fc0005b7          	lui	a1,0xfc000
     8f8:	fff58593          	addi	a1,a1,-1 # fbffffff <_end+0xfbff94fb>
     8fc:	02b51633          	mulh	a2,a0,a1
     900:	0ec0aa23          	sw	a2,244(ra)

00000904 <inst_93>:
     904:	fff00537          	lui	a0,0xfff00
     908:	fff50513          	addi	a0,a0,-1 # ffefffff <_end+0xffef94fb>
     90c:	20000593          	li	a1,512
     910:	02b51633          	mulh	a2,a0,a1
     914:	0ec0ac23          	sw	a2,248(ra)

00000918 <inst_94>:
     918:	ffe00537          	lui	a0,0xffe00
     91c:	fff50513          	addi	a0,a0,-1 # ffdfffff <_end+0xffdf94fb>
     920:	0000b5b7          	lui	a1,0xb
     924:	50358593          	addi	a1,a1,1283 # b503 <_end+0x49ff>
     928:	02b51633          	mulh	a2,a0,a1
     92c:	0ec0ae23          	sw	a2,252(ra)

00000930 <inst_95>:
     930:	ffc00537          	lui	a0,0xffc00
     934:	fff50513          	addi	a0,a0,-1 # ffbfffff <_end+0xffbf94fb>
     938:	004005b7          	lui	a1,0x400
     93c:	02b51633          	mulh	a2,a0,a1
     940:	10c0a023          	sw	a2,256(ra)

00000944 <inst_96>:
     944:	fc000537          	lui	a0,0xfc000
     948:	fff50513          	addi	a0,a0,-1 # fbffffff <_end+0xfbff94fb>
     94c:	400005b7          	lui	a1,0x40000
     950:	fff58593          	addi	a1,a1,-1 # 3fffffff <_end+0x3fff94fb>
     954:	02b51633          	mulh	a2,a0,a1
     958:	10c0a223          	sw	a2,260(ra)

0000095c <inst_97>:
     95c:	f8000537          	lui	a0,0xf8000
     960:	fff50513          	addi	a0,a0,-1 # f7ffffff <_end+0xf7ff94fb>
     964:	fef00593          	li	a1,-17
     968:	02b51633          	mulh	a2,a0,a1
     96c:	10c0a423          	sw	a2,264(ra)

00000970 <inst_98>:
     970:	f0000537          	lui	a0,0xf0000
     974:	fff50513          	addi	a0,a0,-1 # efffffff <_end+0xefff94fb>
     978:	00000593          	li	a1,0
     97c:	02b51633          	mulh	a2,a0,a1
     980:	10c0a623          	sw	a2,268(ra)

00000984 <inst_99>:
     984:	55555537          	lui	a0,0x55555
     988:	55550513          	addi	a0,a0,1365 # 55555555 <_end+0x5554ea51>
     98c:	ff700593          	li	a1,-9
     990:	02b51633          	mulh	a2,a0,a1
     994:	10c0a823          	sw	a2,272(ra)

00000998 <inst_100>:
     998:	00300513          	li	a0,3
     99c:	00300593          	li	a1,3
     9a0:	02b51633          	mulh	a2,a0,a1
     9a4:	10c0aa23          	sw	a2,276(ra)

000009a8 <inst_101>:
     9a8:	00300513          	li	a0,3
     9ac:	555555b7          	lui	a1,0x55555
     9b0:	55558593          	addi	a1,a1,1365 # 55555555 <_end+0x5554ea51>
     9b4:	02b51633          	mulh	a2,a0,a1
     9b8:	10c0ac23          	sw	a2,280(ra)

000009bc <inst_102>:
     9bc:	00300513          	li	a0,3
     9c0:	aaaab5b7          	lui	a1,0xaaaab
     9c4:	aaa58593          	addi	a1,a1,-1366 # aaaaaaaa <_end+0xaaaa3fa6>
     9c8:	02b51633          	mulh	a2,a0,a1
     9cc:	10c0ae23          	sw	a2,284(ra)

000009d0 <inst_103>:
     9d0:	00300513          	li	a0,3
     9d4:	00500593          	li	a1,5
     9d8:	02b51633          	mulh	a2,a0,a1
     9dc:	12c0a023          	sw	a2,288(ra)

000009e0 <inst_104>:
     9e0:	00300513          	li	a0,3
     9e4:	333335b7          	lui	a1,0x33333
     9e8:	33358593          	addi	a1,a1,819 # 33333333 <_end+0x3332c82f>
     9ec:	02b51633          	mulh	a2,a0,a1
     9f0:	12c0a223          	sw	a2,292(ra)

000009f4 <inst_105>:
     9f4:	00300513          	li	a0,3
     9f8:	666665b7          	lui	a1,0x66666
     9fc:	66658593          	addi	a1,a1,1638 # 66666666 <_end+0x6665fb62>
     a00:	02b51633          	mulh	a2,a0,a1
     a04:	12c0a423          	sw	a2,296(ra)

00000a08 <inst_106>:
     a08:	00300513          	li	a0,3
     a0c:	ffff55b7          	lui	a1,0xffff5
     a10:	afc58593          	addi	a1,a1,-1284 # ffff4afc <_end+0xfffedff8>
     a14:	02b51633          	mulh	a2,a0,a1
     a18:	12c0a623          	sw	a2,300(ra)

00000a1c <inst_107>:
     a1c:	00300513          	li	a0,3
     a20:	0000b5b7          	lui	a1,0xb
     a24:	50458593          	addi	a1,a1,1284 # b504 <_end+0x4a00>
     a28:	02b51633          	mulh	a2,a0,a1
     a2c:	12c0a823          	sw	a2,304(ra)

00000a30 <inst_108>:
     a30:	00300513          	li	a0,3
     a34:	00200593          	li	a1,2
     a38:	02b51633          	mulh	a2,a0,a1
     a3c:	12c0aa23          	sw	a2,308(ra)

00000a40 <inst_109>:
     a40:	00300513          	li	a0,3
     a44:	555555b7          	lui	a1,0x55555
     a48:	55458593          	addi	a1,a1,1364 # 55555554 <_end+0x5554ea50>
     a4c:	02b51633          	mulh	a2,a0,a1
     a50:	12c0ac23          	sw	a2,312(ra)

00000a54 <inst_110>:
     a54:	00300513          	li	a0,3
     a58:	00000593          	li	a1,0
     a5c:	02b51633          	mulh	a2,a0,a1
     a60:	12c0ae23          	sw	a2,316(ra)

00000a64 <inst_111>:
     a64:	00300513          	li	a0,3
     a68:	00400593          	li	a1,4
     a6c:	02b51633          	mulh	a2,a0,a1
     a70:	14c0a023          	sw	a2,320(ra)

00000a74 <inst_112>:
     a74:	00300513          	li	a0,3
     a78:	333335b7          	lui	a1,0x33333
     a7c:	33258593          	addi	a1,a1,818 # 33333332 <_end+0x3332c82e>
     a80:	02b51633          	mulh	a2,a0,a1
     a84:	14c0a223          	sw	a2,324(ra)

00000a88 <inst_113>:
     a88:	00300513          	li	a0,3
     a8c:	666665b7          	lui	a1,0x66666
     a90:	66558593          	addi	a1,a1,1637 # 66666665 <_end+0x6665fb61>
     a94:	02b51633          	mulh	a2,a0,a1
     a98:	14c0a423          	sw	a2,328(ra)

00000a9c <inst_114>:
     a9c:	00300513          	li	a0,3
     aa0:	0000b5b7          	lui	a1,0xb
     aa4:	50358593          	addi	a1,a1,1283 # b503 <_end+0x49ff>
     aa8:	02b51633          	mulh	a2,a0,a1
     aac:	14c0a623          	sw	a2,332(ra)

00000ab0 <inst_115>:
     ab0:	00300513          	li	a0,3
     ab4:	555555b7          	lui	a1,0x55555
     ab8:	55658593          	addi	a1,a1,1366 # 55555556 <_end+0x5554ea52>
     abc:	02b51633          	mulh	a2,a0,a1
     ac0:	14c0a823          	sw	a2,336(ra)

00000ac4 <inst_116>:
     ac4:	00300513          	li	a0,3
     ac8:	aaaab5b7          	lui	a1,0xaaaab
     acc:	aab58593          	addi	a1,a1,-1365 # aaaaaaab <_end+0xaaaa3fa7>
     ad0:	02b51633          	mulh	a2,a0,a1
     ad4:	14c0aa23          	sw	a2,340(ra)

00000ad8 <inst_117>:
     ad8:	00300513          	li	a0,3
     adc:	00600593          	li	a1,6
     ae0:	02b51633          	mulh	a2,a0,a1
     ae4:	14c0ac23          	sw	a2,344(ra)

00000ae8 <inst_118>:
     ae8:	00300513          	li	a0,3
     aec:	333335b7          	lui	a1,0x33333
     af0:	33458593          	addi	a1,a1,820 # 33333334 <_end+0x3332c830>
     af4:	02b51633          	mulh	a2,a0,a1
     af8:	14c0ae23          	sw	a2,348(ra)

00000afc <inst_119>:
     afc:	00300513          	li	a0,3
     b00:	666665b7          	lui	a1,0x66666
     b04:	66758593          	addi	a1,a1,1639 # 66666667 <_end+0x6665fb63>
     b08:	02b51633          	mulh	a2,a0,a1
     b0c:	16c0a023          	sw	a2,352(ra)

00000b10 <inst_120>:
     b10:	00300513          	li	a0,3
     b14:	ffff55b7          	lui	a1,0xffff5
     b18:	afd58593          	addi	a1,a1,-1283 # ffff4afd <_end+0xfffedff9>
     b1c:	02b51633          	mulh	a2,a0,a1
     b20:	16c0a223          	sw	a2,356(ra)

00000b24 <inst_121>:
     b24:	00300513          	li	a0,3
     b28:	0000b5b7          	lui	a1,0xb
     b2c:	50558593          	addi	a1,a1,1285 # b505 <_end+0x4a01>
     b30:	02b51633          	mulh	a2,a0,a1
     b34:	16c0a423          	sw	a2,360(ra)

00000b38 <inst_122>:
     b38:	55555537          	lui	a0,0x55555
     b3c:	55550513          	addi	a0,a0,1365 # 55555555 <_end+0x5554ea51>
     b40:	00300593          	li	a1,3
     b44:	02b51633          	mulh	a2,a0,a1
     b48:	16c0a623          	sw	a2,364(ra)

00000b4c <inst_123>:
     b4c:	55555537          	lui	a0,0x55555
     b50:	55550513          	addi	a0,a0,1365 # 55555555 <_end+0x5554ea51>
     b54:	555555b7          	lui	a1,0x55555
     b58:	55558593          	addi	a1,a1,1365 # 55555555 <_end+0x5554ea51>
     b5c:	02b51633          	mulh	a2,a0,a1
     b60:	16c0a823          	sw	a2,368(ra)

00000b64 <inst_124>:
     b64:	55555537          	lui	a0,0x55555
     b68:	55550513          	addi	a0,a0,1365 # 55555555 <_end+0x5554ea51>
     b6c:	aaaab5b7          	lui	a1,0xaaaab
     b70:	aaa58593          	addi	a1,a1,-1366 # aaaaaaaa <_end+0xaaaa3fa6>
     b74:	02b51633          	mulh	a2,a0,a1
     b78:	16c0aa23          	sw	a2,372(ra)

00000b7c <inst_125>:
     b7c:	55555537          	lui	a0,0x55555
     b80:	55550513          	addi	a0,a0,1365 # 55555555 <_end+0x5554ea51>
     b84:	00500593          	li	a1,5
     b88:	02b51633          	mulh	a2,a0,a1
     b8c:	16c0ac23          	sw	a2,376(ra)

00000b90 <inst_126>:
     b90:	55555537          	lui	a0,0x55555
     b94:	55550513          	addi	a0,a0,1365 # 55555555 <_end+0x5554ea51>
     b98:	333335b7          	lui	a1,0x33333
     b9c:	33358593          	addi	a1,a1,819 # 33333333 <_end+0x3332c82f>
     ba0:	02b51633          	mulh	a2,a0,a1
     ba4:	16c0ae23          	sw	a2,380(ra)

00000ba8 <inst_127>:
     ba8:	55555537          	lui	a0,0x55555
     bac:	55550513          	addi	a0,a0,1365 # 55555555 <_end+0x5554ea51>
     bb0:	666665b7          	lui	a1,0x66666
     bb4:	66658593          	addi	a1,a1,1638 # 66666666 <_end+0x6665fb62>
     bb8:	02b51633          	mulh	a2,a0,a1
     bbc:	18c0a023          	sw	a2,384(ra)

00000bc0 <inst_128>:
     bc0:	55555537          	lui	a0,0x55555
     bc4:	55550513          	addi	a0,a0,1365 # 55555555 <_end+0x5554ea51>
     bc8:	ffff55b7          	lui	a1,0xffff5
     bcc:	afc58593          	addi	a1,a1,-1284 # ffff4afc <_end+0xfffedff8>
     bd0:	02b51633          	mulh	a2,a0,a1
     bd4:	18c0a223          	sw	a2,388(ra)

00000bd8 <inst_129>:
     bd8:	55555537          	lui	a0,0x55555
     bdc:	55550513          	addi	a0,a0,1365 # 55555555 <_end+0x5554ea51>
     be0:	0000b5b7          	lui	a1,0xb
     be4:	50458593          	addi	a1,a1,1284 # b504 <_end+0x4a00>
     be8:	02b51633          	mulh	a2,a0,a1
     bec:	18c0a423          	sw	a2,392(ra)

00000bf0 <inst_130>:
     bf0:	55555537          	lui	a0,0x55555
     bf4:	55550513          	addi	a0,a0,1365 # 55555555 <_end+0x5554ea51>
     bf8:	00200593          	li	a1,2
     bfc:	02b51633          	mulh	a2,a0,a1
     c00:	18c0a623          	sw	a2,396(ra)

00000c04 <inst_131>:
     c04:	55555537          	lui	a0,0x55555
     c08:	55550513          	addi	a0,a0,1365 # 55555555 <_end+0x5554ea51>
     c0c:	555555b7          	lui	a1,0x55555
     c10:	55458593          	addi	a1,a1,1364 # 55555554 <_end+0x5554ea50>
     c14:	02b51633          	mulh	a2,a0,a1
     c18:	18c0a823          	sw	a2,400(ra)

00000c1c <inst_132>:
     c1c:	55555537          	lui	a0,0x55555
     c20:	55550513          	addi	a0,a0,1365 # 55555555 <_end+0x5554ea51>
     c24:	00000593          	li	a1,0
     c28:	02b51633          	mulh	a2,a0,a1
     c2c:	18c0aa23          	sw	a2,404(ra)

00000c30 <inst_133>:
     c30:	55555537          	lui	a0,0x55555
     c34:	55550513          	addi	a0,a0,1365 # 55555555 <_end+0x5554ea51>
     c38:	00400593          	li	a1,4
     c3c:	02b51633          	mulh	a2,a0,a1
     c40:	18c0ac23          	sw	a2,408(ra)

00000c44 <inst_134>:
     c44:	55555537          	lui	a0,0x55555
     c48:	55550513          	addi	a0,a0,1365 # 55555555 <_end+0x5554ea51>
     c4c:	333335b7          	lui	a1,0x33333
     c50:	33258593          	addi	a1,a1,818 # 33333332 <_end+0x3332c82e>
     c54:	02b51633          	mulh	a2,a0,a1
     c58:	18c0ae23          	sw	a2,412(ra)

00000c5c <inst_135>:
     c5c:	55555537          	lui	a0,0x55555
     c60:	55550513          	addi	a0,a0,1365 # 55555555 <_end+0x5554ea51>
     c64:	666665b7          	lui	a1,0x66666
     c68:	66558593          	addi	a1,a1,1637 # 66666665 <_end+0x6665fb61>
     c6c:	02b51633          	mulh	a2,a0,a1
     c70:	1ac0a023          	sw	a2,416(ra)

00000c74 <inst_136>:
     c74:	55555537          	lui	a0,0x55555
     c78:	55550513          	addi	a0,a0,1365 # 55555555 <_end+0x5554ea51>
     c7c:	0000b5b7          	lui	a1,0xb
     c80:	50358593          	addi	a1,a1,1283 # b503 <_end+0x49ff>
     c84:	02b51633          	mulh	a2,a0,a1
     c88:	1ac0a223          	sw	a2,420(ra)

00000c8c <inst_137>:
     c8c:	55555537          	lui	a0,0x55555
     c90:	55550513          	addi	a0,a0,1365 # 55555555 <_end+0x5554ea51>
     c94:	555555b7          	lui	a1,0x55555
     c98:	55658593          	addi	a1,a1,1366 # 55555556 <_end+0x5554ea52>
     c9c:	02b51633          	mulh	a2,a0,a1
     ca0:	1ac0a423          	sw	a2,424(ra)

00000ca4 <inst_138>:
     ca4:	55555537          	lui	a0,0x55555
     ca8:	55550513          	addi	a0,a0,1365 # 55555555 <_end+0x5554ea51>
     cac:	aaaab5b7          	lui	a1,0xaaaab
     cb0:	aab58593          	addi	a1,a1,-1365 # aaaaaaab <_end+0xaaaa3fa7>
     cb4:	02b51633          	mulh	a2,a0,a1
     cb8:	1ac0a623          	sw	a2,428(ra)

00000cbc <inst_139>:
     cbc:	55555537          	lui	a0,0x55555
     cc0:	55550513          	addi	a0,a0,1365 # 55555555 <_end+0x5554ea51>
     cc4:	00600593          	li	a1,6
     cc8:	02b51633          	mulh	a2,a0,a1
     ccc:	1ac0a823          	sw	a2,432(ra)

00000cd0 <inst_140>:
     cd0:	55555537          	lui	a0,0x55555
     cd4:	55550513          	addi	a0,a0,1365 # 55555555 <_end+0x5554ea51>
     cd8:	333335b7          	lui	a1,0x33333
     cdc:	33458593          	addi	a1,a1,820 # 33333334 <_end+0x3332c830>
     ce0:	02b51633          	mulh	a2,a0,a1
     ce4:	1ac0aa23          	sw	a2,436(ra)

00000ce8 <inst_141>:
     ce8:	55555537          	lui	a0,0x55555
     cec:	55550513          	addi	a0,a0,1365 # 55555555 <_end+0x5554ea51>
     cf0:	666665b7          	lui	a1,0x66666
     cf4:	66758593          	addi	a1,a1,1639 # 66666667 <_end+0x6665fb63>
     cf8:	02b51633          	mulh	a2,a0,a1
     cfc:	1ac0ac23          	sw	a2,440(ra)

00000d00 <inst_142>:
     d00:	55555537          	lui	a0,0x55555
     d04:	55550513          	addi	a0,a0,1365 # 55555555 <_end+0x5554ea51>
     d08:	ffff55b7          	lui	a1,0xffff5
     d0c:	afd58593          	addi	a1,a1,-1283 # ffff4afd <_end+0xfffedff9>
     d10:	02b51633          	mulh	a2,a0,a1
     d14:	1ac0ae23          	sw	a2,444(ra)

00000d18 <inst_143>:
     d18:	55555537          	lui	a0,0x55555
     d1c:	55550513          	addi	a0,a0,1365 # 55555555 <_end+0x5554ea51>
     d20:	0000b5b7          	lui	a1,0xb
     d24:	50558593          	addi	a1,a1,1285 # b505 <_end+0x4a01>
     d28:	02b51633          	mulh	a2,a0,a1
     d2c:	1cc0a023          	sw	a2,448(ra)

00000d30 <inst_144>:
     d30:	aaaab537          	lui	a0,0xaaaab
     d34:	aaa50513          	addi	a0,a0,-1366 # aaaaaaaa <_end+0xaaaa3fa6>
     d38:	00300593          	li	a1,3
     d3c:	02b51633          	mulh	a2,a0,a1
     d40:	1cc0a223          	sw	a2,452(ra)

00000d44 <inst_145>:
     d44:	aaaab537          	lui	a0,0xaaaab
     d48:	aaa50513          	addi	a0,a0,-1366 # aaaaaaaa <_end+0xaaaa3fa6>
     d4c:	555555b7          	lui	a1,0x55555
     d50:	55558593          	addi	a1,a1,1365 # 55555555 <_end+0x5554ea51>
     d54:	02b51633          	mulh	a2,a0,a1
     d58:	1cc0a423          	sw	a2,456(ra)

00000d5c <inst_146>:
     d5c:	aaaab537          	lui	a0,0xaaaab
     d60:	aaa50513          	addi	a0,a0,-1366 # aaaaaaaa <_end+0xaaaa3fa6>
     d64:	aaaab5b7          	lui	a1,0xaaaab
     d68:	aaa58593          	addi	a1,a1,-1366 # aaaaaaaa <_end+0xaaaa3fa6>
     d6c:	02b51633          	mulh	a2,a0,a1
     d70:	1cc0a623          	sw	a2,460(ra)

00000d74 <inst_147>:
     d74:	aaaab537          	lui	a0,0xaaaab
     d78:	aaa50513          	addi	a0,a0,-1366 # aaaaaaaa <_end+0xaaaa3fa6>
     d7c:	00500593          	li	a1,5
     d80:	02b51633          	mulh	a2,a0,a1
     d84:	1cc0a823          	sw	a2,464(ra)

00000d88 <inst_148>:
     d88:	aaaab537          	lui	a0,0xaaaab
     d8c:	aaa50513          	addi	a0,a0,-1366 # aaaaaaaa <_end+0xaaaa3fa6>
     d90:	333335b7          	lui	a1,0x33333
     d94:	33358593          	addi	a1,a1,819 # 33333333 <_end+0x3332c82f>
     d98:	02b51633          	mulh	a2,a0,a1
     d9c:	1cc0aa23          	sw	a2,468(ra)

00000da0 <inst_149>:
     da0:	aaaab537          	lui	a0,0xaaaab
     da4:	aaa50513          	addi	a0,a0,-1366 # aaaaaaaa <_end+0xaaaa3fa6>
     da8:	666665b7          	lui	a1,0x66666
     dac:	66658593          	addi	a1,a1,1638 # 66666666 <_end+0x6665fb62>
     db0:	02b51633          	mulh	a2,a0,a1
     db4:	1cc0ac23          	sw	a2,472(ra)

00000db8 <inst_150>:
     db8:	aaaab537          	lui	a0,0xaaaab
     dbc:	aaa50513          	addi	a0,a0,-1366 # aaaaaaaa <_end+0xaaaa3fa6>
     dc0:	ffff55b7          	lui	a1,0xffff5
     dc4:	afc58593          	addi	a1,a1,-1284 # ffff4afc <_end+0xfffedff8>
     dc8:	02b51633          	mulh	a2,a0,a1
     dcc:	1cc0ae23          	sw	a2,476(ra)

00000dd0 <inst_151>:
     dd0:	aaaab537          	lui	a0,0xaaaab
     dd4:	aaa50513          	addi	a0,a0,-1366 # aaaaaaaa <_end+0xaaaa3fa6>
     dd8:	0000b5b7          	lui	a1,0xb
     ddc:	50458593          	addi	a1,a1,1284 # b504 <_end+0x4a00>
     de0:	02b51633          	mulh	a2,a0,a1
     de4:	1ec0a023          	sw	a2,480(ra)

00000de8 <inst_152>:
     de8:	aaaab537          	lui	a0,0xaaaab
     dec:	aaa50513          	addi	a0,a0,-1366 # aaaaaaaa <_end+0xaaaa3fa6>
     df0:	00200593          	li	a1,2
     df4:	02b51633          	mulh	a2,a0,a1
     df8:	1ec0a223          	sw	a2,484(ra)

00000dfc <inst_153>:
     dfc:	aaaab537          	lui	a0,0xaaaab
     e00:	aaa50513          	addi	a0,a0,-1366 # aaaaaaaa <_end+0xaaaa3fa6>
     e04:	555555b7          	lui	a1,0x55555
     e08:	55458593          	addi	a1,a1,1364 # 55555554 <_end+0x5554ea50>
     e0c:	02b51633          	mulh	a2,a0,a1
     e10:	1ec0a423          	sw	a2,488(ra)

00000e14 <inst_154>:
     e14:	aaaab537          	lui	a0,0xaaaab
     e18:	aaa50513          	addi	a0,a0,-1366 # aaaaaaaa <_end+0xaaaa3fa6>
     e1c:	00000593          	li	a1,0
     e20:	02b51633          	mulh	a2,a0,a1
     e24:	1ec0a623          	sw	a2,492(ra)

00000e28 <inst_155>:
     e28:	aaaab537          	lui	a0,0xaaaab
     e2c:	aaa50513          	addi	a0,a0,-1366 # aaaaaaaa <_end+0xaaaa3fa6>
     e30:	00400593          	li	a1,4
     e34:	02b51633          	mulh	a2,a0,a1
     e38:	1ec0a823          	sw	a2,496(ra)

00000e3c <inst_156>:
     e3c:	aaaab537          	lui	a0,0xaaaab
     e40:	aaa50513          	addi	a0,a0,-1366 # aaaaaaaa <_end+0xaaaa3fa6>
     e44:	333335b7          	lui	a1,0x33333
     e48:	33258593          	addi	a1,a1,818 # 33333332 <_end+0x3332c82e>
     e4c:	02b51633          	mulh	a2,a0,a1
     e50:	1ec0aa23          	sw	a2,500(ra)

00000e54 <inst_157>:
     e54:	aaaab537          	lui	a0,0xaaaab
     e58:	aaa50513          	addi	a0,a0,-1366 # aaaaaaaa <_end+0xaaaa3fa6>
     e5c:	666665b7          	lui	a1,0x66666
     e60:	66558593          	addi	a1,a1,1637 # 66666665 <_end+0x6665fb61>
     e64:	02b51633          	mulh	a2,a0,a1
     e68:	1ec0ac23          	sw	a2,504(ra)

00000e6c <inst_158>:
     e6c:	aaaab537          	lui	a0,0xaaaab
     e70:	aaa50513          	addi	a0,a0,-1366 # aaaaaaaa <_end+0xaaaa3fa6>
     e74:	0000b5b7          	lui	a1,0xb
     e78:	50358593          	addi	a1,a1,1283 # b503 <_end+0x49ff>
     e7c:	02b51633          	mulh	a2,a0,a1
     e80:	1ec0ae23          	sw	a2,508(ra)

00000e84 <inst_159>:
     e84:	aaaab537          	lui	a0,0xaaaab
     e88:	aaa50513          	addi	a0,a0,-1366 # aaaaaaaa <_end+0xaaaa3fa6>
     e8c:	555555b7          	lui	a1,0x55555
     e90:	55658593          	addi	a1,a1,1366 # 55555556 <_end+0x5554ea52>
     e94:	02b51633          	mulh	a2,a0,a1
     e98:	20c0a023          	sw	a2,512(ra)

00000e9c <inst_160>:
     e9c:	aaaab537          	lui	a0,0xaaaab
     ea0:	aaa50513          	addi	a0,a0,-1366 # aaaaaaaa <_end+0xaaaa3fa6>
     ea4:	aaaab5b7          	lui	a1,0xaaaab
     ea8:	aab58593          	addi	a1,a1,-1365 # aaaaaaab <_end+0xaaaa3fa7>
     eac:	02b51633          	mulh	a2,a0,a1
     eb0:	20c0a223          	sw	a2,516(ra)

00000eb4 <inst_161>:
     eb4:	aaaab537          	lui	a0,0xaaaab
     eb8:	aaa50513          	addi	a0,a0,-1366 # aaaaaaaa <_end+0xaaaa3fa6>
     ebc:	00600593          	li	a1,6
     ec0:	02b51633          	mulh	a2,a0,a1
     ec4:	20c0a423          	sw	a2,520(ra)

00000ec8 <inst_162>:
     ec8:	aaaab537          	lui	a0,0xaaaab
     ecc:	aaa50513          	addi	a0,a0,-1366 # aaaaaaaa <_end+0xaaaa3fa6>
     ed0:	333335b7          	lui	a1,0x33333
     ed4:	33458593          	addi	a1,a1,820 # 33333334 <_end+0x3332c830>
     ed8:	02b51633          	mulh	a2,a0,a1
     edc:	20c0a623          	sw	a2,524(ra)

00000ee0 <inst_163>:
     ee0:	aaaab537          	lui	a0,0xaaaab
     ee4:	aaa50513          	addi	a0,a0,-1366 # aaaaaaaa <_end+0xaaaa3fa6>
     ee8:	666665b7          	lui	a1,0x66666
     eec:	66758593          	addi	a1,a1,1639 # 66666667 <_end+0x6665fb63>
     ef0:	02b51633          	mulh	a2,a0,a1
     ef4:	20c0a823          	sw	a2,528(ra)

00000ef8 <inst_164>:
     ef8:	aaaab537          	lui	a0,0xaaaab
     efc:	aaa50513          	addi	a0,a0,-1366 # aaaaaaaa <_end+0xaaaa3fa6>
     f00:	ffff55b7          	lui	a1,0xffff5
     f04:	afd58593          	addi	a1,a1,-1283 # ffff4afd <_end+0xfffedff9>
     f08:	02b51633          	mulh	a2,a0,a1
     f0c:	20c0aa23          	sw	a2,532(ra)

00000f10 <inst_165>:
     f10:	aaaab537          	lui	a0,0xaaaab
     f14:	aaa50513          	addi	a0,a0,-1366 # aaaaaaaa <_end+0xaaaa3fa6>
     f18:	0000b5b7          	lui	a1,0xb
     f1c:	50558593          	addi	a1,a1,1285 # b505 <_end+0x4a01>
     f20:	02b51633          	mulh	a2,a0,a1
     f24:	20c0ac23          	sw	a2,536(ra)

00000f28 <inst_166>:
     f28:	00500513          	li	a0,5
     f2c:	00300593          	li	a1,3
     f30:	02b51633          	mulh	a2,a0,a1
     f34:	20c0ae23          	sw	a2,540(ra)

00000f38 <inst_167>:
     f38:	00500513          	li	a0,5
     f3c:	555555b7          	lui	a1,0x55555
     f40:	55558593          	addi	a1,a1,1365 # 55555555 <_end+0x5554ea51>
     f44:	02b51633          	mulh	a2,a0,a1
     f48:	22c0a023          	sw	a2,544(ra)

00000f4c <inst_168>:
     f4c:	00500513          	li	a0,5
     f50:	aaaab5b7          	lui	a1,0xaaaab
     f54:	aaa58593          	addi	a1,a1,-1366 # aaaaaaaa <_end+0xaaaa3fa6>
     f58:	02b51633          	mulh	a2,a0,a1
     f5c:	22c0a223          	sw	a2,548(ra)

00000f60 <inst_169>:
     f60:	00500513          	li	a0,5
     f64:	00500593          	li	a1,5
     f68:	02b51633          	mulh	a2,a0,a1
     f6c:	22c0a423          	sw	a2,552(ra)

00000f70 <inst_170>:
     f70:	00500513          	li	a0,5
     f74:	333335b7          	lui	a1,0x33333
     f78:	33358593          	addi	a1,a1,819 # 33333333 <_end+0x3332c82f>
     f7c:	02b51633          	mulh	a2,a0,a1
     f80:	22c0a623          	sw	a2,556(ra)

00000f84 <inst_171>:
     f84:	00500513          	li	a0,5
     f88:	666665b7          	lui	a1,0x66666
     f8c:	66658593          	addi	a1,a1,1638 # 66666666 <_end+0x6665fb62>
     f90:	02b51633          	mulh	a2,a0,a1
     f94:	22c0a823          	sw	a2,560(ra)

00000f98 <inst_172>:
     f98:	00500513          	li	a0,5
     f9c:	ffff55b7          	lui	a1,0xffff5
     fa0:	afc58593          	addi	a1,a1,-1284 # ffff4afc <_end+0xfffedff8>
     fa4:	02b51633          	mulh	a2,a0,a1
     fa8:	22c0aa23          	sw	a2,564(ra)

00000fac <inst_173>:
     fac:	00500513          	li	a0,5
     fb0:	0000b5b7          	lui	a1,0xb
     fb4:	50458593          	addi	a1,a1,1284 # b504 <_end+0x4a00>
     fb8:	02b51633          	mulh	a2,a0,a1
     fbc:	22c0ac23          	sw	a2,568(ra)

00000fc0 <inst_174>:
     fc0:	00500513          	li	a0,5
     fc4:	00200593          	li	a1,2
     fc8:	02b51633          	mulh	a2,a0,a1
     fcc:	22c0ae23          	sw	a2,572(ra)

00000fd0 <inst_175>:
     fd0:	00500513          	li	a0,5
     fd4:	555555b7          	lui	a1,0x55555
     fd8:	55458593          	addi	a1,a1,1364 # 55555554 <_end+0x5554ea50>
     fdc:	02b51633          	mulh	a2,a0,a1
     fe0:	24c0a023          	sw	a2,576(ra)

00000fe4 <inst_176>:
     fe4:	00500513          	li	a0,5
     fe8:	00000593          	li	a1,0
     fec:	02b51633          	mulh	a2,a0,a1
     ff0:	24c0a223          	sw	a2,580(ra)

00000ff4 <inst_177>:
     ff4:	00500513          	li	a0,5
     ff8:	00400593          	li	a1,4
     ffc:	02b51633          	mulh	a2,a0,a1
    1000:	24c0a423          	sw	a2,584(ra)

00001004 <inst_178>:
    1004:	00500513          	li	a0,5
    1008:	333335b7          	lui	a1,0x33333
    100c:	33258593          	addi	a1,a1,818 # 33333332 <_end+0x3332c82e>
    1010:	02b51633          	mulh	a2,a0,a1
    1014:	24c0a623          	sw	a2,588(ra)

00001018 <inst_179>:
    1018:	00500513          	li	a0,5
    101c:	666665b7          	lui	a1,0x66666
    1020:	66558593          	addi	a1,a1,1637 # 66666665 <_end+0x6665fb61>
    1024:	02b51633          	mulh	a2,a0,a1
    1028:	24c0a823          	sw	a2,592(ra)

0000102c <inst_180>:
    102c:	00500513          	li	a0,5
    1030:	0000b5b7          	lui	a1,0xb
    1034:	50358593          	addi	a1,a1,1283 # b503 <_end+0x49ff>
    1038:	02b51633          	mulh	a2,a0,a1
    103c:	24c0aa23          	sw	a2,596(ra)

00001040 <inst_181>:
    1040:	00500513          	li	a0,5
    1044:	555555b7          	lui	a1,0x55555
    1048:	55658593          	addi	a1,a1,1366 # 55555556 <_end+0x5554ea52>
    104c:	02b51633          	mulh	a2,a0,a1
    1050:	24c0ac23          	sw	a2,600(ra)

00001054 <inst_182>:
    1054:	00500513          	li	a0,5
    1058:	aaaab5b7          	lui	a1,0xaaaab
    105c:	aab58593          	addi	a1,a1,-1365 # aaaaaaab <_end+0xaaaa3fa7>
    1060:	02b51633          	mulh	a2,a0,a1
    1064:	24c0ae23          	sw	a2,604(ra)

00001068 <inst_183>:
    1068:	00500513          	li	a0,5
    106c:	00600593          	li	a1,6
    1070:	02b51633          	mulh	a2,a0,a1
    1074:	26c0a023          	sw	a2,608(ra)

00001078 <inst_184>:
    1078:	00500513          	li	a0,5
    107c:	333335b7          	lui	a1,0x33333
    1080:	33458593          	addi	a1,a1,820 # 33333334 <_end+0x3332c830>
    1084:	02b51633          	mulh	a2,a0,a1
    1088:	26c0a223          	sw	a2,612(ra)

0000108c <inst_185>:
    108c:	00500513          	li	a0,5
    1090:	666665b7          	lui	a1,0x66666
    1094:	66758593          	addi	a1,a1,1639 # 66666667 <_end+0x6665fb63>
    1098:	02b51633          	mulh	a2,a0,a1
    109c:	26c0a423          	sw	a2,616(ra)

000010a0 <inst_186>:
    10a0:	00500513          	li	a0,5
    10a4:	ffff55b7          	lui	a1,0xffff5
    10a8:	afd58593          	addi	a1,a1,-1283 # ffff4afd <_end+0xfffedff9>
    10ac:	02b51633          	mulh	a2,a0,a1
    10b0:	26c0a623          	sw	a2,620(ra)

000010b4 <inst_187>:
    10b4:	00500513          	li	a0,5
    10b8:	0000b5b7          	lui	a1,0xb
    10bc:	50558593          	addi	a1,a1,1285 # b505 <_end+0x4a01>
    10c0:	02b51633          	mulh	a2,a0,a1
    10c4:	26c0a823          	sw	a2,624(ra)

000010c8 <inst_188>:
    10c8:	33333537          	lui	a0,0x33333
    10cc:	33350513          	addi	a0,a0,819 # 33333333 <_end+0x3332c82f>
    10d0:	00300593          	li	a1,3
    10d4:	02b51633          	mulh	a2,a0,a1
    10d8:	26c0aa23          	sw	a2,628(ra)

000010dc <inst_189>:
    10dc:	33333537          	lui	a0,0x33333
    10e0:	33350513          	addi	a0,a0,819 # 33333333 <_end+0x3332c82f>
    10e4:	555555b7          	lui	a1,0x55555
    10e8:	55558593          	addi	a1,a1,1365 # 55555555 <_end+0x5554ea51>
    10ec:	02b51633          	mulh	a2,a0,a1
    10f0:	26c0ac23          	sw	a2,632(ra)

000010f4 <inst_190>:
    10f4:	33333537          	lui	a0,0x33333
    10f8:	33350513          	addi	a0,a0,819 # 33333333 <_end+0x3332c82f>
    10fc:	aaaab5b7          	lui	a1,0xaaaab
    1100:	aaa58593          	addi	a1,a1,-1366 # aaaaaaaa <_end+0xaaaa3fa6>
    1104:	02b51633          	mulh	a2,a0,a1
    1108:	26c0ae23          	sw	a2,636(ra)

0000110c <inst_191>:
    110c:	33333537          	lui	a0,0x33333
    1110:	33350513          	addi	a0,a0,819 # 33333333 <_end+0x3332c82f>
    1114:	00500593          	li	a1,5
    1118:	02b51633          	mulh	a2,a0,a1
    111c:	28c0a023          	sw	a2,640(ra)

00001120 <inst_192>:
    1120:	33333537          	lui	a0,0x33333
    1124:	33350513          	addi	a0,a0,819 # 33333333 <_end+0x3332c82f>
    1128:	333335b7          	lui	a1,0x33333
    112c:	33358593          	addi	a1,a1,819 # 33333333 <_end+0x3332c82f>
    1130:	02b51633          	mulh	a2,a0,a1
    1134:	28c0a223          	sw	a2,644(ra)

00001138 <inst_193>:
    1138:	33333537          	lui	a0,0x33333
    113c:	33350513          	addi	a0,a0,819 # 33333333 <_end+0x3332c82f>
    1140:	666665b7          	lui	a1,0x66666
    1144:	66658593          	addi	a1,a1,1638 # 66666666 <_end+0x6665fb62>
    1148:	02b51633          	mulh	a2,a0,a1
    114c:	28c0a423          	sw	a2,648(ra)

00001150 <inst_194>:
    1150:	33333537          	lui	a0,0x33333
    1154:	33350513          	addi	a0,a0,819 # 33333333 <_end+0x3332c82f>
    1158:	ffff55b7          	lui	a1,0xffff5
    115c:	afc58593          	addi	a1,a1,-1284 # ffff4afc <_end+0xfffedff8>
    1160:	02b51633          	mulh	a2,a0,a1
    1164:	28c0a623          	sw	a2,652(ra)

00001168 <inst_195>:
    1168:	33333537          	lui	a0,0x33333
    116c:	33350513          	addi	a0,a0,819 # 33333333 <_end+0x3332c82f>
    1170:	0000b5b7          	lui	a1,0xb
    1174:	50458593          	addi	a1,a1,1284 # b504 <_end+0x4a00>
    1178:	02b51633          	mulh	a2,a0,a1
    117c:	28c0a823          	sw	a2,656(ra)

00001180 <inst_196>:
    1180:	33333537          	lui	a0,0x33333
    1184:	33350513          	addi	a0,a0,819 # 33333333 <_end+0x3332c82f>
    1188:	00200593          	li	a1,2
    118c:	02b51633          	mulh	a2,a0,a1
    1190:	28c0aa23          	sw	a2,660(ra)

00001194 <inst_197>:
    1194:	33333537          	lui	a0,0x33333
    1198:	33350513          	addi	a0,a0,819 # 33333333 <_end+0x3332c82f>
    119c:	555555b7          	lui	a1,0x55555
    11a0:	55458593          	addi	a1,a1,1364 # 55555554 <_end+0x5554ea50>
    11a4:	02b51633          	mulh	a2,a0,a1
    11a8:	28c0ac23          	sw	a2,664(ra)

000011ac <inst_198>:
    11ac:	33333537          	lui	a0,0x33333
    11b0:	33350513          	addi	a0,a0,819 # 33333333 <_end+0x3332c82f>
    11b4:	00000593          	li	a1,0
    11b8:	02b51633          	mulh	a2,a0,a1
    11bc:	28c0ae23          	sw	a2,668(ra)

000011c0 <inst_199>:
    11c0:	33333537          	lui	a0,0x33333
    11c4:	33350513          	addi	a0,a0,819 # 33333333 <_end+0x3332c82f>
    11c8:	00400593          	li	a1,4
    11cc:	02b51633          	mulh	a2,a0,a1
    11d0:	2ac0a023          	sw	a2,672(ra)

000011d4 <inst_200>:
    11d4:	33333537          	lui	a0,0x33333
    11d8:	33350513          	addi	a0,a0,819 # 33333333 <_end+0x3332c82f>
    11dc:	333335b7          	lui	a1,0x33333
    11e0:	33258593          	addi	a1,a1,818 # 33333332 <_end+0x3332c82e>
    11e4:	02b51633          	mulh	a2,a0,a1
    11e8:	2ac0a223          	sw	a2,676(ra)

000011ec <inst_201>:
    11ec:	33333537          	lui	a0,0x33333
    11f0:	33350513          	addi	a0,a0,819 # 33333333 <_end+0x3332c82f>
    11f4:	666665b7          	lui	a1,0x66666
    11f8:	66558593          	addi	a1,a1,1637 # 66666665 <_end+0x6665fb61>
    11fc:	02b51633          	mulh	a2,a0,a1
    1200:	2ac0a423          	sw	a2,680(ra)

00001204 <inst_202>:
    1204:	33333537          	lui	a0,0x33333
    1208:	33350513          	addi	a0,a0,819 # 33333333 <_end+0x3332c82f>
    120c:	0000b5b7          	lui	a1,0xb
    1210:	50358593          	addi	a1,a1,1283 # b503 <_end+0x49ff>
    1214:	02b51633          	mulh	a2,a0,a1
    1218:	2ac0a623          	sw	a2,684(ra)

0000121c <inst_203>:
    121c:	33333537          	lui	a0,0x33333
    1220:	33350513          	addi	a0,a0,819 # 33333333 <_end+0x3332c82f>
    1224:	555555b7          	lui	a1,0x55555
    1228:	55658593          	addi	a1,a1,1366 # 55555556 <_end+0x5554ea52>
    122c:	02b51633          	mulh	a2,a0,a1
    1230:	2ac0a823          	sw	a2,688(ra)

00001234 <inst_204>:
    1234:	33333537          	lui	a0,0x33333
    1238:	33350513          	addi	a0,a0,819 # 33333333 <_end+0x3332c82f>
    123c:	aaaab5b7          	lui	a1,0xaaaab
    1240:	aab58593          	addi	a1,a1,-1365 # aaaaaaab <_end+0xaaaa3fa7>
    1244:	02b51633          	mulh	a2,a0,a1
    1248:	2ac0aa23          	sw	a2,692(ra)

0000124c <inst_205>:
    124c:	33333537          	lui	a0,0x33333
    1250:	33350513          	addi	a0,a0,819 # 33333333 <_end+0x3332c82f>
    1254:	00600593          	li	a1,6
    1258:	02b51633          	mulh	a2,a0,a1
    125c:	2ac0ac23          	sw	a2,696(ra)

00001260 <inst_206>:
    1260:	33333537          	lui	a0,0x33333
    1264:	33350513          	addi	a0,a0,819 # 33333333 <_end+0x3332c82f>
    1268:	333335b7          	lui	a1,0x33333
    126c:	33458593          	addi	a1,a1,820 # 33333334 <_end+0x3332c830>
    1270:	02b51633          	mulh	a2,a0,a1
    1274:	2ac0ae23          	sw	a2,700(ra)

00001278 <inst_207>:
    1278:	33333537          	lui	a0,0x33333
    127c:	33350513          	addi	a0,a0,819 # 33333333 <_end+0x3332c82f>
    1280:	666665b7          	lui	a1,0x66666
    1284:	66758593          	addi	a1,a1,1639 # 66666667 <_end+0x6665fb63>
    1288:	02b51633          	mulh	a2,a0,a1
    128c:	2cc0a023          	sw	a2,704(ra)

00001290 <inst_208>:
    1290:	33333537          	lui	a0,0x33333
    1294:	33350513          	addi	a0,a0,819 # 33333333 <_end+0x3332c82f>
    1298:	ffff55b7          	lui	a1,0xffff5
    129c:	afd58593          	addi	a1,a1,-1283 # ffff4afd <_end+0xfffedff9>
    12a0:	02b51633          	mulh	a2,a0,a1
    12a4:	2cc0a223          	sw	a2,708(ra)

000012a8 <inst_209>:
    12a8:	33333537          	lui	a0,0x33333
    12ac:	33350513          	addi	a0,a0,819 # 33333333 <_end+0x3332c82f>
    12b0:	0000b5b7          	lui	a1,0xb
    12b4:	50558593          	addi	a1,a1,1285 # b505 <_end+0x4a01>
    12b8:	02b51633          	mulh	a2,a0,a1
    12bc:	2cc0a423          	sw	a2,712(ra)

000012c0 <inst_210>:
    12c0:	66666537          	lui	a0,0x66666
    12c4:	66650513          	addi	a0,a0,1638 # 66666666 <_end+0x6665fb62>
    12c8:	00300593          	li	a1,3
    12cc:	02b51633          	mulh	a2,a0,a1
    12d0:	2cc0a623          	sw	a2,716(ra)

000012d4 <inst_211>:
    12d4:	66666537          	lui	a0,0x66666
    12d8:	66650513          	addi	a0,a0,1638 # 66666666 <_end+0x6665fb62>
    12dc:	555555b7          	lui	a1,0x55555
    12e0:	55558593          	addi	a1,a1,1365 # 55555555 <_end+0x5554ea51>
    12e4:	02b51633          	mulh	a2,a0,a1
    12e8:	2cc0a823          	sw	a2,720(ra)

000012ec <inst_212>:
    12ec:	66666537          	lui	a0,0x66666
    12f0:	66650513          	addi	a0,a0,1638 # 66666666 <_end+0x6665fb62>
    12f4:	aaaab5b7          	lui	a1,0xaaaab
    12f8:	aaa58593          	addi	a1,a1,-1366 # aaaaaaaa <_end+0xaaaa3fa6>
    12fc:	02b51633          	mulh	a2,a0,a1
    1300:	2cc0aa23          	sw	a2,724(ra)

00001304 <inst_213>:
    1304:	66666537          	lui	a0,0x66666
    1308:	66650513          	addi	a0,a0,1638 # 66666666 <_end+0x6665fb62>
    130c:	00500593          	li	a1,5
    1310:	02b51633          	mulh	a2,a0,a1
    1314:	2cc0ac23          	sw	a2,728(ra)

00001318 <inst_214>:
    1318:	66666537          	lui	a0,0x66666
    131c:	66650513          	addi	a0,a0,1638 # 66666666 <_end+0x6665fb62>
    1320:	333335b7          	lui	a1,0x33333
    1324:	33358593          	addi	a1,a1,819 # 33333333 <_end+0x3332c82f>
    1328:	02b51633          	mulh	a2,a0,a1
    132c:	2cc0ae23          	sw	a2,732(ra)

00001330 <inst_215>:
    1330:	66666537          	lui	a0,0x66666
    1334:	66650513          	addi	a0,a0,1638 # 66666666 <_end+0x6665fb62>
    1338:	666665b7          	lui	a1,0x66666
    133c:	66658593          	addi	a1,a1,1638 # 66666666 <_end+0x6665fb62>
    1340:	02b51633          	mulh	a2,a0,a1
    1344:	2ec0a023          	sw	a2,736(ra)

00001348 <inst_216>:
    1348:	66666537          	lui	a0,0x66666
    134c:	66650513          	addi	a0,a0,1638 # 66666666 <_end+0x6665fb62>
    1350:	ffff55b7          	lui	a1,0xffff5
    1354:	afc58593          	addi	a1,a1,-1284 # ffff4afc <_end+0xfffedff8>
    1358:	02b51633          	mulh	a2,a0,a1
    135c:	2ec0a223          	sw	a2,740(ra)

00001360 <inst_217>:
    1360:	66666537          	lui	a0,0x66666
    1364:	66650513          	addi	a0,a0,1638 # 66666666 <_end+0x6665fb62>
    1368:	0000b5b7          	lui	a1,0xb
    136c:	50458593          	addi	a1,a1,1284 # b504 <_end+0x4a00>
    1370:	02b51633          	mulh	a2,a0,a1
    1374:	2ec0a423          	sw	a2,744(ra)

00001378 <inst_218>:
    1378:	66666537          	lui	a0,0x66666
    137c:	66650513          	addi	a0,a0,1638 # 66666666 <_end+0x6665fb62>
    1380:	00200593          	li	a1,2
    1384:	02b51633          	mulh	a2,a0,a1
    1388:	2ec0a623          	sw	a2,748(ra)

0000138c <inst_219>:
    138c:	66666537          	lui	a0,0x66666
    1390:	66650513          	addi	a0,a0,1638 # 66666666 <_end+0x6665fb62>
    1394:	555555b7          	lui	a1,0x55555
    1398:	55458593          	addi	a1,a1,1364 # 55555554 <_end+0x5554ea50>
    139c:	02b51633          	mulh	a2,a0,a1
    13a0:	2ec0a823          	sw	a2,752(ra)

000013a4 <inst_220>:
    13a4:	66666537          	lui	a0,0x66666
    13a8:	66650513          	addi	a0,a0,1638 # 66666666 <_end+0x6665fb62>
    13ac:	00000593          	li	a1,0
    13b0:	02b51633          	mulh	a2,a0,a1
    13b4:	2ec0aa23          	sw	a2,756(ra)

000013b8 <inst_221>:
    13b8:	66666537          	lui	a0,0x66666
    13bc:	66650513          	addi	a0,a0,1638 # 66666666 <_end+0x6665fb62>
    13c0:	00400593          	li	a1,4
    13c4:	02b51633          	mulh	a2,a0,a1
    13c8:	2ec0ac23          	sw	a2,760(ra)

000013cc <inst_222>:
    13cc:	66666537          	lui	a0,0x66666
    13d0:	66650513          	addi	a0,a0,1638 # 66666666 <_end+0x6665fb62>
    13d4:	333335b7          	lui	a1,0x33333
    13d8:	33258593          	addi	a1,a1,818 # 33333332 <_end+0x3332c82e>
    13dc:	02b51633          	mulh	a2,a0,a1
    13e0:	2ec0ae23          	sw	a2,764(ra)

000013e4 <inst_223>:
    13e4:	66666537          	lui	a0,0x66666
    13e8:	66650513          	addi	a0,a0,1638 # 66666666 <_end+0x6665fb62>
    13ec:	666665b7          	lui	a1,0x66666
    13f0:	66558593          	addi	a1,a1,1637 # 66666665 <_end+0x6665fb61>
    13f4:	02b51633          	mulh	a2,a0,a1
    13f8:	30c0a023          	sw	a2,768(ra)

000013fc <inst_224>:
    13fc:	66666537          	lui	a0,0x66666
    1400:	66650513          	addi	a0,a0,1638 # 66666666 <_end+0x6665fb62>
    1404:	0000b5b7          	lui	a1,0xb
    1408:	50358593          	addi	a1,a1,1283 # b503 <_end+0x49ff>
    140c:	02b51633          	mulh	a2,a0,a1
    1410:	30c0a223          	sw	a2,772(ra)

00001414 <inst_225>:
    1414:	66666537          	lui	a0,0x66666
    1418:	66650513          	addi	a0,a0,1638 # 66666666 <_end+0x6665fb62>
    141c:	555555b7          	lui	a1,0x55555
    1420:	55658593          	addi	a1,a1,1366 # 55555556 <_end+0x5554ea52>
    1424:	02b51633          	mulh	a2,a0,a1
    1428:	30c0a423          	sw	a2,776(ra)

0000142c <inst_226>:
    142c:	66666537          	lui	a0,0x66666
    1430:	66650513          	addi	a0,a0,1638 # 66666666 <_end+0x6665fb62>
    1434:	aaaab5b7          	lui	a1,0xaaaab
    1438:	aab58593          	addi	a1,a1,-1365 # aaaaaaab <_end+0xaaaa3fa7>
    143c:	02b51633          	mulh	a2,a0,a1
    1440:	30c0a623          	sw	a2,780(ra)

00001444 <inst_227>:
    1444:	66666537          	lui	a0,0x66666
    1448:	66650513          	addi	a0,a0,1638 # 66666666 <_end+0x6665fb62>
    144c:	00600593          	li	a1,6
    1450:	02b51633          	mulh	a2,a0,a1
    1454:	30c0a823          	sw	a2,784(ra)

00001458 <inst_228>:
    1458:	66666537          	lui	a0,0x66666
    145c:	66650513          	addi	a0,a0,1638 # 66666666 <_end+0x6665fb62>
    1460:	333335b7          	lui	a1,0x33333
    1464:	33458593          	addi	a1,a1,820 # 33333334 <_end+0x3332c830>
    1468:	02b51633          	mulh	a2,a0,a1
    146c:	30c0aa23          	sw	a2,788(ra)

00001470 <inst_229>:
    1470:	66666537          	lui	a0,0x66666
    1474:	66650513          	addi	a0,a0,1638 # 66666666 <_end+0x6665fb62>
    1478:	666665b7          	lui	a1,0x66666
    147c:	66758593          	addi	a1,a1,1639 # 66666667 <_end+0x6665fb63>
    1480:	02b51633          	mulh	a2,a0,a1
    1484:	30c0ac23          	sw	a2,792(ra)

00001488 <inst_230>:
    1488:	66666537          	lui	a0,0x66666
    148c:	66650513          	addi	a0,a0,1638 # 66666666 <_end+0x6665fb62>
    1490:	ffff55b7          	lui	a1,0xffff5
    1494:	afd58593          	addi	a1,a1,-1283 # ffff4afd <_end+0xfffedff9>
    1498:	02b51633          	mulh	a2,a0,a1
    149c:	30c0ae23          	sw	a2,796(ra)

000014a0 <inst_231>:
    14a0:	66666537          	lui	a0,0x66666
    14a4:	66650513          	addi	a0,a0,1638 # 66666666 <_end+0x6665fb62>
    14a8:	0000b5b7          	lui	a1,0xb
    14ac:	50558593          	addi	a1,a1,1285 # b505 <_end+0x4a01>
    14b0:	02b51633          	mulh	a2,a0,a1
    14b4:	32c0a023          	sw	a2,800(ra)

000014b8 <inst_232>:
    14b8:	ffff5537          	lui	a0,0xffff5
    14bc:	afc50513          	addi	a0,a0,-1284 # ffff4afc <_end+0xfffedff8>
    14c0:	00300593          	li	a1,3
    14c4:	02b51633          	mulh	a2,a0,a1
    14c8:	32c0a223          	sw	a2,804(ra)

000014cc <inst_233>:
    14cc:	ffff5537          	lui	a0,0xffff5
    14d0:	afc50513          	addi	a0,a0,-1284 # ffff4afc <_end+0xfffedff8>
    14d4:	555555b7          	lui	a1,0x55555
    14d8:	55558593          	addi	a1,a1,1365 # 55555555 <_end+0x5554ea51>
    14dc:	02b51633          	mulh	a2,a0,a1
    14e0:	32c0a423          	sw	a2,808(ra)

000014e4 <inst_234>:
    14e4:	ffff5537          	lui	a0,0xffff5
    14e8:	afc50513          	addi	a0,a0,-1284 # ffff4afc <_end+0xfffedff8>
    14ec:	aaaab5b7          	lui	a1,0xaaaab
    14f0:	aaa58593          	addi	a1,a1,-1366 # aaaaaaaa <_end+0xaaaa3fa6>
    14f4:	02b51633          	mulh	a2,a0,a1
    14f8:	32c0a623          	sw	a2,812(ra)

000014fc <inst_235>:
    14fc:	ffff5537          	lui	a0,0xffff5
    1500:	afc50513          	addi	a0,a0,-1284 # ffff4afc <_end+0xfffedff8>
    1504:	00500593          	li	a1,5
    1508:	02b51633          	mulh	a2,a0,a1
    150c:	32c0a823          	sw	a2,816(ra)

00001510 <inst_236>:
    1510:	ffff5537          	lui	a0,0xffff5
    1514:	afc50513          	addi	a0,a0,-1284 # ffff4afc <_end+0xfffedff8>
    1518:	333335b7          	lui	a1,0x33333
    151c:	33358593          	addi	a1,a1,819 # 33333333 <_end+0x3332c82f>
    1520:	02b51633          	mulh	a2,a0,a1
    1524:	32c0aa23          	sw	a2,820(ra)

00001528 <inst_237>:
    1528:	ffff5537          	lui	a0,0xffff5
    152c:	afc50513          	addi	a0,a0,-1284 # ffff4afc <_end+0xfffedff8>
    1530:	666665b7          	lui	a1,0x66666
    1534:	66658593          	addi	a1,a1,1638 # 66666666 <_end+0x6665fb62>
    1538:	02b51633          	mulh	a2,a0,a1
    153c:	32c0ac23          	sw	a2,824(ra)

00001540 <inst_238>:
    1540:	ffff5537          	lui	a0,0xffff5
    1544:	afc50513          	addi	a0,a0,-1284 # ffff4afc <_end+0xfffedff8>
    1548:	ffff55b7          	lui	a1,0xffff5
    154c:	afc58593          	addi	a1,a1,-1284 # ffff4afc <_end+0xfffedff8>
    1550:	02b51633          	mulh	a2,a0,a1
    1554:	32c0ae23          	sw	a2,828(ra)

00001558 <inst_239>:
    1558:	ffff5537          	lui	a0,0xffff5
    155c:	afc50513          	addi	a0,a0,-1284 # ffff4afc <_end+0xfffedff8>
    1560:	0000b5b7          	lui	a1,0xb
    1564:	50458593          	addi	a1,a1,1284 # b504 <_end+0x4a00>
    1568:	02b51633          	mulh	a2,a0,a1
    156c:	34c0a023          	sw	a2,832(ra)

00001570 <inst_240>:
    1570:	ffff5537          	lui	a0,0xffff5
    1574:	afc50513          	addi	a0,a0,-1284 # ffff4afc <_end+0xfffedff8>
    1578:	00200593          	li	a1,2
    157c:	02b51633          	mulh	a2,a0,a1
    1580:	34c0a223          	sw	a2,836(ra)

00001584 <inst_241>:
    1584:	ffff5537          	lui	a0,0xffff5
    1588:	afc50513          	addi	a0,a0,-1284 # ffff4afc <_end+0xfffedff8>
    158c:	555555b7          	lui	a1,0x55555
    1590:	55458593          	addi	a1,a1,1364 # 55555554 <_end+0x5554ea50>
    1594:	02b51633          	mulh	a2,a0,a1
    1598:	34c0a423          	sw	a2,840(ra)

0000159c <inst_242>:
    159c:	ffff5537          	lui	a0,0xffff5
    15a0:	afc50513          	addi	a0,a0,-1284 # ffff4afc <_end+0xfffedff8>
    15a4:	00000593          	li	a1,0
    15a8:	02b51633          	mulh	a2,a0,a1
    15ac:	34c0a623          	sw	a2,844(ra)

000015b0 <inst_243>:
    15b0:	ffff5537          	lui	a0,0xffff5
    15b4:	afc50513          	addi	a0,a0,-1284 # ffff4afc <_end+0xfffedff8>
    15b8:	00400593          	li	a1,4
    15bc:	02b51633          	mulh	a2,a0,a1
    15c0:	34c0a823          	sw	a2,848(ra)

000015c4 <inst_244>:
    15c4:	ffff5537          	lui	a0,0xffff5
    15c8:	afc50513          	addi	a0,a0,-1284 # ffff4afc <_end+0xfffedff8>
    15cc:	333335b7          	lui	a1,0x33333
    15d0:	33258593          	addi	a1,a1,818 # 33333332 <_end+0x3332c82e>
    15d4:	02b51633          	mulh	a2,a0,a1
    15d8:	34c0aa23          	sw	a2,852(ra)

000015dc <inst_245>:
    15dc:	ffff5537          	lui	a0,0xffff5
    15e0:	afc50513          	addi	a0,a0,-1284 # ffff4afc <_end+0xfffedff8>
    15e4:	666665b7          	lui	a1,0x66666
    15e8:	66558593          	addi	a1,a1,1637 # 66666665 <_end+0x6665fb61>
    15ec:	02b51633          	mulh	a2,a0,a1
    15f0:	34c0ac23          	sw	a2,856(ra)

000015f4 <inst_246>:
    15f4:	ffff5537          	lui	a0,0xffff5
    15f8:	afc50513          	addi	a0,a0,-1284 # ffff4afc <_end+0xfffedff8>
    15fc:	0000b5b7          	lui	a1,0xb
    1600:	50358593          	addi	a1,a1,1283 # b503 <_end+0x49ff>
    1604:	02b51633          	mulh	a2,a0,a1
    1608:	34c0ae23          	sw	a2,860(ra)

0000160c <inst_247>:
    160c:	ffff5537          	lui	a0,0xffff5
    1610:	afc50513          	addi	a0,a0,-1284 # ffff4afc <_end+0xfffedff8>
    1614:	555555b7          	lui	a1,0x55555
    1618:	55658593          	addi	a1,a1,1366 # 55555556 <_end+0x5554ea52>
    161c:	02b51633          	mulh	a2,a0,a1
    1620:	36c0a023          	sw	a2,864(ra)

00001624 <inst_248>:
    1624:	ffff5537          	lui	a0,0xffff5
    1628:	afc50513          	addi	a0,a0,-1284 # ffff4afc <_end+0xfffedff8>
    162c:	aaaab5b7          	lui	a1,0xaaaab
    1630:	aab58593          	addi	a1,a1,-1365 # aaaaaaab <_end+0xaaaa3fa7>
    1634:	02b51633          	mulh	a2,a0,a1
    1638:	36c0a223          	sw	a2,868(ra)

0000163c <inst_249>:
    163c:	ffff5537          	lui	a0,0xffff5
    1640:	afc50513          	addi	a0,a0,-1284 # ffff4afc <_end+0xfffedff8>
    1644:	00600593          	li	a1,6
    1648:	02b51633          	mulh	a2,a0,a1
    164c:	36c0a423          	sw	a2,872(ra)

00001650 <inst_250>:
    1650:	ffff5537          	lui	a0,0xffff5
    1654:	afc50513          	addi	a0,a0,-1284 # ffff4afc <_end+0xfffedff8>
    1658:	333335b7          	lui	a1,0x33333
    165c:	33458593          	addi	a1,a1,820 # 33333334 <_end+0x3332c830>
    1660:	02b51633          	mulh	a2,a0,a1
    1664:	36c0a623          	sw	a2,876(ra)

00001668 <inst_251>:
    1668:	ffff5537          	lui	a0,0xffff5
    166c:	afc50513          	addi	a0,a0,-1284 # ffff4afc <_end+0xfffedff8>
    1670:	666665b7          	lui	a1,0x66666
    1674:	66758593          	addi	a1,a1,1639 # 66666667 <_end+0x6665fb63>
    1678:	02b51633          	mulh	a2,a0,a1
    167c:	36c0a823          	sw	a2,880(ra)

00001680 <inst_252>:
    1680:	ffff5537          	lui	a0,0xffff5
    1684:	afc50513          	addi	a0,a0,-1284 # ffff4afc <_end+0xfffedff8>
    1688:	ffff55b7          	lui	a1,0xffff5
    168c:	afd58593          	addi	a1,a1,-1283 # ffff4afd <_end+0xfffedff9>
    1690:	02b51633          	mulh	a2,a0,a1
    1694:	36c0aa23          	sw	a2,884(ra)

00001698 <inst_253>:
    1698:	ffff5537          	lui	a0,0xffff5
    169c:	afc50513          	addi	a0,a0,-1284 # ffff4afc <_end+0xfffedff8>
    16a0:	0000b5b7          	lui	a1,0xb
    16a4:	50558593          	addi	a1,a1,1285 # b505 <_end+0x4a01>
    16a8:	02b51633          	mulh	a2,a0,a1
    16ac:	36c0ac23          	sw	a2,888(ra)

000016b0 <inst_254>:
    16b0:	0000b537          	lui	a0,0xb
    16b4:	50450513          	addi	a0,a0,1284 # b504 <_end+0x4a00>
    16b8:	00300593          	li	a1,3
    16bc:	02b51633          	mulh	a2,a0,a1
    16c0:	36c0ae23          	sw	a2,892(ra)

000016c4 <inst_255>:
    16c4:	0000b537          	lui	a0,0xb
    16c8:	50450513          	addi	a0,a0,1284 # b504 <_end+0x4a00>
    16cc:	555555b7          	lui	a1,0x55555
    16d0:	55558593          	addi	a1,a1,1365 # 55555555 <_end+0x5554ea51>
    16d4:	02b51633          	mulh	a2,a0,a1
    16d8:	38c0a023          	sw	a2,896(ra)

000016dc <inst_256>:
    16dc:	0000b537          	lui	a0,0xb
    16e0:	50450513          	addi	a0,a0,1284 # b504 <_end+0x4a00>
    16e4:	aaaab5b7          	lui	a1,0xaaaab
    16e8:	aaa58593          	addi	a1,a1,-1366 # aaaaaaaa <_end+0xaaaa3fa6>
    16ec:	02b51633          	mulh	a2,a0,a1
    16f0:	38c0a223          	sw	a2,900(ra)

000016f4 <inst_257>:
    16f4:	0000b537          	lui	a0,0xb
    16f8:	50450513          	addi	a0,a0,1284 # b504 <_end+0x4a00>
    16fc:	00500593          	li	a1,5
    1700:	02b51633          	mulh	a2,a0,a1
    1704:	38c0a423          	sw	a2,904(ra)

00001708 <inst_258>:
    1708:	0000b537          	lui	a0,0xb
    170c:	50450513          	addi	a0,a0,1284 # b504 <_end+0x4a00>
    1710:	333335b7          	lui	a1,0x33333
    1714:	33358593          	addi	a1,a1,819 # 33333333 <_end+0x3332c82f>
    1718:	02b51633          	mulh	a2,a0,a1
    171c:	38c0a623          	sw	a2,908(ra)

00001720 <inst_259>:
    1720:	0000b537          	lui	a0,0xb
    1724:	50450513          	addi	a0,a0,1284 # b504 <_end+0x4a00>
    1728:	666665b7          	lui	a1,0x66666
    172c:	66658593          	addi	a1,a1,1638 # 66666666 <_end+0x6665fb62>
    1730:	02b51633          	mulh	a2,a0,a1
    1734:	38c0a823          	sw	a2,912(ra)

00001738 <inst_260>:
    1738:	0000b537          	lui	a0,0xb
    173c:	50450513          	addi	a0,a0,1284 # b504 <_end+0x4a00>
    1740:	ffff55b7          	lui	a1,0xffff5
    1744:	afc58593          	addi	a1,a1,-1284 # ffff4afc <_end+0xfffedff8>
    1748:	02b51633          	mulh	a2,a0,a1
    174c:	38c0aa23          	sw	a2,916(ra)

00001750 <inst_261>:
    1750:	0000b537          	lui	a0,0xb
    1754:	50450513          	addi	a0,a0,1284 # b504 <_end+0x4a00>
    1758:	0000b5b7          	lui	a1,0xb
    175c:	50458593          	addi	a1,a1,1284 # b504 <_end+0x4a00>
    1760:	02b51633          	mulh	a2,a0,a1
    1764:	38c0ac23          	sw	a2,920(ra)

00001768 <inst_262>:
    1768:	0000b537          	lui	a0,0xb
    176c:	50450513          	addi	a0,a0,1284 # b504 <_end+0x4a00>
    1770:	00200593          	li	a1,2
    1774:	02b51633          	mulh	a2,a0,a1
    1778:	38c0ae23          	sw	a2,924(ra)

0000177c <inst_263>:
    177c:	0000b537          	lui	a0,0xb
    1780:	50450513          	addi	a0,a0,1284 # b504 <_end+0x4a00>
    1784:	555555b7          	lui	a1,0x55555
    1788:	55458593          	addi	a1,a1,1364 # 55555554 <_end+0x5554ea50>
    178c:	02b51633          	mulh	a2,a0,a1
    1790:	3ac0a023          	sw	a2,928(ra)

00001794 <inst_264>:
    1794:	0000b537          	lui	a0,0xb
    1798:	50450513          	addi	a0,a0,1284 # b504 <_end+0x4a00>
    179c:	00000593          	li	a1,0
    17a0:	02b51633          	mulh	a2,a0,a1
    17a4:	3ac0a223          	sw	a2,932(ra)

000017a8 <inst_265>:
    17a8:	0000b537          	lui	a0,0xb
    17ac:	50450513          	addi	a0,a0,1284 # b504 <_end+0x4a00>
    17b0:	00400593          	li	a1,4
    17b4:	02b51633          	mulh	a2,a0,a1
    17b8:	3ac0a423          	sw	a2,936(ra)

000017bc <inst_266>:
    17bc:	0000b537          	lui	a0,0xb
    17c0:	50450513          	addi	a0,a0,1284 # b504 <_end+0x4a00>
    17c4:	333335b7          	lui	a1,0x33333
    17c8:	33258593          	addi	a1,a1,818 # 33333332 <_end+0x3332c82e>
    17cc:	02b51633          	mulh	a2,a0,a1
    17d0:	3ac0a623          	sw	a2,940(ra)

000017d4 <inst_267>:
    17d4:	0000b537          	lui	a0,0xb
    17d8:	50450513          	addi	a0,a0,1284 # b504 <_end+0x4a00>
    17dc:	666665b7          	lui	a1,0x66666
    17e0:	66558593          	addi	a1,a1,1637 # 66666665 <_end+0x6665fb61>
    17e4:	02b51633          	mulh	a2,a0,a1
    17e8:	3ac0a823          	sw	a2,944(ra)

000017ec <inst_268>:
    17ec:	0000b537          	lui	a0,0xb
    17f0:	50450513          	addi	a0,a0,1284 # b504 <_end+0x4a00>
    17f4:	0000b5b7          	lui	a1,0xb
    17f8:	50358593          	addi	a1,a1,1283 # b503 <_end+0x49ff>
    17fc:	02b51633          	mulh	a2,a0,a1
    1800:	3ac0aa23          	sw	a2,948(ra)

00001804 <inst_269>:
    1804:	0000b537          	lui	a0,0xb
    1808:	50450513          	addi	a0,a0,1284 # b504 <_end+0x4a00>
    180c:	555555b7          	lui	a1,0x55555
    1810:	55658593          	addi	a1,a1,1366 # 55555556 <_end+0x5554ea52>
    1814:	02b51633          	mulh	a2,a0,a1
    1818:	3ac0ac23          	sw	a2,952(ra)

0000181c <inst_270>:
    181c:	0000b537          	lui	a0,0xb
    1820:	50450513          	addi	a0,a0,1284 # b504 <_end+0x4a00>
    1824:	aaaab5b7          	lui	a1,0xaaaab
    1828:	aab58593          	addi	a1,a1,-1365 # aaaaaaab <_end+0xaaaa3fa7>
    182c:	02b51633          	mulh	a2,a0,a1
    1830:	3ac0ae23          	sw	a2,956(ra)

00001834 <inst_271>:
    1834:	0000b537          	lui	a0,0xb
    1838:	50450513          	addi	a0,a0,1284 # b504 <_end+0x4a00>
    183c:	00600593          	li	a1,6
    1840:	02b51633          	mulh	a2,a0,a1
    1844:	3cc0a023          	sw	a2,960(ra)

00001848 <inst_272>:
    1848:	0000b537          	lui	a0,0xb
    184c:	50450513          	addi	a0,a0,1284 # b504 <_end+0x4a00>
    1850:	333335b7          	lui	a1,0x33333
    1854:	33458593          	addi	a1,a1,820 # 33333334 <_end+0x3332c830>
    1858:	02b51633          	mulh	a2,a0,a1
    185c:	3cc0a223          	sw	a2,964(ra)

00001860 <inst_273>:
    1860:	0000b537          	lui	a0,0xb
    1864:	50450513          	addi	a0,a0,1284 # b504 <_end+0x4a00>
    1868:	666665b7          	lui	a1,0x66666
    186c:	66758593          	addi	a1,a1,1639 # 66666667 <_end+0x6665fb63>
    1870:	02b51633          	mulh	a2,a0,a1
    1874:	3cc0a423          	sw	a2,968(ra)

00001878 <inst_274>:
    1878:	0000b537          	lui	a0,0xb
    187c:	50450513          	addi	a0,a0,1284 # b504 <_end+0x4a00>
    1880:	ffff55b7          	lui	a1,0xffff5
    1884:	afd58593          	addi	a1,a1,-1283 # ffff4afd <_end+0xfffedff9>
    1888:	02b51633          	mulh	a2,a0,a1
    188c:	3cc0a623          	sw	a2,972(ra)

00001890 <inst_275>:
    1890:	0000b537          	lui	a0,0xb
    1894:	50450513          	addi	a0,a0,1284 # b504 <_end+0x4a00>
    1898:	0000b5b7          	lui	a1,0xb
    189c:	50558593          	addi	a1,a1,1285 # b505 <_end+0x4a01>
    18a0:	02b51633          	mulh	a2,a0,a1
    18a4:	3cc0a823          	sw	a2,976(ra)

000018a8 <inst_276>:
    18a8:	00200513          	li	a0,2
    18ac:	00300593          	li	a1,3
    18b0:	02b51633          	mulh	a2,a0,a1
    18b4:	3cc0aa23          	sw	a2,980(ra)

000018b8 <inst_277>:
    18b8:	00200513          	li	a0,2
    18bc:	555555b7          	lui	a1,0x55555
    18c0:	55558593          	addi	a1,a1,1365 # 55555555 <_end+0x5554ea51>
    18c4:	02b51633          	mulh	a2,a0,a1
    18c8:	3cc0ac23          	sw	a2,984(ra)

000018cc <inst_278>:
    18cc:	00200513          	li	a0,2
    18d0:	aaaab5b7          	lui	a1,0xaaaab
    18d4:	aaa58593          	addi	a1,a1,-1366 # aaaaaaaa <_end+0xaaaa3fa6>
    18d8:	02b51633          	mulh	a2,a0,a1
    18dc:	3cc0ae23          	sw	a2,988(ra)

000018e0 <inst_279>:
    18e0:	00200513          	li	a0,2
    18e4:	00500593          	li	a1,5
    18e8:	02b51633          	mulh	a2,a0,a1
    18ec:	3ec0a023          	sw	a2,992(ra)

000018f0 <inst_280>:
    18f0:	00200513          	li	a0,2
    18f4:	333335b7          	lui	a1,0x33333
    18f8:	33358593          	addi	a1,a1,819 # 33333333 <_end+0x3332c82f>
    18fc:	02b51633          	mulh	a2,a0,a1
    1900:	3ec0a223          	sw	a2,996(ra)

00001904 <inst_281>:
    1904:	00200513          	li	a0,2
    1908:	666665b7          	lui	a1,0x66666
    190c:	66658593          	addi	a1,a1,1638 # 66666666 <_end+0x6665fb62>
    1910:	02b51633          	mulh	a2,a0,a1
    1914:	3ec0a423          	sw	a2,1000(ra)

00001918 <inst_282>:
    1918:	00200513          	li	a0,2
    191c:	ffff55b7          	lui	a1,0xffff5
    1920:	afc58593          	addi	a1,a1,-1284 # ffff4afc <_end+0xfffedff8>
    1924:	02b51633          	mulh	a2,a0,a1
    1928:	3ec0a623          	sw	a2,1004(ra)

0000192c <inst_283>:
    192c:	00200513          	li	a0,2
    1930:	0000b5b7          	lui	a1,0xb
    1934:	50458593          	addi	a1,a1,1284 # b504 <_end+0x4a00>
    1938:	02b51633          	mulh	a2,a0,a1
    193c:	3ec0a823          	sw	a2,1008(ra)

00001940 <inst_284>:
    1940:	00200513          	li	a0,2
    1944:	00200593          	li	a1,2
    1948:	02b51633          	mulh	a2,a0,a1
    194c:	3ec0aa23          	sw	a2,1012(ra)

00001950 <inst_285>:
    1950:	00200513          	li	a0,2
    1954:	555555b7          	lui	a1,0x55555
    1958:	55458593          	addi	a1,a1,1364 # 55555554 <_end+0x5554ea50>
    195c:	02b51633          	mulh	a2,a0,a1
    1960:	3ec0ac23          	sw	a2,1016(ra)

00001964 <inst_286>:
    1964:	00200513          	li	a0,2
    1968:	00000593          	li	a1,0
    196c:	02b51633          	mulh	a2,a0,a1
    1970:	3ec0ae23          	sw	a2,1020(ra)

00001974 <inst_287>:
    1974:	00200513          	li	a0,2
    1978:	00400593          	li	a1,4
    197c:	02b51633          	mulh	a2,a0,a1
    1980:	40c0a023          	sw	a2,1024(ra)

00001984 <inst_288>:
    1984:	00200513          	li	a0,2
    1988:	333335b7          	lui	a1,0x33333
    198c:	33258593          	addi	a1,a1,818 # 33333332 <_end+0x3332c82e>
    1990:	02b51633          	mulh	a2,a0,a1
    1994:	40c0a223          	sw	a2,1028(ra)

00001998 <inst_289>:
    1998:	00200513          	li	a0,2
    199c:	666665b7          	lui	a1,0x66666
    19a0:	66558593          	addi	a1,a1,1637 # 66666665 <_end+0x6665fb61>
    19a4:	02b51633          	mulh	a2,a0,a1
    19a8:	40c0a423          	sw	a2,1032(ra)

000019ac <inst_290>:
    19ac:	00200513          	li	a0,2
    19b0:	0000b5b7          	lui	a1,0xb
    19b4:	50358593          	addi	a1,a1,1283 # b503 <_end+0x49ff>
    19b8:	02b51633          	mulh	a2,a0,a1
    19bc:	40c0a623          	sw	a2,1036(ra)

000019c0 <inst_291>:
    19c0:	00200513          	li	a0,2
    19c4:	555555b7          	lui	a1,0x55555
    19c8:	55658593          	addi	a1,a1,1366 # 55555556 <_end+0x5554ea52>
    19cc:	02b51633          	mulh	a2,a0,a1
    19d0:	40c0a823          	sw	a2,1040(ra)

000019d4 <inst_292>:
    19d4:	00200513          	li	a0,2
    19d8:	aaaab5b7          	lui	a1,0xaaaab
    19dc:	aab58593          	addi	a1,a1,-1365 # aaaaaaab <_end+0xaaaa3fa7>
    19e0:	02b51633          	mulh	a2,a0,a1
    19e4:	40c0aa23          	sw	a2,1044(ra)

000019e8 <inst_293>:
    19e8:	00200513          	li	a0,2
    19ec:	00600593          	li	a1,6
    19f0:	02b51633          	mulh	a2,a0,a1
    19f4:	40c0ac23          	sw	a2,1048(ra)

000019f8 <inst_294>:
    19f8:	00200513          	li	a0,2
    19fc:	333335b7          	lui	a1,0x33333
    1a00:	33458593          	addi	a1,a1,820 # 33333334 <_end+0x3332c830>
    1a04:	02b51633          	mulh	a2,a0,a1
    1a08:	40c0ae23          	sw	a2,1052(ra)

00001a0c <inst_295>:
    1a0c:	00200513          	li	a0,2
    1a10:	666665b7          	lui	a1,0x66666
    1a14:	66758593          	addi	a1,a1,1639 # 66666667 <_end+0x6665fb63>
    1a18:	02b51633          	mulh	a2,a0,a1
    1a1c:	42c0a023          	sw	a2,1056(ra)

00001a20 <inst_296>:
    1a20:	00200513          	li	a0,2
    1a24:	ffff55b7          	lui	a1,0xffff5
    1a28:	afd58593          	addi	a1,a1,-1283 # ffff4afd <_end+0xfffedff9>
    1a2c:	02b51633          	mulh	a2,a0,a1
    1a30:	42c0a223          	sw	a2,1060(ra)

00001a34 <inst_297>:
    1a34:	00200513          	li	a0,2
    1a38:	0000b5b7          	lui	a1,0xb
    1a3c:	50558593          	addi	a1,a1,1285 # b505 <_end+0x4a01>
    1a40:	02b51633          	mulh	a2,a0,a1
    1a44:	42c0a423          	sw	a2,1064(ra)

00001a48 <inst_298>:
    1a48:	55555537          	lui	a0,0x55555
    1a4c:	55450513          	addi	a0,a0,1364 # 55555554 <_end+0x5554ea50>
    1a50:	00300593          	li	a1,3
    1a54:	02b51633          	mulh	a2,a0,a1
    1a58:	42c0a623          	sw	a2,1068(ra)

00001a5c <inst_299>:
    1a5c:	55555537          	lui	a0,0x55555
    1a60:	55450513          	addi	a0,a0,1364 # 55555554 <_end+0x5554ea50>
    1a64:	555555b7          	lui	a1,0x55555
    1a68:	55558593          	addi	a1,a1,1365 # 55555555 <_end+0x5554ea51>
    1a6c:	02b51633          	mulh	a2,a0,a1
    1a70:	42c0a823          	sw	a2,1072(ra)

00001a74 <inst_300>:
    1a74:	55555537          	lui	a0,0x55555
    1a78:	55450513          	addi	a0,a0,1364 # 55555554 <_end+0x5554ea50>
    1a7c:	aaaab5b7          	lui	a1,0xaaaab
    1a80:	aaa58593          	addi	a1,a1,-1366 # aaaaaaaa <_end+0xaaaa3fa6>
    1a84:	02b51633          	mulh	a2,a0,a1
    1a88:	42c0aa23          	sw	a2,1076(ra)

00001a8c <inst_301>:
    1a8c:	55555537          	lui	a0,0x55555
    1a90:	55450513          	addi	a0,a0,1364 # 55555554 <_end+0x5554ea50>
    1a94:	00500593          	li	a1,5
    1a98:	02b51633          	mulh	a2,a0,a1
    1a9c:	42c0ac23          	sw	a2,1080(ra)

00001aa0 <inst_302>:
    1aa0:	55555537          	lui	a0,0x55555
    1aa4:	55450513          	addi	a0,a0,1364 # 55555554 <_end+0x5554ea50>
    1aa8:	333335b7          	lui	a1,0x33333
    1aac:	33358593          	addi	a1,a1,819 # 33333333 <_end+0x3332c82f>
    1ab0:	02b51633          	mulh	a2,a0,a1
    1ab4:	42c0ae23          	sw	a2,1084(ra)

00001ab8 <inst_303>:
    1ab8:	55555537          	lui	a0,0x55555
    1abc:	55450513          	addi	a0,a0,1364 # 55555554 <_end+0x5554ea50>
    1ac0:	666665b7          	lui	a1,0x66666
    1ac4:	66658593          	addi	a1,a1,1638 # 66666666 <_end+0x6665fb62>
    1ac8:	02b51633          	mulh	a2,a0,a1
    1acc:	44c0a023          	sw	a2,1088(ra)

00001ad0 <inst_304>:
    1ad0:	55555537          	lui	a0,0x55555
    1ad4:	55450513          	addi	a0,a0,1364 # 55555554 <_end+0x5554ea50>
    1ad8:	ffff55b7          	lui	a1,0xffff5
    1adc:	afc58593          	addi	a1,a1,-1284 # ffff4afc <_end+0xfffedff8>
    1ae0:	02b51633          	mulh	a2,a0,a1
    1ae4:	44c0a223          	sw	a2,1092(ra)

00001ae8 <inst_305>:
    1ae8:	55555537          	lui	a0,0x55555
    1aec:	55450513          	addi	a0,a0,1364 # 55555554 <_end+0x5554ea50>
    1af0:	0000b5b7          	lui	a1,0xb
    1af4:	50458593          	addi	a1,a1,1284 # b504 <_end+0x4a00>
    1af8:	02b51633          	mulh	a2,a0,a1
    1afc:	44c0a423          	sw	a2,1096(ra)

00001b00 <inst_306>:
    1b00:	55555537          	lui	a0,0x55555
    1b04:	55450513          	addi	a0,a0,1364 # 55555554 <_end+0x5554ea50>
    1b08:	00200593          	li	a1,2
    1b0c:	02b51633          	mulh	a2,a0,a1
    1b10:	44c0a623          	sw	a2,1100(ra)

00001b14 <inst_307>:
    1b14:	55555537          	lui	a0,0x55555
    1b18:	55450513          	addi	a0,a0,1364 # 55555554 <_end+0x5554ea50>
    1b1c:	555555b7          	lui	a1,0x55555
    1b20:	55458593          	addi	a1,a1,1364 # 55555554 <_end+0x5554ea50>
    1b24:	02b51633          	mulh	a2,a0,a1
    1b28:	44c0a823          	sw	a2,1104(ra)

00001b2c <inst_308>:
    1b2c:	55555537          	lui	a0,0x55555
    1b30:	55450513          	addi	a0,a0,1364 # 55555554 <_end+0x5554ea50>
    1b34:	00000593          	li	a1,0
    1b38:	02b51633          	mulh	a2,a0,a1
    1b3c:	44c0aa23          	sw	a2,1108(ra)

00001b40 <inst_309>:
    1b40:	55555537          	lui	a0,0x55555
    1b44:	55450513          	addi	a0,a0,1364 # 55555554 <_end+0x5554ea50>
    1b48:	00400593          	li	a1,4
    1b4c:	02b51633          	mulh	a2,a0,a1
    1b50:	44c0ac23          	sw	a2,1112(ra)

00001b54 <inst_310>:
    1b54:	55555537          	lui	a0,0x55555
    1b58:	55450513          	addi	a0,a0,1364 # 55555554 <_end+0x5554ea50>
    1b5c:	333335b7          	lui	a1,0x33333
    1b60:	33258593          	addi	a1,a1,818 # 33333332 <_end+0x3332c82e>
    1b64:	02b51633          	mulh	a2,a0,a1
    1b68:	44c0ae23          	sw	a2,1116(ra)

00001b6c <inst_311>:
    1b6c:	55555537          	lui	a0,0x55555
    1b70:	55450513          	addi	a0,a0,1364 # 55555554 <_end+0x5554ea50>
    1b74:	666665b7          	lui	a1,0x66666
    1b78:	66558593          	addi	a1,a1,1637 # 66666665 <_end+0x6665fb61>
    1b7c:	02b51633          	mulh	a2,a0,a1
    1b80:	46c0a023          	sw	a2,1120(ra)

00001b84 <inst_312>:
    1b84:	55555537          	lui	a0,0x55555
    1b88:	55450513          	addi	a0,a0,1364 # 55555554 <_end+0x5554ea50>
    1b8c:	0000b5b7          	lui	a1,0xb
    1b90:	50358593          	addi	a1,a1,1283 # b503 <_end+0x49ff>
    1b94:	02b51633          	mulh	a2,a0,a1
    1b98:	46c0a223          	sw	a2,1124(ra)

00001b9c <inst_313>:
    1b9c:	55555537          	lui	a0,0x55555
    1ba0:	55450513          	addi	a0,a0,1364 # 55555554 <_end+0x5554ea50>
    1ba4:	555555b7          	lui	a1,0x55555
    1ba8:	55658593          	addi	a1,a1,1366 # 55555556 <_end+0x5554ea52>
    1bac:	02b51633          	mulh	a2,a0,a1
    1bb0:	46c0a423          	sw	a2,1128(ra)

00001bb4 <inst_314>:
    1bb4:	55555537          	lui	a0,0x55555
    1bb8:	55450513          	addi	a0,a0,1364 # 55555554 <_end+0x5554ea50>
    1bbc:	aaaab5b7          	lui	a1,0xaaaab
    1bc0:	aab58593          	addi	a1,a1,-1365 # aaaaaaab <_end+0xaaaa3fa7>
    1bc4:	02b51633          	mulh	a2,a0,a1
    1bc8:	46c0a623          	sw	a2,1132(ra)

00001bcc <inst_315>:
    1bcc:	55555537          	lui	a0,0x55555
    1bd0:	55450513          	addi	a0,a0,1364 # 55555554 <_end+0x5554ea50>
    1bd4:	00600593          	li	a1,6
    1bd8:	02b51633          	mulh	a2,a0,a1
    1bdc:	46c0a823          	sw	a2,1136(ra)

00001be0 <inst_316>:
    1be0:	55555537          	lui	a0,0x55555
    1be4:	55450513          	addi	a0,a0,1364 # 55555554 <_end+0x5554ea50>
    1be8:	333335b7          	lui	a1,0x33333
    1bec:	33458593          	addi	a1,a1,820 # 33333334 <_end+0x3332c830>
    1bf0:	02b51633          	mulh	a2,a0,a1
    1bf4:	46c0aa23          	sw	a2,1140(ra)

00001bf8 <inst_317>:
    1bf8:	55555537          	lui	a0,0x55555
    1bfc:	55450513          	addi	a0,a0,1364 # 55555554 <_end+0x5554ea50>
    1c00:	666665b7          	lui	a1,0x66666
    1c04:	66758593          	addi	a1,a1,1639 # 66666667 <_end+0x6665fb63>
    1c08:	02b51633          	mulh	a2,a0,a1
    1c0c:	46c0ac23          	sw	a2,1144(ra)

00001c10 <inst_318>:
    1c10:	55555537          	lui	a0,0x55555
    1c14:	55450513          	addi	a0,a0,1364 # 55555554 <_end+0x5554ea50>
    1c18:	ffff55b7          	lui	a1,0xffff5
    1c1c:	afd58593          	addi	a1,a1,-1283 # ffff4afd <_end+0xfffedff9>
    1c20:	02b51633          	mulh	a2,a0,a1
    1c24:	46c0ae23          	sw	a2,1148(ra)

00001c28 <inst_319>:
    1c28:	55555537          	lui	a0,0x55555
    1c2c:	55450513          	addi	a0,a0,1364 # 55555554 <_end+0x5554ea50>
    1c30:	0000b5b7          	lui	a1,0xb
    1c34:	50558593          	addi	a1,a1,1285 # b505 <_end+0x4a01>
    1c38:	02b51633          	mulh	a2,a0,a1
    1c3c:	48c0a023          	sw	a2,1152(ra)

00001c40 <inst_320>:
    1c40:	00000513          	li	a0,0
    1c44:	00300593          	li	a1,3
    1c48:	02b51633          	mulh	a2,a0,a1
    1c4c:	48c0a223          	sw	a2,1156(ra)

00001c50 <inst_321>:
    1c50:	00000513          	li	a0,0
    1c54:	555555b7          	lui	a1,0x55555
    1c58:	55558593          	addi	a1,a1,1365 # 55555555 <_end+0x5554ea51>
    1c5c:	02b51633          	mulh	a2,a0,a1
    1c60:	48c0a423          	sw	a2,1160(ra)

00001c64 <inst_322>:
    1c64:	00000513          	li	a0,0
    1c68:	aaaab5b7          	lui	a1,0xaaaab
    1c6c:	aaa58593          	addi	a1,a1,-1366 # aaaaaaaa <_end+0xaaaa3fa6>
    1c70:	02b51633          	mulh	a2,a0,a1
    1c74:	48c0a623          	sw	a2,1164(ra)

00001c78 <inst_323>:
    1c78:	00000513          	li	a0,0
    1c7c:	00500593          	li	a1,5
    1c80:	02b51633          	mulh	a2,a0,a1
    1c84:	48c0a823          	sw	a2,1168(ra)

00001c88 <inst_324>:
    1c88:	00000513          	li	a0,0
    1c8c:	333335b7          	lui	a1,0x33333
    1c90:	33358593          	addi	a1,a1,819 # 33333333 <_end+0x3332c82f>
    1c94:	02b51633          	mulh	a2,a0,a1
    1c98:	48c0aa23          	sw	a2,1172(ra)

00001c9c <inst_325>:
    1c9c:	00000513          	li	a0,0
    1ca0:	666665b7          	lui	a1,0x66666
    1ca4:	66658593          	addi	a1,a1,1638 # 66666666 <_end+0x6665fb62>
    1ca8:	02b51633          	mulh	a2,a0,a1
    1cac:	48c0ac23          	sw	a2,1176(ra)

00001cb0 <inst_326>:
    1cb0:	aaaab537          	lui	a0,0xaaaab
    1cb4:	aab50513          	addi	a0,a0,-1365 # aaaaaaab <_end+0xaaaa3fa7>
    1cb8:	aaaab5b7          	lui	a1,0xaaaab
    1cbc:	aab58593          	addi	a1,a1,-1365 # aaaaaaab <_end+0xaaaa3fa7>
    1cc0:	02b51633          	mulh	a2,a0,a1
    1cc4:	48c0ae23          	sw	a2,1180(ra)

00001cc8 <inst_327>:
    1cc8:	aaaab537          	lui	a0,0xaaaab
    1ccc:	aab50513          	addi	a0,a0,-1365 # aaaaaaab <_end+0xaaaa3fa7>
    1cd0:	00600593          	li	a1,6
    1cd4:	02b51633          	mulh	a2,a0,a1
    1cd8:	4ac0a023          	sw	a2,1184(ra)

00001cdc <inst_328>:
    1cdc:	aaaab537          	lui	a0,0xaaaab
    1ce0:	aab50513          	addi	a0,a0,-1365 # aaaaaaab <_end+0xaaaa3fa7>
    1ce4:	333335b7          	lui	a1,0x33333
    1ce8:	33458593          	addi	a1,a1,820 # 33333334 <_end+0x3332c830>
    1cec:	02b51633          	mulh	a2,a0,a1
    1cf0:	4ac0a223          	sw	a2,1188(ra)

00001cf4 <inst_329>:
    1cf4:	aaaab537          	lui	a0,0xaaaab
    1cf8:	aab50513          	addi	a0,a0,-1365 # aaaaaaab <_end+0xaaaa3fa7>
    1cfc:	666665b7          	lui	a1,0x66666
    1d00:	66758593          	addi	a1,a1,1639 # 66666667 <_end+0x6665fb63>
    1d04:	02b51633          	mulh	a2,a0,a1
    1d08:	4ac0a423          	sw	a2,1192(ra)

00001d0c <inst_330>:
    1d0c:	aaaab537          	lui	a0,0xaaaab
    1d10:	aab50513          	addi	a0,a0,-1365 # aaaaaaab <_end+0xaaaa3fa7>
    1d14:	ffff55b7          	lui	a1,0xffff5
    1d18:	afd58593          	addi	a1,a1,-1283 # ffff4afd <_end+0xfffedff9>
    1d1c:	02b51633          	mulh	a2,a0,a1
    1d20:	4ac0a623          	sw	a2,1196(ra)

00001d24 <inst_331>:
    1d24:	aaaab537          	lui	a0,0xaaaab
    1d28:	aab50513          	addi	a0,a0,-1365 # aaaaaaab <_end+0xaaaa3fa7>
    1d2c:	0000b5b7          	lui	a1,0xb
    1d30:	50558593          	addi	a1,a1,1285 # b505 <_end+0x4a01>
    1d34:	02b51633          	mulh	a2,a0,a1
    1d38:	4ac0a823          	sw	a2,1200(ra)

00001d3c <inst_332>:
    1d3c:	00600513          	li	a0,6
    1d40:	00300593          	li	a1,3
    1d44:	02b51633          	mulh	a2,a0,a1
    1d48:	4ac0aa23          	sw	a2,1204(ra)

00001d4c <inst_333>:
    1d4c:	00600513          	li	a0,6
    1d50:	555555b7          	lui	a1,0x55555
    1d54:	55558593          	addi	a1,a1,1365 # 55555555 <_end+0x5554ea51>
    1d58:	02b51633          	mulh	a2,a0,a1
    1d5c:	4ac0ac23          	sw	a2,1208(ra)

00001d60 <inst_334>:
    1d60:	00600513          	li	a0,6
    1d64:	00500593          	li	a1,5
    1d68:	02b51633          	mulh	a2,a0,a1
    1d6c:	4ac0ae23          	sw	a2,1212(ra)

00001d70 <inst_335>:
    1d70:	00600513          	li	a0,6
    1d74:	333335b7          	lui	a1,0x33333
    1d78:	33358593          	addi	a1,a1,819 # 33333333 <_end+0x3332c82f>
    1d7c:	02b51633          	mulh	a2,a0,a1
    1d80:	4cc0a023          	sw	a2,1216(ra)

00001d84 <inst_336>:
    1d84:	00600513          	li	a0,6
    1d88:	666665b7          	lui	a1,0x66666
    1d8c:	66658593          	addi	a1,a1,1638 # 66666666 <_end+0x6665fb62>
    1d90:	02b51633          	mulh	a2,a0,a1
    1d94:	4cc0a223          	sw	a2,1220(ra)

00001d98 <inst_337>:
    1d98:	00600513          	li	a0,6
    1d9c:	ffff55b7          	lui	a1,0xffff5
    1da0:	afc58593          	addi	a1,a1,-1284 # ffff4afc <_end+0xfffedff8>
    1da4:	02b51633          	mulh	a2,a0,a1
    1da8:	4cc0a423          	sw	a2,1224(ra)

00001dac <inst_338>:
    1dac:	00600513          	li	a0,6
    1db0:	0000b5b7          	lui	a1,0xb
    1db4:	50458593          	addi	a1,a1,1284 # b504 <_end+0x4a00>
    1db8:	02b51633          	mulh	a2,a0,a1
    1dbc:	4cc0a623          	sw	a2,1228(ra)

00001dc0 <inst_339>:
    1dc0:	00600513          	li	a0,6
    1dc4:	00200593          	li	a1,2
    1dc8:	02b51633          	mulh	a2,a0,a1
    1dcc:	4cc0a823          	sw	a2,1232(ra)

00001dd0 <inst_340>:
    1dd0:	00600513          	li	a0,6
    1dd4:	555555b7          	lui	a1,0x55555
    1dd8:	55458593          	addi	a1,a1,1364 # 55555554 <_end+0x5554ea50>
    1ddc:	02b51633          	mulh	a2,a0,a1
    1de0:	4cc0aa23          	sw	a2,1236(ra)

00001de4 <inst_341>:
    1de4:	00600513          	li	a0,6
    1de8:	00000593          	li	a1,0
    1dec:	02b51633          	mulh	a2,a0,a1
    1df0:	4cc0ac23          	sw	a2,1240(ra)

00001df4 <inst_342>:
    1df4:	00600513          	li	a0,6
    1df8:	00400593          	li	a1,4
    1dfc:	02b51633          	mulh	a2,a0,a1
    1e00:	4cc0ae23          	sw	a2,1244(ra)

00001e04 <inst_343>:
    1e04:	00600513          	li	a0,6
    1e08:	333335b7          	lui	a1,0x33333
    1e0c:	33258593          	addi	a1,a1,818 # 33333332 <_end+0x3332c82e>
    1e10:	02b51633          	mulh	a2,a0,a1
    1e14:	4ec0a023          	sw	a2,1248(ra)

00001e18 <inst_344>:
    1e18:	00600513          	li	a0,6
    1e1c:	666665b7          	lui	a1,0x66666
    1e20:	66558593          	addi	a1,a1,1637 # 66666665 <_end+0x6665fb61>
    1e24:	02b51633          	mulh	a2,a0,a1
    1e28:	4ec0a223          	sw	a2,1252(ra)

00001e2c <inst_345>:
    1e2c:	00600513          	li	a0,6
    1e30:	0000b5b7          	lui	a1,0xb
    1e34:	50358593          	addi	a1,a1,1283 # b503 <_end+0x49ff>
    1e38:	02b51633          	mulh	a2,a0,a1
    1e3c:	4ec0a423          	sw	a2,1256(ra)

00001e40 <inst_346>:
    1e40:	00600513          	li	a0,6
    1e44:	555555b7          	lui	a1,0x55555
    1e48:	55658593          	addi	a1,a1,1366 # 55555556 <_end+0x5554ea52>
    1e4c:	02b51633          	mulh	a2,a0,a1
    1e50:	4ec0a623          	sw	a2,1260(ra)

00001e54 <inst_347>:
    1e54:	00600513          	li	a0,6
    1e58:	aaaab5b7          	lui	a1,0xaaaab
    1e5c:	aab58593          	addi	a1,a1,-1365 # aaaaaaab <_end+0xaaaa3fa7>
    1e60:	02b51633          	mulh	a2,a0,a1
    1e64:	4ec0a823          	sw	a2,1264(ra)

00001e68 <inst_348>:
    1e68:	00600513          	li	a0,6
    1e6c:	00600593          	li	a1,6
    1e70:	02b51633          	mulh	a2,a0,a1
    1e74:	4ec0aa23          	sw	a2,1268(ra)

00001e78 <inst_349>:
    1e78:	00600513          	li	a0,6
    1e7c:	333335b7          	lui	a1,0x33333
    1e80:	33458593          	addi	a1,a1,820 # 33333334 <_end+0x3332c830>
    1e84:	02b51633          	mulh	a2,a0,a1
    1e88:	4ec0ac23          	sw	a2,1272(ra)

00001e8c <inst_350>:
    1e8c:	00600513          	li	a0,6
    1e90:	666665b7          	lui	a1,0x66666
    1e94:	66758593          	addi	a1,a1,1639 # 66666667 <_end+0x6665fb63>
    1e98:	02b51633          	mulh	a2,a0,a1
    1e9c:	4ec0ae23          	sw	a2,1276(ra)

00001ea0 <inst_351>:
    1ea0:	00600513          	li	a0,6
    1ea4:	ffff55b7          	lui	a1,0xffff5
    1ea8:	afd58593          	addi	a1,a1,-1283 # ffff4afd <_end+0xfffedff9>
    1eac:	02b51633          	mulh	a2,a0,a1
    1eb0:	50c0a023          	sw	a2,1280(ra)

00001eb4 <inst_352>:
    1eb4:	00600513          	li	a0,6
    1eb8:	0000b5b7          	lui	a1,0xb
    1ebc:	50558593          	addi	a1,a1,1285 # b505 <_end+0x4a01>
    1ec0:	02b51633          	mulh	a2,a0,a1
    1ec4:	50c0a223          	sw	a2,1284(ra)

00001ec8 <inst_353>:
    1ec8:	33333537          	lui	a0,0x33333
    1ecc:	33450513          	addi	a0,a0,820 # 33333334 <_end+0x3332c830>
    1ed0:	00300593          	li	a1,3
    1ed4:	02b51633          	mulh	a2,a0,a1
    1ed8:	50c0a423          	sw	a2,1288(ra)

00001edc <inst_354>:
    1edc:	33333537          	lui	a0,0x33333
    1ee0:	33450513          	addi	a0,a0,820 # 33333334 <_end+0x3332c830>
    1ee4:	555555b7          	lui	a1,0x55555
    1ee8:	55558593          	addi	a1,a1,1365 # 55555555 <_end+0x5554ea51>
    1eec:	02b51633          	mulh	a2,a0,a1
    1ef0:	50c0a623          	sw	a2,1292(ra)

00001ef4 <inst_355>:
    1ef4:	33333537          	lui	a0,0x33333
    1ef8:	33450513          	addi	a0,a0,820 # 33333334 <_end+0x3332c830>
    1efc:	aaaab5b7          	lui	a1,0xaaaab
    1f00:	aaa58593          	addi	a1,a1,-1366 # aaaaaaaa <_end+0xaaaa3fa6>
    1f04:	02b51633          	mulh	a2,a0,a1
    1f08:	50c0a823          	sw	a2,1296(ra)

00001f0c <inst_356>:
    1f0c:	33333537          	lui	a0,0x33333
    1f10:	33450513          	addi	a0,a0,820 # 33333334 <_end+0x3332c830>
    1f14:	00500593          	li	a1,5
    1f18:	02b51633          	mulh	a2,a0,a1
    1f1c:	50c0aa23          	sw	a2,1300(ra)

00001f20 <inst_357>:
    1f20:	33333537          	lui	a0,0x33333
    1f24:	33450513          	addi	a0,a0,820 # 33333334 <_end+0x3332c830>
    1f28:	333335b7          	lui	a1,0x33333
    1f2c:	33358593          	addi	a1,a1,819 # 33333333 <_end+0x3332c82f>
    1f30:	02b51633          	mulh	a2,a0,a1
    1f34:	50c0ac23          	sw	a2,1304(ra)

00001f38 <inst_358>:
    1f38:	33333537          	lui	a0,0x33333
    1f3c:	33450513          	addi	a0,a0,820 # 33333334 <_end+0x3332c830>
    1f40:	666665b7          	lui	a1,0x66666
    1f44:	66658593          	addi	a1,a1,1638 # 66666666 <_end+0x6665fb62>
    1f48:	02b51633          	mulh	a2,a0,a1
    1f4c:	50c0ae23          	sw	a2,1308(ra)

00001f50 <inst_359>:
    1f50:	33333537          	lui	a0,0x33333
    1f54:	33450513          	addi	a0,a0,820 # 33333334 <_end+0x3332c830>
    1f58:	ffff55b7          	lui	a1,0xffff5
    1f5c:	afc58593          	addi	a1,a1,-1284 # ffff4afc <_end+0xfffedff8>
    1f60:	02b51633          	mulh	a2,a0,a1
    1f64:	52c0a023          	sw	a2,1312(ra)

00001f68 <inst_360>:
    1f68:	33333537          	lui	a0,0x33333
    1f6c:	33450513          	addi	a0,a0,820 # 33333334 <_end+0x3332c830>
    1f70:	0000b5b7          	lui	a1,0xb
    1f74:	50458593          	addi	a1,a1,1284 # b504 <_end+0x4a00>
    1f78:	02b51633          	mulh	a2,a0,a1
    1f7c:	52c0a223          	sw	a2,1316(ra)

00001f80 <inst_361>:
    1f80:	33333537          	lui	a0,0x33333
    1f84:	33450513          	addi	a0,a0,820 # 33333334 <_end+0x3332c830>
    1f88:	00200593          	li	a1,2
    1f8c:	02b51633          	mulh	a2,a0,a1
    1f90:	52c0a423          	sw	a2,1320(ra)

00001f94 <inst_362>:
    1f94:	33333537          	lui	a0,0x33333
    1f98:	33450513          	addi	a0,a0,820 # 33333334 <_end+0x3332c830>
    1f9c:	555555b7          	lui	a1,0x55555
    1fa0:	55458593          	addi	a1,a1,1364 # 55555554 <_end+0x5554ea50>
    1fa4:	02b51633          	mulh	a2,a0,a1
    1fa8:	52c0a623          	sw	a2,1324(ra)

00001fac <inst_363>:
    1fac:	33333537          	lui	a0,0x33333
    1fb0:	33450513          	addi	a0,a0,820 # 33333334 <_end+0x3332c830>
    1fb4:	00000593          	li	a1,0
    1fb8:	02b51633          	mulh	a2,a0,a1
    1fbc:	52c0a823          	sw	a2,1328(ra)

00001fc0 <inst_364>:
    1fc0:	33333537          	lui	a0,0x33333
    1fc4:	33450513          	addi	a0,a0,820 # 33333334 <_end+0x3332c830>
    1fc8:	00400593          	li	a1,4
    1fcc:	02b51633          	mulh	a2,a0,a1
    1fd0:	52c0aa23          	sw	a2,1332(ra)

00001fd4 <inst_365>:
    1fd4:	33333537          	lui	a0,0x33333
    1fd8:	33450513          	addi	a0,a0,820 # 33333334 <_end+0x3332c830>
    1fdc:	333335b7          	lui	a1,0x33333
    1fe0:	33258593          	addi	a1,a1,818 # 33333332 <_end+0x3332c82e>
    1fe4:	02b51633          	mulh	a2,a0,a1
    1fe8:	52c0ac23          	sw	a2,1336(ra)

00001fec <inst_366>:
    1fec:	33333537          	lui	a0,0x33333
    1ff0:	33450513          	addi	a0,a0,820 # 33333334 <_end+0x3332c830>
    1ff4:	666665b7          	lui	a1,0x66666
    1ff8:	66558593          	addi	a1,a1,1637 # 66666665 <_end+0x6665fb61>
    1ffc:	02b51633          	mulh	a2,a0,a1
    2000:	52c0ae23          	sw	a2,1340(ra)

00002004 <inst_367>:
    2004:	33333537          	lui	a0,0x33333
    2008:	33450513          	addi	a0,a0,820 # 33333334 <_end+0x3332c830>
    200c:	0000b5b7          	lui	a1,0xb
    2010:	50358593          	addi	a1,a1,1283 # b503 <_end+0x49ff>
    2014:	02b51633          	mulh	a2,a0,a1
    2018:	54c0a023          	sw	a2,1344(ra)

0000201c <inst_368>:
    201c:	33333537          	lui	a0,0x33333
    2020:	33450513          	addi	a0,a0,820 # 33333334 <_end+0x3332c830>
    2024:	555555b7          	lui	a1,0x55555
    2028:	55658593          	addi	a1,a1,1366 # 55555556 <_end+0x5554ea52>
    202c:	02b51633          	mulh	a2,a0,a1
    2030:	54c0a223          	sw	a2,1348(ra)

00002034 <inst_369>:
    2034:	33333537          	lui	a0,0x33333
    2038:	33450513          	addi	a0,a0,820 # 33333334 <_end+0x3332c830>
    203c:	aaaab5b7          	lui	a1,0xaaaab
    2040:	aab58593          	addi	a1,a1,-1365 # aaaaaaab <_end+0xaaaa3fa7>
    2044:	02b51633          	mulh	a2,a0,a1
    2048:	54c0a423          	sw	a2,1352(ra)

0000204c <inst_370>:
    204c:	33333537          	lui	a0,0x33333
    2050:	33450513          	addi	a0,a0,820 # 33333334 <_end+0x3332c830>
    2054:	00600593          	li	a1,6
    2058:	02b51633          	mulh	a2,a0,a1
    205c:	54c0a623          	sw	a2,1356(ra)

00002060 <inst_371>:
    2060:	33333537          	lui	a0,0x33333
    2064:	33450513          	addi	a0,a0,820 # 33333334 <_end+0x3332c830>
    2068:	333335b7          	lui	a1,0x33333
    206c:	33458593          	addi	a1,a1,820 # 33333334 <_end+0x3332c830>
    2070:	02b51633          	mulh	a2,a0,a1
    2074:	54c0a823          	sw	a2,1360(ra)

00002078 <inst_372>:
    2078:	33333537          	lui	a0,0x33333
    207c:	33450513          	addi	a0,a0,820 # 33333334 <_end+0x3332c830>
    2080:	666665b7          	lui	a1,0x66666
    2084:	66758593          	addi	a1,a1,1639 # 66666667 <_end+0x6665fb63>
    2088:	02b51633          	mulh	a2,a0,a1
    208c:	54c0aa23          	sw	a2,1364(ra)

00002090 <inst_373>:
    2090:	33333537          	lui	a0,0x33333
    2094:	33450513          	addi	a0,a0,820 # 33333334 <_end+0x3332c830>
    2098:	ffff55b7          	lui	a1,0xffff5
    209c:	afd58593          	addi	a1,a1,-1283 # ffff4afd <_end+0xfffedff9>
    20a0:	02b51633          	mulh	a2,a0,a1
    20a4:	54c0ac23          	sw	a2,1368(ra)

000020a8 <inst_374>:
    20a8:	33333537          	lui	a0,0x33333
    20ac:	33450513          	addi	a0,a0,820 # 33333334 <_end+0x3332c830>
    20b0:	0000b5b7          	lui	a1,0xb
    20b4:	50558593          	addi	a1,a1,1285 # b505 <_end+0x4a01>
    20b8:	02b51633          	mulh	a2,a0,a1
    20bc:	54c0ae23          	sw	a2,1372(ra)

000020c0 <inst_375>:
    20c0:	66666537          	lui	a0,0x66666
    20c4:	66750513          	addi	a0,a0,1639 # 66666667 <_end+0x6665fb63>
    20c8:	00300593          	li	a1,3
    20cc:	02b51633          	mulh	a2,a0,a1
    20d0:	56c0a023          	sw	a2,1376(ra)

000020d4 <inst_376>:
    20d4:	66666537          	lui	a0,0x66666
    20d8:	66750513          	addi	a0,a0,1639 # 66666667 <_end+0x6665fb63>
    20dc:	555555b7          	lui	a1,0x55555
    20e0:	55558593          	addi	a1,a1,1365 # 55555555 <_end+0x5554ea51>
    20e4:	02b51633          	mulh	a2,a0,a1
    20e8:	56c0a223          	sw	a2,1380(ra)

000020ec <inst_377>:
    20ec:	66666537          	lui	a0,0x66666
    20f0:	66750513          	addi	a0,a0,1639 # 66666667 <_end+0x6665fb63>
    20f4:	aaaab5b7          	lui	a1,0xaaaab
    20f8:	aaa58593          	addi	a1,a1,-1366 # aaaaaaaa <_end+0xaaaa3fa6>
    20fc:	02b51633          	mulh	a2,a0,a1
    2100:	56c0a423          	sw	a2,1384(ra)

00002104 <inst_378>:
    2104:	66666537          	lui	a0,0x66666
    2108:	66750513          	addi	a0,a0,1639 # 66666667 <_end+0x6665fb63>
    210c:	00500593          	li	a1,5
    2110:	02b51633          	mulh	a2,a0,a1
    2114:	56c0a623          	sw	a2,1388(ra)

00002118 <inst_379>:
    2118:	66666537          	lui	a0,0x66666
    211c:	66750513          	addi	a0,a0,1639 # 66666667 <_end+0x6665fb63>
    2120:	333335b7          	lui	a1,0x33333
    2124:	33358593          	addi	a1,a1,819 # 33333333 <_end+0x3332c82f>
    2128:	02b51633          	mulh	a2,a0,a1
    212c:	56c0a823          	sw	a2,1392(ra)

00002130 <inst_380>:
    2130:	66666537          	lui	a0,0x66666
    2134:	66750513          	addi	a0,a0,1639 # 66666667 <_end+0x6665fb63>
    2138:	666665b7          	lui	a1,0x66666
    213c:	66658593          	addi	a1,a1,1638 # 66666666 <_end+0x6665fb62>
    2140:	02b51633          	mulh	a2,a0,a1
    2144:	56c0aa23          	sw	a2,1396(ra)

00002148 <inst_381>:
    2148:	66666537          	lui	a0,0x66666
    214c:	66750513          	addi	a0,a0,1639 # 66666667 <_end+0x6665fb63>
    2150:	ffff55b7          	lui	a1,0xffff5
    2154:	afc58593          	addi	a1,a1,-1284 # ffff4afc <_end+0xfffedff8>
    2158:	02b51633          	mulh	a2,a0,a1
    215c:	56c0ac23          	sw	a2,1400(ra)

00002160 <inst_382>:
    2160:	66666537          	lui	a0,0x66666
    2164:	66750513          	addi	a0,a0,1639 # 66666667 <_end+0x6665fb63>
    2168:	0000b5b7          	lui	a1,0xb
    216c:	50458593          	addi	a1,a1,1284 # b504 <_end+0x4a00>
    2170:	02b51633          	mulh	a2,a0,a1
    2174:	56c0ae23          	sw	a2,1404(ra)

00002178 <inst_383>:
    2178:	66666537          	lui	a0,0x66666
    217c:	66750513          	addi	a0,a0,1639 # 66666667 <_end+0x6665fb63>
    2180:	555555b7          	lui	a1,0x55555
    2184:	55458593          	addi	a1,a1,1364 # 55555554 <_end+0x5554ea50>
    2188:	02b51633          	mulh	a2,a0,a1
    218c:	58c0a023          	sw	a2,1408(ra)

00002190 <inst_384>:
    2190:	66666537          	lui	a0,0x66666
    2194:	66750513          	addi	a0,a0,1639 # 66666667 <_end+0x6665fb63>
    2198:	00000593          	li	a1,0
    219c:	02b51633          	mulh	a2,a0,a1
    21a0:	58c0a223          	sw	a2,1412(ra)

000021a4 <inst_385>:
    21a4:	66666537          	lui	a0,0x66666
    21a8:	66750513          	addi	a0,a0,1639 # 66666667 <_end+0x6665fb63>
    21ac:	00400593          	li	a1,4
    21b0:	02b51633          	mulh	a2,a0,a1
    21b4:	58c0a423          	sw	a2,1416(ra)

000021b8 <inst_386>:
    21b8:	66666537          	lui	a0,0x66666
    21bc:	66750513          	addi	a0,a0,1639 # 66666667 <_end+0x6665fb63>
    21c0:	333335b7          	lui	a1,0x33333
    21c4:	33258593          	addi	a1,a1,818 # 33333332 <_end+0x3332c82e>
    21c8:	02b51633          	mulh	a2,a0,a1
    21cc:	58c0a623          	sw	a2,1420(ra)

000021d0 <inst_387>:
    21d0:	66666537          	lui	a0,0x66666
    21d4:	66750513          	addi	a0,a0,1639 # 66666667 <_end+0x6665fb63>
    21d8:	666665b7          	lui	a1,0x66666
    21dc:	66558593          	addi	a1,a1,1637 # 66666665 <_end+0x6665fb61>
    21e0:	02b51633          	mulh	a2,a0,a1
    21e4:	58c0a823          	sw	a2,1424(ra)

000021e8 <inst_388>:
    21e8:	66666537          	lui	a0,0x66666
    21ec:	66750513          	addi	a0,a0,1639 # 66666667 <_end+0x6665fb63>
    21f0:	0000b5b7          	lui	a1,0xb
    21f4:	50358593          	addi	a1,a1,1283 # b503 <_end+0x49ff>
    21f8:	02b51633          	mulh	a2,a0,a1
    21fc:	58c0aa23          	sw	a2,1428(ra)

00002200 <inst_389>:
    2200:	66666537          	lui	a0,0x66666
    2204:	66750513          	addi	a0,a0,1639 # 66666667 <_end+0x6665fb63>
    2208:	555555b7          	lui	a1,0x55555
    220c:	55658593          	addi	a1,a1,1366 # 55555556 <_end+0x5554ea52>
    2210:	02b51633          	mulh	a2,a0,a1
    2214:	58c0ac23          	sw	a2,1432(ra)

00002218 <inst_390>:
    2218:	66666537          	lui	a0,0x66666
    221c:	66750513          	addi	a0,a0,1639 # 66666667 <_end+0x6665fb63>
    2220:	aaaab5b7          	lui	a1,0xaaaab
    2224:	aab58593          	addi	a1,a1,-1365 # aaaaaaab <_end+0xaaaa3fa7>
    2228:	02b51633          	mulh	a2,a0,a1
    222c:	58c0ae23          	sw	a2,1436(ra)

00002230 <inst_391>:
    2230:	66666537          	lui	a0,0x66666
    2234:	66750513          	addi	a0,a0,1639 # 66666667 <_end+0x6665fb63>
    2238:	00600593          	li	a1,6
    223c:	02b51633          	mulh	a2,a0,a1
    2240:	5ac0a023          	sw	a2,1440(ra)

00002244 <inst_392>:
    2244:	66666537          	lui	a0,0x66666
    2248:	66750513          	addi	a0,a0,1639 # 66666667 <_end+0x6665fb63>
    224c:	333335b7          	lui	a1,0x33333
    2250:	33458593          	addi	a1,a1,820 # 33333334 <_end+0x3332c830>
    2254:	02b51633          	mulh	a2,a0,a1
    2258:	5ac0a223          	sw	a2,1444(ra)

0000225c <inst_393>:
    225c:	66666537          	lui	a0,0x66666
    2260:	66750513          	addi	a0,a0,1639 # 66666667 <_end+0x6665fb63>
    2264:	666665b7          	lui	a1,0x66666
    2268:	66758593          	addi	a1,a1,1639 # 66666667 <_end+0x6665fb63>
    226c:	02b51633          	mulh	a2,a0,a1
    2270:	5ac0a423          	sw	a2,1448(ra)

00002274 <inst_394>:
    2274:	66666537          	lui	a0,0x66666
    2278:	66750513          	addi	a0,a0,1639 # 66666667 <_end+0x6665fb63>
    227c:	ffff55b7          	lui	a1,0xffff5
    2280:	afd58593          	addi	a1,a1,-1283 # ffff4afd <_end+0xfffedff9>
    2284:	02b51633          	mulh	a2,a0,a1
    2288:	5ac0a623          	sw	a2,1452(ra)

0000228c <inst_395>:
    228c:	66666537          	lui	a0,0x66666
    2290:	66750513          	addi	a0,a0,1639 # 66666667 <_end+0x6665fb63>
    2294:	0000b5b7          	lui	a1,0xb
    2298:	50558593          	addi	a1,a1,1285 # b505 <_end+0x4a01>
    229c:	02b51633          	mulh	a2,a0,a1
    22a0:	5ac0a823          	sw	a2,1456(ra)

000022a4 <inst_396>:
    22a4:	ffff5537          	lui	a0,0xffff5
    22a8:	afd50513          	addi	a0,a0,-1283 # ffff4afd <_end+0xfffedff9>
    22ac:	00300593          	li	a1,3
    22b0:	02b51633          	mulh	a2,a0,a1
    22b4:	5ac0aa23          	sw	a2,1460(ra)

000022b8 <inst_397>:
    22b8:	ffff5537          	lui	a0,0xffff5
    22bc:	afd50513          	addi	a0,a0,-1283 # ffff4afd <_end+0xfffedff9>
    22c0:	555555b7          	lui	a1,0x55555
    22c4:	55558593          	addi	a1,a1,1365 # 55555555 <_end+0x5554ea51>
    22c8:	02b51633          	mulh	a2,a0,a1
    22cc:	5ac0ac23          	sw	a2,1464(ra)

000022d0 <inst_398>:
    22d0:	ffff5537          	lui	a0,0xffff5
    22d4:	afd50513          	addi	a0,a0,-1283 # ffff4afd <_end+0xfffedff9>
    22d8:	aaaab5b7          	lui	a1,0xaaaab
    22dc:	aaa58593          	addi	a1,a1,-1366 # aaaaaaaa <_end+0xaaaa3fa6>
    22e0:	02b51633          	mulh	a2,a0,a1
    22e4:	5ac0ae23          	sw	a2,1468(ra)

000022e8 <inst_399>:
    22e8:	ffff5537          	lui	a0,0xffff5
    22ec:	afd50513          	addi	a0,a0,-1283 # ffff4afd <_end+0xfffedff9>
    22f0:	00500593          	li	a1,5
    22f4:	02b51633          	mulh	a2,a0,a1
    22f8:	5cc0a023          	sw	a2,1472(ra)

000022fc <inst_400>:
    22fc:	ffff5537          	lui	a0,0xffff5
    2300:	afd50513          	addi	a0,a0,-1283 # ffff4afd <_end+0xfffedff9>
    2304:	333335b7          	lui	a1,0x33333
    2308:	33358593          	addi	a1,a1,819 # 33333333 <_end+0x3332c82f>
    230c:	02b51633          	mulh	a2,a0,a1
    2310:	5cc0a223          	sw	a2,1476(ra)

00002314 <inst_401>:
    2314:	ffff5537          	lui	a0,0xffff5
    2318:	afd50513          	addi	a0,a0,-1283 # ffff4afd <_end+0xfffedff9>
    231c:	666665b7          	lui	a1,0x66666
    2320:	66658593          	addi	a1,a1,1638 # 66666666 <_end+0x6665fb62>
    2324:	02b51633          	mulh	a2,a0,a1
    2328:	5cc0a423          	sw	a2,1480(ra)

0000232c <inst_402>:
    232c:	ffff5537          	lui	a0,0xffff5
    2330:	afd50513          	addi	a0,a0,-1283 # ffff4afd <_end+0xfffedff9>
    2334:	ffff55b7          	lui	a1,0xffff5
    2338:	afc58593          	addi	a1,a1,-1284 # ffff4afc <_end+0xfffedff8>
    233c:	02b51633          	mulh	a2,a0,a1
    2340:	5cc0a623          	sw	a2,1484(ra)

00002344 <inst_403>:
    2344:	ffff5537          	lui	a0,0xffff5
    2348:	afd50513          	addi	a0,a0,-1283 # ffff4afd <_end+0xfffedff9>
    234c:	0000b5b7          	lui	a1,0xb
    2350:	50458593          	addi	a1,a1,1284 # b504 <_end+0x4a00>
    2354:	02b51633          	mulh	a2,a0,a1
    2358:	5cc0a823          	sw	a2,1488(ra)

0000235c <inst_404>:
    235c:	ffff5537          	lui	a0,0xffff5
    2360:	afd50513          	addi	a0,a0,-1283 # ffff4afd <_end+0xfffedff9>
    2364:	00200593          	li	a1,2
    2368:	02b51633          	mulh	a2,a0,a1
    236c:	5cc0aa23          	sw	a2,1492(ra)

00002370 <inst_405>:
    2370:	ffff5537          	lui	a0,0xffff5
    2374:	afd50513          	addi	a0,a0,-1283 # ffff4afd <_end+0xfffedff9>
    2378:	555555b7          	lui	a1,0x55555
    237c:	55458593          	addi	a1,a1,1364 # 55555554 <_end+0x5554ea50>
    2380:	02b51633          	mulh	a2,a0,a1
    2384:	5cc0ac23          	sw	a2,1496(ra)

00002388 <inst_406>:
    2388:	ffff5537          	lui	a0,0xffff5
    238c:	afd50513          	addi	a0,a0,-1283 # ffff4afd <_end+0xfffedff9>
    2390:	00000593          	li	a1,0
    2394:	02b51633          	mulh	a2,a0,a1
    2398:	5cc0ae23          	sw	a2,1500(ra)

0000239c <inst_407>:
    239c:	ffff5537          	lui	a0,0xffff5
    23a0:	afd50513          	addi	a0,a0,-1283 # ffff4afd <_end+0xfffedff9>
    23a4:	00400593          	li	a1,4
    23a8:	02b51633          	mulh	a2,a0,a1
    23ac:	5ec0a023          	sw	a2,1504(ra)

000023b0 <inst_408>:
    23b0:	ffff5537          	lui	a0,0xffff5
    23b4:	afd50513          	addi	a0,a0,-1283 # ffff4afd <_end+0xfffedff9>
    23b8:	333335b7          	lui	a1,0x33333
    23bc:	33258593          	addi	a1,a1,818 # 33333332 <_end+0x3332c82e>
    23c0:	02b51633          	mulh	a2,a0,a1
    23c4:	5ec0a223          	sw	a2,1508(ra)

000023c8 <inst_409>:
    23c8:	ffff5537          	lui	a0,0xffff5
    23cc:	afd50513          	addi	a0,a0,-1283 # ffff4afd <_end+0xfffedff9>
    23d0:	666665b7          	lui	a1,0x66666
    23d4:	66558593          	addi	a1,a1,1637 # 66666665 <_end+0x6665fb61>
    23d8:	02b51633          	mulh	a2,a0,a1
    23dc:	5ec0a423          	sw	a2,1512(ra)

000023e0 <inst_410>:
    23e0:	ffff5537          	lui	a0,0xffff5
    23e4:	afd50513          	addi	a0,a0,-1283 # ffff4afd <_end+0xfffedff9>
    23e8:	0000b5b7          	lui	a1,0xb
    23ec:	50358593          	addi	a1,a1,1283 # b503 <_end+0x49ff>
    23f0:	02b51633          	mulh	a2,a0,a1
    23f4:	5ec0a623          	sw	a2,1516(ra)

000023f8 <inst_411>:
    23f8:	ffff5537          	lui	a0,0xffff5
    23fc:	afd50513          	addi	a0,a0,-1283 # ffff4afd <_end+0xfffedff9>
    2400:	555555b7          	lui	a1,0x55555
    2404:	55658593          	addi	a1,a1,1366 # 55555556 <_end+0x5554ea52>
    2408:	02b51633          	mulh	a2,a0,a1
    240c:	5ec0a823          	sw	a2,1520(ra)

00002410 <inst_412>:
    2410:	ffff5537          	lui	a0,0xffff5
    2414:	afd50513          	addi	a0,a0,-1283 # ffff4afd <_end+0xfffedff9>
    2418:	aaaab5b7          	lui	a1,0xaaaab
    241c:	aab58593          	addi	a1,a1,-1365 # aaaaaaab <_end+0xaaaa3fa7>
    2420:	02b51633          	mulh	a2,a0,a1
    2424:	5ec0aa23          	sw	a2,1524(ra)

00002428 <inst_413>:
    2428:	ffff5537          	lui	a0,0xffff5
    242c:	afd50513          	addi	a0,a0,-1283 # ffff4afd <_end+0xfffedff9>
    2430:	00600593          	li	a1,6
    2434:	02b51633          	mulh	a2,a0,a1
    2438:	5ec0ac23          	sw	a2,1528(ra)

0000243c <inst_414>:
    243c:	ffff5537          	lui	a0,0xffff5
    2440:	afd50513          	addi	a0,a0,-1283 # ffff4afd <_end+0xfffedff9>
    2444:	333335b7          	lui	a1,0x33333
    2448:	33458593          	addi	a1,a1,820 # 33333334 <_end+0x3332c830>
    244c:	02b51633          	mulh	a2,a0,a1
    2450:	5ec0ae23          	sw	a2,1532(ra)

00002454 <inst_415>:
    2454:	ffff5537          	lui	a0,0xffff5
    2458:	afd50513          	addi	a0,a0,-1283 # ffff4afd <_end+0xfffedff9>
    245c:	666665b7          	lui	a1,0x66666
    2460:	66758593          	addi	a1,a1,1639 # 66666667 <_end+0x6665fb63>
    2464:	02b51633          	mulh	a2,a0,a1
    2468:	60c0a023          	sw	a2,1536(ra)

0000246c <inst_416>:
    246c:	ffff5537          	lui	a0,0xffff5
    2470:	afd50513          	addi	a0,a0,-1283 # ffff4afd <_end+0xfffedff9>
    2474:	ffff55b7          	lui	a1,0xffff5
    2478:	afd58593          	addi	a1,a1,-1283 # ffff4afd <_end+0xfffedff9>
    247c:	02b51633          	mulh	a2,a0,a1
    2480:	60c0a223          	sw	a2,1540(ra)

00002484 <inst_417>:
    2484:	ffff5537          	lui	a0,0xffff5
    2488:	afd50513          	addi	a0,a0,-1283 # ffff4afd <_end+0xfffedff9>
    248c:	0000b5b7          	lui	a1,0xb
    2490:	50558593          	addi	a1,a1,1285 # b505 <_end+0x4a01>
    2494:	02b51633          	mulh	a2,a0,a1
    2498:	60c0a423          	sw	a2,1544(ra)

0000249c <inst_418>:
    249c:	0000b537          	lui	a0,0xb
    24a0:	50550513          	addi	a0,a0,1285 # b505 <_end+0x4a01>
    24a4:	00300593          	li	a1,3
    24a8:	02b51633          	mulh	a2,a0,a1
    24ac:	60c0a623          	sw	a2,1548(ra)

000024b0 <inst_419>:
    24b0:	0000b537          	lui	a0,0xb
    24b4:	50550513          	addi	a0,a0,1285 # b505 <_end+0x4a01>
    24b8:	555555b7          	lui	a1,0x55555
    24bc:	55558593          	addi	a1,a1,1365 # 55555555 <_end+0x5554ea51>
    24c0:	02b51633          	mulh	a2,a0,a1
    24c4:	60c0a823          	sw	a2,1552(ra)

000024c8 <inst_420>:
    24c8:	0000b537          	lui	a0,0xb
    24cc:	50550513          	addi	a0,a0,1285 # b505 <_end+0x4a01>
    24d0:	aaaab5b7          	lui	a1,0xaaaab
    24d4:	aaa58593          	addi	a1,a1,-1366 # aaaaaaaa <_end+0xaaaa3fa6>
    24d8:	02b51633          	mulh	a2,a0,a1
    24dc:	60c0aa23          	sw	a2,1556(ra)

000024e0 <inst_421>:
    24e0:	0000b537          	lui	a0,0xb
    24e4:	50550513          	addi	a0,a0,1285 # b505 <_end+0x4a01>
    24e8:	00500593          	li	a1,5
    24ec:	02b51633          	mulh	a2,a0,a1
    24f0:	60c0ac23          	sw	a2,1560(ra)

000024f4 <inst_422>:
    24f4:	0000b537          	lui	a0,0xb
    24f8:	50550513          	addi	a0,a0,1285 # b505 <_end+0x4a01>
    24fc:	333335b7          	lui	a1,0x33333
    2500:	33358593          	addi	a1,a1,819 # 33333333 <_end+0x3332c82f>
    2504:	02b51633          	mulh	a2,a0,a1
    2508:	60c0ae23          	sw	a2,1564(ra)

0000250c <inst_423>:
    250c:	0000b537          	lui	a0,0xb
    2510:	50550513          	addi	a0,a0,1285 # b505 <_end+0x4a01>
    2514:	666665b7          	lui	a1,0x66666
    2518:	66658593          	addi	a1,a1,1638 # 66666666 <_end+0x6665fb62>
    251c:	02b51633          	mulh	a2,a0,a1
    2520:	62c0a023          	sw	a2,1568(ra)

00002524 <inst_424>:
    2524:	0000b537          	lui	a0,0xb
    2528:	50550513          	addi	a0,a0,1285 # b505 <_end+0x4a01>
    252c:	ffff55b7          	lui	a1,0xffff5
    2530:	afc58593          	addi	a1,a1,-1284 # ffff4afc <_end+0xfffedff8>
    2534:	02b51633          	mulh	a2,a0,a1
    2538:	62c0a223          	sw	a2,1572(ra)

0000253c <inst_425>:
    253c:	0000b537          	lui	a0,0xb
    2540:	50550513          	addi	a0,a0,1285 # b505 <_end+0x4a01>
    2544:	0000b5b7          	lui	a1,0xb
    2548:	50458593          	addi	a1,a1,1284 # b504 <_end+0x4a00>
    254c:	02b51633          	mulh	a2,a0,a1
    2550:	62c0a423          	sw	a2,1576(ra)

00002554 <inst_426>:
    2554:	0000b537          	lui	a0,0xb
    2558:	50550513          	addi	a0,a0,1285 # b505 <_end+0x4a01>
    255c:	00200593          	li	a1,2
    2560:	02b51633          	mulh	a2,a0,a1
    2564:	62c0a623          	sw	a2,1580(ra)

00002568 <inst_427>:
    2568:	0000b537          	lui	a0,0xb
    256c:	50550513          	addi	a0,a0,1285 # b505 <_end+0x4a01>
    2570:	555555b7          	lui	a1,0x55555
    2574:	55458593          	addi	a1,a1,1364 # 55555554 <_end+0x5554ea50>
    2578:	02b51633          	mulh	a2,a0,a1
    257c:	62c0a823          	sw	a2,1584(ra)

00002580 <inst_428>:
    2580:	0000b537          	lui	a0,0xb
    2584:	50550513          	addi	a0,a0,1285 # b505 <_end+0x4a01>
    2588:	00000593          	li	a1,0
    258c:	02b51633          	mulh	a2,a0,a1
    2590:	62c0aa23          	sw	a2,1588(ra)

00002594 <inst_429>:
    2594:	0000b537          	lui	a0,0xb
    2598:	50550513          	addi	a0,a0,1285 # b505 <_end+0x4a01>
    259c:	00400593          	li	a1,4
    25a0:	02b51633          	mulh	a2,a0,a1
    25a4:	62c0ac23          	sw	a2,1592(ra)

000025a8 <inst_430>:
    25a8:	0000b537          	lui	a0,0xb
    25ac:	50550513          	addi	a0,a0,1285 # b505 <_end+0x4a01>
    25b0:	333335b7          	lui	a1,0x33333
    25b4:	33258593          	addi	a1,a1,818 # 33333332 <_end+0x3332c82e>
    25b8:	02b51633          	mulh	a2,a0,a1
    25bc:	62c0ae23          	sw	a2,1596(ra)

000025c0 <inst_431>:
    25c0:	0000b537          	lui	a0,0xb
    25c4:	50550513          	addi	a0,a0,1285 # b505 <_end+0x4a01>
    25c8:	666665b7          	lui	a1,0x66666
    25cc:	66558593          	addi	a1,a1,1637 # 66666665 <_end+0x6665fb61>
    25d0:	02b51633          	mulh	a2,a0,a1
    25d4:	64c0a023          	sw	a2,1600(ra)

000025d8 <inst_432>:
    25d8:	0000b537          	lui	a0,0xb
    25dc:	50550513          	addi	a0,a0,1285 # b505 <_end+0x4a01>
    25e0:	0000b5b7          	lui	a1,0xb
    25e4:	50358593          	addi	a1,a1,1283 # b503 <_end+0x49ff>
    25e8:	02b51633          	mulh	a2,a0,a1
    25ec:	64c0a223          	sw	a2,1604(ra)

000025f0 <inst_433>:
    25f0:	0000b537          	lui	a0,0xb
    25f4:	50550513          	addi	a0,a0,1285 # b505 <_end+0x4a01>
    25f8:	555555b7          	lui	a1,0x55555
    25fc:	55658593          	addi	a1,a1,1366 # 55555556 <_end+0x5554ea52>
    2600:	02b51633          	mulh	a2,a0,a1
    2604:	64c0a423          	sw	a2,1608(ra)

00002608 <inst_434>:
    2608:	0000b537          	lui	a0,0xb
    260c:	50550513          	addi	a0,a0,1285 # b505 <_end+0x4a01>
    2610:	aaaab5b7          	lui	a1,0xaaaab
    2614:	aab58593          	addi	a1,a1,-1365 # aaaaaaab <_end+0xaaaa3fa7>
    2618:	02b51633          	mulh	a2,a0,a1
    261c:	64c0a623          	sw	a2,1612(ra)

00002620 <inst_435>:
    2620:	0000b537          	lui	a0,0xb
    2624:	50550513          	addi	a0,a0,1285 # b505 <_end+0x4a01>
    2628:	00600593          	li	a1,6
    262c:	02b51633          	mulh	a2,a0,a1
    2630:	64c0a823          	sw	a2,1616(ra)

00002634 <inst_436>:
    2634:	0000b537          	lui	a0,0xb
    2638:	50550513          	addi	a0,a0,1285 # b505 <_end+0x4a01>
    263c:	333335b7          	lui	a1,0x33333
    2640:	33458593          	addi	a1,a1,820 # 33333334 <_end+0x3332c830>
    2644:	02b51633          	mulh	a2,a0,a1
    2648:	64c0aa23          	sw	a2,1620(ra)

0000264c <inst_437>:
    264c:	0000b537          	lui	a0,0xb
    2650:	50550513          	addi	a0,a0,1285 # b505 <_end+0x4a01>
    2654:	666665b7          	lui	a1,0x66666
    2658:	66758593          	addi	a1,a1,1639 # 66666667 <_end+0x6665fb63>
    265c:	02b51633          	mulh	a2,a0,a1
    2660:	64c0ac23          	sw	a2,1624(ra)

00002664 <inst_438>:
    2664:	0000b537          	lui	a0,0xb
    2668:	50550513          	addi	a0,a0,1285 # b505 <_end+0x4a01>
    266c:	ffff55b7          	lui	a1,0xffff5
    2670:	afd58593          	addi	a1,a1,-1283 # ffff4afd <_end+0xfffedff9>
    2674:	02b51633          	mulh	a2,a0,a1
    2678:	64c0ae23          	sw	a2,1628(ra)

0000267c <inst_439>:
    267c:	0000b537          	lui	a0,0xb
    2680:	50550513          	addi	a0,a0,1285 # b505 <_end+0x4a01>
    2684:	0000b5b7          	lui	a1,0xb
    2688:	50558593          	addi	a1,a1,1285 # b505 <_end+0x4a01>
    268c:	02b51633          	mulh	a2,a0,a1
    2690:	66c0a023          	sw	a2,1632(ra)

00002694 <inst_440>:
    2694:	00000513          	li	a0,0
    2698:	ffff55b7          	lui	a1,0xffff5
    269c:	afc58593          	addi	a1,a1,-1284 # ffff4afc <_end+0xfffedff8>
    26a0:	02b51633          	mulh	a2,a0,a1
    26a4:	66c0a223          	sw	a2,1636(ra)

000026a8 <inst_441>:
    26a8:	00000513          	li	a0,0
    26ac:	0000b5b7          	lui	a1,0xb
    26b0:	50458593          	addi	a1,a1,1284 # b504 <_end+0x4a00>
    26b4:	02b51633          	mulh	a2,a0,a1
    26b8:	66c0a423          	sw	a2,1640(ra)

000026bc <inst_442>:
    26bc:	00000513          	li	a0,0
    26c0:	00200593          	li	a1,2
    26c4:	02b51633          	mulh	a2,a0,a1
    26c8:	66c0a623          	sw	a2,1644(ra)

000026cc <inst_443>:
    26cc:	00000513          	li	a0,0
    26d0:	555555b7          	lui	a1,0x55555
    26d4:	55458593          	addi	a1,a1,1364 # 55555554 <_end+0x5554ea50>
    26d8:	02b51633          	mulh	a2,a0,a1
    26dc:	66c0a823          	sw	a2,1648(ra)

000026e0 <inst_444>:
    26e0:	00000513          	li	a0,0
    26e4:	00000593          	li	a1,0
    26e8:	02b51633          	mulh	a2,a0,a1
    26ec:	66c0aa23          	sw	a2,1652(ra)

000026f0 <inst_445>:
    26f0:	00000513          	li	a0,0
    26f4:	333335b7          	lui	a1,0x33333
    26f8:	33258593          	addi	a1,a1,818 # 33333332 <_end+0x3332c82e>
    26fc:	02b51633          	mulh	a2,a0,a1
    2700:	66c0ac23          	sw	a2,1656(ra)

00002704 <inst_446>:
    2704:	00000513          	li	a0,0
    2708:	666665b7          	lui	a1,0x66666
    270c:	66558593          	addi	a1,a1,1637 # 66666665 <_end+0x6665fb61>
    2710:	02b51633          	mulh	a2,a0,a1
    2714:	66c0ae23          	sw	a2,1660(ra)

00002718 <inst_447>:
    2718:	00000513          	li	a0,0
    271c:	0000b5b7          	lui	a1,0xb
    2720:	50358593          	addi	a1,a1,1283 # b503 <_end+0x49ff>
    2724:	02b51633          	mulh	a2,a0,a1
    2728:	68c0a023          	sw	a2,1664(ra)

0000272c <inst_448>:
    272c:	00000513          	li	a0,0
    2730:	555555b7          	lui	a1,0x55555
    2734:	55658593          	addi	a1,a1,1366 # 55555556 <_end+0x5554ea52>
    2738:	02b51633          	mulh	a2,a0,a1
    273c:	68c0a223          	sw	a2,1668(ra)

00002740 <inst_449>:
    2740:	00000513          	li	a0,0
    2744:	aaaab5b7          	lui	a1,0xaaaab
    2748:	aab58593          	addi	a1,a1,-1365 # aaaaaaab <_end+0xaaaa3fa7>
    274c:	02b51633          	mulh	a2,a0,a1
    2750:	68c0a423          	sw	a2,1672(ra)

00002754 <inst_450>:
    2754:	00000513          	li	a0,0
    2758:	00600593          	li	a1,6
    275c:	02b51633          	mulh	a2,a0,a1
    2760:	68c0a623          	sw	a2,1676(ra)

00002764 <inst_451>:
    2764:	00000513          	li	a0,0
    2768:	333335b7          	lui	a1,0x33333
    276c:	33458593          	addi	a1,a1,820 # 33333334 <_end+0x3332c830>
    2770:	02b51633          	mulh	a2,a0,a1
    2774:	68c0a823          	sw	a2,1680(ra)

00002778 <inst_452>:
    2778:	00000513          	li	a0,0
    277c:	666665b7          	lui	a1,0x66666
    2780:	66758593          	addi	a1,a1,1639 # 66666667 <_end+0x6665fb63>
    2784:	02b51633          	mulh	a2,a0,a1
    2788:	68c0aa23          	sw	a2,1684(ra)

0000278c <inst_453>:
    278c:	00000513          	li	a0,0
    2790:	ffff55b7          	lui	a1,0xffff5
    2794:	afd58593          	addi	a1,a1,-1283 # ffff4afd <_end+0xfffedff9>
    2798:	02b51633          	mulh	a2,a0,a1
    279c:	68c0ac23          	sw	a2,1688(ra)

000027a0 <inst_454>:
    27a0:	00000513          	li	a0,0
    27a4:	0000b5b7          	lui	a1,0xb
    27a8:	50558593          	addi	a1,a1,1285 # b505 <_end+0x4a01>
    27ac:	02b51633          	mulh	a2,a0,a1
    27b0:	68c0ae23          	sw	a2,1692(ra)

000027b4 <inst_455>:
    27b4:	00400513          	li	a0,4
    27b8:	00300593          	li	a1,3
    27bc:	02b51633          	mulh	a2,a0,a1
    27c0:	6ac0a023          	sw	a2,1696(ra)

000027c4 <inst_456>:
    27c4:	00400513          	li	a0,4
    27c8:	555555b7          	lui	a1,0x55555
    27cc:	55558593          	addi	a1,a1,1365 # 55555555 <_end+0x5554ea51>
    27d0:	02b51633          	mulh	a2,a0,a1
    27d4:	6ac0a223          	sw	a2,1700(ra)

000027d8 <inst_457>:
    27d8:	00400513          	li	a0,4
    27dc:	aaaab5b7          	lui	a1,0xaaaab
    27e0:	aaa58593          	addi	a1,a1,-1366 # aaaaaaaa <_end+0xaaaa3fa6>
    27e4:	02b51633          	mulh	a2,a0,a1
    27e8:	6ac0a423          	sw	a2,1704(ra)

000027ec <inst_458>:
    27ec:	00400513          	li	a0,4
    27f0:	00500593          	li	a1,5
    27f4:	02b51633          	mulh	a2,a0,a1
    27f8:	6ac0a623          	sw	a2,1708(ra)

000027fc <inst_459>:
    27fc:	00400513          	li	a0,4
    2800:	333335b7          	lui	a1,0x33333
    2804:	33358593          	addi	a1,a1,819 # 33333333 <_end+0x3332c82f>
    2808:	02b51633          	mulh	a2,a0,a1
    280c:	6ac0a823          	sw	a2,1712(ra)

00002810 <inst_460>:
    2810:	00400513          	li	a0,4
    2814:	666665b7          	lui	a1,0x66666
    2818:	66658593          	addi	a1,a1,1638 # 66666666 <_end+0x6665fb62>
    281c:	02b51633          	mulh	a2,a0,a1
    2820:	6ac0aa23          	sw	a2,1716(ra)

00002824 <inst_461>:
    2824:	00400513          	li	a0,4
    2828:	ffff55b7          	lui	a1,0xffff5
    282c:	afc58593          	addi	a1,a1,-1284 # ffff4afc <_end+0xfffedff8>
    2830:	02b51633          	mulh	a2,a0,a1
    2834:	6ac0ac23          	sw	a2,1720(ra)

00002838 <inst_462>:
    2838:	00400513          	li	a0,4
    283c:	0000b5b7          	lui	a1,0xb
    2840:	50458593          	addi	a1,a1,1284 # b504 <_end+0x4a00>
    2844:	02b51633          	mulh	a2,a0,a1
    2848:	6ac0ae23          	sw	a2,1724(ra)

0000284c <inst_463>:
    284c:	00400513          	li	a0,4
    2850:	00200593          	li	a1,2
    2854:	02b51633          	mulh	a2,a0,a1
    2858:	6cc0a023          	sw	a2,1728(ra)

0000285c <inst_464>:
    285c:	00400513          	li	a0,4
    2860:	555555b7          	lui	a1,0x55555
    2864:	55458593          	addi	a1,a1,1364 # 55555554 <_end+0x5554ea50>
    2868:	02b51633          	mulh	a2,a0,a1
    286c:	6cc0a223          	sw	a2,1732(ra)

00002870 <inst_465>:
    2870:	00400513          	li	a0,4
    2874:	00000593          	li	a1,0
    2878:	02b51633          	mulh	a2,a0,a1
    287c:	6cc0a423          	sw	a2,1736(ra)

00002880 <inst_466>:
    2880:	00400513          	li	a0,4
    2884:	00400593          	li	a1,4
    2888:	02b51633          	mulh	a2,a0,a1
    288c:	6cc0a623          	sw	a2,1740(ra)

00002890 <inst_467>:
    2890:	00400513          	li	a0,4
    2894:	333335b7          	lui	a1,0x33333
    2898:	33258593          	addi	a1,a1,818 # 33333332 <_end+0x3332c82e>
    289c:	02b51633          	mulh	a2,a0,a1
    28a0:	6cc0a823          	sw	a2,1744(ra)

000028a4 <inst_468>:
    28a4:	00400513          	li	a0,4
    28a8:	666665b7          	lui	a1,0x66666
    28ac:	66558593          	addi	a1,a1,1637 # 66666665 <_end+0x6665fb61>
    28b0:	02b51633          	mulh	a2,a0,a1
    28b4:	6cc0aa23          	sw	a2,1748(ra)

000028b8 <inst_469>:
    28b8:	00400513          	li	a0,4
    28bc:	0000b5b7          	lui	a1,0xb
    28c0:	50358593          	addi	a1,a1,1283 # b503 <_end+0x49ff>
    28c4:	02b51633          	mulh	a2,a0,a1
    28c8:	6cc0ac23          	sw	a2,1752(ra)

000028cc <inst_470>:
    28cc:	00400513          	li	a0,4
    28d0:	555555b7          	lui	a1,0x55555
    28d4:	55658593          	addi	a1,a1,1366 # 55555556 <_end+0x5554ea52>
    28d8:	02b51633          	mulh	a2,a0,a1
    28dc:	6cc0ae23          	sw	a2,1756(ra)

000028e0 <inst_471>:
    28e0:	00400513          	li	a0,4
    28e4:	aaaab5b7          	lui	a1,0xaaaab
    28e8:	aab58593          	addi	a1,a1,-1365 # aaaaaaab <_end+0xaaaa3fa7>
    28ec:	02b51633          	mulh	a2,a0,a1
    28f0:	6ec0a023          	sw	a2,1760(ra)

000028f4 <inst_472>:
    28f4:	00400513          	li	a0,4
    28f8:	00600593          	li	a1,6
    28fc:	02b51633          	mulh	a2,a0,a1
    2900:	6ec0a223          	sw	a2,1764(ra)

00002904 <inst_473>:
    2904:	00400513          	li	a0,4
    2908:	333335b7          	lui	a1,0x33333
    290c:	33458593          	addi	a1,a1,820 # 33333334 <_end+0x3332c830>
    2910:	02b51633          	mulh	a2,a0,a1
    2914:	6ec0a423          	sw	a2,1768(ra)

00002918 <inst_474>:
    2918:	00400513          	li	a0,4
    291c:	666665b7          	lui	a1,0x66666
    2920:	66758593          	addi	a1,a1,1639 # 66666667 <_end+0x6665fb63>
    2924:	02b51633          	mulh	a2,a0,a1
    2928:	6ec0a623          	sw	a2,1772(ra)

0000292c <inst_475>:
    292c:	00400513          	li	a0,4
    2930:	ffff55b7          	lui	a1,0xffff5
    2934:	afd58593          	addi	a1,a1,-1283 # ffff4afd <_end+0xfffedff9>
    2938:	02b51633          	mulh	a2,a0,a1
    293c:	6ec0a823          	sw	a2,1776(ra)

00002940 <inst_476>:
    2940:	00400513          	li	a0,4
    2944:	0000b5b7          	lui	a1,0xb
    2948:	50558593          	addi	a1,a1,1285 # b505 <_end+0x4a01>
    294c:	02b51633          	mulh	a2,a0,a1
    2950:	6ec0aa23          	sw	a2,1780(ra)

00002954 <inst_477>:
    2954:	33333537          	lui	a0,0x33333
    2958:	33250513          	addi	a0,a0,818 # 33333332 <_end+0x3332c82e>
    295c:	00300593          	li	a1,3
    2960:	02b51633          	mulh	a2,a0,a1
    2964:	6ec0ac23          	sw	a2,1784(ra)

00002968 <inst_478>:
    2968:	33333537          	lui	a0,0x33333
    296c:	33250513          	addi	a0,a0,818 # 33333332 <_end+0x3332c82e>
    2970:	555555b7          	lui	a1,0x55555
    2974:	55558593          	addi	a1,a1,1365 # 55555555 <_end+0x5554ea51>
    2978:	02b51633          	mulh	a2,a0,a1
    297c:	6ec0ae23          	sw	a2,1788(ra)

00002980 <inst_479>:
    2980:	33333537          	lui	a0,0x33333
    2984:	33250513          	addi	a0,a0,818 # 33333332 <_end+0x3332c82e>
    2988:	aaaab5b7          	lui	a1,0xaaaab
    298c:	aaa58593          	addi	a1,a1,-1366 # aaaaaaaa <_end+0xaaaa3fa6>
    2990:	02b51633          	mulh	a2,a0,a1
    2994:	70c0a023          	sw	a2,1792(ra)

00002998 <inst_480>:
    2998:	33333537          	lui	a0,0x33333
    299c:	33250513          	addi	a0,a0,818 # 33333332 <_end+0x3332c82e>
    29a0:	00500593          	li	a1,5
    29a4:	02b51633          	mulh	a2,a0,a1
    29a8:	70c0a223          	sw	a2,1796(ra)

000029ac <inst_481>:
    29ac:	33333537          	lui	a0,0x33333
    29b0:	33250513          	addi	a0,a0,818 # 33333332 <_end+0x3332c82e>
    29b4:	333335b7          	lui	a1,0x33333
    29b8:	33358593          	addi	a1,a1,819 # 33333333 <_end+0x3332c82f>
    29bc:	02b51633          	mulh	a2,a0,a1
    29c0:	70c0a423          	sw	a2,1800(ra)

000029c4 <inst_482>:
    29c4:	33333537          	lui	a0,0x33333
    29c8:	33250513          	addi	a0,a0,818 # 33333332 <_end+0x3332c82e>
    29cc:	666665b7          	lui	a1,0x66666
    29d0:	66658593          	addi	a1,a1,1638 # 66666666 <_end+0x6665fb62>
    29d4:	02b51633          	mulh	a2,a0,a1
    29d8:	70c0a623          	sw	a2,1804(ra)

000029dc <inst_483>:
    29dc:	33333537          	lui	a0,0x33333
    29e0:	33250513          	addi	a0,a0,818 # 33333332 <_end+0x3332c82e>
    29e4:	ffff55b7          	lui	a1,0xffff5
    29e8:	afc58593          	addi	a1,a1,-1284 # ffff4afc <_end+0xfffedff8>
    29ec:	02b51633          	mulh	a2,a0,a1
    29f0:	70c0a823          	sw	a2,1808(ra)

000029f4 <inst_484>:
    29f4:	33333537          	lui	a0,0x33333
    29f8:	33250513          	addi	a0,a0,818 # 33333332 <_end+0x3332c82e>
    29fc:	0000b5b7          	lui	a1,0xb
    2a00:	50458593          	addi	a1,a1,1284 # b504 <_end+0x4a00>
    2a04:	02b51633          	mulh	a2,a0,a1
    2a08:	70c0aa23          	sw	a2,1812(ra)

00002a0c <inst_485>:
    2a0c:	33333537          	lui	a0,0x33333
    2a10:	33250513          	addi	a0,a0,818 # 33333332 <_end+0x3332c82e>
    2a14:	00200593          	li	a1,2
    2a18:	02b51633          	mulh	a2,a0,a1
    2a1c:	70c0ac23          	sw	a2,1816(ra)

00002a20 <inst_486>:
    2a20:	33333537          	lui	a0,0x33333
    2a24:	33250513          	addi	a0,a0,818 # 33333332 <_end+0x3332c82e>
    2a28:	555555b7          	lui	a1,0x55555
    2a2c:	55458593          	addi	a1,a1,1364 # 55555554 <_end+0x5554ea50>
    2a30:	02b51633          	mulh	a2,a0,a1
    2a34:	70c0ae23          	sw	a2,1820(ra)

00002a38 <inst_487>:
    2a38:	33333537          	lui	a0,0x33333
    2a3c:	33250513          	addi	a0,a0,818 # 33333332 <_end+0x3332c82e>
    2a40:	00000593          	li	a1,0
    2a44:	02b51633          	mulh	a2,a0,a1
    2a48:	72c0a023          	sw	a2,1824(ra)

00002a4c <inst_488>:
    2a4c:	33333537          	lui	a0,0x33333
    2a50:	33250513          	addi	a0,a0,818 # 33333332 <_end+0x3332c82e>
    2a54:	00400593          	li	a1,4
    2a58:	02b51633          	mulh	a2,a0,a1
    2a5c:	72c0a223          	sw	a2,1828(ra)

00002a60 <inst_489>:
    2a60:	33333537          	lui	a0,0x33333
    2a64:	33250513          	addi	a0,a0,818 # 33333332 <_end+0x3332c82e>
    2a68:	333335b7          	lui	a1,0x33333
    2a6c:	33258593          	addi	a1,a1,818 # 33333332 <_end+0x3332c82e>
    2a70:	02b51633          	mulh	a2,a0,a1
    2a74:	72c0a423          	sw	a2,1832(ra)

00002a78 <inst_490>:
    2a78:	33333537          	lui	a0,0x33333
    2a7c:	33250513          	addi	a0,a0,818 # 33333332 <_end+0x3332c82e>
    2a80:	666665b7          	lui	a1,0x66666
    2a84:	66558593          	addi	a1,a1,1637 # 66666665 <_end+0x6665fb61>
    2a88:	02b51633          	mulh	a2,a0,a1
    2a8c:	72c0a623          	sw	a2,1836(ra)

00002a90 <inst_491>:
    2a90:	33333537          	lui	a0,0x33333
    2a94:	33250513          	addi	a0,a0,818 # 33333332 <_end+0x3332c82e>
    2a98:	0000b5b7          	lui	a1,0xb
    2a9c:	50358593          	addi	a1,a1,1283 # b503 <_end+0x49ff>
    2aa0:	02b51633          	mulh	a2,a0,a1
    2aa4:	72c0a823          	sw	a2,1840(ra)

00002aa8 <inst_492>:
    2aa8:	33333537          	lui	a0,0x33333
    2aac:	33250513          	addi	a0,a0,818 # 33333332 <_end+0x3332c82e>
    2ab0:	555555b7          	lui	a1,0x55555
    2ab4:	55658593          	addi	a1,a1,1366 # 55555556 <_end+0x5554ea52>
    2ab8:	02b51633          	mulh	a2,a0,a1
    2abc:	72c0aa23          	sw	a2,1844(ra)

00002ac0 <inst_493>:
    2ac0:	33333537          	lui	a0,0x33333
    2ac4:	33250513          	addi	a0,a0,818 # 33333332 <_end+0x3332c82e>
    2ac8:	aaaab5b7          	lui	a1,0xaaaab
    2acc:	aab58593          	addi	a1,a1,-1365 # aaaaaaab <_end+0xaaaa3fa7>
    2ad0:	02b51633          	mulh	a2,a0,a1
    2ad4:	72c0ac23          	sw	a2,1848(ra)

00002ad8 <inst_494>:
    2ad8:	33333537          	lui	a0,0x33333
    2adc:	33250513          	addi	a0,a0,818 # 33333332 <_end+0x3332c82e>
    2ae0:	00600593          	li	a1,6
    2ae4:	02b51633          	mulh	a2,a0,a1
    2ae8:	72c0ae23          	sw	a2,1852(ra)

00002aec <inst_495>:
    2aec:	33333537          	lui	a0,0x33333
    2af0:	33250513          	addi	a0,a0,818 # 33333332 <_end+0x3332c82e>
    2af4:	333335b7          	lui	a1,0x33333
    2af8:	33458593          	addi	a1,a1,820 # 33333334 <_end+0x3332c830>
    2afc:	02b51633          	mulh	a2,a0,a1
    2b00:	74c0a023          	sw	a2,1856(ra)

00002b04 <inst_496>:
    2b04:	33333537          	lui	a0,0x33333
    2b08:	33250513          	addi	a0,a0,818 # 33333332 <_end+0x3332c82e>
    2b0c:	666665b7          	lui	a1,0x66666
    2b10:	66758593          	addi	a1,a1,1639 # 66666667 <_end+0x6665fb63>
    2b14:	02b51633          	mulh	a2,a0,a1
    2b18:	74c0a223          	sw	a2,1860(ra)

00002b1c <inst_497>:
    2b1c:	33333537          	lui	a0,0x33333
    2b20:	33250513          	addi	a0,a0,818 # 33333332 <_end+0x3332c82e>
    2b24:	ffff55b7          	lui	a1,0xffff5
    2b28:	afd58593          	addi	a1,a1,-1283 # ffff4afd <_end+0xfffedff9>
    2b2c:	02b51633          	mulh	a2,a0,a1
    2b30:	74c0a423          	sw	a2,1864(ra)

00002b34 <inst_498>:
    2b34:	33333537          	lui	a0,0x33333
    2b38:	33250513          	addi	a0,a0,818 # 33333332 <_end+0x3332c82e>
    2b3c:	0000b5b7          	lui	a1,0xb
    2b40:	50558593          	addi	a1,a1,1285 # b505 <_end+0x4a01>
    2b44:	02b51633          	mulh	a2,a0,a1
    2b48:	74c0a623          	sw	a2,1868(ra)

00002b4c <inst_499>:
    2b4c:	66666537          	lui	a0,0x66666
    2b50:	66550513          	addi	a0,a0,1637 # 66666665 <_end+0x6665fb61>
    2b54:	00300593          	li	a1,3
    2b58:	02b51633          	mulh	a2,a0,a1
    2b5c:	74c0a823          	sw	a2,1872(ra)

00002b60 <inst_500>:
    2b60:	66666537          	lui	a0,0x66666
    2b64:	66550513          	addi	a0,a0,1637 # 66666665 <_end+0x6665fb61>
    2b68:	555555b7          	lui	a1,0x55555
    2b6c:	55558593          	addi	a1,a1,1365 # 55555555 <_end+0x5554ea51>
    2b70:	02b51633          	mulh	a2,a0,a1
    2b74:	74c0aa23          	sw	a2,1876(ra)

00002b78 <inst_501>:
    2b78:	66666537          	lui	a0,0x66666
    2b7c:	66550513          	addi	a0,a0,1637 # 66666665 <_end+0x6665fb61>
    2b80:	aaaab5b7          	lui	a1,0xaaaab
    2b84:	aaa58593          	addi	a1,a1,-1366 # aaaaaaaa <_end+0xaaaa3fa6>
    2b88:	02b51633          	mulh	a2,a0,a1
    2b8c:	74c0ac23          	sw	a2,1880(ra)

00002b90 <inst_502>:
    2b90:	66666537          	lui	a0,0x66666
    2b94:	66550513          	addi	a0,a0,1637 # 66666665 <_end+0x6665fb61>
    2b98:	00500593          	li	a1,5
    2b9c:	02b51633          	mulh	a2,a0,a1
    2ba0:	74c0ae23          	sw	a2,1884(ra)

00002ba4 <inst_503>:
    2ba4:	66666537          	lui	a0,0x66666
    2ba8:	66550513          	addi	a0,a0,1637 # 66666665 <_end+0x6665fb61>
    2bac:	333335b7          	lui	a1,0x33333
    2bb0:	33358593          	addi	a1,a1,819 # 33333333 <_end+0x3332c82f>
    2bb4:	02b51633          	mulh	a2,a0,a1
    2bb8:	76c0a023          	sw	a2,1888(ra)

00002bbc <inst_504>:
    2bbc:	66666537          	lui	a0,0x66666
    2bc0:	66550513          	addi	a0,a0,1637 # 66666665 <_end+0x6665fb61>
    2bc4:	666665b7          	lui	a1,0x66666
    2bc8:	66658593          	addi	a1,a1,1638 # 66666666 <_end+0x6665fb62>
    2bcc:	02b51633          	mulh	a2,a0,a1
    2bd0:	76c0a223          	sw	a2,1892(ra)

00002bd4 <inst_505>:
    2bd4:	66666537          	lui	a0,0x66666
    2bd8:	66550513          	addi	a0,a0,1637 # 66666665 <_end+0x6665fb61>
    2bdc:	ffff55b7          	lui	a1,0xffff5
    2be0:	afc58593          	addi	a1,a1,-1284 # ffff4afc <_end+0xfffedff8>
    2be4:	02b51633          	mulh	a2,a0,a1
    2be8:	76c0a423          	sw	a2,1896(ra)

00002bec <inst_506>:
    2bec:	66666537          	lui	a0,0x66666
    2bf0:	66550513          	addi	a0,a0,1637 # 66666665 <_end+0x6665fb61>
    2bf4:	0000b5b7          	lui	a1,0xb
    2bf8:	50458593          	addi	a1,a1,1284 # b504 <_end+0x4a00>
    2bfc:	02b51633          	mulh	a2,a0,a1
    2c00:	76c0a623          	sw	a2,1900(ra)

00002c04 <inst_507>:
    2c04:	66666537          	lui	a0,0x66666
    2c08:	66550513          	addi	a0,a0,1637 # 66666665 <_end+0x6665fb61>
    2c0c:	00200593          	li	a1,2
    2c10:	02b51633          	mulh	a2,a0,a1
    2c14:	76c0a823          	sw	a2,1904(ra)

00002c18 <inst_508>:
    2c18:	66666537          	lui	a0,0x66666
    2c1c:	66550513          	addi	a0,a0,1637 # 66666665 <_end+0x6665fb61>
    2c20:	555555b7          	lui	a1,0x55555
    2c24:	55458593          	addi	a1,a1,1364 # 55555554 <_end+0x5554ea50>
    2c28:	02b51633          	mulh	a2,a0,a1
    2c2c:	76c0aa23          	sw	a2,1908(ra)

00002c30 <inst_509>:
    2c30:	66666537          	lui	a0,0x66666
    2c34:	66550513          	addi	a0,a0,1637 # 66666665 <_end+0x6665fb61>
    2c38:	00000593          	li	a1,0
    2c3c:	02b51633          	mulh	a2,a0,a1
    2c40:	76c0ac23          	sw	a2,1912(ra)

00002c44 <inst_510>:
    2c44:	66666537          	lui	a0,0x66666
    2c48:	66550513          	addi	a0,a0,1637 # 66666665 <_end+0x6665fb61>
    2c4c:	00400593          	li	a1,4
    2c50:	02b51633          	mulh	a2,a0,a1
    2c54:	76c0ae23          	sw	a2,1916(ra)

00002c58 <inst_511>:
    2c58:	66666537          	lui	a0,0x66666
    2c5c:	66550513          	addi	a0,a0,1637 # 66666665 <_end+0x6665fb61>
    2c60:	333335b7          	lui	a1,0x33333
    2c64:	33258593          	addi	a1,a1,818 # 33333332 <_end+0x3332c82e>
    2c68:	02b51633          	mulh	a2,a0,a1
    2c6c:	78c0a023          	sw	a2,1920(ra)

00002c70 <inst_512>:
    2c70:	66666537          	lui	a0,0x66666
    2c74:	66550513          	addi	a0,a0,1637 # 66666665 <_end+0x6665fb61>
    2c78:	666665b7          	lui	a1,0x66666
    2c7c:	66558593          	addi	a1,a1,1637 # 66666665 <_end+0x6665fb61>
    2c80:	02b51633          	mulh	a2,a0,a1
    2c84:	78c0a223          	sw	a2,1924(ra)

00002c88 <inst_513>:
    2c88:	66666537          	lui	a0,0x66666
    2c8c:	66550513          	addi	a0,a0,1637 # 66666665 <_end+0x6665fb61>
    2c90:	0000b5b7          	lui	a1,0xb
    2c94:	50358593          	addi	a1,a1,1283 # b503 <_end+0x49ff>
    2c98:	02b51633          	mulh	a2,a0,a1
    2c9c:	78c0a423          	sw	a2,1928(ra)

00002ca0 <inst_514>:
    2ca0:	66666537          	lui	a0,0x66666
    2ca4:	66550513          	addi	a0,a0,1637 # 66666665 <_end+0x6665fb61>
    2ca8:	555555b7          	lui	a1,0x55555
    2cac:	55658593          	addi	a1,a1,1366 # 55555556 <_end+0x5554ea52>
    2cb0:	02b51633          	mulh	a2,a0,a1
    2cb4:	78c0a623          	sw	a2,1932(ra)

00002cb8 <inst_515>:
    2cb8:	66666537          	lui	a0,0x66666
    2cbc:	66550513          	addi	a0,a0,1637 # 66666665 <_end+0x6665fb61>
    2cc0:	aaaab5b7          	lui	a1,0xaaaab
    2cc4:	aab58593          	addi	a1,a1,-1365 # aaaaaaab <_end+0xaaaa3fa7>
    2cc8:	02b51633          	mulh	a2,a0,a1
    2ccc:	78c0a823          	sw	a2,1936(ra)

00002cd0 <inst_516>:
    2cd0:	66666537          	lui	a0,0x66666
    2cd4:	66550513          	addi	a0,a0,1637 # 66666665 <_end+0x6665fb61>
    2cd8:	00600593          	li	a1,6
    2cdc:	02b51633          	mulh	a2,a0,a1
    2ce0:	78c0aa23          	sw	a2,1940(ra)

00002ce4 <inst_517>:
    2ce4:	66666537          	lui	a0,0x66666
    2ce8:	66550513          	addi	a0,a0,1637 # 66666665 <_end+0x6665fb61>
    2cec:	333335b7          	lui	a1,0x33333
    2cf0:	33458593          	addi	a1,a1,820 # 33333334 <_end+0x3332c830>
    2cf4:	02b51633          	mulh	a2,a0,a1
    2cf8:	78c0ac23          	sw	a2,1944(ra)

00002cfc <inst_518>:
    2cfc:	66666537          	lui	a0,0x66666
    2d00:	66550513          	addi	a0,a0,1637 # 66666665 <_end+0x6665fb61>
    2d04:	666665b7          	lui	a1,0x66666
    2d08:	66758593          	addi	a1,a1,1639 # 66666667 <_end+0x6665fb63>
    2d0c:	02b51633          	mulh	a2,a0,a1
    2d10:	78c0ae23          	sw	a2,1948(ra)

00002d14 <inst_519>:
    2d14:	66666537          	lui	a0,0x66666
    2d18:	66550513          	addi	a0,a0,1637 # 66666665 <_end+0x6665fb61>
    2d1c:	ffff55b7          	lui	a1,0xffff5
    2d20:	afd58593          	addi	a1,a1,-1283 # ffff4afd <_end+0xfffedff9>
    2d24:	02b51633          	mulh	a2,a0,a1
    2d28:	7ac0a023          	sw	a2,1952(ra)

00002d2c <inst_520>:
    2d2c:	66666537          	lui	a0,0x66666
    2d30:	66550513          	addi	a0,a0,1637 # 66666665 <_end+0x6665fb61>
    2d34:	0000b5b7          	lui	a1,0xb
    2d38:	50558593          	addi	a1,a1,1285 # b505 <_end+0x4a01>
    2d3c:	02b51633          	mulh	a2,a0,a1
    2d40:	7ac0a223          	sw	a2,1956(ra)

00002d44 <inst_521>:
    2d44:	0000b537          	lui	a0,0xb
    2d48:	50350513          	addi	a0,a0,1283 # b503 <_end+0x49ff>
    2d4c:	00300593          	li	a1,3
    2d50:	02b51633          	mulh	a2,a0,a1
    2d54:	7ac0a423          	sw	a2,1960(ra)

00002d58 <inst_522>:
    2d58:	0000b537          	lui	a0,0xb
    2d5c:	50350513          	addi	a0,a0,1283 # b503 <_end+0x49ff>
    2d60:	555555b7          	lui	a1,0x55555
    2d64:	55558593          	addi	a1,a1,1365 # 55555555 <_end+0x5554ea51>
    2d68:	02b51633          	mulh	a2,a0,a1
    2d6c:	7ac0a623          	sw	a2,1964(ra)

00002d70 <inst_523>:
    2d70:	0000b537          	lui	a0,0xb
    2d74:	50350513          	addi	a0,a0,1283 # b503 <_end+0x49ff>
    2d78:	aaaab5b7          	lui	a1,0xaaaab
    2d7c:	aaa58593          	addi	a1,a1,-1366 # aaaaaaaa <_end+0xaaaa3fa6>
    2d80:	02b51633          	mulh	a2,a0,a1
    2d84:	7ac0a823          	sw	a2,1968(ra)

00002d88 <inst_524>:
    2d88:	0000b537          	lui	a0,0xb
    2d8c:	50350513          	addi	a0,a0,1283 # b503 <_end+0x49ff>
    2d90:	00500593          	li	a1,5
    2d94:	02b51633          	mulh	a2,a0,a1
    2d98:	7ac0aa23          	sw	a2,1972(ra)

00002d9c <inst_525>:
    2d9c:	0000b537          	lui	a0,0xb
    2da0:	50350513          	addi	a0,a0,1283 # b503 <_end+0x49ff>
    2da4:	333335b7          	lui	a1,0x33333
    2da8:	33358593          	addi	a1,a1,819 # 33333333 <_end+0x3332c82f>
    2dac:	02b51633          	mulh	a2,a0,a1
    2db0:	7ac0ac23          	sw	a2,1976(ra)

00002db4 <inst_526>:
    2db4:	0000b537          	lui	a0,0xb
    2db8:	50350513          	addi	a0,a0,1283 # b503 <_end+0x49ff>
    2dbc:	666665b7          	lui	a1,0x66666
    2dc0:	66658593          	addi	a1,a1,1638 # 66666666 <_end+0x6665fb62>
    2dc4:	02b51633          	mulh	a2,a0,a1
    2dc8:	7ac0ae23          	sw	a2,1980(ra)

00002dcc <inst_527>:
    2dcc:	0000b537          	lui	a0,0xb
    2dd0:	50350513          	addi	a0,a0,1283 # b503 <_end+0x49ff>
    2dd4:	ffff55b7          	lui	a1,0xffff5
    2dd8:	afc58593          	addi	a1,a1,-1284 # ffff4afc <_end+0xfffedff8>
    2ddc:	02b51633          	mulh	a2,a0,a1
    2de0:	7cc0a023          	sw	a2,1984(ra)

00002de4 <inst_528>:
    2de4:	0000b537          	lui	a0,0xb
    2de8:	50350513          	addi	a0,a0,1283 # b503 <_end+0x49ff>
    2dec:	0000b5b7          	lui	a1,0xb
    2df0:	50458593          	addi	a1,a1,1284 # b504 <_end+0x4a00>
    2df4:	02b51633          	mulh	a2,a0,a1
    2df8:	7cc0a223          	sw	a2,1988(ra)

00002dfc <inst_529>:
    2dfc:	0000b537          	lui	a0,0xb
    2e00:	50350513          	addi	a0,a0,1283 # b503 <_end+0x49ff>
    2e04:	00200593          	li	a1,2
    2e08:	02b51633          	mulh	a2,a0,a1
    2e0c:	7cc0a423          	sw	a2,1992(ra)

00002e10 <inst_530>:
    2e10:	0000b537          	lui	a0,0xb
    2e14:	50350513          	addi	a0,a0,1283 # b503 <_end+0x49ff>
    2e18:	555555b7          	lui	a1,0x55555
    2e1c:	55458593          	addi	a1,a1,1364 # 55555554 <_end+0x5554ea50>
    2e20:	02b51633          	mulh	a2,a0,a1
    2e24:	7cc0a623          	sw	a2,1996(ra)

00002e28 <inst_531>:
    2e28:	0000b537          	lui	a0,0xb
    2e2c:	50350513          	addi	a0,a0,1283 # b503 <_end+0x49ff>
    2e30:	00000593          	li	a1,0
    2e34:	02b51633          	mulh	a2,a0,a1
    2e38:	7cc0a823          	sw	a2,2000(ra)

00002e3c <inst_532>:
    2e3c:	0000b537          	lui	a0,0xb
    2e40:	50350513          	addi	a0,a0,1283 # b503 <_end+0x49ff>
    2e44:	00400593          	li	a1,4
    2e48:	02b51633          	mulh	a2,a0,a1
    2e4c:	7cc0aa23          	sw	a2,2004(ra)

00002e50 <inst_533>:
    2e50:	0000b537          	lui	a0,0xb
    2e54:	50350513          	addi	a0,a0,1283 # b503 <_end+0x49ff>
    2e58:	333335b7          	lui	a1,0x33333
    2e5c:	33258593          	addi	a1,a1,818 # 33333332 <_end+0x3332c82e>
    2e60:	02b51633          	mulh	a2,a0,a1
    2e64:	7cc0ac23          	sw	a2,2008(ra)

00002e68 <inst_534>:
    2e68:	0000b537          	lui	a0,0xb
    2e6c:	50350513          	addi	a0,a0,1283 # b503 <_end+0x49ff>
    2e70:	666665b7          	lui	a1,0x66666
    2e74:	66558593          	addi	a1,a1,1637 # 66666665 <_end+0x6665fb61>
    2e78:	02b51633          	mulh	a2,a0,a1
    2e7c:	7cc0ae23          	sw	a2,2012(ra)

00002e80 <inst_535>:
    2e80:	0000b537          	lui	a0,0xb
    2e84:	50350513          	addi	a0,a0,1283 # b503 <_end+0x49ff>
    2e88:	0000b5b7          	lui	a1,0xb
    2e8c:	50358593          	addi	a1,a1,1283 # b503 <_end+0x49ff>
    2e90:	02b51633          	mulh	a2,a0,a1
    2e94:	7ec0a023          	sw	a2,2016(ra)

00002e98 <inst_536>:
    2e98:	0000b537          	lui	a0,0xb
    2e9c:	50350513          	addi	a0,a0,1283 # b503 <_end+0x49ff>
    2ea0:	555555b7          	lui	a1,0x55555
    2ea4:	55658593          	addi	a1,a1,1366 # 55555556 <_end+0x5554ea52>
    2ea8:	02b51633          	mulh	a2,a0,a1
    2eac:	7ec0a223          	sw	a2,2020(ra)

00002eb0 <inst_537>:
    2eb0:	0000b537          	lui	a0,0xb
    2eb4:	50350513          	addi	a0,a0,1283 # b503 <_end+0x49ff>
    2eb8:	aaaab5b7          	lui	a1,0xaaaab
    2ebc:	aab58593          	addi	a1,a1,-1365 # aaaaaaab <_end+0xaaaa3fa7>
    2ec0:	02b51633          	mulh	a2,a0,a1
    2ec4:	7ec0a423          	sw	a2,2024(ra)

00002ec8 <inst_538>:
    2ec8:	0000b537          	lui	a0,0xb
    2ecc:	50350513          	addi	a0,a0,1283 # b503 <_end+0x49ff>
    2ed0:	00600593          	li	a1,6
    2ed4:	02b51633          	mulh	a2,a0,a1
    2ed8:	7ec0a623          	sw	a2,2028(ra)

00002edc <inst_539>:
    2edc:	0000b537          	lui	a0,0xb
    2ee0:	50350513          	addi	a0,a0,1283 # b503 <_end+0x49ff>
    2ee4:	333335b7          	lui	a1,0x33333
    2ee8:	33458593          	addi	a1,a1,820 # 33333334 <_end+0x3332c830>
    2eec:	02b51633          	mulh	a2,a0,a1
    2ef0:	7ec0a823          	sw	a2,2032(ra)

00002ef4 <inst_540>:
    2ef4:	0000b537          	lui	a0,0xb
    2ef8:	50350513          	addi	a0,a0,1283 # b503 <_end+0x49ff>
    2efc:	666665b7          	lui	a1,0x66666
    2f00:	66758593          	addi	a1,a1,1639 # 66666667 <_end+0x6665fb63>
    2f04:	02b51633          	mulh	a2,a0,a1
    2f08:	7ec0aa23          	sw	a2,2036(ra)

00002f0c <inst_541>:
    2f0c:	0000b537          	lui	a0,0xb
    2f10:	50350513          	addi	a0,a0,1283 # b503 <_end+0x49ff>
    2f14:	ffff55b7          	lui	a1,0xffff5
    2f18:	afd58593          	addi	a1,a1,-1283 # ffff4afd <_end+0xfffedff9>
    2f1c:	02b51633          	mulh	a2,a0,a1
    2f20:	7ec0ac23          	sw	a2,2040(ra)

00002f24 <inst_542>:
    2f24:	0000b537          	lui	a0,0xb
    2f28:	50350513          	addi	a0,a0,1283 # b503 <_end+0x49ff>
    2f2c:	0000b5b7          	lui	a1,0xb
    2f30:	50558593          	addi	a1,a1,1285 # b505 <_end+0x4a01>
    2f34:	02b51633          	mulh	a2,a0,a1
    2f38:	7ec0ae23          	sw	a2,2044(ra)
    2f3c:	00004097          	auipc	ra,0x4
    2f40:	94008093          	addi	ra,ra,-1728 # 687c <signature_x1_1>

00002f44 <inst_543>:
    2f44:	55555537          	lui	a0,0x55555
    2f48:	55650513          	addi	a0,a0,1366 # 55555556 <_end+0x5554ea52>
    2f4c:	00300593          	li	a1,3
    2f50:	02b51633          	mulh	a2,a0,a1
    2f54:	00c0a023          	sw	a2,0(ra)

00002f58 <inst_544>:
    2f58:	55555537          	lui	a0,0x55555
    2f5c:	55650513          	addi	a0,a0,1366 # 55555556 <_end+0x5554ea52>
    2f60:	555555b7          	lui	a1,0x55555
    2f64:	55558593          	addi	a1,a1,1365 # 55555555 <_end+0x5554ea51>
    2f68:	02b51633          	mulh	a2,a0,a1
    2f6c:	00c0a223          	sw	a2,4(ra)

00002f70 <inst_545>:
    2f70:	55555537          	lui	a0,0x55555
    2f74:	55650513          	addi	a0,a0,1366 # 55555556 <_end+0x5554ea52>
    2f78:	aaaab5b7          	lui	a1,0xaaaab
    2f7c:	aaa58593          	addi	a1,a1,-1366 # aaaaaaaa <_end+0xaaaa3fa6>
    2f80:	02b51633          	mulh	a2,a0,a1
    2f84:	00c0a423          	sw	a2,8(ra)

00002f88 <inst_546>:
    2f88:	55555537          	lui	a0,0x55555
    2f8c:	55650513          	addi	a0,a0,1366 # 55555556 <_end+0x5554ea52>
    2f90:	00500593          	li	a1,5
    2f94:	02b51633          	mulh	a2,a0,a1
    2f98:	00c0a623          	sw	a2,12(ra)

00002f9c <inst_547>:
    2f9c:	55555537          	lui	a0,0x55555
    2fa0:	55650513          	addi	a0,a0,1366 # 55555556 <_end+0x5554ea52>
    2fa4:	333335b7          	lui	a1,0x33333
    2fa8:	33358593          	addi	a1,a1,819 # 33333333 <_end+0x3332c82f>
    2fac:	02b51633          	mulh	a2,a0,a1
    2fb0:	00c0a823          	sw	a2,16(ra)

00002fb4 <inst_548>:
    2fb4:	55555537          	lui	a0,0x55555
    2fb8:	55650513          	addi	a0,a0,1366 # 55555556 <_end+0x5554ea52>
    2fbc:	666665b7          	lui	a1,0x66666
    2fc0:	66658593          	addi	a1,a1,1638 # 66666666 <_end+0x6665fb62>
    2fc4:	02b51633          	mulh	a2,a0,a1
    2fc8:	00c0aa23          	sw	a2,20(ra)

00002fcc <inst_549>:
    2fcc:	55555537          	lui	a0,0x55555
    2fd0:	55650513          	addi	a0,a0,1366 # 55555556 <_end+0x5554ea52>
    2fd4:	ffff55b7          	lui	a1,0xffff5
    2fd8:	afc58593          	addi	a1,a1,-1284 # ffff4afc <_end+0xfffedff8>
    2fdc:	02b51633          	mulh	a2,a0,a1
    2fe0:	00c0ac23          	sw	a2,24(ra)

00002fe4 <inst_550>:
    2fe4:	55555537          	lui	a0,0x55555
    2fe8:	55650513          	addi	a0,a0,1366 # 55555556 <_end+0x5554ea52>
    2fec:	0000b5b7          	lui	a1,0xb
    2ff0:	50458593          	addi	a1,a1,1284 # b504 <_end+0x4a00>
    2ff4:	02b51633          	mulh	a2,a0,a1
    2ff8:	00c0ae23          	sw	a2,28(ra)

00002ffc <inst_551>:
    2ffc:	55555537          	lui	a0,0x55555
    3000:	55650513          	addi	a0,a0,1366 # 55555556 <_end+0x5554ea52>
    3004:	00200593          	li	a1,2
    3008:	02b51633          	mulh	a2,a0,a1
    300c:	02c0a023          	sw	a2,32(ra)

00003010 <inst_552>:
    3010:	55555537          	lui	a0,0x55555
    3014:	55650513          	addi	a0,a0,1366 # 55555556 <_end+0x5554ea52>
    3018:	555555b7          	lui	a1,0x55555
    301c:	55458593          	addi	a1,a1,1364 # 55555554 <_end+0x5554ea50>
    3020:	02b51633          	mulh	a2,a0,a1
    3024:	02c0a223          	sw	a2,36(ra)

00003028 <inst_553>:
    3028:	55555537          	lui	a0,0x55555
    302c:	55650513          	addi	a0,a0,1366 # 55555556 <_end+0x5554ea52>
    3030:	00000593          	li	a1,0
    3034:	02b51633          	mulh	a2,a0,a1
    3038:	02c0a423          	sw	a2,40(ra)

0000303c <inst_554>:
    303c:	55555537          	lui	a0,0x55555
    3040:	55650513          	addi	a0,a0,1366 # 55555556 <_end+0x5554ea52>
    3044:	00400593          	li	a1,4
    3048:	02b51633          	mulh	a2,a0,a1
    304c:	02c0a623          	sw	a2,44(ra)

00003050 <inst_555>:
    3050:	55555537          	lui	a0,0x55555
    3054:	55650513          	addi	a0,a0,1366 # 55555556 <_end+0x5554ea52>
    3058:	333335b7          	lui	a1,0x33333
    305c:	33258593          	addi	a1,a1,818 # 33333332 <_end+0x3332c82e>
    3060:	02b51633          	mulh	a2,a0,a1
    3064:	02c0a823          	sw	a2,48(ra)

00003068 <inst_556>:
    3068:	55555537          	lui	a0,0x55555
    306c:	55650513          	addi	a0,a0,1366 # 55555556 <_end+0x5554ea52>
    3070:	666665b7          	lui	a1,0x66666
    3074:	66558593          	addi	a1,a1,1637 # 66666665 <_end+0x6665fb61>
    3078:	02b51633          	mulh	a2,a0,a1
    307c:	02c0aa23          	sw	a2,52(ra)

00003080 <inst_557>:
    3080:	55555537          	lui	a0,0x55555
    3084:	55650513          	addi	a0,a0,1366 # 55555556 <_end+0x5554ea52>
    3088:	0000b5b7          	lui	a1,0xb
    308c:	50358593          	addi	a1,a1,1283 # b503 <_end+0x49ff>
    3090:	02b51633          	mulh	a2,a0,a1
    3094:	02c0ac23          	sw	a2,56(ra)

00003098 <inst_558>:
    3098:	55555537          	lui	a0,0x55555
    309c:	55650513          	addi	a0,a0,1366 # 55555556 <_end+0x5554ea52>
    30a0:	555555b7          	lui	a1,0x55555
    30a4:	55658593          	addi	a1,a1,1366 # 55555556 <_end+0x5554ea52>
    30a8:	02b51633          	mulh	a2,a0,a1
    30ac:	02c0ae23          	sw	a2,60(ra)

000030b0 <inst_559>:
    30b0:	55555537          	lui	a0,0x55555
    30b4:	55650513          	addi	a0,a0,1366 # 55555556 <_end+0x5554ea52>
    30b8:	aaaab5b7          	lui	a1,0xaaaab
    30bc:	aab58593          	addi	a1,a1,-1365 # aaaaaaab <_end+0xaaaa3fa7>
    30c0:	02b51633          	mulh	a2,a0,a1
    30c4:	04c0a023          	sw	a2,64(ra)

000030c8 <inst_560>:
    30c8:	55555537          	lui	a0,0x55555
    30cc:	55650513          	addi	a0,a0,1366 # 55555556 <_end+0x5554ea52>
    30d0:	00600593          	li	a1,6
    30d4:	02b51633          	mulh	a2,a0,a1
    30d8:	04c0a223          	sw	a2,68(ra)

000030dc <inst_561>:
    30dc:	55555537          	lui	a0,0x55555
    30e0:	55650513          	addi	a0,a0,1366 # 55555556 <_end+0x5554ea52>
    30e4:	333335b7          	lui	a1,0x33333
    30e8:	33458593          	addi	a1,a1,820 # 33333334 <_end+0x3332c830>
    30ec:	02b51633          	mulh	a2,a0,a1
    30f0:	04c0a423          	sw	a2,72(ra)

000030f4 <inst_562>:
    30f4:	55555537          	lui	a0,0x55555
    30f8:	55650513          	addi	a0,a0,1366 # 55555556 <_end+0x5554ea52>
    30fc:	666665b7          	lui	a1,0x66666
    3100:	66758593          	addi	a1,a1,1639 # 66666667 <_end+0x6665fb63>
    3104:	02b51633          	mulh	a2,a0,a1
    3108:	04c0a623          	sw	a2,76(ra)

0000310c <inst_563>:
    310c:	55555537          	lui	a0,0x55555
    3110:	55650513          	addi	a0,a0,1366 # 55555556 <_end+0x5554ea52>
    3114:	ffff55b7          	lui	a1,0xffff5
    3118:	afd58593          	addi	a1,a1,-1283 # ffff4afd <_end+0xfffedff9>
    311c:	02b51633          	mulh	a2,a0,a1
    3120:	04c0a823          	sw	a2,80(ra)

00003124 <inst_564>:
    3124:	55555537          	lui	a0,0x55555
    3128:	55650513          	addi	a0,a0,1366 # 55555556 <_end+0x5554ea52>
    312c:	0000b5b7          	lui	a1,0xb
    3130:	50558593          	addi	a1,a1,1285 # b505 <_end+0x4a01>
    3134:	02b51633          	mulh	a2,a0,a1
    3138:	04c0aa23          	sw	a2,84(ra)

0000313c <inst_565>:
    313c:	aaaab537          	lui	a0,0xaaaab
    3140:	aab50513          	addi	a0,a0,-1365 # aaaaaaab <_end+0xaaaa3fa7>
    3144:	00300593          	li	a1,3
    3148:	02b51633          	mulh	a2,a0,a1
    314c:	04c0ac23          	sw	a2,88(ra)

00003150 <inst_566>:
    3150:	aaaab537          	lui	a0,0xaaaab
    3154:	aab50513          	addi	a0,a0,-1365 # aaaaaaab <_end+0xaaaa3fa7>
    3158:	555555b7          	lui	a1,0x55555
    315c:	55558593          	addi	a1,a1,1365 # 55555555 <_end+0x5554ea51>
    3160:	02b51633          	mulh	a2,a0,a1
    3164:	04c0ae23          	sw	a2,92(ra)

00003168 <inst_567>:
    3168:	aaaab537          	lui	a0,0xaaaab
    316c:	aab50513          	addi	a0,a0,-1365 # aaaaaaab <_end+0xaaaa3fa7>
    3170:	aaaab5b7          	lui	a1,0xaaaab
    3174:	aaa58593          	addi	a1,a1,-1366 # aaaaaaaa <_end+0xaaaa3fa6>
    3178:	02b51633          	mulh	a2,a0,a1
    317c:	06c0a023          	sw	a2,96(ra)

00003180 <inst_568>:
    3180:	aaaab537          	lui	a0,0xaaaab
    3184:	aab50513          	addi	a0,a0,-1365 # aaaaaaab <_end+0xaaaa3fa7>
    3188:	00500593          	li	a1,5
    318c:	02b51633          	mulh	a2,a0,a1
    3190:	06c0a223          	sw	a2,100(ra)

00003194 <inst_569>:
    3194:	aaaab537          	lui	a0,0xaaaab
    3198:	aab50513          	addi	a0,a0,-1365 # aaaaaaab <_end+0xaaaa3fa7>
    319c:	333335b7          	lui	a1,0x33333
    31a0:	33358593          	addi	a1,a1,819 # 33333333 <_end+0x3332c82f>
    31a4:	02b51633          	mulh	a2,a0,a1
    31a8:	06c0a423          	sw	a2,104(ra)

000031ac <inst_570>:
    31ac:	aaaab537          	lui	a0,0xaaaab
    31b0:	aab50513          	addi	a0,a0,-1365 # aaaaaaab <_end+0xaaaa3fa7>
    31b4:	666665b7          	lui	a1,0x66666
    31b8:	66658593          	addi	a1,a1,1638 # 66666666 <_end+0x6665fb62>
    31bc:	02b51633          	mulh	a2,a0,a1
    31c0:	06c0a623          	sw	a2,108(ra)

000031c4 <inst_571>:
    31c4:	aaaab537          	lui	a0,0xaaaab
    31c8:	aab50513          	addi	a0,a0,-1365 # aaaaaaab <_end+0xaaaa3fa7>
    31cc:	ffff55b7          	lui	a1,0xffff5
    31d0:	afc58593          	addi	a1,a1,-1284 # ffff4afc <_end+0xfffedff8>
    31d4:	02b51633          	mulh	a2,a0,a1
    31d8:	06c0a823          	sw	a2,112(ra)

000031dc <inst_572>:
    31dc:	aaaab537          	lui	a0,0xaaaab
    31e0:	aab50513          	addi	a0,a0,-1365 # aaaaaaab <_end+0xaaaa3fa7>
    31e4:	0000b5b7          	lui	a1,0xb
    31e8:	50458593          	addi	a1,a1,1284 # b504 <_end+0x4a00>
    31ec:	02b51633          	mulh	a2,a0,a1
    31f0:	06c0aa23          	sw	a2,116(ra)

000031f4 <inst_573>:
    31f4:	aaaab537          	lui	a0,0xaaaab
    31f8:	aab50513          	addi	a0,a0,-1365 # aaaaaaab <_end+0xaaaa3fa7>
    31fc:	00200593          	li	a1,2
    3200:	02b51633          	mulh	a2,a0,a1
    3204:	06c0ac23          	sw	a2,120(ra)

00003208 <inst_574>:
    3208:	aaaab537          	lui	a0,0xaaaab
    320c:	aab50513          	addi	a0,a0,-1365 # aaaaaaab <_end+0xaaaa3fa7>
    3210:	555555b7          	lui	a1,0x55555
    3214:	55458593          	addi	a1,a1,1364 # 55555554 <_end+0x5554ea50>
    3218:	02b51633          	mulh	a2,a0,a1
    321c:	06c0ae23          	sw	a2,124(ra)

00003220 <inst_575>:
    3220:	aaaab537          	lui	a0,0xaaaab
    3224:	aab50513          	addi	a0,a0,-1365 # aaaaaaab <_end+0xaaaa3fa7>
    3228:	00000593          	li	a1,0
    322c:	02b51633          	mulh	a2,a0,a1
    3230:	08c0a023          	sw	a2,128(ra)

00003234 <inst_576>:
    3234:	aaaab537          	lui	a0,0xaaaab
    3238:	aab50513          	addi	a0,a0,-1365 # aaaaaaab <_end+0xaaaa3fa7>
    323c:	00400593          	li	a1,4
    3240:	02b51633          	mulh	a2,a0,a1
    3244:	08c0a223          	sw	a2,132(ra)

00003248 <inst_577>:
    3248:	aaaab537          	lui	a0,0xaaaab
    324c:	aab50513          	addi	a0,a0,-1365 # aaaaaaab <_end+0xaaaa3fa7>
    3250:	333335b7          	lui	a1,0x33333
    3254:	33258593          	addi	a1,a1,818 # 33333332 <_end+0x3332c82e>
    3258:	02b51633          	mulh	a2,a0,a1
    325c:	08c0a423          	sw	a2,136(ra)

00003260 <inst_578>:
    3260:	aaaab537          	lui	a0,0xaaaab
    3264:	aab50513          	addi	a0,a0,-1365 # aaaaaaab <_end+0xaaaa3fa7>
    3268:	666665b7          	lui	a1,0x66666
    326c:	66558593          	addi	a1,a1,1637 # 66666665 <_end+0x6665fb61>
    3270:	02b51633          	mulh	a2,a0,a1
    3274:	08c0a623          	sw	a2,140(ra)

00003278 <inst_579>:
    3278:	aaaab537          	lui	a0,0xaaaab
    327c:	aab50513          	addi	a0,a0,-1365 # aaaaaaab <_end+0xaaaa3fa7>
    3280:	0000b5b7          	lui	a1,0xb
    3284:	50358593          	addi	a1,a1,1283 # b503 <_end+0x49ff>
    3288:	02b51633          	mulh	a2,a0,a1
    328c:	08c0a823          	sw	a2,144(ra)

00003290 <inst_580>:
    3290:	aaaab537          	lui	a0,0xaaaab
    3294:	aab50513          	addi	a0,a0,-1365 # aaaaaaab <_end+0xaaaa3fa7>
    3298:	555555b7          	lui	a1,0x55555
    329c:	55658593          	addi	a1,a1,1366 # 55555556 <_end+0x5554ea52>
    32a0:	02b51633          	mulh	a2,a0,a1
    32a4:	08c0aa23          	sw	a2,148(ra)

000032a8 <inst_581>:
    32a8:	33333537          	lui	a0,0x33333
    32ac:	33250513          	addi	a0,a0,818 # 33333332 <_end+0x3332c82e>
    32b0:	ffe00593          	li	a1,-2
    32b4:	02b51633          	mulh	a2,a0,a1
    32b8:	08c0ac23          	sw	a2,152(ra)

000032bc <inst_582>:
    32bc:	ffb00513          	li	a0,-5
    32c0:	800005b7          	lui	a1,0x80000
    32c4:	fff58593          	addi	a1,a1,-1 # 7fffffff <_end+0x7fff94fb>
    32c8:	02b51633          	mulh	a2,a0,a1
    32cc:	08c0ae23          	sw	a2,156(ra)

000032d0 <inst_583>:
    32d0:	00500513          	li	a0,5
    32d4:	000025b7          	lui	a1,0x2
    32d8:	02b51633          	mulh	a2,a0,a1
    32dc:	0ac0a023          	sw	a2,160(ra)

000032e0 <inst_584>:
    32e0:	02000537          	lui	a0,0x2000
    32e4:	000205b7          	lui	a1,0x20
    32e8:	02b51633          	mulh	a2,a0,a1
    32ec:	0ac0a223          	sw	a2,164(ra)

000032f0 <halt>:
    32f0:	0000006f          	j	32f0 <halt>
    32f4:	00000013          	nop
    32f8:	00000013          	nop
    32fc:	00000013          	nop

00003300 <rvtest_code_end>:
    3300:	0000006f          	j	3300 <rvtest_code_end>

Disassembly of section .text:

00003304 <FN_WriteStr>:
    3304:	00008067          	ret

00003308 <FN_WriteNmbr>:
    3308:	00008067          	ret

Disassembly of section .tohost:

00003400 <tohost>:
    3400:	0000                	.insn	2, 0x0000
    3402:	0000                	.insn	2, 0x0000
    3404:	0000                	.insn	2, 0x0000
    3406:	0000                	.insn	2, 0x0000
    3408:	0000                	.insn	2, 0x0000
    340a:	0000                	.insn	2, 0x0000
    340c:	0000                	.insn	2, 0x0000
    340e:	0000                	.insn	2, 0x0000
    3410:	0000                	.insn	2, 0x0000
    3412:	0000                	.insn	2, 0x0000
    3414:	0000                	.insn	2, 0x0000
    3416:	0000                	.insn	2, 0x0000
    3418:	0000                	.insn	2, 0x0000
    341a:	0000                	.insn	2, 0x0000
    341c:	0000                	.insn	2, 0x0000
    341e:	0000                	.insn	2, 0x0000
    3420:	0000                	.insn	2, 0x0000
    3422:	0000                	.insn	2, 0x0000
    3424:	0000                	.insn	2, 0x0000
    3426:	0000                	.insn	2, 0x0000
    3428:	0000                	.insn	2, 0x0000
    342a:	0000                	.insn	2, 0x0000
    342c:	0000                	.insn	2, 0x0000
    342e:	0000                	.insn	2, 0x0000
    3430:	0000                	.insn	2, 0x0000
    3432:	0000                	.insn	2, 0x0000
    3434:	0000                	.insn	2, 0x0000
    3436:	0000                	.insn	2, 0x0000
    3438:	0000                	.insn	2, 0x0000
    343a:	0000                	.insn	2, 0x0000
    343c:	0000                	.insn	2, 0x0000
    343e:	0000                	.insn	2, 0x0000
    3440:	0000                	.insn	2, 0x0000
    3442:	0000                	.insn	2, 0x0000
    3444:	0000                	.insn	2, 0x0000
    3446:	0000                	.insn	2, 0x0000
    3448:	0000                	.insn	2, 0x0000
    344a:	0000                	.insn	2, 0x0000
    344c:	0000                	.insn	2, 0x0000
    344e:	0000                	.insn	2, 0x0000
    3450:	0000                	.insn	2, 0x0000
    3452:	0000                	.insn	2, 0x0000
    3454:	0000                	.insn	2, 0x0000
    3456:	0000                	.insn	2, 0x0000
    3458:	0000                	.insn	2, 0x0000
    345a:	0000                	.insn	2, 0x0000
    345c:	0000                	.insn	2, 0x0000
    345e:	0000                	.insn	2, 0x0000
    3460:	0000                	.insn	2, 0x0000
    3462:	0000                	.insn	2, 0x0000
    3464:	0000                	.insn	2, 0x0000
    3466:	0000                	.insn	2, 0x0000
    3468:	0000                	.insn	2, 0x0000
    346a:	0000                	.insn	2, 0x0000
    346c:	0000                	.insn	2, 0x0000
    346e:	0000                	.insn	2, 0x0000
    3470:	0000                	.insn	2, 0x0000
    3472:	0000                	.insn	2, 0x0000
    3474:	0000                	.insn	2, 0x0000
    3476:	0000                	.insn	2, 0x0000
    3478:	0000                	.insn	2, 0x0000
    347a:	0000                	.insn	2, 0x0000
    347c:	0000                	.insn	2, 0x0000
    347e:	0000                	.insn	2, 0x0000
    3480:	0000                	.insn	2, 0x0000
    3482:	0000                	.insn	2, 0x0000
    3484:	0000                	.insn	2, 0x0000
    3486:	0000                	.insn	2, 0x0000
    3488:	0000                	.insn	2, 0x0000
    348a:	0000                	.insn	2, 0x0000
    348c:	0000                	.insn	2, 0x0000
    348e:	0000                	.insn	2, 0x0000
    3490:	0000                	.insn	2, 0x0000
    3492:	0000                	.insn	2, 0x0000
    3494:	0000                	.insn	2, 0x0000
    3496:	0000                	.insn	2, 0x0000
    3498:	0000                	.insn	2, 0x0000
    349a:	0000                	.insn	2, 0x0000
    349c:	0000                	.insn	2, 0x0000
    349e:	0000                	.insn	2, 0x0000
    34a0:	0000                	.insn	2, 0x0000
    34a2:	0000                	.insn	2, 0x0000
    34a4:	0000                	.insn	2, 0x0000
    34a6:	0000                	.insn	2, 0x0000
    34a8:	0000                	.insn	2, 0x0000
    34aa:	0000                	.insn	2, 0x0000
    34ac:	0000                	.insn	2, 0x0000
    34ae:	0000                	.insn	2, 0x0000
    34b0:	0000                	.insn	2, 0x0000
    34b2:	0000                	.insn	2, 0x0000
    34b4:	0000                	.insn	2, 0x0000
    34b6:	0000                	.insn	2, 0x0000
    34b8:	0000                	.insn	2, 0x0000
    34ba:	0000                	.insn	2, 0x0000
    34bc:	0000                	.insn	2, 0x0000
    34be:	0000                	.insn	2, 0x0000
    34c0:	0000                	.insn	2, 0x0000
    34c2:	0000                	.insn	2, 0x0000
    34c4:	0000                	.insn	2, 0x0000
    34c6:	0000                	.insn	2, 0x0000
    34c8:	0000                	.insn	2, 0x0000
    34ca:	0000                	.insn	2, 0x0000
    34cc:	0000                	.insn	2, 0x0000
    34ce:	0000                	.insn	2, 0x0000
    34d0:	0000                	.insn	2, 0x0000
    34d2:	0000                	.insn	2, 0x0000
    34d4:	0000                	.insn	2, 0x0000
    34d6:	0000                	.insn	2, 0x0000
    34d8:	0000                	.insn	2, 0x0000
    34da:	0000                	.insn	2, 0x0000
    34dc:	0000                	.insn	2, 0x0000
    34de:	0000                	.insn	2, 0x0000
    34e0:	0000                	.insn	2, 0x0000
    34e2:	0000                	.insn	2, 0x0000
    34e4:	0000                	.insn	2, 0x0000
    34e6:	0000                	.insn	2, 0x0000
    34e8:	0000                	.insn	2, 0x0000
    34ea:	0000                	.insn	2, 0x0000
    34ec:	0000                	.insn	2, 0x0000
    34ee:	0000                	.insn	2, 0x0000
    34f0:	0000                	.insn	2, 0x0000
    34f2:	0000                	.insn	2, 0x0000
    34f4:	0000                	.insn	2, 0x0000
    34f6:	0000                	.insn	2, 0x0000
    34f8:	0000                	.insn	2, 0x0000
    34fa:	0000                	.insn	2, 0x0000
    34fc:	0000                	.insn	2, 0x0000
    34fe:	0000                	.insn	2, 0x0000

00003500 <fromhost>:
    3500:	0000                	.insn	2, 0x0000
    3502:	0000                	.insn	2, 0x0000
    3504:	0000                	.insn	2, 0x0000
    3506:	0000                	.insn	2, 0x0000

Disassembly of section .io_buf:

00006000 <begin_signature>:
    6000:	deadbeef          	jal	t4,fffe15ea <_end+0xfffdaae6>
    6004:	deadbeef          	jal	t4,fffe15ee <_end+0xfffdaaea>
    6008:	deadbeef          	jal	t4,fffe15f2 <_end+0xfffdaaee>
    600c:	deadbeef          	jal	t4,fffe15f6 <_end+0xfffdaaf2>
    6010:	deadbeef          	jal	t4,fffe15fa <_end+0xfffdaaf6>
    6014:	deadbeef          	jal	t4,fffe15fe <_end+0xfffdaafa>
    6018:	deadbeef          	jal	t4,fffe1602 <_end+0xfffdaafe>
    601c:	deadbeef          	jal	t4,fffe1606 <_end+0xfffdab02>
    6020:	deadbeef          	jal	t4,fffe160a <_end+0xfffdab06>
    6024:	deadbeef          	jal	t4,fffe160e <_end+0xfffdab0a>
    6028:	deadbeef          	jal	t4,fffe1612 <_end+0xfffdab0e>
    602c:	deadbeef          	jal	t4,fffe1616 <_end+0xfffdab12>
    6030:	deadbeef          	jal	t4,fffe161a <_end+0xfffdab16>
    6034:	deadbeef          	jal	t4,fffe161e <_end+0xfffdab1a>
    6038:	deadbeef          	jal	t4,fffe1622 <_end+0xfffdab1e>
    603c:	deadbeef          	jal	t4,fffe1626 <_end+0xfffdab22>

00006040 <signature_x7_0>:
    6040:	deadbeef          	jal	t4,fffe162a <_end+0xfffdab26>
    6044:	deadbeef          	jal	t4,fffe162e <_end+0xfffdab2a>
    6048:	deadbeef          	jal	t4,fffe1632 <_end+0xfffdab2e>
    604c:	deadbeef          	jal	t4,fffe1636 <_end+0xfffdab32>
    6050:	deadbeef          	jal	t4,fffe163a <_end+0xfffdab36>
    6054:	deadbeef          	jal	t4,fffe163e <_end+0xfffdab3a>
    6058:	deadbeef          	jal	t4,fffe1642 <_end+0xfffdab3e>
    605c:	deadbeef          	jal	t4,fffe1646 <_end+0xfffdab42>
    6060:	deadbeef          	jal	t4,fffe164a <_end+0xfffdab46>
    6064:	deadbeef          	jal	t4,fffe164e <_end+0xfffdab4a>
    6068:	deadbeef          	jal	t4,fffe1652 <_end+0xfffdab4e>
    606c:	deadbeef          	jal	t4,fffe1656 <_end+0xfffdab52>
    6070:	deadbeef          	jal	t4,fffe165a <_end+0xfffdab56>
    6074:	deadbeef          	jal	t4,fffe165e <_end+0xfffdab5a>
    6078:	deadbeef          	jal	t4,fffe1662 <_end+0xfffdab5e>

0000607c <signature_x1_0>:
    607c:	deadbeef          	jal	t4,fffe1666 <_end+0xfffdab62>
    6080:	deadbeef          	jal	t4,fffe166a <_end+0xfffdab66>
    6084:	deadbeef          	jal	t4,fffe166e <_end+0xfffdab6a>
    6088:	deadbeef          	jal	t4,fffe1672 <_end+0xfffdab6e>
    608c:	deadbeef          	jal	t4,fffe1676 <_end+0xfffdab72>
    6090:	deadbeef          	jal	t4,fffe167a <_end+0xfffdab76>
    6094:	deadbeef          	jal	t4,fffe167e <_end+0xfffdab7a>
    6098:	deadbeef          	jal	t4,fffe1682 <_end+0xfffdab7e>
    609c:	deadbeef          	jal	t4,fffe1686 <_end+0xfffdab82>
    60a0:	deadbeef          	jal	t4,fffe168a <_end+0xfffdab86>
    60a4:	deadbeef          	jal	t4,fffe168e <_end+0xfffdab8a>
    60a8:	deadbeef          	jal	t4,fffe1692 <_end+0xfffdab8e>
    60ac:	deadbeef          	jal	t4,fffe1696 <_end+0xfffdab92>
    60b0:	deadbeef          	jal	t4,fffe169a <_end+0xfffdab96>
    60b4:	deadbeef          	jal	t4,fffe169e <_end+0xfffdab9a>
    60b8:	deadbeef          	jal	t4,fffe16a2 <_end+0xfffdab9e>
    60bc:	deadbeef          	jal	t4,fffe16a6 <_end+0xfffdaba2>
    60c0:	deadbeef          	jal	t4,fffe16aa <_end+0xfffdaba6>
    60c4:	deadbeef          	jal	t4,fffe16ae <_end+0xfffdabaa>
    60c8:	deadbeef          	jal	t4,fffe16b2 <_end+0xfffdabae>
    60cc:	deadbeef          	jal	t4,fffe16b6 <_end+0xfffdabb2>
    60d0:	deadbeef          	jal	t4,fffe16ba <_end+0xfffdabb6>
    60d4:	deadbeef          	jal	t4,fffe16be <_end+0xfffdabba>
    60d8:	deadbeef          	jal	t4,fffe16c2 <_end+0xfffdabbe>
    60dc:	deadbeef          	jal	t4,fffe16c6 <_end+0xfffdabc2>
    60e0:	deadbeef          	jal	t4,fffe16ca <_end+0xfffdabc6>
    60e4:	deadbeef          	jal	t4,fffe16ce <_end+0xfffdabca>
    60e8:	deadbeef          	jal	t4,fffe16d2 <_end+0xfffdabce>
    60ec:	deadbeef          	jal	t4,fffe16d6 <_end+0xfffdabd2>
    60f0:	deadbeef          	jal	t4,fffe16da <_end+0xfffdabd6>
    60f4:	deadbeef          	jal	t4,fffe16de <_end+0xfffdabda>
    60f8:	deadbeef          	jal	t4,fffe16e2 <_end+0xfffdabde>
    60fc:	deadbeef          	jal	t4,fffe16e6 <_end+0xfffdabe2>
    6100:	deadbeef          	jal	t4,fffe16ea <_end+0xfffdabe6>
    6104:	deadbeef          	jal	t4,fffe16ee <_end+0xfffdabea>
    6108:	deadbeef          	jal	t4,fffe16f2 <_end+0xfffdabee>
    610c:	deadbeef          	jal	t4,fffe16f6 <_end+0xfffdabf2>
    6110:	deadbeef          	jal	t4,fffe16fa <_end+0xfffdabf6>
    6114:	deadbeef          	jal	t4,fffe16fe <_end+0xfffdabfa>
    6118:	deadbeef          	jal	t4,fffe1702 <_end+0xfffdabfe>
    611c:	deadbeef          	jal	t4,fffe1706 <_end+0xfffdac02>
    6120:	deadbeef          	jal	t4,fffe170a <_end+0xfffdac06>
    6124:	deadbeef          	jal	t4,fffe170e <_end+0xfffdac0a>
    6128:	deadbeef          	jal	t4,fffe1712 <_end+0xfffdac0e>
    612c:	deadbeef          	jal	t4,fffe1716 <_end+0xfffdac12>
    6130:	deadbeef          	jal	t4,fffe171a <_end+0xfffdac16>
    6134:	deadbeef          	jal	t4,fffe171e <_end+0xfffdac1a>
    6138:	deadbeef          	jal	t4,fffe1722 <_end+0xfffdac1e>
    613c:	deadbeef          	jal	t4,fffe1726 <_end+0xfffdac22>
    6140:	deadbeef          	jal	t4,fffe172a <_end+0xfffdac26>
    6144:	deadbeef          	jal	t4,fffe172e <_end+0xfffdac2a>
    6148:	deadbeef          	jal	t4,fffe1732 <_end+0xfffdac2e>
    614c:	deadbeef          	jal	t4,fffe1736 <_end+0xfffdac32>
    6150:	deadbeef          	jal	t4,fffe173a <_end+0xfffdac36>
    6154:	deadbeef          	jal	t4,fffe173e <_end+0xfffdac3a>
    6158:	deadbeef          	jal	t4,fffe1742 <_end+0xfffdac3e>
    615c:	deadbeef          	jal	t4,fffe1746 <_end+0xfffdac42>
    6160:	deadbeef          	jal	t4,fffe174a <_end+0xfffdac46>
    6164:	deadbeef          	jal	t4,fffe174e <_end+0xfffdac4a>
    6168:	deadbeef          	jal	t4,fffe1752 <_end+0xfffdac4e>
    616c:	deadbeef          	jal	t4,fffe1756 <_end+0xfffdac52>
    6170:	deadbeef          	jal	t4,fffe175a <_end+0xfffdac56>
    6174:	deadbeef          	jal	t4,fffe175e <_end+0xfffdac5a>
    6178:	deadbeef          	jal	t4,fffe1762 <_end+0xfffdac5e>
    617c:	deadbeef          	jal	t4,fffe1766 <_end+0xfffdac62>
    6180:	deadbeef          	jal	t4,fffe176a <_end+0xfffdac66>
    6184:	deadbeef          	jal	t4,fffe176e <_end+0xfffdac6a>
    6188:	deadbeef          	jal	t4,fffe1772 <_end+0xfffdac6e>
    618c:	deadbeef          	jal	t4,fffe1776 <_end+0xfffdac72>
    6190:	deadbeef          	jal	t4,fffe177a <_end+0xfffdac76>
    6194:	deadbeef          	jal	t4,fffe177e <_end+0xfffdac7a>
    6198:	deadbeef          	jal	t4,fffe1782 <_end+0xfffdac7e>
    619c:	deadbeef          	jal	t4,fffe1786 <_end+0xfffdac82>
    61a0:	deadbeef          	jal	t4,fffe178a <_end+0xfffdac86>
    61a4:	deadbeef          	jal	t4,fffe178e <_end+0xfffdac8a>
    61a8:	deadbeef          	jal	t4,fffe1792 <_end+0xfffdac8e>
    61ac:	deadbeef          	jal	t4,fffe1796 <_end+0xfffdac92>
    61b0:	deadbeef          	jal	t4,fffe179a <_end+0xfffdac96>
    61b4:	deadbeef          	jal	t4,fffe179e <_end+0xfffdac9a>
    61b8:	deadbeef          	jal	t4,fffe17a2 <_end+0xfffdac9e>
    61bc:	deadbeef          	jal	t4,fffe17a6 <_end+0xfffdaca2>
    61c0:	deadbeef          	jal	t4,fffe17aa <_end+0xfffdaca6>
    61c4:	deadbeef          	jal	t4,fffe17ae <_end+0xfffdacaa>
    61c8:	deadbeef          	jal	t4,fffe17b2 <_end+0xfffdacae>
    61cc:	deadbeef          	jal	t4,fffe17b6 <_end+0xfffdacb2>
    61d0:	deadbeef          	jal	t4,fffe17ba <_end+0xfffdacb6>
    61d4:	deadbeef          	jal	t4,fffe17be <_end+0xfffdacba>
    61d8:	deadbeef          	jal	t4,fffe17c2 <_end+0xfffdacbe>
    61dc:	deadbeef          	jal	t4,fffe17c6 <_end+0xfffdacc2>
    61e0:	deadbeef          	jal	t4,fffe17ca <_end+0xfffdacc6>
    61e4:	deadbeef          	jal	t4,fffe17ce <_end+0xfffdacca>
    61e8:	deadbeef          	jal	t4,fffe17d2 <_end+0xfffdacce>
    61ec:	deadbeef          	jal	t4,fffe17d6 <_end+0xfffdacd2>
    61f0:	deadbeef          	jal	t4,fffe17da <_end+0xfffdacd6>
    61f4:	deadbeef          	jal	t4,fffe17de <_end+0xfffdacda>
    61f8:	deadbeef          	jal	t4,fffe17e2 <_end+0xfffdacde>
    61fc:	deadbeef          	jal	t4,fffe17e6 <_end+0xfffdace2>
    6200:	deadbeef          	jal	t4,fffe17ea <_end+0xfffdace6>
    6204:	deadbeef          	jal	t4,fffe17ee <_end+0xfffdacea>
    6208:	deadbeef          	jal	t4,fffe17f2 <_end+0xfffdacee>
    620c:	deadbeef          	jal	t4,fffe17f6 <_end+0xfffdacf2>
    6210:	deadbeef          	jal	t4,fffe17fa <_end+0xfffdacf6>
    6214:	deadbeef          	jal	t4,fffe17fe <_end+0xfffdacfa>
    6218:	deadbeef          	jal	t4,fffe1802 <_end+0xfffdacfe>
    621c:	deadbeef          	jal	t4,fffe1806 <_end+0xfffdad02>
    6220:	deadbeef          	jal	t4,fffe180a <_end+0xfffdad06>
    6224:	deadbeef          	jal	t4,fffe180e <_end+0xfffdad0a>
    6228:	deadbeef          	jal	t4,fffe1812 <_end+0xfffdad0e>
    622c:	deadbeef          	jal	t4,fffe1816 <_end+0xfffdad12>
    6230:	deadbeef          	jal	t4,fffe181a <_end+0xfffdad16>
    6234:	deadbeef          	jal	t4,fffe181e <_end+0xfffdad1a>
    6238:	deadbeef          	jal	t4,fffe1822 <_end+0xfffdad1e>
    623c:	deadbeef          	jal	t4,fffe1826 <_end+0xfffdad22>
    6240:	deadbeef          	jal	t4,fffe182a <_end+0xfffdad26>
    6244:	deadbeef          	jal	t4,fffe182e <_end+0xfffdad2a>
    6248:	deadbeef          	jal	t4,fffe1832 <_end+0xfffdad2e>
    624c:	deadbeef          	jal	t4,fffe1836 <_end+0xfffdad32>
    6250:	deadbeef          	jal	t4,fffe183a <_end+0xfffdad36>
    6254:	deadbeef          	jal	t4,fffe183e <_end+0xfffdad3a>
    6258:	deadbeef          	jal	t4,fffe1842 <_end+0xfffdad3e>
    625c:	deadbeef          	jal	t4,fffe1846 <_end+0xfffdad42>
    6260:	deadbeef          	jal	t4,fffe184a <_end+0xfffdad46>
    6264:	deadbeef          	jal	t4,fffe184e <_end+0xfffdad4a>
    6268:	deadbeef          	jal	t4,fffe1852 <_end+0xfffdad4e>
    626c:	deadbeef          	jal	t4,fffe1856 <_end+0xfffdad52>
    6270:	deadbeef          	jal	t4,fffe185a <_end+0xfffdad56>
    6274:	deadbeef          	jal	t4,fffe185e <_end+0xfffdad5a>
    6278:	deadbeef          	jal	t4,fffe1862 <_end+0xfffdad5e>
    627c:	deadbeef          	jal	t4,fffe1866 <_end+0xfffdad62>
    6280:	deadbeef          	jal	t4,fffe186a <_end+0xfffdad66>
    6284:	deadbeef          	jal	t4,fffe186e <_end+0xfffdad6a>
    6288:	deadbeef          	jal	t4,fffe1872 <_end+0xfffdad6e>
    628c:	deadbeef          	jal	t4,fffe1876 <_end+0xfffdad72>
    6290:	deadbeef          	jal	t4,fffe187a <_end+0xfffdad76>
    6294:	deadbeef          	jal	t4,fffe187e <_end+0xfffdad7a>
    6298:	deadbeef          	jal	t4,fffe1882 <_end+0xfffdad7e>
    629c:	deadbeef          	jal	t4,fffe1886 <_end+0xfffdad82>
    62a0:	deadbeef          	jal	t4,fffe188a <_end+0xfffdad86>
    62a4:	deadbeef          	jal	t4,fffe188e <_end+0xfffdad8a>
    62a8:	deadbeef          	jal	t4,fffe1892 <_end+0xfffdad8e>
    62ac:	deadbeef          	jal	t4,fffe1896 <_end+0xfffdad92>
    62b0:	deadbeef          	jal	t4,fffe189a <_end+0xfffdad96>
    62b4:	deadbeef          	jal	t4,fffe189e <_end+0xfffdad9a>
    62b8:	deadbeef          	jal	t4,fffe18a2 <_end+0xfffdad9e>
    62bc:	deadbeef          	jal	t4,fffe18a6 <_end+0xfffdada2>
    62c0:	deadbeef          	jal	t4,fffe18aa <_end+0xfffdada6>
    62c4:	deadbeef          	jal	t4,fffe18ae <_end+0xfffdadaa>
    62c8:	deadbeef          	jal	t4,fffe18b2 <_end+0xfffdadae>
    62cc:	deadbeef          	jal	t4,fffe18b6 <_end+0xfffdadb2>
    62d0:	deadbeef          	jal	t4,fffe18ba <_end+0xfffdadb6>
    62d4:	deadbeef          	jal	t4,fffe18be <_end+0xfffdadba>
    62d8:	deadbeef          	jal	t4,fffe18c2 <_end+0xfffdadbe>
    62dc:	deadbeef          	jal	t4,fffe18c6 <_end+0xfffdadc2>
    62e0:	deadbeef          	jal	t4,fffe18ca <_end+0xfffdadc6>
    62e4:	deadbeef          	jal	t4,fffe18ce <_end+0xfffdadca>
    62e8:	deadbeef          	jal	t4,fffe18d2 <_end+0xfffdadce>
    62ec:	deadbeef          	jal	t4,fffe18d6 <_end+0xfffdadd2>
    62f0:	deadbeef          	jal	t4,fffe18da <_end+0xfffdadd6>
    62f4:	deadbeef          	jal	t4,fffe18de <_end+0xfffdadda>
    62f8:	deadbeef          	jal	t4,fffe18e2 <_end+0xfffdadde>
    62fc:	deadbeef          	jal	t4,fffe18e6 <_end+0xfffdade2>
    6300:	deadbeef          	jal	t4,fffe18ea <_end+0xfffdade6>
    6304:	deadbeef          	jal	t4,fffe18ee <_end+0xfffdadea>
    6308:	deadbeef          	jal	t4,fffe18f2 <_end+0xfffdadee>
    630c:	deadbeef          	jal	t4,fffe18f6 <_end+0xfffdadf2>
    6310:	deadbeef          	jal	t4,fffe18fa <_end+0xfffdadf6>
    6314:	deadbeef          	jal	t4,fffe18fe <_end+0xfffdadfa>
    6318:	deadbeef          	jal	t4,fffe1902 <_end+0xfffdadfe>
    631c:	deadbeef          	jal	t4,fffe1906 <_end+0xfffdae02>
    6320:	deadbeef          	jal	t4,fffe190a <_end+0xfffdae06>
    6324:	deadbeef          	jal	t4,fffe190e <_end+0xfffdae0a>
    6328:	deadbeef          	jal	t4,fffe1912 <_end+0xfffdae0e>
    632c:	deadbeef          	jal	t4,fffe1916 <_end+0xfffdae12>
    6330:	deadbeef          	jal	t4,fffe191a <_end+0xfffdae16>
    6334:	deadbeef          	jal	t4,fffe191e <_end+0xfffdae1a>
    6338:	deadbeef          	jal	t4,fffe1922 <_end+0xfffdae1e>
    633c:	deadbeef          	jal	t4,fffe1926 <_end+0xfffdae22>
    6340:	deadbeef          	jal	t4,fffe192a <_end+0xfffdae26>
    6344:	deadbeef          	jal	t4,fffe192e <_end+0xfffdae2a>
    6348:	deadbeef          	jal	t4,fffe1932 <_end+0xfffdae2e>
    634c:	deadbeef          	jal	t4,fffe1936 <_end+0xfffdae32>
    6350:	deadbeef          	jal	t4,fffe193a <_end+0xfffdae36>
    6354:	deadbeef          	jal	t4,fffe193e <_end+0xfffdae3a>
    6358:	deadbeef          	jal	t4,fffe1942 <_end+0xfffdae3e>
    635c:	deadbeef          	jal	t4,fffe1946 <_end+0xfffdae42>
    6360:	deadbeef          	jal	t4,fffe194a <_end+0xfffdae46>
    6364:	deadbeef          	jal	t4,fffe194e <_end+0xfffdae4a>
    6368:	deadbeef          	jal	t4,fffe1952 <_end+0xfffdae4e>
    636c:	deadbeef          	jal	t4,fffe1956 <_end+0xfffdae52>
    6370:	deadbeef          	jal	t4,fffe195a <_end+0xfffdae56>
    6374:	deadbeef          	jal	t4,fffe195e <_end+0xfffdae5a>
    6378:	deadbeef          	jal	t4,fffe1962 <_end+0xfffdae5e>
    637c:	deadbeef          	jal	t4,fffe1966 <_end+0xfffdae62>
    6380:	deadbeef          	jal	t4,fffe196a <_end+0xfffdae66>
    6384:	deadbeef          	jal	t4,fffe196e <_end+0xfffdae6a>
    6388:	deadbeef          	jal	t4,fffe1972 <_end+0xfffdae6e>
    638c:	deadbeef          	jal	t4,fffe1976 <_end+0xfffdae72>
    6390:	deadbeef          	jal	t4,fffe197a <_end+0xfffdae76>
    6394:	deadbeef          	jal	t4,fffe197e <_end+0xfffdae7a>
    6398:	deadbeef          	jal	t4,fffe1982 <_end+0xfffdae7e>
    639c:	deadbeef          	jal	t4,fffe1986 <_end+0xfffdae82>
    63a0:	deadbeef          	jal	t4,fffe198a <_end+0xfffdae86>
    63a4:	deadbeef          	jal	t4,fffe198e <_end+0xfffdae8a>
    63a8:	deadbeef          	jal	t4,fffe1992 <_end+0xfffdae8e>
    63ac:	deadbeef          	jal	t4,fffe1996 <_end+0xfffdae92>
    63b0:	deadbeef          	jal	t4,fffe199a <_end+0xfffdae96>
    63b4:	deadbeef          	jal	t4,fffe199e <_end+0xfffdae9a>
    63b8:	deadbeef          	jal	t4,fffe19a2 <_end+0xfffdae9e>
    63bc:	deadbeef          	jal	t4,fffe19a6 <_end+0xfffdaea2>
    63c0:	deadbeef          	jal	t4,fffe19aa <_end+0xfffdaea6>
    63c4:	deadbeef          	jal	t4,fffe19ae <_end+0xfffdaeaa>
    63c8:	deadbeef          	jal	t4,fffe19b2 <_end+0xfffdaeae>
    63cc:	deadbeef          	jal	t4,fffe19b6 <_end+0xfffdaeb2>
    63d0:	deadbeef          	jal	t4,fffe19ba <_end+0xfffdaeb6>
    63d4:	deadbeef          	jal	t4,fffe19be <_end+0xfffdaeba>
    63d8:	deadbeef          	jal	t4,fffe19c2 <_end+0xfffdaebe>
    63dc:	deadbeef          	jal	t4,fffe19c6 <_end+0xfffdaec2>
    63e0:	deadbeef          	jal	t4,fffe19ca <_end+0xfffdaec6>
    63e4:	deadbeef          	jal	t4,fffe19ce <_end+0xfffdaeca>
    63e8:	deadbeef          	jal	t4,fffe19d2 <_end+0xfffdaece>
    63ec:	deadbeef          	jal	t4,fffe19d6 <_end+0xfffdaed2>
    63f0:	deadbeef          	jal	t4,fffe19da <_end+0xfffdaed6>
    63f4:	deadbeef          	jal	t4,fffe19de <_end+0xfffdaeda>
    63f8:	deadbeef          	jal	t4,fffe19e2 <_end+0xfffdaede>
    63fc:	deadbeef          	jal	t4,fffe19e6 <_end+0xfffdaee2>
    6400:	deadbeef          	jal	t4,fffe19ea <_end+0xfffdaee6>
    6404:	deadbeef          	jal	t4,fffe19ee <_end+0xfffdaeea>
    6408:	deadbeef          	jal	t4,fffe19f2 <_end+0xfffdaeee>
    640c:	deadbeef          	jal	t4,fffe19f6 <_end+0xfffdaef2>
    6410:	deadbeef          	jal	t4,fffe19fa <_end+0xfffdaef6>
    6414:	deadbeef          	jal	t4,fffe19fe <_end+0xfffdaefa>
    6418:	deadbeef          	jal	t4,fffe1a02 <_end+0xfffdaefe>
    641c:	deadbeef          	jal	t4,fffe1a06 <_end+0xfffdaf02>
    6420:	deadbeef          	jal	t4,fffe1a0a <_end+0xfffdaf06>
    6424:	deadbeef          	jal	t4,fffe1a0e <_end+0xfffdaf0a>
    6428:	deadbeef          	jal	t4,fffe1a12 <_end+0xfffdaf0e>
    642c:	deadbeef          	jal	t4,fffe1a16 <_end+0xfffdaf12>
    6430:	deadbeef          	jal	t4,fffe1a1a <_end+0xfffdaf16>
    6434:	deadbeef          	jal	t4,fffe1a1e <_end+0xfffdaf1a>
    6438:	deadbeef          	jal	t4,fffe1a22 <_end+0xfffdaf1e>
    643c:	deadbeef          	jal	t4,fffe1a26 <_end+0xfffdaf22>
    6440:	deadbeef          	jal	t4,fffe1a2a <_end+0xfffdaf26>
    6444:	deadbeef          	jal	t4,fffe1a2e <_end+0xfffdaf2a>
    6448:	deadbeef          	jal	t4,fffe1a32 <_end+0xfffdaf2e>
    644c:	deadbeef          	jal	t4,fffe1a36 <_end+0xfffdaf32>
    6450:	deadbeef          	jal	t4,fffe1a3a <_end+0xfffdaf36>
    6454:	deadbeef          	jal	t4,fffe1a3e <_end+0xfffdaf3a>
    6458:	deadbeef          	jal	t4,fffe1a42 <_end+0xfffdaf3e>
    645c:	deadbeef          	jal	t4,fffe1a46 <_end+0xfffdaf42>
    6460:	deadbeef          	jal	t4,fffe1a4a <_end+0xfffdaf46>
    6464:	deadbeef          	jal	t4,fffe1a4e <_end+0xfffdaf4a>
    6468:	deadbeef          	jal	t4,fffe1a52 <_end+0xfffdaf4e>
    646c:	deadbeef          	jal	t4,fffe1a56 <_end+0xfffdaf52>
    6470:	deadbeef          	jal	t4,fffe1a5a <_end+0xfffdaf56>
    6474:	deadbeef          	jal	t4,fffe1a5e <_end+0xfffdaf5a>
    6478:	deadbeef          	jal	t4,fffe1a62 <_end+0xfffdaf5e>
    647c:	deadbeef          	jal	t4,fffe1a66 <_end+0xfffdaf62>
    6480:	deadbeef          	jal	t4,fffe1a6a <_end+0xfffdaf66>
    6484:	deadbeef          	jal	t4,fffe1a6e <_end+0xfffdaf6a>
    6488:	deadbeef          	jal	t4,fffe1a72 <_end+0xfffdaf6e>
    648c:	deadbeef          	jal	t4,fffe1a76 <_end+0xfffdaf72>
    6490:	deadbeef          	jal	t4,fffe1a7a <_end+0xfffdaf76>
    6494:	deadbeef          	jal	t4,fffe1a7e <_end+0xfffdaf7a>
    6498:	deadbeef          	jal	t4,fffe1a82 <_end+0xfffdaf7e>
    649c:	deadbeef          	jal	t4,fffe1a86 <_end+0xfffdaf82>
    64a0:	deadbeef          	jal	t4,fffe1a8a <_end+0xfffdaf86>
    64a4:	deadbeef          	jal	t4,fffe1a8e <_end+0xfffdaf8a>
    64a8:	deadbeef          	jal	t4,fffe1a92 <_end+0xfffdaf8e>
    64ac:	deadbeef          	jal	t4,fffe1a96 <_end+0xfffdaf92>
    64b0:	deadbeef          	jal	t4,fffe1a9a <_end+0xfffdaf96>
    64b4:	deadbeef          	jal	t4,fffe1a9e <_end+0xfffdaf9a>
    64b8:	deadbeef          	jal	t4,fffe1aa2 <_end+0xfffdaf9e>
    64bc:	deadbeef          	jal	t4,fffe1aa6 <_end+0xfffdafa2>
    64c0:	deadbeef          	jal	t4,fffe1aaa <_end+0xfffdafa6>
    64c4:	deadbeef          	jal	t4,fffe1aae <_end+0xfffdafaa>
    64c8:	deadbeef          	jal	t4,fffe1ab2 <_end+0xfffdafae>
    64cc:	deadbeef          	jal	t4,fffe1ab6 <_end+0xfffdafb2>
    64d0:	deadbeef          	jal	t4,fffe1aba <_end+0xfffdafb6>
    64d4:	deadbeef          	jal	t4,fffe1abe <_end+0xfffdafba>
    64d8:	deadbeef          	jal	t4,fffe1ac2 <_end+0xfffdafbe>
    64dc:	deadbeef          	jal	t4,fffe1ac6 <_end+0xfffdafc2>
    64e0:	deadbeef          	jal	t4,fffe1aca <_end+0xfffdafc6>
    64e4:	deadbeef          	jal	t4,fffe1ace <_end+0xfffdafca>
    64e8:	deadbeef          	jal	t4,fffe1ad2 <_end+0xfffdafce>
    64ec:	deadbeef          	jal	t4,fffe1ad6 <_end+0xfffdafd2>
    64f0:	deadbeef          	jal	t4,fffe1ada <_end+0xfffdafd6>
    64f4:	deadbeef          	jal	t4,fffe1ade <_end+0xfffdafda>
    64f8:	deadbeef          	jal	t4,fffe1ae2 <_end+0xfffdafde>
    64fc:	deadbeef          	jal	t4,fffe1ae6 <_end+0xfffdafe2>
    6500:	deadbeef          	jal	t4,fffe1aea <_end+0xfffdafe6>
    6504:	deadbeef          	jal	t4,fffe1aee <_end+0xfffdafea>
    6508:	deadbeef          	jal	t4,fffe1af2 <_end+0xfffdafee>
    650c:	deadbeef          	jal	t4,fffe1af6 <_end+0xfffdaff2>
    6510:	deadbeef          	jal	t4,fffe1afa <_end+0xfffdaff6>
    6514:	deadbeef          	jal	t4,fffe1afe <_end+0xfffdaffa>
    6518:	deadbeef          	jal	t4,fffe1b02 <_end+0xfffdaffe>
    651c:	deadbeef          	jal	t4,fffe1b06 <_end+0xfffdb002>
    6520:	deadbeef          	jal	t4,fffe1b0a <_end+0xfffdb006>
    6524:	deadbeef          	jal	t4,fffe1b0e <_end+0xfffdb00a>
    6528:	deadbeef          	jal	t4,fffe1b12 <_end+0xfffdb00e>
    652c:	deadbeef          	jal	t4,fffe1b16 <_end+0xfffdb012>
    6530:	deadbeef          	jal	t4,fffe1b1a <_end+0xfffdb016>
    6534:	deadbeef          	jal	t4,fffe1b1e <_end+0xfffdb01a>
    6538:	deadbeef          	jal	t4,fffe1b22 <_end+0xfffdb01e>
    653c:	deadbeef          	jal	t4,fffe1b26 <_end+0xfffdb022>
    6540:	deadbeef          	jal	t4,fffe1b2a <_end+0xfffdb026>
    6544:	deadbeef          	jal	t4,fffe1b2e <_end+0xfffdb02a>
    6548:	deadbeef          	jal	t4,fffe1b32 <_end+0xfffdb02e>
    654c:	deadbeef          	jal	t4,fffe1b36 <_end+0xfffdb032>
    6550:	deadbeef          	jal	t4,fffe1b3a <_end+0xfffdb036>
    6554:	deadbeef          	jal	t4,fffe1b3e <_end+0xfffdb03a>
    6558:	deadbeef          	jal	t4,fffe1b42 <_end+0xfffdb03e>
    655c:	deadbeef          	jal	t4,fffe1b46 <_end+0xfffdb042>
    6560:	deadbeef          	jal	t4,fffe1b4a <_end+0xfffdb046>
    6564:	deadbeef          	jal	t4,fffe1b4e <_end+0xfffdb04a>
    6568:	deadbeef          	jal	t4,fffe1b52 <_end+0xfffdb04e>
    656c:	deadbeef          	jal	t4,fffe1b56 <_end+0xfffdb052>
    6570:	deadbeef          	jal	t4,fffe1b5a <_end+0xfffdb056>
    6574:	deadbeef          	jal	t4,fffe1b5e <_end+0xfffdb05a>
    6578:	deadbeef          	jal	t4,fffe1b62 <_end+0xfffdb05e>
    657c:	deadbeef          	jal	t4,fffe1b66 <_end+0xfffdb062>
    6580:	deadbeef          	jal	t4,fffe1b6a <_end+0xfffdb066>
    6584:	deadbeef          	jal	t4,fffe1b6e <_end+0xfffdb06a>
    6588:	deadbeef          	jal	t4,fffe1b72 <_end+0xfffdb06e>
    658c:	deadbeef          	jal	t4,fffe1b76 <_end+0xfffdb072>
    6590:	deadbeef          	jal	t4,fffe1b7a <_end+0xfffdb076>
    6594:	deadbeef          	jal	t4,fffe1b7e <_end+0xfffdb07a>
    6598:	deadbeef          	jal	t4,fffe1b82 <_end+0xfffdb07e>
    659c:	deadbeef          	jal	t4,fffe1b86 <_end+0xfffdb082>
    65a0:	deadbeef          	jal	t4,fffe1b8a <_end+0xfffdb086>
    65a4:	deadbeef          	jal	t4,fffe1b8e <_end+0xfffdb08a>
    65a8:	deadbeef          	jal	t4,fffe1b92 <_end+0xfffdb08e>
    65ac:	deadbeef          	jal	t4,fffe1b96 <_end+0xfffdb092>
    65b0:	deadbeef          	jal	t4,fffe1b9a <_end+0xfffdb096>
    65b4:	deadbeef          	jal	t4,fffe1b9e <_end+0xfffdb09a>
    65b8:	deadbeef          	jal	t4,fffe1ba2 <_end+0xfffdb09e>
    65bc:	deadbeef          	jal	t4,fffe1ba6 <_end+0xfffdb0a2>
    65c0:	deadbeef          	jal	t4,fffe1baa <_end+0xfffdb0a6>
    65c4:	deadbeef          	jal	t4,fffe1bae <_end+0xfffdb0aa>
    65c8:	deadbeef          	jal	t4,fffe1bb2 <_end+0xfffdb0ae>
    65cc:	deadbeef          	jal	t4,fffe1bb6 <_end+0xfffdb0b2>
    65d0:	deadbeef          	jal	t4,fffe1bba <_end+0xfffdb0b6>
    65d4:	deadbeef          	jal	t4,fffe1bbe <_end+0xfffdb0ba>
    65d8:	deadbeef          	jal	t4,fffe1bc2 <_end+0xfffdb0be>
    65dc:	deadbeef          	jal	t4,fffe1bc6 <_end+0xfffdb0c2>
    65e0:	deadbeef          	jal	t4,fffe1bca <_end+0xfffdb0c6>
    65e4:	deadbeef          	jal	t4,fffe1bce <_end+0xfffdb0ca>
    65e8:	deadbeef          	jal	t4,fffe1bd2 <_end+0xfffdb0ce>
    65ec:	deadbeef          	jal	t4,fffe1bd6 <_end+0xfffdb0d2>
    65f0:	deadbeef          	jal	t4,fffe1bda <_end+0xfffdb0d6>
    65f4:	deadbeef          	jal	t4,fffe1bde <_end+0xfffdb0da>
    65f8:	deadbeef          	jal	t4,fffe1be2 <_end+0xfffdb0de>
    65fc:	deadbeef          	jal	t4,fffe1be6 <_end+0xfffdb0e2>
    6600:	deadbeef          	jal	t4,fffe1bea <_end+0xfffdb0e6>
    6604:	deadbeef          	jal	t4,fffe1bee <_end+0xfffdb0ea>
    6608:	deadbeef          	jal	t4,fffe1bf2 <_end+0xfffdb0ee>
    660c:	deadbeef          	jal	t4,fffe1bf6 <_end+0xfffdb0f2>
    6610:	deadbeef          	jal	t4,fffe1bfa <_end+0xfffdb0f6>
    6614:	deadbeef          	jal	t4,fffe1bfe <_end+0xfffdb0fa>
    6618:	deadbeef          	jal	t4,fffe1c02 <_end+0xfffdb0fe>
    661c:	deadbeef          	jal	t4,fffe1c06 <_end+0xfffdb102>
    6620:	deadbeef          	jal	t4,fffe1c0a <_end+0xfffdb106>
    6624:	deadbeef          	jal	t4,fffe1c0e <_end+0xfffdb10a>
    6628:	deadbeef          	jal	t4,fffe1c12 <_end+0xfffdb10e>
    662c:	deadbeef          	jal	t4,fffe1c16 <_end+0xfffdb112>
    6630:	deadbeef          	jal	t4,fffe1c1a <_end+0xfffdb116>
    6634:	deadbeef          	jal	t4,fffe1c1e <_end+0xfffdb11a>
    6638:	deadbeef          	jal	t4,fffe1c22 <_end+0xfffdb11e>
    663c:	deadbeef          	jal	t4,fffe1c26 <_end+0xfffdb122>
    6640:	deadbeef          	jal	t4,fffe1c2a <_end+0xfffdb126>
    6644:	deadbeef          	jal	t4,fffe1c2e <_end+0xfffdb12a>
    6648:	deadbeef          	jal	t4,fffe1c32 <_end+0xfffdb12e>
    664c:	deadbeef          	jal	t4,fffe1c36 <_end+0xfffdb132>
    6650:	deadbeef          	jal	t4,fffe1c3a <_end+0xfffdb136>
    6654:	deadbeef          	jal	t4,fffe1c3e <_end+0xfffdb13a>
    6658:	deadbeef          	jal	t4,fffe1c42 <_end+0xfffdb13e>
    665c:	deadbeef          	jal	t4,fffe1c46 <_end+0xfffdb142>
    6660:	deadbeef          	jal	t4,fffe1c4a <_end+0xfffdb146>
    6664:	deadbeef          	jal	t4,fffe1c4e <_end+0xfffdb14a>
    6668:	deadbeef          	jal	t4,fffe1c52 <_end+0xfffdb14e>
    666c:	deadbeef          	jal	t4,fffe1c56 <_end+0xfffdb152>
    6670:	deadbeef          	jal	t4,fffe1c5a <_end+0xfffdb156>
    6674:	deadbeef          	jal	t4,fffe1c5e <_end+0xfffdb15a>
    6678:	deadbeef          	jal	t4,fffe1c62 <_end+0xfffdb15e>
    667c:	deadbeef          	jal	t4,fffe1c66 <_end+0xfffdb162>
    6680:	deadbeef          	jal	t4,fffe1c6a <_end+0xfffdb166>
    6684:	deadbeef          	jal	t4,fffe1c6e <_end+0xfffdb16a>
    6688:	deadbeef          	jal	t4,fffe1c72 <_end+0xfffdb16e>
    668c:	deadbeef          	jal	t4,fffe1c76 <_end+0xfffdb172>
    6690:	deadbeef          	jal	t4,fffe1c7a <_end+0xfffdb176>
    6694:	deadbeef          	jal	t4,fffe1c7e <_end+0xfffdb17a>
    6698:	deadbeef          	jal	t4,fffe1c82 <_end+0xfffdb17e>
    669c:	deadbeef          	jal	t4,fffe1c86 <_end+0xfffdb182>
    66a0:	deadbeef          	jal	t4,fffe1c8a <_end+0xfffdb186>
    66a4:	deadbeef          	jal	t4,fffe1c8e <_end+0xfffdb18a>
    66a8:	deadbeef          	jal	t4,fffe1c92 <_end+0xfffdb18e>
    66ac:	deadbeef          	jal	t4,fffe1c96 <_end+0xfffdb192>
    66b0:	deadbeef          	jal	t4,fffe1c9a <_end+0xfffdb196>
    66b4:	deadbeef          	jal	t4,fffe1c9e <_end+0xfffdb19a>
    66b8:	deadbeef          	jal	t4,fffe1ca2 <_end+0xfffdb19e>
    66bc:	deadbeef          	jal	t4,fffe1ca6 <_end+0xfffdb1a2>
    66c0:	deadbeef          	jal	t4,fffe1caa <_end+0xfffdb1a6>
    66c4:	deadbeef          	jal	t4,fffe1cae <_end+0xfffdb1aa>
    66c8:	deadbeef          	jal	t4,fffe1cb2 <_end+0xfffdb1ae>
    66cc:	deadbeef          	jal	t4,fffe1cb6 <_end+0xfffdb1b2>
    66d0:	deadbeef          	jal	t4,fffe1cba <_end+0xfffdb1b6>
    66d4:	deadbeef          	jal	t4,fffe1cbe <_end+0xfffdb1ba>
    66d8:	deadbeef          	jal	t4,fffe1cc2 <_end+0xfffdb1be>
    66dc:	deadbeef          	jal	t4,fffe1cc6 <_end+0xfffdb1c2>
    66e0:	deadbeef          	jal	t4,fffe1cca <_end+0xfffdb1c6>
    66e4:	deadbeef          	jal	t4,fffe1cce <_end+0xfffdb1ca>
    66e8:	deadbeef          	jal	t4,fffe1cd2 <_end+0xfffdb1ce>
    66ec:	deadbeef          	jal	t4,fffe1cd6 <_end+0xfffdb1d2>
    66f0:	deadbeef          	jal	t4,fffe1cda <_end+0xfffdb1d6>
    66f4:	deadbeef          	jal	t4,fffe1cde <_end+0xfffdb1da>
    66f8:	deadbeef          	jal	t4,fffe1ce2 <_end+0xfffdb1de>
    66fc:	deadbeef          	jal	t4,fffe1ce6 <_end+0xfffdb1e2>
    6700:	deadbeef          	jal	t4,fffe1cea <_end+0xfffdb1e6>
    6704:	deadbeef          	jal	t4,fffe1cee <_end+0xfffdb1ea>
    6708:	deadbeef          	jal	t4,fffe1cf2 <_end+0xfffdb1ee>
    670c:	deadbeef          	jal	t4,fffe1cf6 <_end+0xfffdb1f2>
    6710:	deadbeef          	jal	t4,fffe1cfa <_end+0xfffdb1f6>
    6714:	deadbeef          	jal	t4,fffe1cfe <_end+0xfffdb1fa>
    6718:	deadbeef          	jal	t4,fffe1d02 <_end+0xfffdb1fe>
    671c:	deadbeef          	jal	t4,fffe1d06 <_end+0xfffdb202>
    6720:	deadbeef          	jal	t4,fffe1d0a <_end+0xfffdb206>
    6724:	deadbeef          	jal	t4,fffe1d0e <_end+0xfffdb20a>
    6728:	deadbeef          	jal	t4,fffe1d12 <_end+0xfffdb20e>
    672c:	deadbeef          	jal	t4,fffe1d16 <_end+0xfffdb212>
    6730:	deadbeef          	jal	t4,fffe1d1a <_end+0xfffdb216>
    6734:	deadbeef          	jal	t4,fffe1d1e <_end+0xfffdb21a>
    6738:	deadbeef          	jal	t4,fffe1d22 <_end+0xfffdb21e>
    673c:	deadbeef          	jal	t4,fffe1d26 <_end+0xfffdb222>
    6740:	deadbeef          	jal	t4,fffe1d2a <_end+0xfffdb226>
    6744:	deadbeef          	jal	t4,fffe1d2e <_end+0xfffdb22a>
    6748:	deadbeef          	jal	t4,fffe1d32 <_end+0xfffdb22e>
    674c:	deadbeef          	jal	t4,fffe1d36 <_end+0xfffdb232>
    6750:	deadbeef          	jal	t4,fffe1d3a <_end+0xfffdb236>
    6754:	deadbeef          	jal	t4,fffe1d3e <_end+0xfffdb23a>
    6758:	deadbeef          	jal	t4,fffe1d42 <_end+0xfffdb23e>
    675c:	deadbeef          	jal	t4,fffe1d46 <_end+0xfffdb242>
    6760:	deadbeef          	jal	t4,fffe1d4a <_end+0xfffdb246>
    6764:	deadbeef          	jal	t4,fffe1d4e <_end+0xfffdb24a>
    6768:	deadbeef          	jal	t4,fffe1d52 <_end+0xfffdb24e>
    676c:	deadbeef          	jal	t4,fffe1d56 <_end+0xfffdb252>
    6770:	deadbeef          	jal	t4,fffe1d5a <_end+0xfffdb256>
    6774:	deadbeef          	jal	t4,fffe1d5e <_end+0xfffdb25a>
    6778:	deadbeef          	jal	t4,fffe1d62 <_end+0xfffdb25e>
    677c:	deadbeef          	jal	t4,fffe1d66 <_end+0xfffdb262>
    6780:	deadbeef          	jal	t4,fffe1d6a <_end+0xfffdb266>
    6784:	deadbeef          	jal	t4,fffe1d6e <_end+0xfffdb26a>
    6788:	deadbeef          	jal	t4,fffe1d72 <_end+0xfffdb26e>
    678c:	deadbeef          	jal	t4,fffe1d76 <_end+0xfffdb272>
    6790:	deadbeef          	jal	t4,fffe1d7a <_end+0xfffdb276>
    6794:	deadbeef          	jal	t4,fffe1d7e <_end+0xfffdb27a>
    6798:	deadbeef          	jal	t4,fffe1d82 <_end+0xfffdb27e>
    679c:	deadbeef          	jal	t4,fffe1d86 <_end+0xfffdb282>
    67a0:	deadbeef          	jal	t4,fffe1d8a <_end+0xfffdb286>
    67a4:	deadbeef          	jal	t4,fffe1d8e <_end+0xfffdb28a>
    67a8:	deadbeef          	jal	t4,fffe1d92 <_end+0xfffdb28e>
    67ac:	deadbeef          	jal	t4,fffe1d96 <_end+0xfffdb292>
    67b0:	deadbeef          	jal	t4,fffe1d9a <_end+0xfffdb296>
    67b4:	deadbeef          	jal	t4,fffe1d9e <_end+0xfffdb29a>
    67b8:	deadbeef          	jal	t4,fffe1da2 <_end+0xfffdb29e>
    67bc:	deadbeef          	jal	t4,fffe1da6 <_end+0xfffdb2a2>
    67c0:	deadbeef          	jal	t4,fffe1daa <_end+0xfffdb2a6>
    67c4:	deadbeef          	jal	t4,fffe1dae <_end+0xfffdb2aa>
    67c8:	deadbeef          	jal	t4,fffe1db2 <_end+0xfffdb2ae>
    67cc:	deadbeef          	jal	t4,fffe1db6 <_end+0xfffdb2b2>
    67d0:	deadbeef          	jal	t4,fffe1dba <_end+0xfffdb2b6>
    67d4:	deadbeef          	jal	t4,fffe1dbe <_end+0xfffdb2ba>
    67d8:	deadbeef          	jal	t4,fffe1dc2 <_end+0xfffdb2be>
    67dc:	deadbeef          	jal	t4,fffe1dc6 <_end+0xfffdb2c2>
    67e0:	deadbeef          	jal	t4,fffe1dca <_end+0xfffdb2c6>
    67e4:	deadbeef          	jal	t4,fffe1dce <_end+0xfffdb2ca>
    67e8:	deadbeef          	jal	t4,fffe1dd2 <_end+0xfffdb2ce>
    67ec:	deadbeef          	jal	t4,fffe1dd6 <_end+0xfffdb2d2>
    67f0:	deadbeef          	jal	t4,fffe1dda <_end+0xfffdb2d6>
    67f4:	deadbeef          	jal	t4,fffe1dde <_end+0xfffdb2da>
    67f8:	deadbeef          	jal	t4,fffe1de2 <_end+0xfffdb2de>
    67fc:	deadbeef          	jal	t4,fffe1de6 <_end+0xfffdb2e2>
    6800:	deadbeef          	jal	t4,fffe1dea <_end+0xfffdb2e6>
    6804:	deadbeef          	jal	t4,fffe1dee <_end+0xfffdb2ea>
    6808:	deadbeef          	jal	t4,fffe1df2 <_end+0xfffdb2ee>
    680c:	deadbeef          	jal	t4,fffe1df6 <_end+0xfffdb2f2>
    6810:	deadbeef          	jal	t4,fffe1dfa <_end+0xfffdb2f6>
    6814:	deadbeef          	jal	t4,fffe1dfe <_end+0xfffdb2fa>
    6818:	deadbeef          	jal	t4,fffe1e02 <_end+0xfffdb2fe>
    681c:	deadbeef          	jal	t4,fffe1e06 <_end+0xfffdb302>
    6820:	deadbeef          	jal	t4,fffe1e0a <_end+0xfffdb306>
    6824:	deadbeef          	jal	t4,fffe1e0e <_end+0xfffdb30a>
    6828:	deadbeef          	jal	t4,fffe1e12 <_end+0xfffdb30e>
    682c:	deadbeef          	jal	t4,fffe1e16 <_end+0xfffdb312>
    6830:	deadbeef          	jal	t4,fffe1e1a <_end+0xfffdb316>
    6834:	deadbeef          	jal	t4,fffe1e1e <_end+0xfffdb31a>
    6838:	deadbeef          	jal	t4,fffe1e22 <_end+0xfffdb31e>
    683c:	deadbeef          	jal	t4,fffe1e26 <_end+0xfffdb322>
    6840:	deadbeef          	jal	t4,fffe1e2a <_end+0xfffdb326>
    6844:	deadbeef          	jal	t4,fffe1e2e <_end+0xfffdb32a>
    6848:	deadbeef          	jal	t4,fffe1e32 <_end+0xfffdb32e>
    684c:	deadbeef          	jal	t4,fffe1e36 <_end+0xfffdb332>
    6850:	deadbeef          	jal	t4,fffe1e3a <_end+0xfffdb336>
    6854:	deadbeef          	jal	t4,fffe1e3e <_end+0xfffdb33a>
    6858:	deadbeef          	jal	t4,fffe1e42 <_end+0xfffdb33e>
    685c:	deadbeef          	jal	t4,fffe1e46 <_end+0xfffdb342>
    6860:	deadbeef          	jal	t4,fffe1e4a <_end+0xfffdb346>
    6864:	deadbeef          	jal	t4,fffe1e4e <_end+0xfffdb34a>
    6868:	deadbeef          	jal	t4,fffe1e52 <_end+0xfffdb34e>
    686c:	deadbeef          	jal	t4,fffe1e56 <_end+0xfffdb352>
    6870:	deadbeef          	jal	t4,fffe1e5a <_end+0xfffdb356>
    6874:	deadbeef          	jal	t4,fffe1e5e <_end+0xfffdb35a>
    6878:	deadbeef          	jal	t4,fffe1e62 <_end+0xfffdb35e>

0000687c <signature_x1_1>:
    687c:	deadbeef          	jal	t4,fffe1e66 <_end+0xfffdb362>
    6880:	deadbeef          	jal	t4,fffe1e6a <_end+0xfffdb366>
    6884:	deadbeef          	jal	t4,fffe1e6e <_end+0xfffdb36a>
    6888:	deadbeef          	jal	t4,fffe1e72 <_end+0xfffdb36e>
    688c:	deadbeef          	jal	t4,fffe1e76 <_end+0xfffdb372>
    6890:	deadbeef          	jal	t4,fffe1e7a <_end+0xfffdb376>
    6894:	deadbeef          	jal	t4,fffe1e7e <_end+0xfffdb37a>
    6898:	deadbeef          	jal	t4,fffe1e82 <_end+0xfffdb37e>
    689c:	deadbeef          	jal	t4,fffe1e86 <_end+0xfffdb382>
    68a0:	deadbeef          	jal	t4,fffe1e8a <_end+0xfffdb386>
    68a4:	deadbeef          	jal	t4,fffe1e8e <_end+0xfffdb38a>
    68a8:	deadbeef          	jal	t4,fffe1e92 <_end+0xfffdb38e>
    68ac:	deadbeef          	jal	t4,fffe1e96 <_end+0xfffdb392>
    68b0:	deadbeef          	jal	t4,fffe1e9a <_end+0xfffdb396>
    68b4:	deadbeef          	jal	t4,fffe1e9e <_end+0xfffdb39a>
    68b8:	deadbeef          	jal	t4,fffe1ea2 <_end+0xfffdb39e>
    68bc:	deadbeef          	jal	t4,fffe1ea6 <_end+0xfffdb3a2>
    68c0:	deadbeef          	jal	t4,fffe1eaa <_end+0xfffdb3a6>
    68c4:	deadbeef          	jal	t4,fffe1eae <_end+0xfffdb3aa>
    68c8:	deadbeef          	jal	t4,fffe1eb2 <_end+0xfffdb3ae>
    68cc:	deadbeef          	jal	t4,fffe1eb6 <_end+0xfffdb3b2>
    68d0:	deadbeef          	jal	t4,fffe1eba <_end+0xfffdb3b6>
    68d4:	deadbeef          	jal	t4,fffe1ebe <_end+0xfffdb3ba>
    68d8:	deadbeef          	jal	t4,fffe1ec2 <_end+0xfffdb3be>
    68dc:	deadbeef          	jal	t4,fffe1ec6 <_end+0xfffdb3c2>
    68e0:	deadbeef          	jal	t4,fffe1eca <_end+0xfffdb3c6>
    68e4:	deadbeef          	jal	t4,fffe1ece <_end+0xfffdb3ca>
    68e8:	deadbeef          	jal	t4,fffe1ed2 <_end+0xfffdb3ce>
    68ec:	deadbeef          	jal	t4,fffe1ed6 <_end+0xfffdb3d2>
    68f0:	deadbeef          	jal	t4,fffe1eda <_end+0xfffdb3d6>
    68f4:	deadbeef          	jal	t4,fffe1ede <_end+0xfffdb3da>
    68f8:	deadbeef          	jal	t4,fffe1ee2 <_end+0xfffdb3de>
    68fc:	deadbeef          	jal	t4,fffe1ee6 <_end+0xfffdb3e2>
    6900:	deadbeef          	jal	t4,fffe1eea <_end+0xfffdb3e6>
    6904:	deadbeef          	jal	t4,fffe1eee <_end+0xfffdb3ea>
    6908:	deadbeef          	jal	t4,fffe1ef2 <_end+0xfffdb3ee>
    690c:	deadbeef          	jal	t4,fffe1ef6 <_end+0xfffdb3f2>
    6910:	deadbeef          	jal	t4,fffe1efa <_end+0xfffdb3f6>
    6914:	deadbeef          	jal	t4,fffe1efe <_end+0xfffdb3fa>
    6918:	deadbeef          	jal	t4,fffe1f02 <_end+0xfffdb3fe>
    691c:	deadbeef          	jal	t4,fffe1f06 <_end+0xfffdb402>
    6920:	deadbeef          	jal	t4,fffe1f0a <_end+0xfffdb406>
    6924:	0000                	.insn	2, 0x0000
    6926:	0000                	.insn	2, 0x0000
    6928:	0000                	.insn	2, 0x0000
    692a:	0000                	.insn	2, 0x0000
    692c:	0000                	.insn	2, 0x0000
    692e:	0000                	.insn	2, 0x0000

00006930 <end_signature>:
    6930:	0000                	.insn	2, 0x0000
    6932:	0000                	.insn	2, 0x0000
    6934:	0000                	.insn	2, 0x0000
    6936:	0000                	.insn	2, 0x0000
    6938:	0000                	.insn	2, 0x0000
    693a:	0000                	.insn	2, 0x0000
    693c:	0000                	.insn	2, 0x0000
    693e:	0000                	.insn	2, 0x0000
    6940:	0000                	.insn	2, 0x0000
    6942:	0000                	.insn	2, 0x0000
    6944:	0000                	.insn	2, 0x0000
    6946:	0000                	.insn	2, 0x0000
    6948:	0000                	.insn	2, 0x0000
    694a:	0000                	.insn	2, 0x0000
    694c:	0000                	.insn	2, 0x0000
    694e:	0000                	.insn	2, 0x0000
    6950:	0000                	.insn	2, 0x0000
    6952:	0000                	.insn	2, 0x0000
    6954:	0000                	.insn	2, 0x0000
    6956:	0000                	.insn	2, 0x0000
    6958:	0000                	.insn	2, 0x0000
    695a:	0000                	.insn	2, 0x0000
    695c:	0000                	.insn	2, 0x0000
    695e:	0000                	.insn	2, 0x0000
    6960:	0000                	.insn	2, 0x0000
    6962:	0000                	.insn	2, 0x0000
    6964:	0000                	.insn	2, 0x0000
    6966:	0000                	.insn	2, 0x0000
    6968:	0000                	.insn	2, 0x0000
    696a:	0000                	.insn	2, 0x0000
    696c:	0000                	.insn	2, 0x0000
    696e:	0000                	.insn	2, 0x0000
    6970:	0000                	.insn	2, 0x0000
    6972:	0000                	.insn	2, 0x0000
    6974:	0000                	.insn	2, 0x0000
    6976:	0000                	.insn	2, 0x0000
    6978:	0000                	.insn	2, 0x0000
    697a:	0000                	.insn	2, 0x0000
    697c:	0000                	.insn	2, 0x0000
    697e:	0000                	.insn	2, 0x0000
    6980:	0000                	.insn	2, 0x0000
    6982:	0000                	.insn	2, 0x0000
    6984:	0000                	.insn	2, 0x0000
    6986:	0000                	.insn	2, 0x0000
    6988:	0000                	.insn	2, 0x0000
    698a:	0000                	.insn	2, 0x0000
    698c:	0000                	.insn	2, 0x0000
    698e:	0000                	.insn	2, 0x0000
    6990:	0000                	.insn	2, 0x0000
    6992:	0000                	.insn	2, 0x0000
    6994:	0000                	.insn	2, 0x0000
    6996:	0000                	.insn	2, 0x0000
    6998:	0000                	.insn	2, 0x0000
    699a:	0000                	.insn	2, 0x0000
    699c:	0000                	.insn	2, 0x0000
    699e:	0000                	.insn	2, 0x0000
    69a0:	0000                	.insn	2, 0x0000
    69a2:	0000                	.insn	2, 0x0000
    69a4:	0000                	.insn	2, 0x0000
    69a6:	0000                	.insn	2, 0x0000
    69a8:	0000                	.insn	2, 0x0000
    69aa:	0000                	.insn	2, 0x0000
    69ac:	0000                	.insn	2, 0x0000
    69ae:	0000                	.insn	2, 0x0000
    69b0:	0000                	.insn	2, 0x0000
    69b2:	0000                	.insn	2, 0x0000
    69b4:	0000                	.insn	2, 0x0000
    69b6:	0000                	.insn	2, 0x0000
    69b8:	0000                	.insn	2, 0x0000
    69ba:	0000                	.insn	2, 0x0000
    69bc:	0000                	.insn	2, 0x0000
    69be:	0000                	.insn	2, 0x0000
    69c0:	0000                	.insn	2, 0x0000
    69c2:	0000                	.insn	2, 0x0000
    69c4:	0000                	.insn	2, 0x0000
    69c6:	0000                	.insn	2, 0x0000
    69c8:	0000                	.insn	2, 0x0000
    69ca:	0000                	.insn	2, 0x0000
    69cc:	0000                	.insn	2, 0x0000
    69ce:	0000                	.insn	2, 0x0000
    69d0:	0000                	.insn	2, 0x0000
    69d2:	0000                	.insn	2, 0x0000
    69d4:	0000                	.insn	2, 0x0000
    69d6:	0000                	.insn	2, 0x0000
    69d8:	0000                	.insn	2, 0x0000
    69da:	0000                	.insn	2, 0x0000
    69dc:	0000                	.insn	2, 0x0000
    69de:	0000                	.insn	2, 0x0000
    69e0:	0000                	.insn	2, 0x0000
    69e2:	0000                	.insn	2, 0x0000
    69e4:	0000                	.insn	2, 0x0000
    69e6:	0000                	.insn	2, 0x0000
    69e8:	0000                	.insn	2, 0x0000
    69ea:	0000                	.insn	2, 0x0000
    69ec:	0000                	.insn	2, 0x0000
    69ee:	0000                	.insn	2, 0x0000
    69f0:	0000                	.insn	2, 0x0000
    69f2:	0000                	.insn	2, 0x0000
    69f4:	0000                	.insn	2, 0x0000
    69f6:	0000                	.insn	2, 0x0000
    69f8:	0000                	.insn	2, 0x0000
    69fa:	0000                	.insn	2, 0x0000
    69fc:	0000                	.insn	2, 0x0000
    69fe:	0000                	.insn	2, 0x0000

00006a00 <begin_regstate>:
    6a00:	0080                	.insn	2, 0x0080
    6a02:	0000                	.insn	2, 0x0000
    6a04:	0000                	.insn	2, 0x0000
    6a06:	0000                	.insn	2, 0x0000
    6a08:	0000                	.insn	2, 0x0000
    6a0a:	0000                	.insn	2, 0x0000
    6a0c:	0000                	.insn	2, 0x0000
    6a0e:	0000                	.insn	2, 0x0000
    6a10:	0000                	.insn	2, 0x0000
    6a12:	0000                	.insn	2, 0x0000
    6a14:	0000                	.insn	2, 0x0000
    6a16:	0000                	.insn	2, 0x0000
    6a18:	0000                	.insn	2, 0x0000
    6a1a:	0000                	.insn	2, 0x0000
    6a1c:	0000                	.insn	2, 0x0000
    6a1e:	0000                	.insn	2, 0x0000
    6a20:	0000                	.insn	2, 0x0000
    6a22:	0000                	.insn	2, 0x0000
    6a24:	0000                	.insn	2, 0x0000
    6a26:	0000                	.insn	2, 0x0000
    6a28:	0000                	.insn	2, 0x0000
    6a2a:	0000                	.insn	2, 0x0000
    6a2c:	0000                	.insn	2, 0x0000
    6a2e:	0000                	.insn	2, 0x0000
    6a30:	0000                	.insn	2, 0x0000
    6a32:	0000                	.insn	2, 0x0000
    6a34:	0000                	.insn	2, 0x0000
    6a36:	0000                	.insn	2, 0x0000
    6a38:	0000                	.insn	2, 0x0000
    6a3a:	0000                	.insn	2, 0x0000
    6a3c:	0000                	.insn	2, 0x0000
    6a3e:	0000                	.insn	2, 0x0000
    6a40:	0000                	.insn	2, 0x0000
    6a42:	0000                	.insn	2, 0x0000
    6a44:	0000                	.insn	2, 0x0000
    6a46:	0000                	.insn	2, 0x0000
    6a48:	0000                	.insn	2, 0x0000
    6a4a:	0000                	.insn	2, 0x0000
    6a4c:	0000                	.insn	2, 0x0000
    6a4e:	0000                	.insn	2, 0x0000
    6a50:	0000                	.insn	2, 0x0000
    6a52:	0000                	.insn	2, 0x0000
    6a54:	0000                	.insn	2, 0x0000
    6a56:	0000                	.insn	2, 0x0000
    6a58:	0000                	.insn	2, 0x0000
    6a5a:	0000                	.insn	2, 0x0000
    6a5c:	0000                	.insn	2, 0x0000
    6a5e:	0000                	.insn	2, 0x0000
    6a60:	0000                	.insn	2, 0x0000
    6a62:	0000                	.insn	2, 0x0000
    6a64:	0000                	.insn	2, 0x0000
    6a66:	0000                	.insn	2, 0x0000
    6a68:	0000                	.insn	2, 0x0000
    6a6a:	0000                	.insn	2, 0x0000
    6a6c:	0000                	.insn	2, 0x0000
    6a6e:	0000                	.insn	2, 0x0000
    6a70:	0000                	.insn	2, 0x0000
    6a72:	0000                	.insn	2, 0x0000
    6a74:	0000                	.insn	2, 0x0000
    6a76:	0000                	.insn	2, 0x0000
    6a78:	0000                	.insn	2, 0x0000
    6a7a:	0000                	.insn	2, 0x0000
    6a7c:	0000                	.insn	2, 0x0000
    6a7e:	0000                	.insn	2, 0x0000
    6a80:	0000                	.insn	2, 0x0000
    6a82:	0000                	.insn	2, 0x0000
    6a84:	0000                	.insn	2, 0x0000
    6a86:	0000                	.insn	2, 0x0000
    6a88:	0000                	.insn	2, 0x0000
    6a8a:	0000                	.insn	2, 0x0000
    6a8c:	0000                	.insn	2, 0x0000
    6a8e:	0000                	.insn	2, 0x0000
    6a90:	0000                	.insn	2, 0x0000
    6a92:	0000                	.insn	2, 0x0000
    6a94:	0000                	.insn	2, 0x0000
    6a96:	0000                	.insn	2, 0x0000
    6a98:	0000                	.insn	2, 0x0000
    6a9a:	0000                	.insn	2, 0x0000
    6a9c:	0000                	.insn	2, 0x0000
    6a9e:	0000                	.insn	2, 0x0000
    6aa0:	0000                	.insn	2, 0x0000
    6aa2:	0000                	.insn	2, 0x0000
    6aa4:	0000                	.insn	2, 0x0000
    6aa6:	0000                	.insn	2, 0x0000
    6aa8:	0000                	.insn	2, 0x0000
    6aaa:	0000                	.insn	2, 0x0000
    6aac:	0000                	.insn	2, 0x0000
    6aae:	0000                	.insn	2, 0x0000
    6ab0:	0000                	.insn	2, 0x0000
    6ab2:	0000                	.insn	2, 0x0000
    6ab4:	0000                	.insn	2, 0x0000
    6ab6:	0000                	.insn	2, 0x0000
    6ab8:	0000                	.insn	2, 0x0000
    6aba:	0000                	.insn	2, 0x0000
    6abc:	0000                	.insn	2, 0x0000
    6abe:	0000                	.insn	2, 0x0000
    6ac0:	0000                	.insn	2, 0x0000
    6ac2:	0000                	.insn	2, 0x0000
    6ac4:	0000                	.insn	2, 0x0000
    6ac6:	0000                	.insn	2, 0x0000
    6ac8:	0000                	.insn	2, 0x0000
    6aca:	0000                	.insn	2, 0x0000
    6acc:	0000                	.insn	2, 0x0000
    6ace:	0000                	.insn	2, 0x0000
    6ad0:	0000                	.insn	2, 0x0000
    6ad2:	0000                	.insn	2, 0x0000
    6ad4:	0000                	.insn	2, 0x0000
    6ad6:	0000                	.insn	2, 0x0000
    6ad8:	0000                	.insn	2, 0x0000
    6ada:	0000                	.insn	2, 0x0000
    6adc:	0000                	.insn	2, 0x0000
    6ade:	0000                	.insn	2, 0x0000
    6ae0:	0000                	.insn	2, 0x0000
    6ae2:	0000                	.insn	2, 0x0000
    6ae4:	0000                	.insn	2, 0x0000
    6ae6:	0000                	.insn	2, 0x0000
    6ae8:	0000                	.insn	2, 0x0000
    6aea:	0000                	.insn	2, 0x0000
    6aec:	0000                	.insn	2, 0x0000
    6aee:	0000                	.insn	2, 0x0000
    6af0:	0000                	.insn	2, 0x0000
    6af2:	0000                	.insn	2, 0x0000
    6af4:	0000                	.insn	2, 0x0000
    6af6:	0000                	.insn	2, 0x0000
    6af8:	0000                	.insn	2, 0x0000
    6afa:	0000                	.insn	2, 0x0000
    6afc:	0000                	.insn	2, 0x0000
    6afe:	0000                	.insn	2, 0x0000

00006b00 <end_regstate>:
    6b00:	0004                	.insn	2, 0x0004
    6b02:	0000                	.insn	2, 0x0000
