
mulhsu-01.riscv:     file format elf32-littleriscv

Sections:
Idx Name          Size      VMA       LMA       File off  Algn
  0 .text.init    000035e4  00000200  00000200  00000200  2**5
                  CONTENTS, ALLOC, LOAD, READONLY, CODE
  1 .text         00000008  000037e4  000037e4  000037e4  2**2
                  CONTENTS, ALLOC, LOAD, READONLY, CODE
  2 .data         00000004  000037f0  000037f0  000037f0  2**4
                  CONTENTS, ALLOC, LOAD, DATA
  3 .tohost       00000108  00003800  00003800  00003800  2**8
                  CONTENTS, ALLOC, LOAD, DATA
  4 .io_buf       00000c04  00006000  00006000  00004000  2**8
                  CONTENTS, ALLOC, LOAD, READONLY, DATA
  5 .riscv.attributes 00000031  00000000  00000000  00004c04  2**0
                  CONTENTS, READONLY

Disassembly of section .text.init:

00000200 <rvtest_code_begin>:
     200:	00006897          	auipc	a7,0x6
     204:	e0088893          	addi	a7,a7,-512 # 6000 <begin_signature>

00000208 <inst_0>:
     208:	00400b13          	li	s6,4
     20c:	00300513          	li	a0,3
     210:	02ab2b33          	mulhsu	s6,s6,a0
     214:	0168a023          	sw	s6,0(a7)

00000218 <inst_1>:
     218:	08000b93          	li	s7,128
     21c:	08000b93          	li	s7,128
     220:	037ba133          	mulhsu	sp,s7,s7
     224:	0028a223          	sw	sp,4(a7)

00000228 <inst_2>:
     228:	0000b137          	lui	sp,0xb
     22c:	50310113          	addi	sp,sp,1283 # b503 <_end+0x48ff>
     230:	00000993          	li	s3,0
     234:	033129b3          	mulhsu	s3,sp,s3
     238:	0138a423          	sw	s3,8(a7)

0000023c <inst_3>:
     23c:	00400c93          	li	s9,4
     240:	fff00493          	li	s1,-1
     244:	029ca3b3          	mulhsu	t2,s9,s1
     248:	0078a623          	sw	t2,12(a7)

0000024c <inst_4>:
     24c:	e0000e37          	lui	t3,0xe0000
     250:	fffe0e13          	addi	t3,t3,-1 # dfffffff <_end+0xdfff93fb>
     254:	e0000e37          	lui	t3,0xe0000
     258:	fffe0e13          	addi	t3,t3,-1 # dfffffff <_end+0xdfff93fb>
     25c:	03ce2e33          	mulhsu	t3,t3,t3
     260:	01c8a823          	sw	t3,16(a7)

00000264 <inst_5>:
     264:	00000013          	nop
     268:	fdf00913          	li	s2,-33
     26c:	03202433          	mulhsu	s0,zero,s2
     270:	0088aa23          	sw	s0,20(a7)

00000274 <inst_6>:
     274:	00000713          	li	a4,0
     278:	01200793          	li	a5,18
     27c:	02f72633          	mulhsu	a2,a4,a5
     280:	00c8ac23          	sw	a2,24(a7)

00000284 <inst_7>:
     284:	800006b7          	lui	a3,0x80000
     288:	fff68693          	addi	a3,a3,-1 # 7fffffff <_end+0x7fff93fb>
     28c:	f00001b7          	lui	gp,0xf0000
     290:	fff18193          	addi	gp,gp,-1 # efffffff <_end+0xefff93fb>
     294:	0236a233          	mulhsu	tp,a3,gp
     298:	0048ae23          	sw	tp,28(a7)

0000029c <inst_8>:
     29c:	00100313          	li	t1,1
     2a0:	40000813          	li	a6,1024
     2a4:	03032f33          	mulhsu	t5,t1,a6
     2a8:	03e8a023          	sw	t5,32(a7)

000002ac <inst_9>:
     2ac:	00300413          	li	s0,3
     2b0:	00200293          	li	t0,2
     2b4:	025420b3          	mulhsu	ra,s0,t0
     2b8:	0218a223          	sw	ra,36(a7)

000002bc <inst_10>:
     2bc:	00600593          	li	a1,6
     2c0:	00400d93          	li	s11,4
     2c4:	03b5a4b3          	mulhsu	s1,a1,s11
     2c8:	0298a423          	sw	s1,40(a7)

000002cc <inst_11>:
     2cc:	c0000db7          	lui	s11,0xc0000
     2d0:	00800c93          	li	s9,8
     2d4:	039da6b3          	mulhsu	a3,s11,s9
     2d8:	02d8a623          	sw	a3,44(a7)

000002dc <inst_12>:
     2dc:	fbf00f13          	li	t5,-65
     2e0:	01000713          	li	a4,16
     2e4:	02ef2833          	mulhsu	a6,t5,a4
     2e8:	0308a823          	sw	a6,48(a7)

000002ec <inst_13>:
     2ec:	ffb00793          	li	a5,-5
     2f0:	02000b13          	li	s6,32
     2f4:	0367a5b3          	mulhsu	a1,a5,s6
     2f8:	02b8aa23          	sw	a1,52(a7)

000002fc <inst_14>:
     2fc:	fbf00813          	li	a6,-65
     300:	04000213          	li	tp,64
     304:	02482eb3          	mulhsu	t4,a6,tp
     308:	03d8ac23          	sw	t4,56(a7)

0000030c <inst_15>:
     30c:	08000c37          	lui	s8,0x8000
     310:	10000693          	li	a3,256
     314:	02dc2ab3          	mulhsu	s5,s8,a3
     318:	0358ae23          	sw	s5,60(a7)

0000031c <inst_16>:
     31c:	eff00993          	li	s3,-257
     320:	20000313          	li	t1,512
     324:	0269ad33          	mulhsu	s10,s3,t1
     328:	05a8a023          	sw	s10,64(a7)
     32c:	00006697          	auipc	a3,0x6
     330:	d1868693          	addi	a3,a3,-744 # 6044 <signature_x13_0>

00000334 <inst_17>:
     334:	333334b7          	lui	s1,0x33333
     338:	33448493          	addi	s1,s1,820 # 33333334 <_end+0x3332c730>
     33c:	00001fb7          	lui	t6,0x1
     340:	800f8f93          	addi	t6,t6,-2048 # 800 <inst_82+0x10>
     344:	03f4a933          	mulhsu	s2,s1,t6
     348:	0126a023          	sw	s2,0(a3)

0000034c <inst_18>:
     34c:	0000b2b7          	lui	t0,0xb
     350:	50428293          	addi	t0,t0,1284 # b504 <_end+0x4900>
     354:	000013b7          	lui	t2,0x1
     358:	0272acb3          	mulhsu	s9,t0,t2
     35c:	0196a223          	sw	s9,4(a3)

00000360 <inst_19>:
     360:	00400d37          	lui	s10,0x400
     364:	000028b7          	lui	a7,0x2
     368:	031d2033          	mulhsu	zero,s10,a7
     36c:	0006a423          	sw	zero,8(a3)

00000370 <inst_20>:
     370:	02000093          	li	ra,32
     374:	00004d37          	lui	s10,0x4
     378:	03a0abb3          	mulhsu	s7,ra,s10
     37c:	0176a623          	sw	s7,12(a3)

00000380 <inst_21>:
     380:	00000a93          	li	s5,0
     384:	00008437          	lui	s0,0x8
     388:	028aa7b3          	mulhsu	a5,s5,s0
     38c:	00f6a823          	sw	a5,16(a3)

00000390 <inst_22>:
     390:	00800f93          	li	t6,8
     394:	00000013          	nop
     398:	020faa33          	mulhsu	s4,t6,zero
     39c:	0146aa23          	sw	s4,20(a3)

000003a0 <inst_23>:
     3a0:	fef00893          	li	a7,-17
     3a4:	00020c37          	lui	s8,0x20
     3a8:	0388a733          	mulhsu	a4,a7,s8
     3ac:	00e6ac23          	sw	a4,24(a3)

000003b0 <inst_24>:
     3b0:	04000237          	lui	tp,0x4000
     3b4:	00040ab7          	lui	s5,0x40
     3b8:	03522c33          	mulhsu	s8,tp,s5
     3bc:	0186ae23          	sw	s8,28(a3)

000003c0 <inst_25>:
     3c0:	66666637          	lui	a2,0x66666
     3c4:	66660613          	addi	a2,a2,1638 # 66666666 <_end+0x6665fa62>
     3c8:	00080f37          	lui	t5,0x80
     3cc:	03e622b3          	mulhsu	t0,a2,t5
     3d0:	0256a023          	sw	t0,32(a3)

000003d4 <inst_26>:
     3d4:	000013b7          	lui	t2,0x1
     3d8:	00100a37          	lui	s4,0x100
     3dc:	0343a333          	mulhsu	t1,t2,s4
     3e0:	0266a223          	sw	t1,36(a3)

000003e4 <inst_27>:
     3e4:	00500913          	li	s2,5
     3e8:	002000b7          	lui	ra,0x200
     3ec:	02192fb3          	mulhsu	t6,s2,ra
     3f0:	03f6a423          	sw	t6,40(a3)

000003f4 <inst_28>:
     3f4:	c0000eb7          	lui	t4,0xc0000
     3f8:	fffe8e93          	addi	t4,t4,-1 # bfffffff <_end+0xbfff93fb>
     3fc:	00400137          	lui	sp,0x400
     400:	022ea533          	mulhsu	a0,t4,sp
     404:	02a6a623          	sw	a0,44(a3)

00000408 <inst_29>:
     408:	20000193          	li	gp,512
     40c:	00800637          	lui	a2,0x800
     410:	02c1a8b3          	mulhsu	a7,gp,a2
     414:	0316a823          	sw	a7,48(a3)

00000418 <inst_30>:
     418:	00300513          	li	a0,3
     41c:	010005b7          	lui	a1,0x1000
     420:	02b52db3          	mulhsu	s11,a0,a1
     424:	03b6aa23          	sw	s11,52(a3)

00000428 <inst_31>:
     428:	ffa00a13          	li	s4,-6
     42c:	02000eb7          	lui	t4,0x2000
     430:	03da21b3          	mulhsu	gp,s4,t4
     434:	0236ac23          	sw	gp,56(a3)

00000438 <inst_32>:
     438:	00400537          	lui	a0,0x400
     43c:	040005b7          	lui	a1,0x4000
     440:	02b52633          	mulhsu	a2,a0,a1
     444:	02c6ae23          	sw	a2,60(a3)

00000448 <inst_33>:
     448:	00600513          	li	a0,6
     44c:	080005b7          	lui	a1,0x8000
     450:	02b52633          	mulhsu	a2,a0,a1
     454:	04c6a023          	sw	a2,64(a3)

00000458 <inst_34>:
     458:	00900513          	li	a0,9
     45c:	100005b7          	lui	a1,0x10000
     460:	02b52633          	mulhsu	a2,a0,a1
     464:	04c6a223          	sw	a2,68(a3)

00000468 <inst_35>:
     468:	08000513          	li	a0,128
     46c:	200005b7          	lui	a1,0x20000
     470:	02b52633          	mulhsu	a2,a0,a1
     474:	04c6a423          	sw	a2,72(a3)

00000478 <inst_36>:
     478:	00800537          	lui	a0,0x800
     47c:	400005b7          	lui	a1,0x40000
     480:	02b52633          	mulhsu	a2,a0,a1
     484:	04c6a623          	sw	a2,76(a3)

00000488 <inst_37>:
     488:	00001537          	lui	a0,0x1
     48c:	800005b7          	lui	a1,0x80000
     490:	02b52633          	mulhsu	a2,a0,a1
     494:	04c6a823          	sw	a2,80(a3)

00000498 <inst_38>:
     498:	ffe00513          	li	a0,-2
     49c:	ffe00593          	li	a1,-2
     4a0:	02b52633          	mulhsu	a2,a0,a1
     4a4:	04c6aa23          	sw	a2,84(a3)

000004a8 <inst_39>:
     4a8:	bff00513          	li	a0,-1025
     4ac:	ffd00593          	li	a1,-3
     4b0:	02b52633          	mulhsu	a2,a0,a1
     4b4:	04c6ac23          	sw	a2,88(a3)

000004b8 <inst_40>:
     4b8:	00040537          	lui	a0,0x40
     4bc:	ffb00593          	li	a1,-5
     4c0:	02b52633          	mulhsu	a2,a0,a1
     4c4:	04c6ae23          	sw	a2,92(a3)

000004c8 <inst_41>:
     4c8:	00010537          	lui	a0,0x10
     4cc:	ff700593          	li	a1,-9
     4d0:	02b52633          	mulhsu	a2,a0,a1
     4d4:	06c6a023          	sw	a2,96(a3)

000004d8 <inst_42>:
     4d8:	0000b537          	lui	a0,0xb
     4dc:	50450513          	addi	a0,a0,1284 # b504 <_end+0x4900>
     4e0:	fef00593          	li	a1,-17
     4e4:	02b52633          	mulhsu	a2,a0,a1
     4e8:	06c6a223          	sw	a2,100(a3)

000004ec <inst_43>:
     4ec:	33333537          	lui	a0,0x33333
     4f0:	33250513          	addi	a0,a0,818 # 33333332 <_end+0x3332c72e>
     4f4:	fbf00593          	li	a1,-65
     4f8:	02b52633          	mulhsu	a2,a0,a1
     4fc:	06c6a423          	sw	a2,104(a3)

00000500 <inst_44>:
     500:	40000537          	lui	a0,0x40000
     504:	f7f00593          	li	a1,-129
     508:	02b52633          	mulhsu	a2,a0,a1
     50c:	06c6a623          	sw	a2,108(a3)

00000510 <inst_45>:
     510:	00008537          	lui	a0,0x8
     514:	eff00593          	li	a1,-257
     518:	02b52633          	mulhsu	a2,a0,a1
     51c:	06c6a823          	sw	a2,112(a3)

00000520 <inst_46>:
     520:	ffd00513          	li	a0,-3
     524:	dff00593          	li	a1,-513
     528:	02b52633          	mulhsu	a2,a0,a1
     52c:	06c6aa23          	sw	a2,116(a3)

00000530 <inst_47>:
     530:	02000513          	li	a0,32
     534:	bff00593          	li	a1,-1025
     538:	02b52633          	mulhsu	a2,a0,a1
     53c:	06c6ac23          	sw	a2,120(a3)

00000540 <inst_48>:
     540:	00100537          	lui	a0,0x100
     544:	fffff5b7          	lui	a1,0xfffff
     548:	7ff58593          	addi	a1,a1,2047 # fffff7ff <_end+0xffff8bfb>
     54c:	02b52633          	mulhsu	a2,a0,a1
     550:	06c6ae23          	sw	a2,124(a3)

00000554 <inst_49>:
     554:	aaaab537          	lui	a0,0xaaaab
     558:	aaa50513          	addi	a0,a0,-1366 # aaaaaaaa <_end+0xaaaa3ea6>
     55c:	fffff5b7          	lui	a1,0xfffff
     560:	fff58593          	addi	a1,a1,-1 # ffffefff <_end+0xffff83fb>
     564:	02b52633          	mulhsu	a2,a0,a1
     568:	08c6a023          	sw	a2,128(a3)

0000056c <inst_50>:
     56c:	00400513          	li	a0,4
     570:	ffffe5b7          	lui	a1,0xffffe
     574:	fff58593          	addi	a1,a1,-1 # ffffdfff <_end+0xffff73fb>
     578:	02b52633          	mulhsu	a2,a0,a1
     57c:	08c6a223          	sw	a2,132(a3)

00000580 <inst_51>:
     580:	aaaab537          	lui	a0,0xaaaab
     584:	aaa50513          	addi	a0,a0,-1366 # aaaaaaaa <_end+0xaaaa3ea6>
     588:	ffffc5b7          	lui	a1,0xffffc
     58c:	fff58593          	addi	a1,a1,-1 # ffffbfff <_end+0xffff53fb>
     590:	02b52633          	mulhsu	a2,a0,a1
     594:	08c6a423          	sw	a2,136(a3)

00000598 <inst_52>:
     598:	00001537          	lui	a0,0x1
     59c:	80050513          	addi	a0,a0,-2048 # 800 <inst_82+0x10>
     5a0:	ffff85b7          	lui	a1,0xffff8
     5a4:	fff58593          	addi	a1,a1,-1 # ffff7fff <_end+0xffff13fb>
     5a8:	02b52633          	mulhsu	a2,a0,a1
     5ac:	08c6a623          	sw	a2,140(a3)

000005b0 <inst_53>:
     5b0:	04000537          	lui	a0,0x4000
     5b4:	ffff05b7          	lui	a1,0xffff0
     5b8:	fff58593          	addi	a1,a1,-1 # fffeffff <_end+0xfffe93fb>
     5bc:	02b52633          	mulhsu	a2,a0,a1
     5c0:	08c6a823          	sw	a2,144(a3)

000005c4 <inst_54>:
     5c4:	c0000537          	lui	a0,0xc0000
     5c8:	fff50513          	addi	a0,a0,-1 # bfffffff <_end+0xbfff93fb>
     5cc:	fffe05b7          	lui	a1,0xfffe0
     5d0:	fff58593          	addi	a1,a1,-1 # fffdffff <_end+0xfffd93fb>
     5d4:	02b52633          	mulhsu	a2,a0,a1
     5d8:	08c6aa23          	sw	a2,148(a3)

000005dc <inst_55>:
     5dc:	00400513          	li	a0,4
     5e0:	fffc05b7          	lui	a1,0xfffc0
     5e4:	fff58593          	addi	a1,a1,-1 # fffbffff <_end+0xfffb93fb>
     5e8:	02b52633          	mulhsu	a2,a0,a1
     5ec:	08c6ac23          	sw	a2,152(a3)

000005f0 <inst_56>:
     5f0:	ff000537          	lui	a0,0xff000
     5f4:	fff50513          	addi	a0,a0,-1 # feffffff <_end+0xfeff93fb>
     5f8:	fff805b7          	lui	a1,0xfff80
     5fc:	fff58593          	addi	a1,a1,-1 # fff7ffff <_end+0xfff793fb>
     600:	02b52633          	mulhsu	a2,a0,a1
     604:	08c6ae23          	sw	a2,156(a3)

00000608 <inst_57>:
     608:	00000513          	li	a0,0
     60c:	fff005b7          	lui	a1,0xfff00
     610:	fff58593          	addi	a1,a1,-1 # ffefffff <_end+0xffef93fb>
     614:	02b52633          	mulhsu	a2,a0,a1
     618:	0ac6a023          	sw	a2,160(a3)

0000061c <inst_58>:
     61c:	ffd00513          	li	a0,-3
     620:	ffe005b7          	lui	a1,0xffe00
     624:	fff58593          	addi	a1,a1,-1 # ffdfffff <_end+0xffdf93fb>
     628:	02b52633          	mulhsu	a2,a0,a1
     62c:	0ac6a223          	sw	a2,164(a3)

00000630 <inst_59>:
     630:	04000513          	li	a0,64
     634:	ffc005b7          	lui	a1,0xffc00
     638:	fff58593          	addi	a1,a1,-1 # ffbfffff <_end+0xffbf93fb>
     63c:	02b52633          	mulhsu	a2,a0,a1
     640:	0ac6a423          	sw	a2,168(a3)

00000644 <inst_60>:
     644:	ff800513          	li	a0,-8
     648:	ff8005b7          	lui	a1,0xff800
     64c:	fff58593          	addi	a1,a1,-1 # ff7fffff <_end+0xff7f93fb>
     650:	02b52633          	mulhsu	a2,a0,a1
     654:	0ac6a623          	sw	a2,172(a3)

00000658 <inst_61>:
     658:	fffff537          	lui	a0,0xfffff
     65c:	fff50513          	addi	a0,a0,-1 # ffffefff <_end+0xffff83fb>
     660:	ff0005b7          	lui	a1,0xff000
     664:	fff58593          	addi	a1,a1,-1 # feffffff <_end+0xfeff93fb>
     668:	02b52633          	mulhsu	a2,a0,a1
     66c:	0ac6a823          	sw	a2,176(a3)

00000670 <inst_62>:
     670:	00200537          	lui	a0,0x200
     674:	fe0005b7          	lui	a1,0xfe000
     678:	fff58593          	addi	a1,a1,-1 # fdffffff <_end+0xfdff93fb>
     67c:	02b52633          	mulhsu	a2,a0,a1
     680:	0ac6aa23          	sw	a2,180(a3)

00000684 <inst_63>:
     684:	33333537          	lui	a0,0x33333
     688:	33450513          	addi	a0,a0,820 # 33333334 <_end+0x3332c730>
     68c:	fc0005b7          	lui	a1,0xfc000
     690:	fff58593          	addi	a1,a1,-1 # fbffffff <_end+0xfbff93fb>
     694:	02b52633          	mulhsu	a2,a0,a1
     698:	0ac6ac23          	sw	a2,184(a3)

0000069c <inst_64>:
     69c:	fff00537          	lui	a0,0xfff00
     6a0:	fff50513          	addi	a0,a0,-1 # ffefffff <_end+0xffef93fb>
     6a4:	f80005b7          	lui	a1,0xf8000
     6a8:	fff58593          	addi	a1,a1,-1 # f7ffffff <_end+0xf7ff93fb>
     6ac:	02b52633          	mulhsu	a2,a0,a1
     6b0:	0ac6ae23          	sw	a2,188(a3)

000006b4 <inst_65>:
     6b4:	00800513          	li	a0,8
     6b8:	e00005b7          	lui	a1,0xe0000
     6bc:	fff58593          	addi	a1,a1,-1 # dfffffff <_end+0xdfff93fb>
     6c0:	02b52633          	mulhsu	a2,a0,a1
     6c4:	0cc6a023          	sw	a2,192(a3)

000006c8 <inst_66>:
     6c8:	bff00513          	li	a0,-1025
     6cc:	c00005b7          	lui	a1,0xc0000
     6d0:	fff58593          	addi	a1,a1,-1 # bfffffff <_end+0xbfff93fb>
     6d4:	02b52633          	mulhsu	a2,a0,a1
     6d8:	0cc6a223          	sw	a2,196(a3)

000006dc <inst_67>:
     6dc:	00000513          	li	a0,0
     6e0:	800005b7          	lui	a1,0x80000
     6e4:	fff58593          	addi	a1,a1,-1 # 7fffffff <_end+0x7fff93fb>
     6e8:	02b52633          	mulhsu	a2,a0,a1
     6ec:	0cc6a423          	sw	a2,200(a3)

000006f0 <inst_68>:
     6f0:	aaaab537          	lui	a0,0xaaaab
     6f4:	aab50513          	addi	a0,a0,-1365 # aaaaaaab <_end+0xaaaa3ea7>
     6f8:	555555b7          	lui	a1,0x55555
     6fc:	55558593          	addi	a1,a1,1365 # 55555555 <_end+0x5554e951>
     700:	02b52633          	mulhsu	a2,a0,a1
     704:	0cc6a623          	sw	a2,204(a3)

00000708 <inst_69>:
     708:	00500513          	li	a0,5
     70c:	aaaab5b7          	lui	a1,0xaaaab
     710:	aaa58593          	addi	a1,a1,-1366 # aaaaaaaa <_end+0xaaaa3ea6>
     714:	02b52633          	mulhsu	a2,a0,a1
     718:	0cc6a823          	sw	a2,208(a3)

0000071c <inst_70>:
     71c:	00200513          	li	a0,2
     720:	01300593          	li	a1,19
     724:	02b52633          	mulhsu	a2,a0,a1
     728:	0cc6aa23          	sw	a2,212(a3)

0000072c <inst_71>:
     72c:	01000513          	li	a0,16
     730:	aaaab5b7          	lui	a1,0xaaaab
     734:	aa958593          	addi	a1,a1,-1367 # aaaaaaa9 <_end+0xaaaa3ea5>
     738:	02b52633          	mulhsu	a2,a0,a1
     73c:	0cc6ac23          	sw	a2,216(a3)

00000740 <inst_72>:
     740:	10000513          	li	a0,256
     744:	08000593          	li	a1,128
     748:	02b52633          	mulhsu	a2,a0,a1
     74c:	0cc6ae23          	sw	a2,220(a3)

00000750 <inst_73>:
     750:	40000513          	li	a0,1024
     754:	f7f00593          	li	a1,-129
     758:	02b52633          	mulhsu	a2,a0,a1
     75c:	0ec6a023          	sw	a2,224(a3)

00000760 <inst_74>:
     760:	00002537          	lui	a0,0x2
     764:	00d00593          	li	a1,13
     768:	02b52633          	mulhsu	a2,a0,a1
     76c:	0ec6a223          	sw	a2,228(a3)

00000770 <inst_75>:
     770:	00004537          	lui	a0,0x4
     774:	0000b5b7          	lui	a1,0xb
     778:	50358593          	addi	a1,a1,1283 # b503 <_end+0x48ff>
     77c:	02b52633          	mulhsu	a2,a0,a1
     780:	0ec6a423          	sw	a2,232(a3)

00000784 <inst_76>:
     784:	00020537          	lui	a0,0x20
     788:	ffc005b7          	lui	a1,0xffc00
     78c:	fff58593          	addi	a1,a1,-1 # ffbfffff <_end+0xffbf93fb>
     790:	02b52633          	mulhsu	a2,a0,a1
     794:	0ec6a623          	sw	a2,236(a3)

00000798 <inst_77>:
     798:	00080537          	lui	a0,0x80
     79c:	0000b5b7          	lui	a1,0xb
     7a0:	50458593          	addi	a1,a1,1284 # b504 <_end+0x4900>
     7a4:	02b52633          	mulhsu	a2,a0,a1
     7a8:	0ec6a823          	sw	a2,240(a3)

000007ac <inst_78>:
     7ac:	01000537          	lui	a0,0x1000
     7b0:	40000593          	li	a1,1024
     7b4:	02b52633          	mulhsu	a2,a0,a1
     7b8:	0ec6aa23          	sw	a2,244(a3)

000007bc <inst_79>:
     7bc:	02000537          	lui	a0,0x2000
     7c0:	555555b7          	lui	a1,0x55555
     7c4:	55658593          	addi	a1,a1,1366 # 55555556 <_end+0x5554e952>
     7c8:	02b52633          	mulhsu	a2,a0,a1
     7cc:	0ec6ac23          	sw	a2,248(a3)

000007d0 <inst_80>:
     7d0:	10000537          	lui	a0,0x10000
     7d4:	01100593          	li	a1,17
     7d8:	02b52633          	mulhsu	a2,a0,a1
     7dc:	0ec6ae23          	sw	a2,252(a3)

000007e0 <inst_81>:
     7e0:	20000537          	lui	a0,0x20000
     7e4:	00c00593          	li	a1,12
     7e8:	02b52633          	mulhsu	a2,a0,a1
     7ec:	10c6a023          	sw	a2,256(a3)

000007f0 <inst_82>:
     7f0:	ff700513          	li	a0,-9
     7f4:	ff8005b7          	lui	a1,0xff800
     7f8:	fff58593          	addi	a1,a1,-1 # ff7fffff <_end+0xff7f93fb>
     7fc:	02b52633          	mulhsu	a2,a0,a1
     800:	10c6a223          	sw	a2,260(a3)

00000804 <inst_83>:
     804:	fdf00513          	li	a0,-33
     808:	20000593          	li	a1,512
     80c:	02b52633          	mulhsu	a2,a0,a1
     810:	10c6a423          	sw	a2,264(a3)

00000814 <inst_84>:
     814:	f7f00513          	li	a0,-129
     818:	ffe005b7          	lui	a1,0xffe00
     81c:	fff58593          	addi	a1,a1,-1 # ffdfffff <_end+0xffdf93fb>
     820:	02b52633          	mulhsu	a2,a0,a1
     824:	10c6a623          	sw	a2,268(a3)

00000828 <inst_85>:
     828:	dff00513          	li	a0,-513
     82c:	666665b7          	lui	a1,0x66666
     830:	66558593          	addi	a1,a1,1637 # 66666665 <_end+0x6665fa61>
     834:	02b52633          	mulhsu	a2,a0,a1
     838:	10c6a823          	sw	a2,272(a3)

0000083c <inst_86>:
     83c:	fffff537          	lui	a0,0xfffff
     840:	7ff50513          	addi	a0,a0,2047 # fffff7ff <_end+0xffff8bfb>
     844:	00400593          	li	a1,4
     848:	02b52633          	mulhsu	a2,a0,a1
     84c:	10c6aa23          	sw	a2,276(a3)

00000850 <inst_87>:
     850:	ffffe537          	lui	a0,0xffffe
     854:	fff50513          	addi	a0,a0,-1 # ffffdfff <_end+0xffff73fb>
     858:	aaaab5b7          	lui	a1,0xaaaab
     85c:	aaa58593          	addi	a1,a1,-1366 # aaaaaaaa <_end+0xaaaa3ea6>
     860:	02b52633          	mulhsu	a2,a0,a1
     864:	10c6ac23          	sw	a2,280(a3)

00000868 <inst_88>:
     868:	ffffc537          	lui	a0,0xffffc
     86c:	fff50513          	addi	a0,a0,-1 # ffffbfff <_end+0xffff53fb>
     870:	fdf00593          	li	a1,-33
     874:	02b52633          	mulhsu	a2,a0,a1
     878:	10c6ae23          	sw	a2,284(a3)

0000087c <inst_89>:
     87c:	ffff8537          	lui	a0,0xffff8
     880:	fff50513          	addi	a0,a0,-1 # ffff7fff <_end+0xffff13fb>
     884:	333335b7          	lui	a1,0x33333
     888:	33258593          	addi	a1,a1,818 # 33333332 <_end+0x3332c72e>
     88c:	02b52633          	mulhsu	a2,a0,a1
     890:	12c6a023          	sw	a2,288(a3)

00000894 <inst_90>:
     894:	ffff0537          	lui	a0,0xffff0
     898:	fff50513          	addi	a0,a0,-1 # fffeffff <_end+0xfffe93fb>
     89c:	ffe00593          	li	a1,-2
     8a0:	02b52633          	mulhsu	a2,a0,a1
     8a4:	12c6a223          	sw	a2,292(a3)

000008a8 <inst_91>:
     8a8:	fffe0537          	lui	a0,0xfffe0
     8ac:	fff50513          	addi	a0,a0,-1 # fffdffff <_end+0xfffd93fb>
     8b0:	00400593          	li	a1,4
     8b4:	02b52633          	mulhsu	a2,a0,a1
     8b8:	12c6a423          	sw	a2,296(a3)

000008bc <inst_92>:
     8bc:	fffc0537          	lui	a0,0xfffc0
     8c0:	fff50513          	addi	a0,a0,-1 # fffbffff <_end+0xfffb93fb>
     8c4:	fef00593          	li	a1,-17
     8c8:	02b52633          	mulhsu	a2,a0,a1
     8cc:	12c6a623          	sw	a2,300(a3)

000008d0 <inst_93>:
     8d0:	fff80537          	lui	a0,0xfff80
     8d4:	fff50513          	addi	a0,a0,-1 # fff7ffff <_end+0xfff793fb>
     8d8:	fef00593          	li	a1,-17
     8dc:	02b52633          	mulhsu	a2,a0,a1
     8e0:	12c6a823          	sw	a2,304(a3)

000008e4 <inst_94>:
     8e4:	ffe00537          	lui	a0,0xffe00
     8e8:	fff50513          	addi	a0,a0,-1 # ffdfffff <_end+0xffdf93fb>
     8ec:	00700593          	li	a1,7
     8f0:	02b52633          	mulhsu	a2,a0,a1
     8f4:	12c6aa23          	sw	a2,308(a3)

000008f8 <inst_95>:
     8f8:	ffc00537          	lui	a0,0xffc00
     8fc:	fff50513          	addi	a0,a0,-1 # ffbfffff <_end+0xffbf93fb>
     900:	080005b7          	lui	a1,0x8000
     904:	02b52633          	mulhsu	a2,a0,a1
     908:	12c6ac23          	sw	a2,312(a3)

0000090c <inst_96>:
     90c:	ff800537          	lui	a0,0xff800
     910:	fff50513          	addi	a0,a0,-1 # ff7fffff <_end+0xff7f93fb>
     914:	100005b7          	lui	a1,0x10000
     918:	02b52633          	mulhsu	a2,a0,a1
     91c:	12c6ae23          	sw	a2,316(a3)

00000920 <inst_97>:
     920:	fe000537          	lui	a0,0xfe000
     924:	fff50513          	addi	a0,a0,-1 # fdffffff <_end+0xfdff93fb>
     928:	555555b7          	lui	a1,0x55555
     92c:	55658593          	addi	a1,a1,1366 # 55555556 <_end+0x5554e952>
     930:	02b52633          	mulhsu	a2,a0,a1
     934:	14c6a023          	sw	a2,320(a3)

00000938 <inst_98>:
     938:	fc000537          	lui	a0,0xfc000
     93c:	fff50513          	addi	a0,a0,-1 # fbffffff <_end+0xfbff93fb>
     940:	333335b7          	lui	a1,0x33333
     944:	33458593          	addi	a1,a1,820 # 33333334 <_end+0x3332c730>
     948:	02b52633          	mulhsu	a2,a0,a1
     94c:	14c6a223          	sw	a2,324(a3)

00000950 <inst_99>:
     950:	f8000537          	lui	a0,0xf8000
     954:	fff50513          	addi	a0,a0,-1 # f7ffffff <_end+0xf7ff93fb>
     958:	fc0005b7          	lui	a1,0xfc000
     95c:	fff58593          	addi	a1,a1,-1 # fbffffff <_end+0xfbff93fb>
     960:	02b52633          	mulhsu	a2,a0,a1
     964:	14c6a423          	sw	a2,328(a3)

00000968 <inst_100>:
     968:	f0000537          	lui	a0,0xf0000
     96c:	fff50513          	addi	a0,a0,-1 # efffffff <_end+0xefff93fb>
     970:	40000593          	li	a1,1024
     974:	02b52633          	mulhsu	a2,a0,a1
     978:	14c6a623          	sw	a2,332(a3)

0000097c <inst_101>:
     97c:	55555537          	lui	a0,0x55555
     980:	55550513          	addi	a0,a0,1365 # 55555555 <_end+0x5554e951>
     984:	555555b7          	lui	a1,0x55555
     988:	55558593          	addi	a1,a1,1365 # 55555555 <_end+0x5554e951>
     98c:	02b52633          	mulhsu	a2,a0,a1
     990:	14c6a823          	sw	a2,336(a3)

00000994 <inst_102>:
     994:	00300513          	li	a0,3
     998:	00300593          	li	a1,3
     99c:	02b52633          	mulhsu	a2,a0,a1
     9a0:	14c6aa23          	sw	a2,340(a3)

000009a4 <inst_103>:
     9a4:	00300513          	li	a0,3
     9a8:	555555b7          	lui	a1,0x55555
     9ac:	55558593          	addi	a1,a1,1365 # 55555555 <_end+0x5554e951>
     9b0:	02b52633          	mulhsu	a2,a0,a1
     9b4:	14c6ac23          	sw	a2,344(a3)

000009b8 <inst_104>:
     9b8:	00300513          	li	a0,3
     9bc:	aaaab5b7          	lui	a1,0xaaaab
     9c0:	aaa58593          	addi	a1,a1,-1366 # aaaaaaaa <_end+0xaaaa3ea6>
     9c4:	02b52633          	mulhsu	a2,a0,a1
     9c8:	14c6ae23          	sw	a2,348(a3)

000009cc <inst_105>:
     9cc:	00300513          	li	a0,3
     9d0:	00500593          	li	a1,5
     9d4:	02b52633          	mulhsu	a2,a0,a1
     9d8:	16c6a023          	sw	a2,352(a3)

000009dc <inst_106>:
     9dc:	00300513          	li	a0,3
     9e0:	333335b7          	lui	a1,0x33333
     9e4:	33358593          	addi	a1,a1,819 # 33333333 <_end+0x3332c72f>
     9e8:	02b52633          	mulhsu	a2,a0,a1
     9ec:	16c6a223          	sw	a2,356(a3)

000009f0 <inst_107>:
     9f0:	00300513          	li	a0,3
     9f4:	666665b7          	lui	a1,0x66666
     9f8:	66658593          	addi	a1,a1,1638 # 66666666 <_end+0x6665fa62>
     9fc:	02b52633          	mulhsu	a2,a0,a1
     a00:	16c6a423          	sw	a2,360(a3)

00000a04 <inst_108>:
     a04:	00300513          	li	a0,3
     a08:	0000b5b7          	lui	a1,0xb
     a0c:	50458593          	addi	a1,a1,1284 # b504 <_end+0x4900>
     a10:	02b52633          	mulhsu	a2,a0,a1
     a14:	16c6a623          	sw	a2,364(a3)

00000a18 <inst_109>:
     a18:	00300513          	li	a0,3
     a1c:	00000593          	li	a1,0
     a20:	02b52633          	mulhsu	a2,a0,a1
     a24:	16c6a823          	sw	a2,368(a3)

00000a28 <inst_110>:
     a28:	00300513          	li	a0,3
     a2c:	000105b7          	lui	a1,0x10
     a30:	fff58593          	addi	a1,a1,-1 # ffff <_end+0x93fb>
     a34:	02b52633          	mulhsu	a2,a0,a1
     a38:	16c6aa23          	sw	a2,372(a3)

00000a3c <inst_111>:
     a3c:	00300513          	li	a0,3
     a40:	555555b7          	lui	a1,0x55555
     a44:	55458593          	addi	a1,a1,1364 # 55555554 <_end+0x5554e950>
     a48:	02b52633          	mulhsu	a2,a0,a1
     a4c:	16c6ac23          	sw	a2,376(a3)

00000a50 <inst_112>:
     a50:	00300513          	li	a0,3
     a54:	aaaab5b7          	lui	a1,0xaaaab
     a58:	aa958593          	addi	a1,a1,-1367 # aaaaaaa9 <_end+0xaaaa3ea5>
     a5c:	02b52633          	mulhsu	a2,a0,a1
     a60:	16c6ae23          	sw	a2,380(a3)

00000a64 <inst_113>:
     a64:	00300513          	li	a0,3
     a68:	00400593          	li	a1,4
     a6c:	02b52633          	mulhsu	a2,a0,a1
     a70:	18c6a023          	sw	a2,384(a3)

00000a74 <inst_114>:
     a74:	00300513          	li	a0,3
     a78:	333335b7          	lui	a1,0x33333
     a7c:	33258593          	addi	a1,a1,818 # 33333332 <_end+0x3332c72e>
     a80:	02b52633          	mulhsu	a2,a0,a1
     a84:	18c6a223          	sw	a2,388(a3)

00000a88 <inst_115>:
     a88:	00300513          	li	a0,3
     a8c:	666665b7          	lui	a1,0x66666
     a90:	66558593          	addi	a1,a1,1637 # 66666665 <_end+0x6665fa61>
     a94:	02b52633          	mulhsu	a2,a0,a1
     a98:	18c6a423          	sw	a2,392(a3)

00000a9c <inst_116>:
     a9c:	00300513          	li	a0,3
     aa0:	0000b5b7          	lui	a1,0xb
     aa4:	50358593          	addi	a1,a1,1283 # b503 <_end+0x48ff>
     aa8:	02b52633          	mulhsu	a2,a0,a1
     aac:	18c6a623          	sw	a2,396(a3)

00000ab0 <inst_117>:
     ab0:	00300513          	li	a0,3
     ab4:	000105b7          	lui	a1,0x10
     ab8:	ffe58593          	addi	a1,a1,-2 # fffe <_end+0x93fa>
     abc:	02b52633          	mulhsu	a2,a0,a1
     ac0:	18c6a823          	sw	a2,400(a3)

00000ac4 <inst_118>:
     ac4:	00300513          	li	a0,3
     ac8:	555555b7          	lui	a1,0x55555
     acc:	55658593          	addi	a1,a1,1366 # 55555556 <_end+0x5554e952>
     ad0:	02b52633          	mulhsu	a2,a0,a1
     ad4:	18c6aa23          	sw	a2,404(a3)

00000ad8 <inst_119>:
     ad8:	00300513          	li	a0,3
     adc:	aaaab5b7          	lui	a1,0xaaaab
     ae0:	aab58593          	addi	a1,a1,-1365 # aaaaaaab <_end+0xaaaa3ea7>
     ae4:	02b52633          	mulhsu	a2,a0,a1
     ae8:	18c6ac23          	sw	a2,408(a3)

00000aec <inst_120>:
     aec:	00300513          	li	a0,3
     af0:	00600593          	li	a1,6
     af4:	02b52633          	mulhsu	a2,a0,a1
     af8:	18c6ae23          	sw	a2,412(a3)

00000afc <inst_121>:
     afc:	00300513          	li	a0,3
     b00:	333335b7          	lui	a1,0x33333
     b04:	33458593          	addi	a1,a1,820 # 33333334 <_end+0x3332c730>
     b08:	02b52633          	mulhsu	a2,a0,a1
     b0c:	1ac6a023          	sw	a2,416(a3)

00000b10 <inst_122>:
     b10:	00300513          	li	a0,3
     b14:	666665b7          	lui	a1,0x66666
     b18:	66758593          	addi	a1,a1,1639 # 66666667 <_end+0x6665fa63>
     b1c:	02b52633          	mulhsu	a2,a0,a1
     b20:	1ac6a223          	sw	a2,420(a3)

00000b24 <inst_123>:
     b24:	00300513          	li	a0,3
     b28:	0000b5b7          	lui	a1,0xb
     b2c:	50558593          	addi	a1,a1,1285 # b505 <_end+0x4901>
     b30:	02b52633          	mulhsu	a2,a0,a1
     b34:	1ac6a423          	sw	a2,424(a3)

00000b38 <inst_124>:
     b38:	00300513          	li	a0,3
     b3c:	00100593          	li	a1,1
     b40:	02b52633          	mulhsu	a2,a0,a1
     b44:	1ac6a623          	sw	a2,428(a3)

00000b48 <inst_125>:
     b48:	00300513          	li	a0,3
     b4c:	000105b7          	lui	a1,0x10
     b50:	02b52633          	mulhsu	a2,a0,a1
     b54:	1ac6a823          	sw	a2,432(a3)

00000b58 <inst_126>:
     b58:	55555537          	lui	a0,0x55555
     b5c:	55550513          	addi	a0,a0,1365 # 55555555 <_end+0x5554e951>
     b60:	00300593          	li	a1,3
     b64:	02b52633          	mulhsu	a2,a0,a1
     b68:	1ac6aa23          	sw	a2,436(a3)

00000b6c <inst_127>:
     b6c:	55555537          	lui	a0,0x55555
     b70:	55550513          	addi	a0,a0,1365 # 55555555 <_end+0x5554e951>
     b74:	aaaab5b7          	lui	a1,0xaaaab
     b78:	aaa58593          	addi	a1,a1,-1366 # aaaaaaaa <_end+0xaaaa3ea6>
     b7c:	02b52633          	mulhsu	a2,a0,a1
     b80:	1ac6ac23          	sw	a2,440(a3)

00000b84 <inst_128>:
     b84:	55555537          	lui	a0,0x55555
     b88:	55550513          	addi	a0,a0,1365 # 55555555 <_end+0x5554e951>
     b8c:	00500593          	li	a1,5
     b90:	02b52633          	mulhsu	a2,a0,a1
     b94:	1ac6ae23          	sw	a2,444(a3)

00000b98 <inst_129>:
     b98:	55555537          	lui	a0,0x55555
     b9c:	55550513          	addi	a0,a0,1365 # 55555555 <_end+0x5554e951>
     ba0:	333335b7          	lui	a1,0x33333
     ba4:	33358593          	addi	a1,a1,819 # 33333333 <_end+0x3332c72f>
     ba8:	02b52633          	mulhsu	a2,a0,a1
     bac:	1cc6a023          	sw	a2,448(a3)

00000bb0 <inst_130>:
     bb0:	55555537          	lui	a0,0x55555
     bb4:	55550513          	addi	a0,a0,1365 # 55555555 <_end+0x5554e951>
     bb8:	666665b7          	lui	a1,0x66666
     bbc:	66658593          	addi	a1,a1,1638 # 66666666 <_end+0x6665fa62>
     bc0:	02b52633          	mulhsu	a2,a0,a1
     bc4:	1cc6a223          	sw	a2,452(a3)

00000bc8 <inst_131>:
     bc8:	55555537          	lui	a0,0x55555
     bcc:	55550513          	addi	a0,a0,1365 # 55555555 <_end+0x5554e951>
     bd0:	0000b5b7          	lui	a1,0xb
     bd4:	50458593          	addi	a1,a1,1284 # b504 <_end+0x4900>
     bd8:	02b52633          	mulhsu	a2,a0,a1
     bdc:	1cc6a423          	sw	a2,456(a3)

00000be0 <inst_132>:
     be0:	55555537          	lui	a0,0x55555
     be4:	55550513          	addi	a0,a0,1365 # 55555555 <_end+0x5554e951>
     be8:	00000593          	li	a1,0
     bec:	02b52633          	mulhsu	a2,a0,a1
     bf0:	1cc6a623          	sw	a2,460(a3)

00000bf4 <inst_133>:
     bf4:	55555537          	lui	a0,0x55555
     bf8:	55550513          	addi	a0,a0,1365 # 55555555 <_end+0x5554e951>
     bfc:	000105b7          	lui	a1,0x10
     c00:	fff58593          	addi	a1,a1,-1 # ffff <_end+0x93fb>
     c04:	02b52633          	mulhsu	a2,a0,a1
     c08:	1cc6a823          	sw	a2,464(a3)

00000c0c <inst_134>:
     c0c:	55555537          	lui	a0,0x55555
     c10:	55550513          	addi	a0,a0,1365 # 55555555 <_end+0x5554e951>
     c14:	00200593          	li	a1,2
     c18:	02b52633          	mulhsu	a2,a0,a1
     c1c:	1cc6aa23          	sw	a2,468(a3)

00000c20 <inst_135>:
     c20:	55555537          	lui	a0,0x55555
     c24:	55550513          	addi	a0,a0,1365 # 55555555 <_end+0x5554e951>
     c28:	555555b7          	lui	a1,0x55555
     c2c:	55458593          	addi	a1,a1,1364 # 55555554 <_end+0x5554e950>
     c30:	02b52633          	mulhsu	a2,a0,a1
     c34:	1cc6ac23          	sw	a2,472(a3)

00000c38 <inst_136>:
     c38:	55555537          	lui	a0,0x55555
     c3c:	55550513          	addi	a0,a0,1365 # 55555555 <_end+0x5554e951>
     c40:	aaaab5b7          	lui	a1,0xaaaab
     c44:	aa958593          	addi	a1,a1,-1367 # aaaaaaa9 <_end+0xaaaa3ea5>
     c48:	02b52633          	mulhsu	a2,a0,a1
     c4c:	1cc6ae23          	sw	a2,476(a3)

00000c50 <inst_137>:
     c50:	55555537          	lui	a0,0x55555
     c54:	55550513          	addi	a0,a0,1365 # 55555555 <_end+0x5554e951>
     c58:	00400593          	li	a1,4
     c5c:	02b52633          	mulhsu	a2,a0,a1
     c60:	1ec6a023          	sw	a2,480(a3)

00000c64 <inst_138>:
     c64:	55555537          	lui	a0,0x55555
     c68:	55550513          	addi	a0,a0,1365 # 55555555 <_end+0x5554e951>
     c6c:	333335b7          	lui	a1,0x33333
     c70:	33258593          	addi	a1,a1,818 # 33333332 <_end+0x3332c72e>
     c74:	02b52633          	mulhsu	a2,a0,a1
     c78:	1ec6a223          	sw	a2,484(a3)

00000c7c <inst_139>:
     c7c:	55555537          	lui	a0,0x55555
     c80:	55550513          	addi	a0,a0,1365 # 55555555 <_end+0x5554e951>
     c84:	666665b7          	lui	a1,0x66666
     c88:	66558593          	addi	a1,a1,1637 # 66666665 <_end+0x6665fa61>
     c8c:	02b52633          	mulhsu	a2,a0,a1
     c90:	1ec6a423          	sw	a2,488(a3)

00000c94 <inst_140>:
     c94:	55555537          	lui	a0,0x55555
     c98:	55550513          	addi	a0,a0,1365 # 55555555 <_end+0x5554e951>
     c9c:	0000b5b7          	lui	a1,0xb
     ca0:	50358593          	addi	a1,a1,1283 # b503 <_end+0x48ff>
     ca4:	02b52633          	mulhsu	a2,a0,a1
     ca8:	1ec6a623          	sw	a2,492(a3)

00000cac <inst_141>:
     cac:	55555537          	lui	a0,0x55555
     cb0:	55550513          	addi	a0,a0,1365 # 55555555 <_end+0x5554e951>
     cb4:	000105b7          	lui	a1,0x10
     cb8:	ffe58593          	addi	a1,a1,-2 # fffe <_end+0x93fa>
     cbc:	02b52633          	mulhsu	a2,a0,a1
     cc0:	1ec6a823          	sw	a2,496(a3)

00000cc4 <inst_142>:
     cc4:	55555537          	lui	a0,0x55555
     cc8:	55550513          	addi	a0,a0,1365 # 55555555 <_end+0x5554e951>
     ccc:	555555b7          	lui	a1,0x55555
     cd0:	55658593          	addi	a1,a1,1366 # 55555556 <_end+0x5554e952>
     cd4:	02b52633          	mulhsu	a2,a0,a1
     cd8:	1ec6aa23          	sw	a2,500(a3)

00000cdc <inst_143>:
     cdc:	55555537          	lui	a0,0x55555
     ce0:	55550513          	addi	a0,a0,1365 # 55555555 <_end+0x5554e951>
     ce4:	aaaab5b7          	lui	a1,0xaaaab
     ce8:	aab58593          	addi	a1,a1,-1365 # aaaaaaab <_end+0xaaaa3ea7>
     cec:	02b52633          	mulhsu	a2,a0,a1
     cf0:	1ec6ac23          	sw	a2,504(a3)

00000cf4 <inst_144>:
     cf4:	55555537          	lui	a0,0x55555
     cf8:	55550513          	addi	a0,a0,1365 # 55555555 <_end+0x5554e951>
     cfc:	00600593          	li	a1,6
     d00:	02b52633          	mulhsu	a2,a0,a1
     d04:	1ec6ae23          	sw	a2,508(a3)

00000d08 <inst_145>:
     d08:	55555537          	lui	a0,0x55555
     d0c:	55550513          	addi	a0,a0,1365 # 55555555 <_end+0x5554e951>
     d10:	333335b7          	lui	a1,0x33333
     d14:	33458593          	addi	a1,a1,820 # 33333334 <_end+0x3332c730>
     d18:	02b52633          	mulhsu	a2,a0,a1
     d1c:	20c6a023          	sw	a2,512(a3)

00000d20 <inst_146>:
     d20:	55555537          	lui	a0,0x55555
     d24:	55550513          	addi	a0,a0,1365 # 55555555 <_end+0x5554e951>
     d28:	666665b7          	lui	a1,0x66666
     d2c:	66758593          	addi	a1,a1,1639 # 66666667 <_end+0x6665fa63>
     d30:	02b52633          	mulhsu	a2,a0,a1
     d34:	20c6a223          	sw	a2,516(a3)

00000d38 <inst_147>:
     d38:	55555537          	lui	a0,0x55555
     d3c:	55550513          	addi	a0,a0,1365 # 55555555 <_end+0x5554e951>
     d40:	0000b5b7          	lui	a1,0xb
     d44:	50558593          	addi	a1,a1,1285 # b505 <_end+0x4901>
     d48:	02b52633          	mulhsu	a2,a0,a1
     d4c:	20c6a423          	sw	a2,520(a3)

00000d50 <inst_148>:
     d50:	55555537          	lui	a0,0x55555
     d54:	55550513          	addi	a0,a0,1365 # 55555555 <_end+0x5554e951>
     d58:	00100593          	li	a1,1
     d5c:	02b52633          	mulhsu	a2,a0,a1
     d60:	20c6a623          	sw	a2,524(a3)

00000d64 <inst_149>:
     d64:	55555537          	lui	a0,0x55555
     d68:	55550513          	addi	a0,a0,1365 # 55555555 <_end+0x5554e951>
     d6c:	000105b7          	lui	a1,0x10
     d70:	02b52633          	mulhsu	a2,a0,a1
     d74:	20c6a823          	sw	a2,528(a3)

00000d78 <inst_150>:
     d78:	aaaab537          	lui	a0,0xaaaab
     d7c:	aaa50513          	addi	a0,a0,-1366 # aaaaaaaa <_end+0xaaaa3ea6>
     d80:	00300593          	li	a1,3
     d84:	02b52633          	mulhsu	a2,a0,a1
     d88:	20c6aa23          	sw	a2,532(a3)

00000d8c <inst_151>:
     d8c:	aaaab537          	lui	a0,0xaaaab
     d90:	aaa50513          	addi	a0,a0,-1366 # aaaaaaaa <_end+0xaaaa3ea6>
     d94:	555555b7          	lui	a1,0x55555
     d98:	55558593          	addi	a1,a1,1365 # 55555555 <_end+0x5554e951>
     d9c:	02b52633          	mulhsu	a2,a0,a1
     da0:	20c6ac23          	sw	a2,536(a3)

00000da4 <inst_152>:
     da4:	aaaab537          	lui	a0,0xaaaab
     da8:	aaa50513          	addi	a0,a0,-1366 # aaaaaaaa <_end+0xaaaa3ea6>
     dac:	aaaab5b7          	lui	a1,0xaaaab
     db0:	aaa58593          	addi	a1,a1,-1366 # aaaaaaaa <_end+0xaaaa3ea6>
     db4:	02b52633          	mulhsu	a2,a0,a1
     db8:	20c6ae23          	sw	a2,540(a3)

00000dbc <inst_153>:
     dbc:	aaaab537          	lui	a0,0xaaaab
     dc0:	aaa50513          	addi	a0,a0,-1366 # aaaaaaaa <_end+0xaaaa3ea6>
     dc4:	00500593          	li	a1,5
     dc8:	02b52633          	mulhsu	a2,a0,a1
     dcc:	22c6a023          	sw	a2,544(a3)

00000dd0 <inst_154>:
     dd0:	aaaab537          	lui	a0,0xaaaab
     dd4:	aaa50513          	addi	a0,a0,-1366 # aaaaaaaa <_end+0xaaaa3ea6>
     dd8:	333335b7          	lui	a1,0x33333
     ddc:	33358593          	addi	a1,a1,819 # 33333333 <_end+0x3332c72f>
     de0:	02b52633          	mulhsu	a2,a0,a1
     de4:	22c6a223          	sw	a2,548(a3)

00000de8 <inst_155>:
     de8:	aaaab537          	lui	a0,0xaaaab
     dec:	aaa50513          	addi	a0,a0,-1366 # aaaaaaaa <_end+0xaaaa3ea6>
     df0:	666665b7          	lui	a1,0x66666
     df4:	66658593          	addi	a1,a1,1638 # 66666666 <_end+0x6665fa62>
     df8:	02b52633          	mulhsu	a2,a0,a1
     dfc:	22c6a423          	sw	a2,552(a3)

00000e00 <inst_156>:
     e00:	aaaab537          	lui	a0,0xaaaab
     e04:	aaa50513          	addi	a0,a0,-1366 # aaaaaaaa <_end+0xaaaa3ea6>
     e08:	0000b5b7          	lui	a1,0xb
     e0c:	50458593          	addi	a1,a1,1284 # b504 <_end+0x4900>
     e10:	02b52633          	mulhsu	a2,a0,a1
     e14:	22c6a623          	sw	a2,556(a3)

00000e18 <inst_157>:
     e18:	aaaab537          	lui	a0,0xaaaab
     e1c:	aaa50513          	addi	a0,a0,-1366 # aaaaaaaa <_end+0xaaaa3ea6>
     e20:	00000593          	li	a1,0
     e24:	02b52633          	mulhsu	a2,a0,a1
     e28:	22c6a823          	sw	a2,560(a3)

00000e2c <inst_158>:
     e2c:	aaaab537          	lui	a0,0xaaaab
     e30:	aaa50513          	addi	a0,a0,-1366 # aaaaaaaa <_end+0xaaaa3ea6>
     e34:	000105b7          	lui	a1,0x10
     e38:	fff58593          	addi	a1,a1,-1 # ffff <_end+0x93fb>
     e3c:	02b52633          	mulhsu	a2,a0,a1
     e40:	22c6aa23          	sw	a2,564(a3)

00000e44 <inst_159>:
     e44:	aaaab537          	lui	a0,0xaaaab
     e48:	aaa50513          	addi	a0,a0,-1366 # aaaaaaaa <_end+0xaaaa3ea6>
     e4c:	00200593          	li	a1,2
     e50:	02b52633          	mulhsu	a2,a0,a1
     e54:	22c6ac23          	sw	a2,568(a3)

00000e58 <inst_160>:
     e58:	aaaab537          	lui	a0,0xaaaab
     e5c:	aaa50513          	addi	a0,a0,-1366 # aaaaaaaa <_end+0xaaaa3ea6>
     e60:	555555b7          	lui	a1,0x55555
     e64:	55458593          	addi	a1,a1,1364 # 55555554 <_end+0x5554e950>
     e68:	02b52633          	mulhsu	a2,a0,a1
     e6c:	22c6ae23          	sw	a2,572(a3)

00000e70 <inst_161>:
     e70:	aaaab537          	lui	a0,0xaaaab
     e74:	aaa50513          	addi	a0,a0,-1366 # aaaaaaaa <_end+0xaaaa3ea6>
     e78:	aaaab5b7          	lui	a1,0xaaaab
     e7c:	aa958593          	addi	a1,a1,-1367 # aaaaaaa9 <_end+0xaaaa3ea5>
     e80:	02b52633          	mulhsu	a2,a0,a1
     e84:	24c6a023          	sw	a2,576(a3)

00000e88 <inst_162>:
     e88:	aaaab537          	lui	a0,0xaaaab
     e8c:	aaa50513          	addi	a0,a0,-1366 # aaaaaaaa <_end+0xaaaa3ea6>
     e90:	00400593          	li	a1,4
     e94:	02b52633          	mulhsu	a2,a0,a1
     e98:	24c6a223          	sw	a2,580(a3)

00000e9c <inst_163>:
     e9c:	aaaab537          	lui	a0,0xaaaab
     ea0:	aaa50513          	addi	a0,a0,-1366 # aaaaaaaa <_end+0xaaaa3ea6>
     ea4:	333335b7          	lui	a1,0x33333
     ea8:	33258593          	addi	a1,a1,818 # 33333332 <_end+0x3332c72e>
     eac:	02b52633          	mulhsu	a2,a0,a1
     eb0:	24c6a423          	sw	a2,584(a3)

00000eb4 <inst_164>:
     eb4:	aaaab537          	lui	a0,0xaaaab
     eb8:	aaa50513          	addi	a0,a0,-1366 # aaaaaaaa <_end+0xaaaa3ea6>
     ebc:	666665b7          	lui	a1,0x66666
     ec0:	66558593          	addi	a1,a1,1637 # 66666665 <_end+0x6665fa61>
     ec4:	02b52633          	mulhsu	a2,a0,a1
     ec8:	24c6a623          	sw	a2,588(a3)

00000ecc <inst_165>:
     ecc:	aaaab537          	lui	a0,0xaaaab
     ed0:	aaa50513          	addi	a0,a0,-1366 # aaaaaaaa <_end+0xaaaa3ea6>
     ed4:	0000b5b7          	lui	a1,0xb
     ed8:	50358593          	addi	a1,a1,1283 # b503 <_end+0x48ff>
     edc:	02b52633          	mulhsu	a2,a0,a1
     ee0:	24c6a823          	sw	a2,592(a3)

00000ee4 <inst_166>:
     ee4:	aaaab537          	lui	a0,0xaaaab
     ee8:	aaa50513          	addi	a0,a0,-1366 # aaaaaaaa <_end+0xaaaa3ea6>
     eec:	000105b7          	lui	a1,0x10
     ef0:	ffe58593          	addi	a1,a1,-2 # fffe <_end+0x93fa>
     ef4:	02b52633          	mulhsu	a2,a0,a1
     ef8:	24c6aa23          	sw	a2,596(a3)

00000efc <inst_167>:
     efc:	aaaab537          	lui	a0,0xaaaab
     f00:	aaa50513          	addi	a0,a0,-1366 # aaaaaaaa <_end+0xaaaa3ea6>
     f04:	555555b7          	lui	a1,0x55555
     f08:	55658593          	addi	a1,a1,1366 # 55555556 <_end+0x5554e952>
     f0c:	02b52633          	mulhsu	a2,a0,a1
     f10:	24c6ac23          	sw	a2,600(a3)

00000f14 <inst_168>:
     f14:	aaaab537          	lui	a0,0xaaaab
     f18:	aaa50513          	addi	a0,a0,-1366 # aaaaaaaa <_end+0xaaaa3ea6>
     f1c:	aaaab5b7          	lui	a1,0xaaaab
     f20:	aab58593          	addi	a1,a1,-1365 # aaaaaaab <_end+0xaaaa3ea7>
     f24:	02b52633          	mulhsu	a2,a0,a1
     f28:	24c6ae23          	sw	a2,604(a3)

00000f2c <inst_169>:
     f2c:	aaaab537          	lui	a0,0xaaaab
     f30:	aaa50513          	addi	a0,a0,-1366 # aaaaaaaa <_end+0xaaaa3ea6>
     f34:	00600593          	li	a1,6
     f38:	02b52633          	mulhsu	a2,a0,a1
     f3c:	26c6a023          	sw	a2,608(a3)

00000f40 <inst_170>:
     f40:	aaaab537          	lui	a0,0xaaaab
     f44:	aaa50513          	addi	a0,a0,-1366 # aaaaaaaa <_end+0xaaaa3ea6>
     f48:	333335b7          	lui	a1,0x33333
     f4c:	33458593          	addi	a1,a1,820 # 33333334 <_end+0x3332c730>
     f50:	02b52633          	mulhsu	a2,a0,a1
     f54:	26c6a223          	sw	a2,612(a3)

00000f58 <inst_171>:
     f58:	aaaab537          	lui	a0,0xaaaab
     f5c:	aaa50513          	addi	a0,a0,-1366 # aaaaaaaa <_end+0xaaaa3ea6>
     f60:	666665b7          	lui	a1,0x66666
     f64:	66758593          	addi	a1,a1,1639 # 66666667 <_end+0x6665fa63>
     f68:	02b52633          	mulhsu	a2,a0,a1
     f6c:	26c6a423          	sw	a2,616(a3)

00000f70 <inst_172>:
     f70:	aaaab537          	lui	a0,0xaaaab
     f74:	aaa50513          	addi	a0,a0,-1366 # aaaaaaaa <_end+0xaaaa3ea6>
     f78:	0000b5b7          	lui	a1,0xb
     f7c:	50558593          	addi	a1,a1,1285 # b505 <_end+0x4901>
     f80:	02b52633          	mulhsu	a2,a0,a1
     f84:	26c6a623          	sw	a2,620(a3)

00000f88 <inst_173>:
     f88:	aaaab537          	lui	a0,0xaaaab
     f8c:	aaa50513          	addi	a0,a0,-1366 # aaaaaaaa <_end+0xaaaa3ea6>
     f90:	00100593          	li	a1,1
     f94:	02b52633          	mulhsu	a2,a0,a1
     f98:	26c6a823          	sw	a2,624(a3)

00000f9c <inst_174>:
     f9c:	aaaab537          	lui	a0,0xaaaab
     fa0:	aaa50513          	addi	a0,a0,-1366 # aaaaaaaa <_end+0xaaaa3ea6>
     fa4:	000105b7          	lui	a1,0x10
     fa8:	02b52633          	mulhsu	a2,a0,a1
     fac:	26c6aa23          	sw	a2,628(a3)

00000fb0 <inst_175>:
     fb0:	00500513          	li	a0,5
     fb4:	00300593          	li	a1,3
     fb8:	02b52633          	mulhsu	a2,a0,a1
     fbc:	26c6ac23          	sw	a2,632(a3)

00000fc0 <inst_176>:
     fc0:	00500513          	li	a0,5
     fc4:	555555b7          	lui	a1,0x55555
     fc8:	55558593          	addi	a1,a1,1365 # 55555555 <_end+0x5554e951>
     fcc:	02b52633          	mulhsu	a2,a0,a1
     fd0:	26c6ae23          	sw	a2,636(a3)

00000fd4 <inst_177>:
     fd4:	00500513          	li	a0,5
     fd8:	00500593          	li	a1,5
     fdc:	02b52633          	mulhsu	a2,a0,a1
     fe0:	28c6a023          	sw	a2,640(a3)

00000fe4 <inst_178>:
     fe4:	00500513          	li	a0,5
     fe8:	333335b7          	lui	a1,0x33333
     fec:	33358593          	addi	a1,a1,819 # 33333333 <_end+0x3332c72f>
     ff0:	02b52633          	mulhsu	a2,a0,a1
     ff4:	28c6a223          	sw	a2,644(a3)

00000ff8 <inst_179>:
     ff8:	00500513          	li	a0,5
     ffc:	666665b7          	lui	a1,0x66666
    1000:	66658593          	addi	a1,a1,1638 # 66666666 <_end+0x6665fa62>
    1004:	02b52633          	mulhsu	a2,a0,a1
    1008:	28c6a423          	sw	a2,648(a3)

0000100c <inst_180>:
    100c:	00500513          	li	a0,5
    1010:	0000b5b7          	lui	a1,0xb
    1014:	50458593          	addi	a1,a1,1284 # b504 <_end+0x4900>
    1018:	02b52633          	mulhsu	a2,a0,a1
    101c:	28c6a623          	sw	a2,652(a3)

00001020 <inst_181>:
    1020:	00500513          	li	a0,5
    1024:	00000593          	li	a1,0
    1028:	02b52633          	mulhsu	a2,a0,a1
    102c:	28c6a823          	sw	a2,656(a3)

00001030 <inst_182>:
    1030:	00500513          	li	a0,5
    1034:	000105b7          	lui	a1,0x10
    1038:	fff58593          	addi	a1,a1,-1 # ffff <_end+0x93fb>
    103c:	02b52633          	mulhsu	a2,a0,a1
    1040:	28c6aa23          	sw	a2,660(a3)

00001044 <inst_183>:
    1044:	00500513          	li	a0,5
    1048:	00200593          	li	a1,2
    104c:	02b52633          	mulhsu	a2,a0,a1
    1050:	28c6ac23          	sw	a2,664(a3)

00001054 <inst_184>:
    1054:	00500513          	li	a0,5
    1058:	555555b7          	lui	a1,0x55555
    105c:	55458593          	addi	a1,a1,1364 # 55555554 <_end+0x5554e950>
    1060:	02b52633          	mulhsu	a2,a0,a1
    1064:	28c6ae23          	sw	a2,668(a3)

00001068 <inst_185>:
    1068:	00500513          	li	a0,5
    106c:	aaaab5b7          	lui	a1,0xaaaab
    1070:	aa958593          	addi	a1,a1,-1367 # aaaaaaa9 <_end+0xaaaa3ea5>
    1074:	02b52633          	mulhsu	a2,a0,a1
    1078:	2ac6a023          	sw	a2,672(a3)

0000107c <inst_186>:
    107c:	00500513          	li	a0,5
    1080:	00400593          	li	a1,4
    1084:	02b52633          	mulhsu	a2,a0,a1
    1088:	2ac6a223          	sw	a2,676(a3)

0000108c <inst_187>:
    108c:	00500513          	li	a0,5
    1090:	333335b7          	lui	a1,0x33333
    1094:	33258593          	addi	a1,a1,818 # 33333332 <_end+0x3332c72e>
    1098:	02b52633          	mulhsu	a2,a0,a1
    109c:	2ac6a423          	sw	a2,680(a3)

000010a0 <inst_188>:
    10a0:	00500513          	li	a0,5
    10a4:	666665b7          	lui	a1,0x66666
    10a8:	66558593          	addi	a1,a1,1637 # 66666665 <_end+0x6665fa61>
    10ac:	02b52633          	mulhsu	a2,a0,a1
    10b0:	2ac6a623          	sw	a2,684(a3)

000010b4 <inst_189>:
    10b4:	00500513          	li	a0,5
    10b8:	0000b5b7          	lui	a1,0xb
    10bc:	50358593          	addi	a1,a1,1283 # b503 <_end+0x48ff>
    10c0:	02b52633          	mulhsu	a2,a0,a1
    10c4:	2ac6a823          	sw	a2,688(a3)

000010c8 <inst_190>:
    10c8:	00500513          	li	a0,5
    10cc:	000105b7          	lui	a1,0x10
    10d0:	ffe58593          	addi	a1,a1,-2 # fffe <_end+0x93fa>
    10d4:	02b52633          	mulhsu	a2,a0,a1
    10d8:	2ac6aa23          	sw	a2,692(a3)

000010dc <inst_191>:
    10dc:	00500513          	li	a0,5
    10e0:	555555b7          	lui	a1,0x55555
    10e4:	55658593          	addi	a1,a1,1366 # 55555556 <_end+0x5554e952>
    10e8:	02b52633          	mulhsu	a2,a0,a1
    10ec:	2ac6ac23          	sw	a2,696(a3)

000010f0 <inst_192>:
    10f0:	00500513          	li	a0,5
    10f4:	aaaab5b7          	lui	a1,0xaaaab
    10f8:	aab58593          	addi	a1,a1,-1365 # aaaaaaab <_end+0xaaaa3ea7>
    10fc:	02b52633          	mulhsu	a2,a0,a1
    1100:	2ac6ae23          	sw	a2,700(a3)

00001104 <inst_193>:
    1104:	00500513          	li	a0,5
    1108:	00600593          	li	a1,6
    110c:	02b52633          	mulhsu	a2,a0,a1
    1110:	2cc6a023          	sw	a2,704(a3)

00001114 <inst_194>:
    1114:	00500513          	li	a0,5
    1118:	333335b7          	lui	a1,0x33333
    111c:	33458593          	addi	a1,a1,820 # 33333334 <_end+0x3332c730>
    1120:	02b52633          	mulhsu	a2,a0,a1
    1124:	2cc6a223          	sw	a2,708(a3)

00001128 <inst_195>:
    1128:	00500513          	li	a0,5
    112c:	666665b7          	lui	a1,0x66666
    1130:	66758593          	addi	a1,a1,1639 # 66666667 <_end+0x6665fa63>
    1134:	02b52633          	mulhsu	a2,a0,a1
    1138:	2cc6a423          	sw	a2,712(a3)

0000113c <inst_196>:
    113c:	00500513          	li	a0,5
    1140:	0000b5b7          	lui	a1,0xb
    1144:	50558593          	addi	a1,a1,1285 # b505 <_end+0x4901>
    1148:	02b52633          	mulhsu	a2,a0,a1
    114c:	2cc6a623          	sw	a2,716(a3)

00001150 <inst_197>:
    1150:	00500513          	li	a0,5
    1154:	00100593          	li	a1,1
    1158:	02b52633          	mulhsu	a2,a0,a1
    115c:	2cc6a823          	sw	a2,720(a3)

00001160 <inst_198>:
    1160:	00500513          	li	a0,5
    1164:	000105b7          	lui	a1,0x10
    1168:	02b52633          	mulhsu	a2,a0,a1
    116c:	2cc6aa23          	sw	a2,724(a3)

00001170 <inst_199>:
    1170:	33333537          	lui	a0,0x33333
    1174:	33350513          	addi	a0,a0,819 # 33333333 <_end+0x3332c72f>
    1178:	00300593          	li	a1,3
    117c:	02b52633          	mulhsu	a2,a0,a1
    1180:	2cc6ac23          	sw	a2,728(a3)

00001184 <inst_200>:
    1184:	33333537          	lui	a0,0x33333
    1188:	33350513          	addi	a0,a0,819 # 33333333 <_end+0x3332c72f>
    118c:	555555b7          	lui	a1,0x55555
    1190:	55558593          	addi	a1,a1,1365 # 55555555 <_end+0x5554e951>
    1194:	02b52633          	mulhsu	a2,a0,a1
    1198:	2cc6ae23          	sw	a2,732(a3)

0000119c <inst_201>:
    119c:	33333537          	lui	a0,0x33333
    11a0:	33350513          	addi	a0,a0,819 # 33333333 <_end+0x3332c72f>
    11a4:	aaaab5b7          	lui	a1,0xaaaab
    11a8:	aaa58593          	addi	a1,a1,-1366 # aaaaaaaa <_end+0xaaaa3ea6>
    11ac:	02b52633          	mulhsu	a2,a0,a1
    11b0:	2ec6a023          	sw	a2,736(a3)

000011b4 <inst_202>:
    11b4:	33333537          	lui	a0,0x33333
    11b8:	33350513          	addi	a0,a0,819 # 33333333 <_end+0x3332c72f>
    11bc:	00500593          	li	a1,5
    11c0:	02b52633          	mulhsu	a2,a0,a1
    11c4:	2ec6a223          	sw	a2,740(a3)

000011c8 <inst_203>:
    11c8:	33333537          	lui	a0,0x33333
    11cc:	33350513          	addi	a0,a0,819 # 33333333 <_end+0x3332c72f>
    11d0:	333335b7          	lui	a1,0x33333
    11d4:	33358593          	addi	a1,a1,819 # 33333333 <_end+0x3332c72f>
    11d8:	02b52633          	mulhsu	a2,a0,a1
    11dc:	2ec6a423          	sw	a2,744(a3)

000011e0 <inst_204>:
    11e0:	33333537          	lui	a0,0x33333
    11e4:	33350513          	addi	a0,a0,819 # 33333333 <_end+0x3332c72f>
    11e8:	666665b7          	lui	a1,0x66666
    11ec:	66658593          	addi	a1,a1,1638 # 66666666 <_end+0x6665fa62>
    11f0:	02b52633          	mulhsu	a2,a0,a1
    11f4:	2ec6a623          	sw	a2,748(a3)

000011f8 <inst_205>:
    11f8:	33333537          	lui	a0,0x33333
    11fc:	33350513          	addi	a0,a0,819 # 33333333 <_end+0x3332c72f>
    1200:	0000b5b7          	lui	a1,0xb
    1204:	50458593          	addi	a1,a1,1284 # b504 <_end+0x4900>
    1208:	02b52633          	mulhsu	a2,a0,a1
    120c:	2ec6a823          	sw	a2,752(a3)

00001210 <inst_206>:
    1210:	33333537          	lui	a0,0x33333
    1214:	33350513          	addi	a0,a0,819 # 33333333 <_end+0x3332c72f>
    1218:	00000593          	li	a1,0
    121c:	02b52633          	mulhsu	a2,a0,a1
    1220:	2ec6aa23          	sw	a2,756(a3)

00001224 <inst_207>:
    1224:	33333537          	lui	a0,0x33333
    1228:	33350513          	addi	a0,a0,819 # 33333333 <_end+0x3332c72f>
    122c:	000105b7          	lui	a1,0x10
    1230:	fff58593          	addi	a1,a1,-1 # ffff <_end+0x93fb>
    1234:	02b52633          	mulhsu	a2,a0,a1
    1238:	2ec6ac23          	sw	a2,760(a3)

0000123c <inst_208>:
    123c:	33333537          	lui	a0,0x33333
    1240:	33350513          	addi	a0,a0,819 # 33333333 <_end+0x3332c72f>
    1244:	00200593          	li	a1,2
    1248:	02b52633          	mulhsu	a2,a0,a1
    124c:	2ec6ae23          	sw	a2,764(a3)

00001250 <inst_209>:
    1250:	33333537          	lui	a0,0x33333
    1254:	33350513          	addi	a0,a0,819 # 33333333 <_end+0x3332c72f>
    1258:	555555b7          	lui	a1,0x55555
    125c:	55458593          	addi	a1,a1,1364 # 55555554 <_end+0x5554e950>
    1260:	02b52633          	mulhsu	a2,a0,a1
    1264:	30c6a023          	sw	a2,768(a3)

00001268 <inst_210>:
    1268:	33333537          	lui	a0,0x33333
    126c:	33350513          	addi	a0,a0,819 # 33333333 <_end+0x3332c72f>
    1270:	aaaab5b7          	lui	a1,0xaaaab
    1274:	aa958593          	addi	a1,a1,-1367 # aaaaaaa9 <_end+0xaaaa3ea5>
    1278:	02b52633          	mulhsu	a2,a0,a1
    127c:	30c6a223          	sw	a2,772(a3)

00001280 <inst_211>:
    1280:	33333537          	lui	a0,0x33333
    1284:	33350513          	addi	a0,a0,819 # 33333333 <_end+0x3332c72f>
    1288:	00400593          	li	a1,4
    128c:	02b52633          	mulhsu	a2,a0,a1
    1290:	30c6a423          	sw	a2,776(a3)

00001294 <inst_212>:
    1294:	33333537          	lui	a0,0x33333
    1298:	33350513          	addi	a0,a0,819 # 33333333 <_end+0x3332c72f>
    129c:	333335b7          	lui	a1,0x33333
    12a0:	33258593          	addi	a1,a1,818 # 33333332 <_end+0x3332c72e>
    12a4:	02b52633          	mulhsu	a2,a0,a1
    12a8:	30c6a623          	sw	a2,780(a3)

000012ac <inst_213>:
    12ac:	33333537          	lui	a0,0x33333
    12b0:	33350513          	addi	a0,a0,819 # 33333333 <_end+0x3332c72f>
    12b4:	666665b7          	lui	a1,0x66666
    12b8:	66558593          	addi	a1,a1,1637 # 66666665 <_end+0x6665fa61>
    12bc:	02b52633          	mulhsu	a2,a0,a1
    12c0:	30c6a823          	sw	a2,784(a3)

000012c4 <inst_214>:
    12c4:	33333537          	lui	a0,0x33333
    12c8:	33350513          	addi	a0,a0,819 # 33333333 <_end+0x3332c72f>
    12cc:	0000b5b7          	lui	a1,0xb
    12d0:	50358593          	addi	a1,a1,1283 # b503 <_end+0x48ff>
    12d4:	02b52633          	mulhsu	a2,a0,a1
    12d8:	30c6aa23          	sw	a2,788(a3)

000012dc <inst_215>:
    12dc:	33333537          	lui	a0,0x33333
    12e0:	33350513          	addi	a0,a0,819 # 33333333 <_end+0x3332c72f>
    12e4:	000105b7          	lui	a1,0x10
    12e8:	ffe58593          	addi	a1,a1,-2 # fffe <_end+0x93fa>
    12ec:	02b52633          	mulhsu	a2,a0,a1
    12f0:	30c6ac23          	sw	a2,792(a3)

000012f4 <inst_216>:
    12f4:	33333537          	lui	a0,0x33333
    12f8:	33350513          	addi	a0,a0,819 # 33333333 <_end+0x3332c72f>
    12fc:	555555b7          	lui	a1,0x55555
    1300:	55658593          	addi	a1,a1,1366 # 55555556 <_end+0x5554e952>
    1304:	02b52633          	mulhsu	a2,a0,a1
    1308:	30c6ae23          	sw	a2,796(a3)

0000130c <inst_217>:
    130c:	33333537          	lui	a0,0x33333
    1310:	33350513          	addi	a0,a0,819 # 33333333 <_end+0x3332c72f>
    1314:	aaaab5b7          	lui	a1,0xaaaab
    1318:	aab58593          	addi	a1,a1,-1365 # aaaaaaab <_end+0xaaaa3ea7>
    131c:	02b52633          	mulhsu	a2,a0,a1
    1320:	32c6a023          	sw	a2,800(a3)

00001324 <inst_218>:
    1324:	33333537          	lui	a0,0x33333
    1328:	33350513          	addi	a0,a0,819 # 33333333 <_end+0x3332c72f>
    132c:	00600593          	li	a1,6
    1330:	02b52633          	mulhsu	a2,a0,a1
    1334:	32c6a223          	sw	a2,804(a3)

00001338 <inst_219>:
    1338:	33333537          	lui	a0,0x33333
    133c:	33350513          	addi	a0,a0,819 # 33333333 <_end+0x3332c72f>
    1340:	333335b7          	lui	a1,0x33333
    1344:	33458593          	addi	a1,a1,820 # 33333334 <_end+0x3332c730>
    1348:	02b52633          	mulhsu	a2,a0,a1
    134c:	32c6a423          	sw	a2,808(a3)

00001350 <inst_220>:
    1350:	33333537          	lui	a0,0x33333
    1354:	33350513          	addi	a0,a0,819 # 33333333 <_end+0x3332c72f>
    1358:	666665b7          	lui	a1,0x66666
    135c:	66758593          	addi	a1,a1,1639 # 66666667 <_end+0x6665fa63>
    1360:	02b52633          	mulhsu	a2,a0,a1
    1364:	32c6a623          	sw	a2,812(a3)

00001368 <inst_221>:
    1368:	33333537          	lui	a0,0x33333
    136c:	33350513          	addi	a0,a0,819 # 33333333 <_end+0x3332c72f>
    1370:	0000b5b7          	lui	a1,0xb
    1374:	50558593          	addi	a1,a1,1285 # b505 <_end+0x4901>
    1378:	02b52633          	mulhsu	a2,a0,a1
    137c:	32c6a823          	sw	a2,816(a3)

00001380 <inst_222>:
    1380:	33333537          	lui	a0,0x33333
    1384:	33350513          	addi	a0,a0,819 # 33333333 <_end+0x3332c72f>
    1388:	00100593          	li	a1,1
    138c:	02b52633          	mulhsu	a2,a0,a1
    1390:	32c6aa23          	sw	a2,820(a3)

00001394 <inst_223>:
    1394:	33333537          	lui	a0,0x33333
    1398:	33350513          	addi	a0,a0,819 # 33333333 <_end+0x3332c72f>
    139c:	000105b7          	lui	a1,0x10
    13a0:	02b52633          	mulhsu	a2,a0,a1
    13a4:	32c6ac23          	sw	a2,824(a3)

000013a8 <inst_224>:
    13a8:	66666537          	lui	a0,0x66666
    13ac:	66650513          	addi	a0,a0,1638 # 66666666 <_end+0x6665fa62>
    13b0:	00300593          	li	a1,3
    13b4:	02b52633          	mulhsu	a2,a0,a1
    13b8:	32c6ae23          	sw	a2,828(a3)

000013bc <inst_225>:
    13bc:	66666537          	lui	a0,0x66666
    13c0:	66650513          	addi	a0,a0,1638 # 66666666 <_end+0x6665fa62>
    13c4:	555555b7          	lui	a1,0x55555
    13c8:	55558593          	addi	a1,a1,1365 # 55555555 <_end+0x5554e951>
    13cc:	02b52633          	mulhsu	a2,a0,a1
    13d0:	34c6a023          	sw	a2,832(a3)

000013d4 <inst_226>:
    13d4:	66666537          	lui	a0,0x66666
    13d8:	66650513          	addi	a0,a0,1638 # 66666666 <_end+0x6665fa62>
    13dc:	aaaab5b7          	lui	a1,0xaaaab
    13e0:	aaa58593          	addi	a1,a1,-1366 # aaaaaaaa <_end+0xaaaa3ea6>
    13e4:	02b52633          	mulhsu	a2,a0,a1
    13e8:	34c6a223          	sw	a2,836(a3)

000013ec <inst_227>:
    13ec:	66666537          	lui	a0,0x66666
    13f0:	66650513          	addi	a0,a0,1638 # 66666666 <_end+0x6665fa62>
    13f4:	00500593          	li	a1,5
    13f8:	02b52633          	mulhsu	a2,a0,a1
    13fc:	34c6a423          	sw	a2,840(a3)

00001400 <inst_228>:
    1400:	66666537          	lui	a0,0x66666
    1404:	66650513          	addi	a0,a0,1638 # 66666666 <_end+0x6665fa62>
    1408:	333335b7          	lui	a1,0x33333
    140c:	33358593          	addi	a1,a1,819 # 33333333 <_end+0x3332c72f>
    1410:	02b52633          	mulhsu	a2,a0,a1
    1414:	34c6a623          	sw	a2,844(a3)

00001418 <inst_229>:
    1418:	66666537          	lui	a0,0x66666
    141c:	66650513          	addi	a0,a0,1638 # 66666666 <_end+0x6665fa62>
    1420:	666665b7          	lui	a1,0x66666
    1424:	66658593          	addi	a1,a1,1638 # 66666666 <_end+0x6665fa62>
    1428:	02b52633          	mulhsu	a2,a0,a1
    142c:	34c6a823          	sw	a2,848(a3)

00001430 <inst_230>:
    1430:	66666537          	lui	a0,0x66666
    1434:	66650513          	addi	a0,a0,1638 # 66666666 <_end+0x6665fa62>
    1438:	0000b5b7          	lui	a1,0xb
    143c:	50458593          	addi	a1,a1,1284 # b504 <_end+0x4900>
    1440:	02b52633          	mulhsu	a2,a0,a1
    1444:	34c6aa23          	sw	a2,852(a3)

00001448 <inst_231>:
    1448:	66666537          	lui	a0,0x66666
    144c:	66650513          	addi	a0,a0,1638 # 66666666 <_end+0x6665fa62>
    1450:	00000593          	li	a1,0
    1454:	02b52633          	mulhsu	a2,a0,a1
    1458:	34c6ac23          	sw	a2,856(a3)

0000145c <inst_232>:
    145c:	66666537          	lui	a0,0x66666
    1460:	66650513          	addi	a0,a0,1638 # 66666666 <_end+0x6665fa62>
    1464:	000105b7          	lui	a1,0x10
    1468:	fff58593          	addi	a1,a1,-1 # ffff <_end+0x93fb>
    146c:	02b52633          	mulhsu	a2,a0,a1
    1470:	34c6ae23          	sw	a2,860(a3)

00001474 <inst_233>:
    1474:	66666537          	lui	a0,0x66666
    1478:	66650513          	addi	a0,a0,1638 # 66666666 <_end+0x6665fa62>
    147c:	00200593          	li	a1,2
    1480:	02b52633          	mulhsu	a2,a0,a1
    1484:	36c6a023          	sw	a2,864(a3)

00001488 <inst_234>:
    1488:	66666537          	lui	a0,0x66666
    148c:	66650513          	addi	a0,a0,1638 # 66666666 <_end+0x6665fa62>
    1490:	555555b7          	lui	a1,0x55555
    1494:	55458593          	addi	a1,a1,1364 # 55555554 <_end+0x5554e950>
    1498:	02b52633          	mulhsu	a2,a0,a1
    149c:	36c6a223          	sw	a2,868(a3)

000014a0 <inst_235>:
    14a0:	66666537          	lui	a0,0x66666
    14a4:	66650513          	addi	a0,a0,1638 # 66666666 <_end+0x6665fa62>
    14a8:	aaaab5b7          	lui	a1,0xaaaab
    14ac:	aa958593          	addi	a1,a1,-1367 # aaaaaaa9 <_end+0xaaaa3ea5>
    14b0:	02b52633          	mulhsu	a2,a0,a1
    14b4:	36c6a423          	sw	a2,872(a3)

000014b8 <inst_236>:
    14b8:	66666537          	lui	a0,0x66666
    14bc:	66650513          	addi	a0,a0,1638 # 66666666 <_end+0x6665fa62>
    14c0:	00400593          	li	a1,4
    14c4:	02b52633          	mulhsu	a2,a0,a1
    14c8:	36c6a623          	sw	a2,876(a3)

000014cc <inst_237>:
    14cc:	66666537          	lui	a0,0x66666
    14d0:	66650513          	addi	a0,a0,1638 # 66666666 <_end+0x6665fa62>
    14d4:	333335b7          	lui	a1,0x33333
    14d8:	33258593          	addi	a1,a1,818 # 33333332 <_end+0x3332c72e>
    14dc:	02b52633          	mulhsu	a2,a0,a1
    14e0:	36c6a823          	sw	a2,880(a3)

000014e4 <inst_238>:
    14e4:	66666537          	lui	a0,0x66666
    14e8:	66650513          	addi	a0,a0,1638 # 66666666 <_end+0x6665fa62>
    14ec:	666665b7          	lui	a1,0x66666
    14f0:	66558593          	addi	a1,a1,1637 # 66666665 <_end+0x6665fa61>
    14f4:	02b52633          	mulhsu	a2,a0,a1
    14f8:	36c6aa23          	sw	a2,884(a3)

000014fc <inst_239>:
    14fc:	66666537          	lui	a0,0x66666
    1500:	66650513          	addi	a0,a0,1638 # 66666666 <_end+0x6665fa62>
    1504:	0000b5b7          	lui	a1,0xb
    1508:	50358593          	addi	a1,a1,1283 # b503 <_end+0x48ff>
    150c:	02b52633          	mulhsu	a2,a0,a1
    1510:	36c6ac23          	sw	a2,888(a3)

00001514 <inst_240>:
    1514:	66666537          	lui	a0,0x66666
    1518:	66650513          	addi	a0,a0,1638 # 66666666 <_end+0x6665fa62>
    151c:	000105b7          	lui	a1,0x10
    1520:	ffe58593          	addi	a1,a1,-2 # fffe <_end+0x93fa>
    1524:	02b52633          	mulhsu	a2,a0,a1
    1528:	36c6ae23          	sw	a2,892(a3)

0000152c <inst_241>:
    152c:	66666537          	lui	a0,0x66666
    1530:	66650513          	addi	a0,a0,1638 # 66666666 <_end+0x6665fa62>
    1534:	555555b7          	lui	a1,0x55555
    1538:	55658593          	addi	a1,a1,1366 # 55555556 <_end+0x5554e952>
    153c:	02b52633          	mulhsu	a2,a0,a1
    1540:	38c6a023          	sw	a2,896(a3)

00001544 <inst_242>:
    1544:	66666537          	lui	a0,0x66666
    1548:	66650513          	addi	a0,a0,1638 # 66666666 <_end+0x6665fa62>
    154c:	aaaab5b7          	lui	a1,0xaaaab
    1550:	aab58593          	addi	a1,a1,-1365 # aaaaaaab <_end+0xaaaa3ea7>
    1554:	02b52633          	mulhsu	a2,a0,a1
    1558:	38c6a223          	sw	a2,900(a3)

0000155c <inst_243>:
    155c:	66666537          	lui	a0,0x66666
    1560:	66650513          	addi	a0,a0,1638 # 66666666 <_end+0x6665fa62>
    1564:	00600593          	li	a1,6
    1568:	02b52633          	mulhsu	a2,a0,a1
    156c:	38c6a423          	sw	a2,904(a3)

00001570 <inst_244>:
    1570:	66666537          	lui	a0,0x66666
    1574:	66650513          	addi	a0,a0,1638 # 66666666 <_end+0x6665fa62>
    1578:	333335b7          	lui	a1,0x33333
    157c:	33458593          	addi	a1,a1,820 # 33333334 <_end+0x3332c730>
    1580:	02b52633          	mulhsu	a2,a0,a1
    1584:	38c6a623          	sw	a2,908(a3)

00001588 <inst_245>:
    1588:	66666537          	lui	a0,0x66666
    158c:	66650513          	addi	a0,a0,1638 # 66666666 <_end+0x6665fa62>
    1590:	666665b7          	lui	a1,0x66666
    1594:	66758593          	addi	a1,a1,1639 # 66666667 <_end+0x6665fa63>
    1598:	02b52633          	mulhsu	a2,a0,a1
    159c:	38c6a823          	sw	a2,912(a3)

000015a0 <inst_246>:
    15a0:	66666537          	lui	a0,0x66666
    15a4:	66650513          	addi	a0,a0,1638 # 66666666 <_end+0x6665fa62>
    15a8:	0000b5b7          	lui	a1,0xb
    15ac:	50558593          	addi	a1,a1,1285 # b505 <_end+0x4901>
    15b0:	02b52633          	mulhsu	a2,a0,a1
    15b4:	38c6aa23          	sw	a2,916(a3)

000015b8 <inst_247>:
    15b8:	66666537          	lui	a0,0x66666
    15bc:	66650513          	addi	a0,a0,1638 # 66666666 <_end+0x6665fa62>
    15c0:	00100593          	li	a1,1
    15c4:	02b52633          	mulhsu	a2,a0,a1
    15c8:	38c6ac23          	sw	a2,920(a3)

000015cc <inst_248>:
    15cc:	66666537          	lui	a0,0x66666
    15d0:	66650513          	addi	a0,a0,1638 # 66666666 <_end+0x6665fa62>
    15d4:	000105b7          	lui	a1,0x10
    15d8:	02b52633          	mulhsu	a2,a0,a1
    15dc:	38c6ae23          	sw	a2,924(a3)

000015e0 <inst_249>:
    15e0:	ffff5537          	lui	a0,0xffff5
    15e4:	afc50513          	addi	a0,a0,-1284 # ffff4afc <_end+0xfffedef8>
    15e8:	00300593          	li	a1,3
    15ec:	02b52633          	mulhsu	a2,a0,a1
    15f0:	3ac6a023          	sw	a2,928(a3)

000015f4 <inst_250>:
    15f4:	ffff5537          	lui	a0,0xffff5
    15f8:	afc50513          	addi	a0,a0,-1284 # ffff4afc <_end+0xfffedef8>
    15fc:	555555b7          	lui	a1,0x55555
    1600:	55558593          	addi	a1,a1,1365 # 55555555 <_end+0x5554e951>
    1604:	02b52633          	mulhsu	a2,a0,a1
    1608:	3ac6a223          	sw	a2,932(a3)

0000160c <inst_251>:
    160c:	ffff5537          	lui	a0,0xffff5
    1610:	afc50513          	addi	a0,a0,-1284 # ffff4afc <_end+0xfffedef8>
    1614:	aaaab5b7          	lui	a1,0xaaaab
    1618:	aaa58593          	addi	a1,a1,-1366 # aaaaaaaa <_end+0xaaaa3ea6>
    161c:	02b52633          	mulhsu	a2,a0,a1
    1620:	3ac6a423          	sw	a2,936(a3)

00001624 <inst_252>:
    1624:	ffff5537          	lui	a0,0xffff5
    1628:	afc50513          	addi	a0,a0,-1284 # ffff4afc <_end+0xfffedef8>
    162c:	00500593          	li	a1,5
    1630:	02b52633          	mulhsu	a2,a0,a1
    1634:	3ac6a623          	sw	a2,940(a3)

00001638 <inst_253>:
    1638:	ffff5537          	lui	a0,0xffff5
    163c:	afc50513          	addi	a0,a0,-1284 # ffff4afc <_end+0xfffedef8>
    1640:	333335b7          	lui	a1,0x33333
    1644:	33358593          	addi	a1,a1,819 # 33333333 <_end+0x3332c72f>
    1648:	02b52633          	mulhsu	a2,a0,a1
    164c:	3ac6a823          	sw	a2,944(a3)

00001650 <inst_254>:
    1650:	ffff5537          	lui	a0,0xffff5
    1654:	afc50513          	addi	a0,a0,-1284 # ffff4afc <_end+0xfffedef8>
    1658:	666665b7          	lui	a1,0x66666
    165c:	66658593          	addi	a1,a1,1638 # 66666666 <_end+0x6665fa62>
    1660:	02b52633          	mulhsu	a2,a0,a1
    1664:	3ac6aa23          	sw	a2,948(a3)

00001668 <inst_255>:
    1668:	ffff5537          	lui	a0,0xffff5
    166c:	afc50513          	addi	a0,a0,-1284 # ffff4afc <_end+0xfffedef8>
    1670:	0000b5b7          	lui	a1,0xb
    1674:	50458593          	addi	a1,a1,1284 # b504 <_end+0x4900>
    1678:	02b52633          	mulhsu	a2,a0,a1
    167c:	3ac6ac23          	sw	a2,952(a3)

00001680 <inst_256>:
    1680:	ffff5537          	lui	a0,0xffff5
    1684:	afc50513          	addi	a0,a0,-1284 # ffff4afc <_end+0xfffedef8>
    1688:	00000593          	li	a1,0
    168c:	02b52633          	mulhsu	a2,a0,a1
    1690:	3ac6ae23          	sw	a2,956(a3)

00001694 <inst_257>:
    1694:	ffff5537          	lui	a0,0xffff5
    1698:	afc50513          	addi	a0,a0,-1284 # ffff4afc <_end+0xfffedef8>
    169c:	000105b7          	lui	a1,0x10
    16a0:	fff58593          	addi	a1,a1,-1 # ffff <_end+0x93fb>
    16a4:	02b52633          	mulhsu	a2,a0,a1
    16a8:	3cc6a023          	sw	a2,960(a3)

000016ac <inst_258>:
    16ac:	ffff5537          	lui	a0,0xffff5
    16b0:	afc50513          	addi	a0,a0,-1284 # ffff4afc <_end+0xfffedef8>
    16b4:	00200593          	li	a1,2
    16b8:	02b52633          	mulhsu	a2,a0,a1
    16bc:	3cc6a223          	sw	a2,964(a3)

000016c0 <inst_259>:
    16c0:	ffff5537          	lui	a0,0xffff5
    16c4:	afc50513          	addi	a0,a0,-1284 # ffff4afc <_end+0xfffedef8>
    16c8:	555555b7          	lui	a1,0x55555
    16cc:	55458593          	addi	a1,a1,1364 # 55555554 <_end+0x5554e950>
    16d0:	02b52633          	mulhsu	a2,a0,a1
    16d4:	3cc6a423          	sw	a2,968(a3)

000016d8 <inst_260>:
    16d8:	ffff5537          	lui	a0,0xffff5
    16dc:	afc50513          	addi	a0,a0,-1284 # ffff4afc <_end+0xfffedef8>
    16e0:	aaaab5b7          	lui	a1,0xaaaab
    16e4:	aa958593          	addi	a1,a1,-1367 # aaaaaaa9 <_end+0xaaaa3ea5>
    16e8:	02b52633          	mulhsu	a2,a0,a1
    16ec:	3cc6a623          	sw	a2,972(a3)

000016f0 <inst_261>:
    16f0:	ffff5537          	lui	a0,0xffff5
    16f4:	afc50513          	addi	a0,a0,-1284 # ffff4afc <_end+0xfffedef8>
    16f8:	00400593          	li	a1,4
    16fc:	02b52633          	mulhsu	a2,a0,a1
    1700:	3cc6a823          	sw	a2,976(a3)

00001704 <inst_262>:
    1704:	ffff5537          	lui	a0,0xffff5
    1708:	afc50513          	addi	a0,a0,-1284 # ffff4afc <_end+0xfffedef8>
    170c:	333335b7          	lui	a1,0x33333
    1710:	33258593          	addi	a1,a1,818 # 33333332 <_end+0x3332c72e>
    1714:	02b52633          	mulhsu	a2,a0,a1
    1718:	3cc6aa23          	sw	a2,980(a3)

0000171c <inst_263>:
    171c:	ffff5537          	lui	a0,0xffff5
    1720:	afc50513          	addi	a0,a0,-1284 # ffff4afc <_end+0xfffedef8>
    1724:	666665b7          	lui	a1,0x66666
    1728:	66558593          	addi	a1,a1,1637 # 66666665 <_end+0x6665fa61>
    172c:	02b52633          	mulhsu	a2,a0,a1
    1730:	3cc6ac23          	sw	a2,984(a3)

00001734 <inst_264>:
    1734:	ffff5537          	lui	a0,0xffff5
    1738:	afc50513          	addi	a0,a0,-1284 # ffff4afc <_end+0xfffedef8>
    173c:	0000b5b7          	lui	a1,0xb
    1740:	50358593          	addi	a1,a1,1283 # b503 <_end+0x48ff>
    1744:	02b52633          	mulhsu	a2,a0,a1
    1748:	3cc6ae23          	sw	a2,988(a3)

0000174c <inst_265>:
    174c:	ffff5537          	lui	a0,0xffff5
    1750:	afc50513          	addi	a0,a0,-1284 # ffff4afc <_end+0xfffedef8>
    1754:	000105b7          	lui	a1,0x10
    1758:	ffe58593          	addi	a1,a1,-2 # fffe <_end+0x93fa>
    175c:	02b52633          	mulhsu	a2,a0,a1
    1760:	3ec6a023          	sw	a2,992(a3)

00001764 <inst_266>:
    1764:	ffff5537          	lui	a0,0xffff5
    1768:	afc50513          	addi	a0,a0,-1284 # ffff4afc <_end+0xfffedef8>
    176c:	555555b7          	lui	a1,0x55555
    1770:	55658593          	addi	a1,a1,1366 # 55555556 <_end+0x5554e952>
    1774:	02b52633          	mulhsu	a2,a0,a1
    1778:	3ec6a223          	sw	a2,996(a3)

0000177c <inst_267>:
    177c:	ffff5537          	lui	a0,0xffff5
    1780:	afc50513          	addi	a0,a0,-1284 # ffff4afc <_end+0xfffedef8>
    1784:	aaaab5b7          	lui	a1,0xaaaab
    1788:	aab58593          	addi	a1,a1,-1365 # aaaaaaab <_end+0xaaaa3ea7>
    178c:	02b52633          	mulhsu	a2,a0,a1
    1790:	3ec6a423          	sw	a2,1000(a3)

00001794 <inst_268>:
    1794:	ffff5537          	lui	a0,0xffff5
    1798:	afc50513          	addi	a0,a0,-1284 # ffff4afc <_end+0xfffedef8>
    179c:	00600593          	li	a1,6
    17a0:	02b52633          	mulhsu	a2,a0,a1
    17a4:	3ec6a623          	sw	a2,1004(a3)

000017a8 <inst_269>:
    17a8:	ffff5537          	lui	a0,0xffff5
    17ac:	afc50513          	addi	a0,a0,-1284 # ffff4afc <_end+0xfffedef8>
    17b0:	333335b7          	lui	a1,0x33333
    17b4:	33458593          	addi	a1,a1,820 # 33333334 <_end+0x3332c730>
    17b8:	02b52633          	mulhsu	a2,a0,a1
    17bc:	3ec6a823          	sw	a2,1008(a3)

000017c0 <inst_270>:
    17c0:	ffff5537          	lui	a0,0xffff5
    17c4:	afc50513          	addi	a0,a0,-1284 # ffff4afc <_end+0xfffedef8>
    17c8:	666665b7          	lui	a1,0x66666
    17cc:	66758593          	addi	a1,a1,1639 # 66666667 <_end+0x6665fa63>
    17d0:	02b52633          	mulhsu	a2,a0,a1
    17d4:	3ec6aa23          	sw	a2,1012(a3)

000017d8 <inst_271>:
    17d8:	ffff5537          	lui	a0,0xffff5
    17dc:	afc50513          	addi	a0,a0,-1284 # ffff4afc <_end+0xfffedef8>
    17e0:	0000b5b7          	lui	a1,0xb
    17e4:	50558593          	addi	a1,a1,1285 # b505 <_end+0x4901>
    17e8:	02b52633          	mulhsu	a2,a0,a1
    17ec:	3ec6ac23          	sw	a2,1016(a3)

000017f0 <inst_272>:
    17f0:	ffff5537          	lui	a0,0xffff5
    17f4:	afc50513          	addi	a0,a0,-1284 # ffff4afc <_end+0xfffedef8>
    17f8:	00100593          	li	a1,1
    17fc:	02b52633          	mulhsu	a2,a0,a1
    1800:	3ec6ae23          	sw	a2,1020(a3)

00001804 <inst_273>:
    1804:	ffff5537          	lui	a0,0xffff5
    1808:	afc50513          	addi	a0,a0,-1284 # ffff4afc <_end+0xfffedef8>
    180c:	000105b7          	lui	a1,0x10
    1810:	02b52633          	mulhsu	a2,a0,a1
    1814:	40c6a023          	sw	a2,1024(a3)

00001818 <inst_274>:
    1818:	0000b537          	lui	a0,0xb
    181c:	50450513          	addi	a0,a0,1284 # b504 <_end+0x4900>
    1820:	00300593          	li	a1,3
    1824:	02b52633          	mulhsu	a2,a0,a1
    1828:	40c6a223          	sw	a2,1028(a3)

0000182c <inst_275>:
    182c:	0000b537          	lui	a0,0xb
    1830:	50450513          	addi	a0,a0,1284 # b504 <_end+0x4900>
    1834:	555555b7          	lui	a1,0x55555
    1838:	55558593          	addi	a1,a1,1365 # 55555555 <_end+0x5554e951>
    183c:	02b52633          	mulhsu	a2,a0,a1
    1840:	40c6a423          	sw	a2,1032(a3)

00001844 <inst_276>:
    1844:	0000b537          	lui	a0,0xb
    1848:	50450513          	addi	a0,a0,1284 # b504 <_end+0x4900>
    184c:	aaaab5b7          	lui	a1,0xaaaab
    1850:	aaa58593          	addi	a1,a1,-1366 # aaaaaaaa <_end+0xaaaa3ea6>
    1854:	02b52633          	mulhsu	a2,a0,a1
    1858:	40c6a623          	sw	a2,1036(a3)

0000185c <inst_277>:
    185c:	0000b537          	lui	a0,0xb
    1860:	50450513          	addi	a0,a0,1284 # b504 <_end+0x4900>
    1864:	00500593          	li	a1,5
    1868:	02b52633          	mulhsu	a2,a0,a1
    186c:	40c6a823          	sw	a2,1040(a3)

00001870 <inst_278>:
    1870:	0000b537          	lui	a0,0xb
    1874:	50450513          	addi	a0,a0,1284 # b504 <_end+0x4900>
    1878:	333335b7          	lui	a1,0x33333
    187c:	33358593          	addi	a1,a1,819 # 33333333 <_end+0x3332c72f>
    1880:	02b52633          	mulhsu	a2,a0,a1
    1884:	40c6aa23          	sw	a2,1044(a3)

00001888 <inst_279>:
    1888:	0000b537          	lui	a0,0xb
    188c:	50450513          	addi	a0,a0,1284 # b504 <_end+0x4900>
    1890:	666665b7          	lui	a1,0x66666
    1894:	66658593          	addi	a1,a1,1638 # 66666666 <_end+0x6665fa62>
    1898:	02b52633          	mulhsu	a2,a0,a1
    189c:	40c6ac23          	sw	a2,1048(a3)

000018a0 <inst_280>:
    18a0:	0000b537          	lui	a0,0xb
    18a4:	50450513          	addi	a0,a0,1284 # b504 <_end+0x4900>
    18a8:	0000b5b7          	lui	a1,0xb
    18ac:	50458593          	addi	a1,a1,1284 # b504 <_end+0x4900>
    18b0:	02b52633          	mulhsu	a2,a0,a1
    18b4:	40c6ae23          	sw	a2,1052(a3)

000018b8 <inst_281>:
    18b8:	0000b537          	lui	a0,0xb
    18bc:	50450513          	addi	a0,a0,1284 # b504 <_end+0x4900>
    18c0:	00000593          	li	a1,0
    18c4:	02b52633          	mulhsu	a2,a0,a1
    18c8:	42c6a023          	sw	a2,1056(a3)

000018cc <inst_282>:
    18cc:	0000b537          	lui	a0,0xb
    18d0:	50450513          	addi	a0,a0,1284 # b504 <_end+0x4900>
    18d4:	000105b7          	lui	a1,0x10
    18d8:	fff58593          	addi	a1,a1,-1 # ffff <_end+0x93fb>
    18dc:	02b52633          	mulhsu	a2,a0,a1
    18e0:	42c6a223          	sw	a2,1060(a3)

000018e4 <inst_283>:
    18e4:	0000b537          	lui	a0,0xb
    18e8:	50450513          	addi	a0,a0,1284 # b504 <_end+0x4900>
    18ec:	00200593          	li	a1,2
    18f0:	02b52633          	mulhsu	a2,a0,a1
    18f4:	42c6a423          	sw	a2,1064(a3)

000018f8 <inst_284>:
    18f8:	0000b537          	lui	a0,0xb
    18fc:	50450513          	addi	a0,a0,1284 # b504 <_end+0x4900>
    1900:	555555b7          	lui	a1,0x55555
    1904:	55458593          	addi	a1,a1,1364 # 55555554 <_end+0x5554e950>
    1908:	02b52633          	mulhsu	a2,a0,a1
    190c:	42c6a623          	sw	a2,1068(a3)

00001910 <inst_285>:
    1910:	0000b537          	lui	a0,0xb
    1914:	50450513          	addi	a0,a0,1284 # b504 <_end+0x4900>
    1918:	aaaab5b7          	lui	a1,0xaaaab
    191c:	aa958593          	addi	a1,a1,-1367 # aaaaaaa9 <_end+0xaaaa3ea5>
    1920:	02b52633          	mulhsu	a2,a0,a1
    1924:	42c6a823          	sw	a2,1072(a3)

00001928 <inst_286>:
    1928:	0000b537          	lui	a0,0xb
    192c:	50450513          	addi	a0,a0,1284 # b504 <_end+0x4900>
    1930:	00400593          	li	a1,4
    1934:	02b52633          	mulhsu	a2,a0,a1
    1938:	42c6aa23          	sw	a2,1076(a3)

0000193c <inst_287>:
    193c:	0000b537          	lui	a0,0xb
    1940:	50450513          	addi	a0,a0,1284 # b504 <_end+0x4900>
    1944:	333335b7          	lui	a1,0x33333
    1948:	33258593          	addi	a1,a1,818 # 33333332 <_end+0x3332c72e>
    194c:	02b52633          	mulhsu	a2,a0,a1
    1950:	42c6ac23          	sw	a2,1080(a3)

00001954 <inst_288>:
    1954:	0000b537          	lui	a0,0xb
    1958:	50450513          	addi	a0,a0,1284 # b504 <_end+0x4900>
    195c:	666665b7          	lui	a1,0x66666
    1960:	66558593          	addi	a1,a1,1637 # 66666665 <_end+0x6665fa61>
    1964:	02b52633          	mulhsu	a2,a0,a1
    1968:	42c6ae23          	sw	a2,1084(a3)

0000196c <inst_289>:
    196c:	0000b537          	lui	a0,0xb
    1970:	50450513          	addi	a0,a0,1284 # b504 <_end+0x4900>
    1974:	0000b5b7          	lui	a1,0xb
    1978:	50358593          	addi	a1,a1,1283 # b503 <_end+0x48ff>
    197c:	02b52633          	mulhsu	a2,a0,a1
    1980:	44c6a023          	sw	a2,1088(a3)

00001984 <inst_290>:
    1984:	0000b537          	lui	a0,0xb
    1988:	50450513          	addi	a0,a0,1284 # b504 <_end+0x4900>
    198c:	000105b7          	lui	a1,0x10
    1990:	ffe58593          	addi	a1,a1,-2 # fffe <_end+0x93fa>
    1994:	02b52633          	mulhsu	a2,a0,a1
    1998:	44c6a223          	sw	a2,1092(a3)

0000199c <inst_291>:
    199c:	0000b537          	lui	a0,0xb
    19a0:	50450513          	addi	a0,a0,1284 # b504 <_end+0x4900>
    19a4:	555555b7          	lui	a1,0x55555
    19a8:	55658593          	addi	a1,a1,1366 # 55555556 <_end+0x5554e952>
    19ac:	02b52633          	mulhsu	a2,a0,a1
    19b0:	44c6a423          	sw	a2,1096(a3)

000019b4 <inst_292>:
    19b4:	0000b537          	lui	a0,0xb
    19b8:	50450513          	addi	a0,a0,1284 # b504 <_end+0x4900>
    19bc:	aaaab5b7          	lui	a1,0xaaaab
    19c0:	aab58593          	addi	a1,a1,-1365 # aaaaaaab <_end+0xaaaa3ea7>
    19c4:	02b52633          	mulhsu	a2,a0,a1
    19c8:	44c6a623          	sw	a2,1100(a3)

000019cc <inst_293>:
    19cc:	0000b537          	lui	a0,0xb
    19d0:	50450513          	addi	a0,a0,1284 # b504 <_end+0x4900>
    19d4:	00600593          	li	a1,6
    19d8:	02b52633          	mulhsu	a2,a0,a1
    19dc:	44c6a823          	sw	a2,1104(a3)

000019e0 <inst_294>:
    19e0:	0000b537          	lui	a0,0xb
    19e4:	50450513          	addi	a0,a0,1284 # b504 <_end+0x4900>
    19e8:	333335b7          	lui	a1,0x33333
    19ec:	33458593          	addi	a1,a1,820 # 33333334 <_end+0x3332c730>
    19f0:	02b52633          	mulhsu	a2,a0,a1
    19f4:	44c6aa23          	sw	a2,1108(a3)

000019f8 <inst_295>:
    19f8:	0000b537          	lui	a0,0xb
    19fc:	50450513          	addi	a0,a0,1284 # b504 <_end+0x4900>
    1a00:	666665b7          	lui	a1,0x66666
    1a04:	66758593          	addi	a1,a1,1639 # 66666667 <_end+0x6665fa63>
    1a08:	02b52633          	mulhsu	a2,a0,a1
    1a0c:	44c6ac23          	sw	a2,1112(a3)

00001a10 <inst_296>:
    1a10:	0000b537          	lui	a0,0xb
    1a14:	50450513          	addi	a0,a0,1284 # b504 <_end+0x4900>
    1a18:	0000b5b7          	lui	a1,0xb
    1a1c:	50558593          	addi	a1,a1,1285 # b505 <_end+0x4901>
    1a20:	02b52633          	mulhsu	a2,a0,a1
    1a24:	44c6ae23          	sw	a2,1116(a3)

00001a28 <inst_297>:
    1a28:	0000b537          	lui	a0,0xb
    1a2c:	50450513          	addi	a0,a0,1284 # b504 <_end+0x4900>
    1a30:	00100593          	li	a1,1
    1a34:	02b52633          	mulhsu	a2,a0,a1
    1a38:	46c6a023          	sw	a2,1120(a3)

00001a3c <inst_298>:
    1a3c:	0000b537          	lui	a0,0xb
    1a40:	50450513          	addi	a0,a0,1284 # b504 <_end+0x4900>
    1a44:	000105b7          	lui	a1,0x10
    1a48:	02b52633          	mulhsu	a2,a0,a1
    1a4c:	46c6a223          	sw	a2,1124(a3)

00001a50 <inst_299>:
    1a50:	00200513          	li	a0,2
    1a54:	00300593          	li	a1,3
    1a58:	02b52633          	mulhsu	a2,a0,a1
    1a5c:	46c6a423          	sw	a2,1128(a3)

00001a60 <inst_300>:
    1a60:	00200513          	li	a0,2
    1a64:	555555b7          	lui	a1,0x55555
    1a68:	55558593          	addi	a1,a1,1365 # 55555555 <_end+0x5554e951>
    1a6c:	02b52633          	mulhsu	a2,a0,a1
    1a70:	46c6a623          	sw	a2,1132(a3)

00001a74 <inst_301>:
    1a74:	00200513          	li	a0,2
    1a78:	aaaab5b7          	lui	a1,0xaaaab
    1a7c:	aaa58593          	addi	a1,a1,-1366 # aaaaaaaa <_end+0xaaaa3ea6>
    1a80:	02b52633          	mulhsu	a2,a0,a1
    1a84:	46c6a823          	sw	a2,1136(a3)

00001a88 <inst_302>:
    1a88:	00200513          	li	a0,2
    1a8c:	00500593          	li	a1,5
    1a90:	02b52633          	mulhsu	a2,a0,a1
    1a94:	46c6aa23          	sw	a2,1140(a3)

00001a98 <inst_303>:
    1a98:	00200513          	li	a0,2
    1a9c:	333335b7          	lui	a1,0x33333
    1aa0:	33358593          	addi	a1,a1,819 # 33333333 <_end+0x3332c72f>
    1aa4:	02b52633          	mulhsu	a2,a0,a1
    1aa8:	46c6ac23          	sw	a2,1144(a3)

00001aac <inst_304>:
    1aac:	00200513          	li	a0,2
    1ab0:	666665b7          	lui	a1,0x66666
    1ab4:	66658593          	addi	a1,a1,1638 # 66666666 <_end+0x6665fa62>
    1ab8:	02b52633          	mulhsu	a2,a0,a1
    1abc:	46c6ae23          	sw	a2,1148(a3)

00001ac0 <inst_305>:
    1ac0:	00200513          	li	a0,2
    1ac4:	0000b5b7          	lui	a1,0xb
    1ac8:	50458593          	addi	a1,a1,1284 # b504 <_end+0x4900>
    1acc:	02b52633          	mulhsu	a2,a0,a1
    1ad0:	48c6a023          	sw	a2,1152(a3)

00001ad4 <inst_306>:
    1ad4:	00200513          	li	a0,2
    1ad8:	00000593          	li	a1,0
    1adc:	02b52633          	mulhsu	a2,a0,a1
    1ae0:	48c6a223          	sw	a2,1156(a3)

00001ae4 <inst_307>:
    1ae4:	00200513          	li	a0,2
    1ae8:	000105b7          	lui	a1,0x10
    1aec:	fff58593          	addi	a1,a1,-1 # ffff <_end+0x93fb>
    1af0:	02b52633          	mulhsu	a2,a0,a1
    1af4:	48c6a423          	sw	a2,1160(a3)

00001af8 <inst_308>:
    1af8:	00200513          	li	a0,2
    1afc:	00200593          	li	a1,2
    1b00:	02b52633          	mulhsu	a2,a0,a1
    1b04:	48c6a623          	sw	a2,1164(a3)

00001b08 <inst_309>:
    1b08:	00200513          	li	a0,2
    1b0c:	555555b7          	lui	a1,0x55555
    1b10:	55458593          	addi	a1,a1,1364 # 55555554 <_end+0x5554e950>
    1b14:	02b52633          	mulhsu	a2,a0,a1
    1b18:	48c6a823          	sw	a2,1168(a3)

00001b1c <inst_310>:
    1b1c:	00200513          	li	a0,2
    1b20:	aaaab5b7          	lui	a1,0xaaaab
    1b24:	aa958593          	addi	a1,a1,-1367 # aaaaaaa9 <_end+0xaaaa3ea5>
    1b28:	02b52633          	mulhsu	a2,a0,a1
    1b2c:	48c6aa23          	sw	a2,1172(a3)

00001b30 <inst_311>:
    1b30:	00200513          	li	a0,2
    1b34:	00400593          	li	a1,4
    1b38:	02b52633          	mulhsu	a2,a0,a1
    1b3c:	48c6ac23          	sw	a2,1176(a3)

00001b40 <inst_312>:
    1b40:	00200513          	li	a0,2
    1b44:	333335b7          	lui	a1,0x33333
    1b48:	33258593          	addi	a1,a1,818 # 33333332 <_end+0x3332c72e>
    1b4c:	02b52633          	mulhsu	a2,a0,a1
    1b50:	48c6ae23          	sw	a2,1180(a3)

00001b54 <inst_313>:
    1b54:	00200513          	li	a0,2
    1b58:	666665b7          	lui	a1,0x66666
    1b5c:	66558593          	addi	a1,a1,1637 # 66666665 <_end+0x6665fa61>
    1b60:	02b52633          	mulhsu	a2,a0,a1
    1b64:	4ac6a023          	sw	a2,1184(a3)

00001b68 <inst_314>:
    1b68:	00200513          	li	a0,2
    1b6c:	0000b5b7          	lui	a1,0xb
    1b70:	50358593          	addi	a1,a1,1283 # b503 <_end+0x48ff>
    1b74:	02b52633          	mulhsu	a2,a0,a1
    1b78:	4ac6a223          	sw	a2,1188(a3)

00001b7c <inst_315>:
    1b7c:	00200513          	li	a0,2
    1b80:	000105b7          	lui	a1,0x10
    1b84:	ffe58593          	addi	a1,a1,-2 # fffe <_end+0x93fa>
    1b88:	02b52633          	mulhsu	a2,a0,a1
    1b8c:	4ac6a423          	sw	a2,1192(a3)

00001b90 <inst_316>:
    1b90:	00200513          	li	a0,2
    1b94:	555555b7          	lui	a1,0x55555
    1b98:	55658593          	addi	a1,a1,1366 # 55555556 <_end+0x5554e952>
    1b9c:	02b52633          	mulhsu	a2,a0,a1
    1ba0:	4ac6a623          	sw	a2,1196(a3)

00001ba4 <inst_317>:
    1ba4:	00200513          	li	a0,2
    1ba8:	aaaab5b7          	lui	a1,0xaaaab
    1bac:	aab58593          	addi	a1,a1,-1365 # aaaaaaab <_end+0xaaaa3ea7>
    1bb0:	02b52633          	mulhsu	a2,a0,a1
    1bb4:	4ac6a823          	sw	a2,1200(a3)

00001bb8 <inst_318>:
    1bb8:	00200513          	li	a0,2
    1bbc:	00600593          	li	a1,6
    1bc0:	02b52633          	mulhsu	a2,a0,a1
    1bc4:	4ac6aa23          	sw	a2,1204(a3)

00001bc8 <inst_319>:
    1bc8:	00200513          	li	a0,2
    1bcc:	333335b7          	lui	a1,0x33333
    1bd0:	33458593          	addi	a1,a1,820 # 33333334 <_end+0x3332c730>
    1bd4:	02b52633          	mulhsu	a2,a0,a1
    1bd8:	4ac6ac23          	sw	a2,1208(a3)

00001bdc <inst_320>:
    1bdc:	00200513          	li	a0,2
    1be0:	666665b7          	lui	a1,0x66666
    1be4:	66758593          	addi	a1,a1,1639 # 66666667 <_end+0x6665fa63>
    1be8:	02b52633          	mulhsu	a2,a0,a1
    1bec:	4ac6ae23          	sw	a2,1212(a3)

00001bf0 <inst_321>:
    1bf0:	00200513          	li	a0,2
    1bf4:	0000b5b7          	lui	a1,0xb
    1bf8:	50558593          	addi	a1,a1,1285 # b505 <_end+0x4901>
    1bfc:	02b52633          	mulhsu	a2,a0,a1
    1c00:	4cc6a023          	sw	a2,1216(a3)

00001c04 <inst_322>:
    1c04:	00200513          	li	a0,2
    1c08:	00100593          	li	a1,1
    1c0c:	02b52633          	mulhsu	a2,a0,a1
    1c10:	4cc6a223          	sw	a2,1220(a3)

00001c14 <inst_323>:
    1c14:	00200513          	li	a0,2
    1c18:	000105b7          	lui	a1,0x10
    1c1c:	02b52633          	mulhsu	a2,a0,a1
    1c20:	4cc6a423          	sw	a2,1224(a3)

00001c24 <inst_324>:
    1c24:	55555537          	lui	a0,0x55555
    1c28:	55450513          	addi	a0,a0,1364 # 55555554 <_end+0x5554e950>
    1c2c:	00300593          	li	a1,3
    1c30:	02b52633          	mulhsu	a2,a0,a1
    1c34:	4cc6a623          	sw	a2,1228(a3)

00001c38 <inst_325>:
    1c38:	55555537          	lui	a0,0x55555
    1c3c:	55450513          	addi	a0,a0,1364 # 55555554 <_end+0x5554e950>
    1c40:	555555b7          	lui	a1,0x55555
    1c44:	55558593          	addi	a1,a1,1365 # 55555555 <_end+0x5554e951>
    1c48:	02b52633          	mulhsu	a2,a0,a1
    1c4c:	4cc6a823          	sw	a2,1232(a3)

00001c50 <inst_326>:
    1c50:	55555537          	lui	a0,0x55555
    1c54:	55450513          	addi	a0,a0,1364 # 55555554 <_end+0x5554e950>
    1c58:	aaaab5b7          	lui	a1,0xaaaab
    1c5c:	aaa58593          	addi	a1,a1,-1366 # aaaaaaaa <_end+0xaaaa3ea6>
    1c60:	02b52633          	mulhsu	a2,a0,a1
    1c64:	4cc6aa23          	sw	a2,1236(a3)

00001c68 <inst_327>:
    1c68:	55555537          	lui	a0,0x55555
    1c6c:	55450513          	addi	a0,a0,1364 # 55555554 <_end+0x5554e950>
    1c70:	00500593          	li	a1,5
    1c74:	02b52633          	mulhsu	a2,a0,a1
    1c78:	4cc6ac23          	sw	a2,1240(a3)

00001c7c <inst_328>:
    1c7c:	55555537          	lui	a0,0x55555
    1c80:	55450513          	addi	a0,a0,1364 # 55555554 <_end+0x5554e950>
    1c84:	333335b7          	lui	a1,0x33333
    1c88:	33358593          	addi	a1,a1,819 # 33333333 <_end+0x3332c72f>
    1c8c:	02b52633          	mulhsu	a2,a0,a1
    1c90:	4cc6ae23          	sw	a2,1244(a3)

00001c94 <inst_329>:
    1c94:	55555537          	lui	a0,0x55555
    1c98:	55450513          	addi	a0,a0,1364 # 55555554 <_end+0x5554e950>
    1c9c:	666665b7          	lui	a1,0x66666
    1ca0:	66658593          	addi	a1,a1,1638 # 66666666 <_end+0x6665fa62>
    1ca4:	02b52633          	mulhsu	a2,a0,a1
    1ca8:	4ec6a023          	sw	a2,1248(a3)

00001cac <inst_330>:
    1cac:	55555537          	lui	a0,0x55555
    1cb0:	55450513          	addi	a0,a0,1364 # 55555554 <_end+0x5554e950>
    1cb4:	0000b5b7          	lui	a1,0xb
    1cb8:	50458593          	addi	a1,a1,1284 # b504 <_end+0x4900>
    1cbc:	02b52633          	mulhsu	a2,a0,a1
    1cc0:	4ec6a223          	sw	a2,1252(a3)

00001cc4 <inst_331>:
    1cc4:	55555537          	lui	a0,0x55555
    1cc8:	55450513          	addi	a0,a0,1364 # 55555554 <_end+0x5554e950>
    1ccc:	00000593          	li	a1,0
    1cd0:	02b52633          	mulhsu	a2,a0,a1
    1cd4:	4ec6a423          	sw	a2,1256(a3)

00001cd8 <inst_332>:
    1cd8:	55555537          	lui	a0,0x55555
    1cdc:	55450513          	addi	a0,a0,1364 # 55555554 <_end+0x5554e950>
    1ce0:	000105b7          	lui	a1,0x10
    1ce4:	fff58593          	addi	a1,a1,-1 # ffff <_end+0x93fb>
    1ce8:	02b52633          	mulhsu	a2,a0,a1
    1cec:	4ec6a623          	sw	a2,1260(a3)

00001cf0 <inst_333>:
    1cf0:	55555537          	lui	a0,0x55555
    1cf4:	55450513          	addi	a0,a0,1364 # 55555554 <_end+0x5554e950>
    1cf8:	00200593          	li	a1,2
    1cfc:	02b52633          	mulhsu	a2,a0,a1
    1d00:	4ec6a823          	sw	a2,1264(a3)

00001d04 <inst_334>:
    1d04:	55555537          	lui	a0,0x55555
    1d08:	55450513          	addi	a0,a0,1364 # 55555554 <_end+0x5554e950>
    1d0c:	555555b7          	lui	a1,0x55555
    1d10:	55458593          	addi	a1,a1,1364 # 55555554 <_end+0x5554e950>
    1d14:	02b52633          	mulhsu	a2,a0,a1
    1d18:	4ec6aa23          	sw	a2,1268(a3)

00001d1c <inst_335>:
    1d1c:	55555537          	lui	a0,0x55555
    1d20:	55450513          	addi	a0,a0,1364 # 55555554 <_end+0x5554e950>
    1d24:	aaaab5b7          	lui	a1,0xaaaab
    1d28:	aa958593          	addi	a1,a1,-1367 # aaaaaaa9 <_end+0xaaaa3ea5>
    1d2c:	02b52633          	mulhsu	a2,a0,a1
    1d30:	4ec6ac23          	sw	a2,1272(a3)

00001d34 <inst_336>:
    1d34:	55555537          	lui	a0,0x55555
    1d38:	55450513          	addi	a0,a0,1364 # 55555554 <_end+0x5554e950>
    1d3c:	00400593          	li	a1,4
    1d40:	02b52633          	mulhsu	a2,a0,a1
    1d44:	4ec6ae23          	sw	a2,1276(a3)

00001d48 <inst_337>:
    1d48:	55555537          	lui	a0,0x55555
    1d4c:	55450513          	addi	a0,a0,1364 # 55555554 <_end+0x5554e950>
    1d50:	333335b7          	lui	a1,0x33333
    1d54:	33258593          	addi	a1,a1,818 # 33333332 <_end+0x3332c72e>
    1d58:	02b52633          	mulhsu	a2,a0,a1
    1d5c:	50c6a023          	sw	a2,1280(a3)

00001d60 <inst_338>:
    1d60:	55555537          	lui	a0,0x55555
    1d64:	55450513          	addi	a0,a0,1364 # 55555554 <_end+0x5554e950>
    1d68:	666665b7          	lui	a1,0x66666
    1d6c:	66558593          	addi	a1,a1,1637 # 66666665 <_end+0x6665fa61>
    1d70:	02b52633          	mulhsu	a2,a0,a1
    1d74:	50c6a223          	sw	a2,1284(a3)

00001d78 <inst_339>:
    1d78:	55555537          	lui	a0,0x55555
    1d7c:	55450513          	addi	a0,a0,1364 # 55555554 <_end+0x5554e950>
    1d80:	0000b5b7          	lui	a1,0xb
    1d84:	50358593          	addi	a1,a1,1283 # b503 <_end+0x48ff>
    1d88:	02b52633          	mulhsu	a2,a0,a1
    1d8c:	50c6a423          	sw	a2,1288(a3)

00001d90 <inst_340>:
    1d90:	55555537          	lui	a0,0x55555
    1d94:	55450513          	addi	a0,a0,1364 # 55555554 <_end+0x5554e950>
    1d98:	000105b7          	lui	a1,0x10
    1d9c:	ffe58593          	addi	a1,a1,-2 # fffe <_end+0x93fa>
    1da0:	02b52633          	mulhsu	a2,a0,a1
    1da4:	50c6a623          	sw	a2,1292(a3)

00001da8 <inst_341>:
    1da8:	55555537          	lui	a0,0x55555
    1dac:	55450513          	addi	a0,a0,1364 # 55555554 <_end+0x5554e950>
    1db0:	555555b7          	lui	a1,0x55555
    1db4:	55658593          	addi	a1,a1,1366 # 55555556 <_end+0x5554e952>
    1db8:	02b52633          	mulhsu	a2,a0,a1
    1dbc:	50c6a823          	sw	a2,1296(a3)

00001dc0 <inst_342>:
    1dc0:	55555537          	lui	a0,0x55555
    1dc4:	55450513          	addi	a0,a0,1364 # 55555554 <_end+0x5554e950>
    1dc8:	aaaab5b7          	lui	a1,0xaaaab
    1dcc:	aab58593          	addi	a1,a1,-1365 # aaaaaaab <_end+0xaaaa3ea7>
    1dd0:	02b52633          	mulhsu	a2,a0,a1
    1dd4:	50c6aa23          	sw	a2,1300(a3)

00001dd8 <inst_343>:
    1dd8:	55555537          	lui	a0,0x55555
    1ddc:	55450513          	addi	a0,a0,1364 # 55555554 <_end+0x5554e950>
    1de0:	00600593          	li	a1,6
    1de4:	02b52633          	mulhsu	a2,a0,a1
    1de8:	50c6ac23          	sw	a2,1304(a3)

00001dec <inst_344>:
    1dec:	55555537          	lui	a0,0x55555
    1df0:	55450513          	addi	a0,a0,1364 # 55555554 <_end+0x5554e950>
    1df4:	333335b7          	lui	a1,0x33333
    1df8:	33458593          	addi	a1,a1,820 # 33333334 <_end+0x3332c730>
    1dfc:	02b52633          	mulhsu	a2,a0,a1
    1e00:	50c6ae23          	sw	a2,1308(a3)

00001e04 <inst_345>:
    1e04:	55555537          	lui	a0,0x55555
    1e08:	55450513          	addi	a0,a0,1364 # 55555554 <_end+0x5554e950>
    1e0c:	666665b7          	lui	a1,0x66666
    1e10:	66758593          	addi	a1,a1,1639 # 66666667 <_end+0x6665fa63>
    1e14:	02b52633          	mulhsu	a2,a0,a1
    1e18:	52c6a023          	sw	a2,1312(a3)

00001e1c <inst_346>:
    1e1c:	55555537          	lui	a0,0x55555
    1e20:	55450513          	addi	a0,a0,1364 # 55555554 <_end+0x5554e950>
    1e24:	0000b5b7          	lui	a1,0xb
    1e28:	50558593          	addi	a1,a1,1285 # b505 <_end+0x4901>
    1e2c:	02b52633          	mulhsu	a2,a0,a1
    1e30:	52c6a223          	sw	a2,1316(a3)

00001e34 <inst_347>:
    1e34:	55555537          	lui	a0,0x55555
    1e38:	55450513          	addi	a0,a0,1364 # 55555554 <_end+0x5554e950>
    1e3c:	00100593          	li	a1,1
    1e40:	02b52633          	mulhsu	a2,a0,a1
    1e44:	52c6a423          	sw	a2,1320(a3)

00001e48 <inst_348>:
    1e48:	55555537          	lui	a0,0x55555
    1e4c:	55450513          	addi	a0,a0,1364 # 55555554 <_end+0x5554e950>
    1e50:	000105b7          	lui	a1,0x10
    1e54:	02b52633          	mulhsu	a2,a0,a1
    1e58:	52c6a623          	sw	a2,1324(a3)

00001e5c <inst_349>:
    1e5c:	00000513          	li	a0,0
    1e60:	00300593          	li	a1,3
    1e64:	02b52633          	mulhsu	a2,a0,a1
    1e68:	52c6a823          	sw	a2,1328(a3)

00001e6c <inst_350>:
    1e6c:	00000513          	li	a0,0
    1e70:	555555b7          	lui	a1,0x55555
    1e74:	55558593          	addi	a1,a1,1365 # 55555555 <_end+0x5554e951>
    1e78:	02b52633          	mulhsu	a2,a0,a1
    1e7c:	52c6aa23          	sw	a2,1332(a3)

00001e80 <inst_351>:
    1e80:	00000513          	li	a0,0
    1e84:	aaaab5b7          	lui	a1,0xaaaab
    1e88:	aaa58593          	addi	a1,a1,-1366 # aaaaaaaa <_end+0xaaaa3ea6>
    1e8c:	02b52633          	mulhsu	a2,a0,a1
    1e90:	52c6ac23          	sw	a2,1336(a3)

00001e94 <inst_352>:
    1e94:	00000513          	li	a0,0
    1e98:	00500593          	li	a1,5
    1e9c:	02b52633          	mulhsu	a2,a0,a1
    1ea0:	52c6ae23          	sw	a2,1340(a3)

00001ea4 <inst_353>:
    1ea4:	00000513          	li	a0,0
    1ea8:	333335b7          	lui	a1,0x33333
    1eac:	33358593          	addi	a1,a1,819 # 33333333 <_end+0x3332c72f>
    1eb0:	02b52633          	mulhsu	a2,a0,a1
    1eb4:	54c6a023          	sw	a2,1344(a3)

00001eb8 <inst_354>:
    1eb8:	00000513          	li	a0,0
    1ebc:	666665b7          	lui	a1,0x66666
    1ec0:	66658593          	addi	a1,a1,1638 # 66666666 <_end+0x6665fa62>
    1ec4:	02b52633          	mulhsu	a2,a0,a1
    1ec8:	54c6a223          	sw	a2,1348(a3)

00001ecc <inst_355>:
    1ecc:	00000513          	li	a0,0
    1ed0:	0000b5b7          	lui	a1,0xb
    1ed4:	50458593          	addi	a1,a1,1284 # b504 <_end+0x4900>
    1ed8:	02b52633          	mulhsu	a2,a0,a1
    1edc:	54c6a423          	sw	a2,1352(a3)

00001ee0 <inst_356>:
    1ee0:	00000513          	li	a0,0
    1ee4:	00000593          	li	a1,0
    1ee8:	02b52633          	mulhsu	a2,a0,a1
    1eec:	54c6a623          	sw	a2,1356(a3)

00001ef0 <inst_357>:
    1ef0:	00000513          	li	a0,0
    1ef4:	000105b7          	lui	a1,0x10
    1ef8:	fff58593          	addi	a1,a1,-1 # ffff <_end+0x93fb>
    1efc:	02b52633          	mulhsu	a2,a0,a1
    1f00:	54c6a823          	sw	a2,1360(a3)

00001f04 <inst_358>:
    1f04:	00000513          	li	a0,0
    1f08:	00200593          	li	a1,2
    1f0c:	02b52633          	mulhsu	a2,a0,a1
    1f10:	54c6aa23          	sw	a2,1364(a3)

00001f14 <inst_359>:
    1f14:	00000513          	li	a0,0
    1f18:	555555b7          	lui	a1,0x55555
    1f1c:	55458593          	addi	a1,a1,1364 # 55555554 <_end+0x5554e950>
    1f20:	02b52633          	mulhsu	a2,a0,a1
    1f24:	54c6ac23          	sw	a2,1368(a3)

00001f28 <inst_360>:
    1f28:	00000513          	li	a0,0
    1f2c:	aaaab5b7          	lui	a1,0xaaaab
    1f30:	aa958593          	addi	a1,a1,-1367 # aaaaaaa9 <_end+0xaaaa3ea5>
    1f34:	02b52633          	mulhsu	a2,a0,a1
    1f38:	54c6ae23          	sw	a2,1372(a3)

00001f3c <inst_361>:
    1f3c:	00000513          	li	a0,0
    1f40:	00400593          	li	a1,4
    1f44:	02b52633          	mulhsu	a2,a0,a1
    1f48:	56c6a023          	sw	a2,1376(a3)

00001f4c <inst_362>:
    1f4c:	00000513          	li	a0,0
    1f50:	333335b7          	lui	a1,0x33333
    1f54:	33258593          	addi	a1,a1,818 # 33333332 <_end+0x3332c72e>
    1f58:	02b52633          	mulhsu	a2,a0,a1
    1f5c:	56c6a223          	sw	a2,1380(a3)

00001f60 <inst_363>:
    1f60:	00000513          	li	a0,0
    1f64:	666665b7          	lui	a1,0x66666
    1f68:	66558593          	addi	a1,a1,1637 # 66666665 <_end+0x6665fa61>
    1f6c:	02b52633          	mulhsu	a2,a0,a1
    1f70:	56c6a423          	sw	a2,1384(a3)

00001f74 <inst_364>:
    1f74:	00000513          	li	a0,0
    1f78:	0000b5b7          	lui	a1,0xb
    1f7c:	50358593          	addi	a1,a1,1283 # b503 <_end+0x48ff>
    1f80:	02b52633          	mulhsu	a2,a0,a1
    1f84:	56c6a623          	sw	a2,1388(a3)

00001f88 <inst_365>:
    1f88:	00000513          	li	a0,0
    1f8c:	000105b7          	lui	a1,0x10
    1f90:	ffe58593          	addi	a1,a1,-2 # fffe <_end+0x93fa>
    1f94:	02b52633          	mulhsu	a2,a0,a1
    1f98:	56c6a823          	sw	a2,1392(a3)

00001f9c <inst_366>:
    1f9c:	00000513          	li	a0,0
    1fa0:	555555b7          	lui	a1,0x55555
    1fa4:	55658593          	addi	a1,a1,1366 # 55555556 <_end+0x5554e952>
    1fa8:	02b52633          	mulhsu	a2,a0,a1
    1fac:	56c6aa23          	sw	a2,1396(a3)

00001fb0 <inst_367>:
    1fb0:	00000513          	li	a0,0
    1fb4:	aaaab5b7          	lui	a1,0xaaaab
    1fb8:	aab58593          	addi	a1,a1,-1365 # aaaaaaab <_end+0xaaaa3ea7>
    1fbc:	02b52633          	mulhsu	a2,a0,a1
    1fc0:	56c6ac23          	sw	a2,1400(a3)

00001fc4 <inst_368>:
    1fc4:	00000513          	li	a0,0
    1fc8:	00600593          	li	a1,6
    1fcc:	02b52633          	mulhsu	a2,a0,a1
    1fd0:	56c6ae23          	sw	a2,1404(a3)

00001fd4 <inst_369>:
    1fd4:	00000513          	li	a0,0
    1fd8:	333335b7          	lui	a1,0x33333
    1fdc:	33458593          	addi	a1,a1,820 # 33333334 <_end+0x3332c730>
    1fe0:	02b52633          	mulhsu	a2,a0,a1
    1fe4:	58c6a023          	sw	a2,1408(a3)

00001fe8 <inst_370>:
    1fe8:	00000513          	li	a0,0
    1fec:	666665b7          	lui	a1,0x66666
    1ff0:	66758593          	addi	a1,a1,1639 # 66666667 <_end+0x6665fa63>
    1ff4:	02b52633          	mulhsu	a2,a0,a1
    1ff8:	58c6a223          	sw	a2,1412(a3)

00001ffc <inst_371>:
    1ffc:	00000513          	li	a0,0
    2000:	0000b5b7          	lui	a1,0xb
    2004:	50558593          	addi	a1,a1,1285 # b505 <_end+0x4901>
    2008:	02b52633          	mulhsu	a2,a0,a1
    200c:	58c6a423          	sw	a2,1416(a3)

00002010 <inst_372>:
    2010:	00000513          	li	a0,0
    2014:	00100593          	li	a1,1
    2018:	02b52633          	mulhsu	a2,a0,a1
    201c:	58c6a623          	sw	a2,1420(a3)

00002020 <inst_373>:
    2020:	00000513          	li	a0,0
    2024:	000105b7          	lui	a1,0x10
    2028:	02b52633          	mulhsu	a2,a0,a1
    202c:	58c6a823          	sw	a2,1424(a3)

00002030 <inst_374>:
    2030:	00400513          	li	a0,4
    2034:	555555b7          	lui	a1,0x55555
    2038:	55558593          	addi	a1,a1,1365 # 55555555 <_end+0x5554e951>
    203c:	02b52633          	mulhsu	a2,a0,a1
    2040:	58c6aa23          	sw	a2,1428(a3)

00002044 <inst_375>:
    2044:	00400513          	li	a0,4
    2048:	aaaab5b7          	lui	a1,0xaaaab
    204c:	aaa58593          	addi	a1,a1,-1366 # aaaaaaaa <_end+0xaaaa3ea6>
    2050:	02b52633          	mulhsu	a2,a0,a1
    2054:	58c6ac23          	sw	a2,1432(a3)

00002058 <inst_376>:
    2058:	00400513          	li	a0,4
    205c:	00500593          	li	a1,5
    2060:	02b52633          	mulhsu	a2,a0,a1
    2064:	58c6ae23          	sw	a2,1436(a3)

00002068 <inst_377>:
    2068:	00400513          	li	a0,4
    206c:	333335b7          	lui	a1,0x33333
    2070:	33358593          	addi	a1,a1,819 # 33333333 <_end+0x3332c72f>
    2074:	02b52633          	mulhsu	a2,a0,a1
    2078:	5ac6a023          	sw	a2,1440(a3)

0000207c <inst_378>:
    207c:	00400513          	li	a0,4
    2080:	666665b7          	lui	a1,0x66666
    2084:	66658593          	addi	a1,a1,1638 # 66666666 <_end+0x6665fa62>
    2088:	02b52633          	mulhsu	a2,a0,a1
    208c:	5ac6a223          	sw	a2,1444(a3)

00002090 <inst_379>:
    2090:	00400513          	li	a0,4
    2094:	0000b5b7          	lui	a1,0xb
    2098:	50458593          	addi	a1,a1,1284 # b504 <_end+0x4900>
    209c:	02b52633          	mulhsu	a2,a0,a1
    20a0:	5ac6a423          	sw	a2,1448(a3)

000020a4 <inst_380>:
    20a4:	00400513          	li	a0,4
    20a8:	00000593          	li	a1,0
    20ac:	02b52633          	mulhsu	a2,a0,a1
    20b0:	5ac6a623          	sw	a2,1452(a3)

000020b4 <inst_381>:
    20b4:	00400513          	li	a0,4
    20b8:	000105b7          	lui	a1,0x10
    20bc:	fff58593          	addi	a1,a1,-1 # ffff <_end+0x93fb>
    20c0:	02b52633          	mulhsu	a2,a0,a1
    20c4:	5ac6a823          	sw	a2,1456(a3)

000020c8 <inst_382>:
    20c8:	00400513          	li	a0,4
    20cc:	00200593          	li	a1,2
    20d0:	02b52633          	mulhsu	a2,a0,a1
    20d4:	5ac6aa23          	sw	a2,1460(a3)

000020d8 <inst_383>:
    20d8:	00400513          	li	a0,4
    20dc:	555555b7          	lui	a1,0x55555
    20e0:	55458593          	addi	a1,a1,1364 # 55555554 <_end+0x5554e950>
    20e4:	02b52633          	mulhsu	a2,a0,a1
    20e8:	5ac6ac23          	sw	a2,1464(a3)

000020ec <inst_384>:
    20ec:	00400513          	li	a0,4
    20f0:	aaaab5b7          	lui	a1,0xaaaab
    20f4:	aa958593          	addi	a1,a1,-1367 # aaaaaaa9 <_end+0xaaaa3ea5>
    20f8:	02b52633          	mulhsu	a2,a0,a1
    20fc:	5ac6ae23          	sw	a2,1468(a3)

00002100 <inst_385>:
    2100:	00400513          	li	a0,4
    2104:	00400593          	li	a1,4
    2108:	02b52633          	mulhsu	a2,a0,a1
    210c:	5cc6a023          	sw	a2,1472(a3)

00002110 <inst_386>:
    2110:	00400513          	li	a0,4
    2114:	333335b7          	lui	a1,0x33333
    2118:	33258593          	addi	a1,a1,818 # 33333332 <_end+0x3332c72e>
    211c:	02b52633          	mulhsu	a2,a0,a1
    2120:	5cc6a223          	sw	a2,1476(a3)

00002124 <inst_387>:
    2124:	00400513          	li	a0,4
    2128:	666665b7          	lui	a1,0x66666
    212c:	66558593          	addi	a1,a1,1637 # 66666665 <_end+0x6665fa61>
    2130:	02b52633          	mulhsu	a2,a0,a1
    2134:	5cc6a423          	sw	a2,1480(a3)

00002138 <inst_388>:
    2138:	00400513          	li	a0,4
    213c:	0000b5b7          	lui	a1,0xb
    2140:	50358593          	addi	a1,a1,1283 # b503 <_end+0x48ff>
    2144:	02b52633          	mulhsu	a2,a0,a1
    2148:	5cc6a623          	sw	a2,1484(a3)

0000214c <inst_389>:
    214c:	00400513          	li	a0,4
    2150:	000105b7          	lui	a1,0x10
    2154:	ffe58593          	addi	a1,a1,-2 # fffe <_end+0x93fa>
    2158:	02b52633          	mulhsu	a2,a0,a1
    215c:	5cc6a823          	sw	a2,1488(a3)

00002160 <inst_390>:
    2160:	0000b537          	lui	a0,0xb
    2164:	50350513          	addi	a0,a0,1283 # b503 <_end+0x48ff>
    2168:	0000b5b7          	lui	a1,0xb
    216c:	50558593          	addi	a1,a1,1285 # b505 <_end+0x4901>
    2170:	02b52633          	mulhsu	a2,a0,a1
    2174:	5cc6aa23          	sw	a2,1492(a3)

00002178 <inst_391>:
    2178:	0000b537          	lui	a0,0xb
    217c:	50350513          	addi	a0,a0,1283 # b503 <_end+0x48ff>
    2180:	00100593          	li	a1,1
    2184:	02b52633          	mulhsu	a2,a0,a1
    2188:	5cc6ac23          	sw	a2,1496(a3)

0000218c <inst_392>:
    218c:	0000b537          	lui	a0,0xb
    2190:	50350513          	addi	a0,a0,1283 # b503 <_end+0x48ff>
    2194:	000105b7          	lui	a1,0x10
    2198:	02b52633          	mulhsu	a2,a0,a1
    219c:	5cc6ae23          	sw	a2,1500(a3)

000021a0 <inst_393>:
    21a0:	55555537          	lui	a0,0x55555
    21a4:	55650513          	addi	a0,a0,1366 # 55555556 <_end+0x5554e952>
    21a8:	00300593          	li	a1,3
    21ac:	02b52633          	mulhsu	a2,a0,a1
    21b0:	5ec6a023          	sw	a2,1504(a3)

000021b4 <inst_394>:
    21b4:	55555537          	lui	a0,0x55555
    21b8:	55650513          	addi	a0,a0,1366 # 55555556 <_end+0x5554e952>
    21bc:	555555b7          	lui	a1,0x55555
    21c0:	55558593          	addi	a1,a1,1365 # 55555555 <_end+0x5554e951>
    21c4:	02b52633          	mulhsu	a2,a0,a1
    21c8:	5ec6a223          	sw	a2,1508(a3)

000021cc <inst_395>:
    21cc:	55555537          	lui	a0,0x55555
    21d0:	55650513          	addi	a0,a0,1366 # 55555556 <_end+0x5554e952>
    21d4:	aaaab5b7          	lui	a1,0xaaaab
    21d8:	aaa58593          	addi	a1,a1,-1366 # aaaaaaaa <_end+0xaaaa3ea6>
    21dc:	02b52633          	mulhsu	a2,a0,a1
    21e0:	5ec6a423          	sw	a2,1512(a3)

000021e4 <inst_396>:
    21e4:	55555537          	lui	a0,0x55555
    21e8:	55650513          	addi	a0,a0,1366 # 55555556 <_end+0x5554e952>
    21ec:	00500593          	li	a1,5
    21f0:	02b52633          	mulhsu	a2,a0,a1
    21f4:	5ec6a623          	sw	a2,1516(a3)

000021f8 <inst_397>:
    21f8:	55555537          	lui	a0,0x55555
    21fc:	55650513          	addi	a0,a0,1366 # 55555556 <_end+0x5554e952>
    2200:	333335b7          	lui	a1,0x33333
    2204:	33358593          	addi	a1,a1,819 # 33333333 <_end+0x3332c72f>
    2208:	02b52633          	mulhsu	a2,a0,a1
    220c:	5ec6a823          	sw	a2,1520(a3)

00002210 <inst_398>:
    2210:	55555537          	lui	a0,0x55555
    2214:	55650513          	addi	a0,a0,1366 # 55555556 <_end+0x5554e952>
    2218:	666665b7          	lui	a1,0x66666
    221c:	66658593          	addi	a1,a1,1638 # 66666666 <_end+0x6665fa62>
    2220:	02b52633          	mulhsu	a2,a0,a1
    2224:	5ec6aa23          	sw	a2,1524(a3)

00002228 <inst_399>:
    2228:	55555537          	lui	a0,0x55555
    222c:	55650513          	addi	a0,a0,1366 # 55555556 <_end+0x5554e952>
    2230:	0000b5b7          	lui	a1,0xb
    2234:	50458593          	addi	a1,a1,1284 # b504 <_end+0x4900>
    2238:	02b52633          	mulhsu	a2,a0,a1
    223c:	5ec6ac23          	sw	a2,1528(a3)

00002240 <inst_400>:
    2240:	55555537          	lui	a0,0x55555
    2244:	55650513          	addi	a0,a0,1366 # 55555556 <_end+0x5554e952>
    2248:	00000593          	li	a1,0
    224c:	02b52633          	mulhsu	a2,a0,a1
    2250:	5ec6ae23          	sw	a2,1532(a3)

00002254 <inst_401>:
    2254:	55555537          	lui	a0,0x55555
    2258:	55650513          	addi	a0,a0,1366 # 55555556 <_end+0x5554e952>
    225c:	000105b7          	lui	a1,0x10
    2260:	fff58593          	addi	a1,a1,-1 # ffff <_end+0x93fb>
    2264:	02b52633          	mulhsu	a2,a0,a1
    2268:	60c6a023          	sw	a2,1536(a3)

0000226c <inst_402>:
    226c:	55555537          	lui	a0,0x55555
    2270:	55650513          	addi	a0,a0,1366 # 55555556 <_end+0x5554e952>
    2274:	00200593          	li	a1,2
    2278:	02b52633          	mulhsu	a2,a0,a1
    227c:	60c6a223          	sw	a2,1540(a3)

00002280 <inst_403>:
    2280:	55555537          	lui	a0,0x55555
    2284:	55650513          	addi	a0,a0,1366 # 55555556 <_end+0x5554e952>
    2288:	555555b7          	lui	a1,0x55555
    228c:	55458593          	addi	a1,a1,1364 # 55555554 <_end+0x5554e950>
    2290:	02b52633          	mulhsu	a2,a0,a1
    2294:	60c6a423          	sw	a2,1544(a3)

00002298 <inst_404>:
    2298:	55555537          	lui	a0,0x55555
    229c:	55650513          	addi	a0,a0,1366 # 55555556 <_end+0x5554e952>
    22a0:	aaaab5b7          	lui	a1,0xaaaab
    22a4:	aa958593          	addi	a1,a1,-1367 # aaaaaaa9 <_end+0xaaaa3ea5>
    22a8:	02b52633          	mulhsu	a2,a0,a1
    22ac:	60c6a623          	sw	a2,1548(a3)

000022b0 <inst_405>:
    22b0:	55555537          	lui	a0,0x55555
    22b4:	55650513          	addi	a0,a0,1366 # 55555556 <_end+0x5554e952>
    22b8:	00400593          	li	a1,4
    22bc:	02b52633          	mulhsu	a2,a0,a1
    22c0:	60c6a823          	sw	a2,1552(a3)

000022c4 <inst_406>:
    22c4:	55555537          	lui	a0,0x55555
    22c8:	55650513          	addi	a0,a0,1366 # 55555556 <_end+0x5554e952>
    22cc:	333335b7          	lui	a1,0x33333
    22d0:	33258593          	addi	a1,a1,818 # 33333332 <_end+0x3332c72e>
    22d4:	02b52633          	mulhsu	a2,a0,a1
    22d8:	60c6aa23          	sw	a2,1556(a3)

000022dc <inst_407>:
    22dc:	55555537          	lui	a0,0x55555
    22e0:	55650513          	addi	a0,a0,1366 # 55555556 <_end+0x5554e952>
    22e4:	666665b7          	lui	a1,0x66666
    22e8:	66558593          	addi	a1,a1,1637 # 66666665 <_end+0x6665fa61>
    22ec:	02b52633          	mulhsu	a2,a0,a1
    22f0:	60c6ac23          	sw	a2,1560(a3)

000022f4 <inst_408>:
    22f4:	55555537          	lui	a0,0x55555
    22f8:	55650513          	addi	a0,a0,1366 # 55555556 <_end+0x5554e952>
    22fc:	0000b5b7          	lui	a1,0xb
    2300:	50358593          	addi	a1,a1,1283 # b503 <_end+0x48ff>
    2304:	02b52633          	mulhsu	a2,a0,a1
    2308:	60c6ae23          	sw	a2,1564(a3)

0000230c <inst_409>:
    230c:	55555537          	lui	a0,0x55555
    2310:	55650513          	addi	a0,a0,1366 # 55555556 <_end+0x5554e952>
    2314:	000105b7          	lui	a1,0x10
    2318:	ffe58593          	addi	a1,a1,-2 # fffe <_end+0x93fa>
    231c:	02b52633          	mulhsu	a2,a0,a1
    2320:	62c6a023          	sw	a2,1568(a3)

00002324 <inst_410>:
    2324:	55555537          	lui	a0,0x55555
    2328:	55650513          	addi	a0,a0,1366 # 55555556 <_end+0x5554e952>
    232c:	555555b7          	lui	a1,0x55555
    2330:	55658593          	addi	a1,a1,1366 # 55555556 <_end+0x5554e952>
    2334:	02b52633          	mulhsu	a2,a0,a1
    2338:	62c6a223          	sw	a2,1572(a3)

0000233c <inst_411>:
    233c:	55555537          	lui	a0,0x55555
    2340:	55650513          	addi	a0,a0,1366 # 55555556 <_end+0x5554e952>
    2344:	aaaab5b7          	lui	a1,0xaaaab
    2348:	aab58593          	addi	a1,a1,-1365 # aaaaaaab <_end+0xaaaa3ea7>
    234c:	02b52633          	mulhsu	a2,a0,a1
    2350:	62c6a423          	sw	a2,1576(a3)

00002354 <inst_412>:
    2354:	55555537          	lui	a0,0x55555
    2358:	55650513          	addi	a0,a0,1366 # 55555556 <_end+0x5554e952>
    235c:	00600593          	li	a1,6
    2360:	02b52633          	mulhsu	a2,a0,a1
    2364:	62c6a623          	sw	a2,1580(a3)

00002368 <inst_413>:
    2368:	55555537          	lui	a0,0x55555
    236c:	55650513          	addi	a0,a0,1366 # 55555556 <_end+0x5554e952>
    2370:	333335b7          	lui	a1,0x33333
    2374:	33458593          	addi	a1,a1,820 # 33333334 <_end+0x3332c730>
    2378:	02b52633          	mulhsu	a2,a0,a1
    237c:	62c6a823          	sw	a2,1584(a3)

00002380 <inst_414>:
    2380:	55555537          	lui	a0,0x55555
    2384:	55650513          	addi	a0,a0,1366 # 55555556 <_end+0x5554e952>
    2388:	666665b7          	lui	a1,0x66666
    238c:	66758593          	addi	a1,a1,1639 # 66666667 <_end+0x6665fa63>
    2390:	02b52633          	mulhsu	a2,a0,a1
    2394:	62c6aa23          	sw	a2,1588(a3)

00002398 <inst_415>:
    2398:	55555537          	lui	a0,0x55555
    239c:	55650513          	addi	a0,a0,1366 # 55555556 <_end+0x5554e952>
    23a0:	0000b5b7          	lui	a1,0xb
    23a4:	50558593          	addi	a1,a1,1285 # b505 <_end+0x4901>
    23a8:	02b52633          	mulhsu	a2,a0,a1
    23ac:	62c6ac23          	sw	a2,1592(a3)

000023b0 <inst_416>:
    23b0:	55555537          	lui	a0,0x55555
    23b4:	55650513          	addi	a0,a0,1366 # 55555556 <_end+0x5554e952>
    23b8:	00100593          	li	a1,1
    23bc:	02b52633          	mulhsu	a2,a0,a1
    23c0:	62c6ae23          	sw	a2,1596(a3)

000023c4 <inst_417>:
    23c4:	55555537          	lui	a0,0x55555
    23c8:	55650513          	addi	a0,a0,1366 # 55555556 <_end+0x5554e952>
    23cc:	000105b7          	lui	a1,0x10
    23d0:	02b52633          	mulhsu	a2,a0,a1
    23d4:	64c6a023          	sw	a2,1600(a3)

000023d8 <inst_418>:
    23d8:	aaaab537          	lui	a0,0xaaaab
    23dc:	aab50513          	addi	a0,a0,-1365 # aaaaaaab <_end+0xaaaa3ea7>
    23e0:	00300593          	li	a1,3
    23e4:	02b52633          	mulhsu	a2,a0,a1
    23e8:	64c6a223          	sw	a2,1604(a3)

000023ec <inst_419>:
    23ec:	aaaab537          	lui	a0,0xaaaab
    23f0:	aab50513          	addi	a0,a0,-1365 # aaaaaaab <_end+0xaaaa3ea7>
    23f4:	aaaab5b7          	lui	a1,0xaaaab
    23f8:	aaa58593          	addi	a1,a1,-1366 # aaaaaaaa <_end+0xaaaa3ea6>
    23fc:	02b52633          	mulhsu	a2,a0,a1
    2400:	64c6a423          	sw	a2,1608(a3)

00002404 <inst_420>:
    2404:	aaaab537          	lui	a0,0xaaaab
    2408:	aab50513          	addi	a0,a0,-1365 # aaaaaaab <_end+0xaaaa3ea7>
    240c:	00500593          	li	a1,5
    2410:	02b52633          	mulhsu	a2,a0,a1
    2414:	64c6a623          	sw	a2,1612(a3)

00002418 <inst_421>:
    2418:	aaaab537          	lui	a0,0xaaaab
    241c:	aab50513          	addi	a0,a0,-1365 # aaaaaaab <_end+0xaaaa3ea7>
    2420:	333335b7          	lui	a1,0x33333
    2424:	33358593          	addi	a1,a1,819 # 33333333 <_end+0x3332c72f>
    2428:	02b52633          	mulhsu	a2,a0,a1
    242c:	64c6a823          	sw	a2,1616(a3)

00002430 <inst_422>:
    2430:	aaaab537          	lui	a0,0xaaaab
    2434:	aab50513          	addi	a0,a0,-1365 # aaaaaaab <_end+0xaaaa3ea7>
    2438:	666665b7          	lui	a1,0x66666
    243c:	66658593          	addi	a1,a1,1638 # 66666666 <_end+0x6665fa62>
    2440:	02b52633          	mulhsu	a2,a0,a1
    2444:	64c6aa23          	sw	a2,1620(a3)

00002448 <inst_423>:
    2448:	aaaab537          	lui	a0,0xaaaab
    244c:	aab50513          	addi	a0,a0,-1365 # aaaaaaab <_end+0xaaaa3ea7>
    2450:	0000b5b7          	lui	a1,0xb
    2454:	50458593          	addi	a1,a1,1284 # b504 <_end+0x4900>
    2458:	02b52633          	mulhsu	a2,a0,a1
    245c:	64c6ac23          	sw	a2,1624(a3)

00002460 <inst_424>:
    2460:	aaaab537          	lui	a0,0xaaaab
    2464:	aab50513          	addi	a0,a0,-1365 # aaaaaaab <_end+0xaaaa3ea7>
    2468:	00000593          	li	a1,0
    246c:	02b52633          	mulhsu	a2,a0,a1
    2470:	64c6ae23          	sw	a2,1628(a3)

00002474 <inst_425>:
    2474:	aaaab537          	lui	a0,0xaaaab
    2478:	aab50513          	addi	a0,a0,-1365 # aaaaaaab <_end+0xaaaa3ea7>
    247c:	000105b7          	lui	a1,0x10
    2480:	fff58593          	addi	a1,a1,-1 # ffff <_end+0x93fb>
    2484:	02b52633          	mulhsu	a2,a0,a1
    2488:	66c6a023          	sw	a2,1632(a3)

0000248c <inst_426>:
    248c:	aaaab537          	lui	a0,0xaaaab
    2490:	aab50513          	addi	a0,a0,-1365 # aaaaaaab <_end+0xaaaa3ea7>
    2494:	00200593          	li	a1,2
    2498:	02b52633          	mulhsu	a2,a0,a1
    249c:	66c6a223          	sw	a2,1636(a3)

000024a0 <inst_427>:
    24a0:	aaaab537          	lui	a0,0xaaaab
    24a4:	aab50513          	addi	a0,a0,-1365 # aaaaaaab <_end+0xaaaa3ea7>
    24a8:	555555b7          	lui	a1,0x55555
    24ac:	55458593          	addi	a1,a1,1364 # 55555554 <_end+0x5554e950>
    24b0:	02b52633          	mulhsu	a2,a0,a1
    24b4:	66c6a423          	sw	a2,1640(a3)

000024b8 <inst_428>:
    24b8:	aaaab537          	lui	a0,0xaaaab
    24bc:	aab50513          	addi	a0,a0,-1365 # aaaaaaab <_end+0xaaaa3ea7>
    24c0:	aaaab5b7          	lui	a1,0xaaaab
    24c4:	aa958593          	addi	a1,a1,-1367 # aaaaaaa9 <_end+0xaaaa3ea5>
    24c8:	02b52633          	mulhsu	a2,a0,a1
    24cc:	66c6a623          	sw	a2,1644(a3)

000024d0 <inst_429>:
    24d0:	aaaab537          	lui	a0,0xaaaab
    24d4:	aab50513          	addi	a0,a0,-1365 # aaaaaaab <_end+0xaaaa3ea7>
    24d8:	00400593          	li	a1,4
    24dc:	02b52633          	mulhsu	a2,a0,a1
    24e0:	66c6a823          	sw	a2,1648(a3)

000024e4 <inst_430>:
    24e4:	aaaab537          	lui	a0,0xaaaab
    24e8:	aab50513          	addi	a0,a0,-1365 # aaaaaaab <_end+0xaaaa3ea7>
    24ec:	333335b7          	lui	a1,0x33333
    24f0:	33258593          	addi	a1,a1,818 # 33333332 <_end+0x3332c72e>
    24f4:	02b52633          	mulhsu	a2,a0,a1
    24f8:	66c6aa23          	sw	a2,1652(a3)

000024fc <inst_431>:
    24fc:	aaaab537          	lui	a0,0xaaaab
    2500:	aab50513          	addi	a0,a0,-1365 # aaaaaaab <_end+0xaaaa3ea7>
    2504:	666665b7          	lui	a1,0x66666
    2508:	66558593          	addi	a1,a1,1637 # 66666665 <_end+0x6665fa61>
    250c:	02b52633          	mulhsu	a2,a0,a1
    2510:	66c6ac23          	sw	a2,1656(a3)

00002514 <inst_432>:
    2514:	aaaab537          	lui	a0,0xaaaab
    2518:	aab50513          	addi	a0,a0,-1365 # aaaaaaab <_end+0xaaaa3ea7>
    251c:	0000b5b7          	lui	a1,0xb
    2520:	50358593          	addi	a1,a1,1283 # b503 <_end+0x48ff>
    2524:	02b52633          	mulhsu	a2,a0,a1
    2528:	66c6ae23          	sw	a2,1660(a3)

0000252c <inst_433>:
    252c:	aaaab537          	lui	a0,0xaaaab
    2530:	aab50513          	addi	a0,a0,-1365 # aaaaaaab <_end+0xaaaa3ea7>
    2534:	000105b7          	lui	a1,0x10
    2538:	ffe58593          	addi	a1,a1,-2 # fffe <_end+0x93fa>
    253c:	02b52633          	mulhsu	a2,a0,a1
    2540:	68c6a023          	sw	a2,1664(a3)

00002544 <inst_434>:
    2544:	aaaab537          	lui	a0,0xaaaab
    2548:	aab50513          	addi	a0,a0,-1365 # aaaaaaab <_end+0xaaaa3ea7>
    254c:	555555b7          	lui	a1,0x55555
    2550:	55658593          	addi	a1,a1,1366 # 55555556 <_end+0x5554e952>
    2554:	02b52633          	mulhsu	a2,a0,a1
    2558:	68c6a223          	sw	a2,1668(a3)

0000255c <inst_435>:
    255c:	aaaab537          	lui	a0,0xaaaab
    2560:	aab50513          	addi	a0,a0,-1365 # aaaaaaab <_end+0xaaaa3ea7>
    2564:	aaaab5b7          	lui	a1,0xaaaab
    2568:	aab58593          	addi	a1,a1,-1365 # aaaaaaab <_end+0xaaaa3ea7>
    256c:	02b52633          	mulhsu	a2,a0,a1
    2570:	68c6a423          	sw	a2,1672(a3)

00002574 <inst_436>:
    2574:	aaaab537          	lui	a0,0xaaaab
    2578:	aab50513          	addi	a0,a0,-1365 # aaaaaaab <_end+0xaaaa3ea7>
    257c:	00600593          	li	a1,6
    2580:	02b52633          	mulhsu	a2,a0,a1
    2584:	68c6a623          	sw	a2,1676(a3)

00002588 <inst_437>:
    2588:	aaaab537          	lui	a0,0xaaaab
    258c:	aab50513          	addi	a0,a0,-1365 # aaaaaaab <_end+0xaaaa3ea7>
    2590:	333335b7          	lui	a1,0x33333
    2594:	33458593          	addi	a1,a1,820 # 33333334 <_end+0x3332c730>
    2598:	02b52633          	mulhsu	a2,a0,a1
    259c:	68c6a823          	sw	a2,1680(a3)

000025a0 <inst_438>:
    25a0:	aaaab537          	lui	a0,0xaaaab
    25a4:	aab50513          	addi	a0,a0,-1365 # aaaaaaab <_end+0xaaaa3ea7>
    25a8:	666665b7          	lui	a1,0x66666
    25ac:	66758593          	addi	a1,a1,1639 # 66666667 <_end+0x6665fa63>
    25b0:	02b52633          	mulhsu	a2,a0,a1
    25b4:	68c6aa23          	sw	a2,1684(a3)

000025b8 <inst_439>:
    25b8:	aaaab537          	lui	a0,0xaaaab
    25bc:	aab50513          	addi	a0,a0,-1365 # aaaaaaab <_end+0xaaaa3ea7>
    25c0:	0000b5b7          	lui	a1,0xb
    25c4:	50558593          	addi	a1,a1,1285 # b505 <_end+0x4901>
    25c8:	02b52633          	mulhsu	a2,a0,a1
    25cc:	68c6ac23          	sw	a2,1688(a3)

000025d0 <inst_440>:
    25d0:	aaaab537          	lui	a0,0xaaaab
    25d4:	aab50513          	addi	a0,a0,-1365 # aaaaaaab <_end+0xaaaa3ea7>
    25d8:	00100593          	li	a1,1
    25dc:	02b52633          	mulhsu	a2,a0,a1
    25e0:	68c6ae23          	sw	a2,1692(a3)

000025e4 <inst_441>:
    25e4:	aaaab537          	lui	a0,0xaaaab
    25e8:	aab50513          	addi	a0,a0,-1365 # aaaaaaab <_end+0xaaaa3ea7>
    25ec:	000105b7          	lui	a1,0x10
    25f0:	02b52633          	mulhsu	a2,a0,a1
    25f4:	6ac6a023          	sw	a2,1696(a3)

000025f8 <inst_442>:
    25f8:	00600513          	li	a0,6
    25fc:	00300593          	li	a1,3
    2600:	02b52633          	mulhsu	a2,a0,a1
    2604:	6ac6a223          	sw	a2,1700(a3)

00002608 <inst_443>:
    2608:	00600513          	li	a0,6
    260c:	555555b7          	lui	a1,0x55555
    2610:	55558593          	addi	a1,a1,1365 # 55555555 <_end+0x5554e951>
    2614:	02b52633          	mulhsu	a2,a0,a1
    2618:	6ac6a423          	sw	a2,1704(a3)

0000261c <inst_444>:
    261c:	00600513          	li	a0,6
    2620:	aaaab5b7          	lui	a1,0xaaaab
    2624:	aaa58593          	addi	a1,a1,-1366 # aaaaaaaa <_end+0xaaaa3ea6>
    2628:	02b52633          	mulhsu	a2,a0,a1
    262c:	6ac6a623          	sw	a2,1708(a3)

00002630 <inst_445>:
    2630:	00600513          	li	a0,6
    2634:	00500593          	li	a1,5
    2638:	02b52633          	mulhsu	a2,a0,a1
    263c:	6ac6a823          	sw	a2,1712(a3)

00002640 <inst_446>:
    2640:	00600513          	li	a0,6
    2644:	333335b7          	lui	a1,0x33333
    2648:	33358593          	addi	a1,a1,819 # 33333333 <_end+0x3332c72f>
    264c:	02b52633          	mulhsu	a2,a0,a1
    2650:	6ac6aa23          	sw	a2,1716(a3)

00002654 <inst_447>:
    2654:	00600513          	li	a0,6
    2658:	666665b7          	lui	a1,0x66666
    265c:	66658593          	addi	a1,a1,1638 # 66666666 <_end+0x6665fa62>
    2660:	02b52633          	mulhsu	a2,a0,a1
    2664:	6ac6ac23          	sw	a2,1720(a3)

00002668 <inst_448>:
    2668:	00600513          	li	a0,6
    266c:	0000b5b7          	lui	a1,0xb
    2670:	50458593          	addi	a1,a1,1284 # b504 <_end+0x4900>
    2674:	02b52633          	mulhsu	a2,a0,a1
    2678:	6ac6ae23          	sw	a2,1724(a3)

0000267c <inst_449>:
    267c:	00600513          	li	a0,6
    2680:	00000593          	li	a1,0
    2684:	02b52633          	mulhsu	a2,a0,a1
    2688:	6cc6a023          	sw	a2,1728(a3)

0000268c <inst_450>:
    268c:	00600513          	li	a0,6
    2690:	000105b7          	lui	a1,0x10
    2694:	fff58593          	addi	a1,a1,-1 # ffff <_end+0x93fb>
    2698:	02b52633          	mulhsu	a2,a0,a1
    269c:	6cc6a223          	sw	a2,1732(a3)

000026a0 <inst_451>:
    26a0:	00600513          	li	a0,6
    26a4:	00200593          	li	a1,2
    26a8:	02b52633          	mulhsu	a2,a0,a1
    26ac:	6cc6a423          	sw	a2,1736(a3)

000026b0 <inst_452>:
    26b0:	00600513          	li	a0,6
    26b4:	555555b7          	lui	a1,0x55555
    26b8:	55458593          	addi	a1,a1,1364 # 55555554 <_end+0x5554e950>
    26bc:	02b52633          	mulhsu	a2,a0,a1
    26c0:	6cc6a623          	sw	a2,1740(a3)

000026c4 <inst_453>:
    26c4:	00600513          	li	a0,6
    26c8:	aaaab5b7          	lui	a1,0xaaaab
    26cc:	aa958593          	addi	a1,a1,-1367 # aaaaaaa9 <_end+0xaaaa3ea5>
    26d0:	02b52633          	mulhsu	a2,a0,a1
    26d4:	6cc6a823          	sw	a2,1744(a3)

000026d8 <inst_454>:
    26d8:	00600513          	li	a0,6
    26dc:	333335b7          	lui	a1,0x33333
    26e0:	33258593          	addi	a1,a1,818 # 33333332 <_end+0x3332c72e>
    26e4:	02b52633          	mulhsu	a2,a0,a1
    26e8:	6cc6aa23          	sw	a2,1748(a3)

000026ec <inst_455>:
    26ec:	00600513          	li	a0,6
    26f0:	666665b7          	lui	a1,0x66666
    26f4:	66558593          	addi	a1,a1,1637 # 66666665 <_end+0x6665fa61>
    26f8:	02b52633          	mulhsu	a2,a0,a1
    26fc:	6cc6ac23          	sw	a2,1752(a3)

00002700 <inst_456>:
    2700:	00600513          	li	a0,6
    2704:	0000b5b7          	lui	a1,0xb
    2708:	50358593          	addi	a1,a1,1283 # b503 <_end+0x48ff>
    270c:	02b52633          	mulhsu	a2,a0,a1
    2710:	6cc6ae23          	sw	a2,1756(a3)

00002714 <inst_457>:
    2714:	00600513          	li	a0,6
    2718:	000105b7          	lui	a1,0x10
    271c:	ffe58593          	addi	a1,a1,-2 # fffe <_end+0x93fa>
    2720:	02b52633          	mulhsu	a2,a0,a1
    2724:	6ec6a023          	sw	a2,1760(a3)

00002728 <inst_458>:
    2728:	00600513          	li	a0,6
    272c:	555555b7          	lui	a1,0x55555
    2730:	55658593          	addi	a1,a1,1366 # 55555556 <_end+0x5554e952>
    2734:	02b52633          	mulhsu	a2,a0,a1
    2738:	6ec6a223          	sw	a2,1764(a3)

0000273c <inst_459>:
    273c:	00600513          	li	a0,6
    2740:	aaaab5b7          	lui	a1,0xaaaab
    2744:	aab58593          	addi	a1,a1,-1365 # aaaaaaab <_end+0xaaaa3ea7>
    2748:	02b52633          	mulhsu	a2,a0,a1
    274c:	6ec6a423          	sw	a2,1768(a3)

00002750 <inst_460>:
    2750:	00600513          	li	a0,6
    2754:	00600593          	li	a1,6
    2758:	02b52633          	mulhsu	a2,a0,a1
    275c:	6ec6a623          	sw	a2,1772(a3)

00002760 <inst_461>:
    2760:	00600513          	li	a0,6
    2764:	333335b7          	lui	a1,0x33333
    2768:	33458593          	addi	a1,a1,820 # 33333334 <_end+0x3332c730>
    276c:	02b52633          	mulhsu	a2,a0,a1
    2770:	6ec6a823          	sw	a2,1776(a3)

00002774 <inst_462>:
    2774:	00600513          	li	a0,6
    2778:	666665b7          	lui	a1,0x66666
    277c:	66758593          	addi	a1,a1,1639 # 66666667 <_end+0x6665fa63>
    2780:	02b52633          	mulhsu	a2,a0,a1
    2784:	6ec6aa23          	sw	a2,1780(a3)

00002788 <inst_463>:
    2788:	00600513          	li	a0,6
    278c:	0000b5b7          	lui	a1,0xb
    2790:	50558593          	addi	a1,a1,1285 # b505 <_end+0x4901>
    2794:	02b52633          	mulhsu	a2,a0,a1
    2798:	6ec6ac23          	sw	a2,1784(a3)

0000279c <inst_464>:
    279c:	00600513          	li	a0,6
    27a0:	00100593          	li	a1,1
    27a4:	02b52633          	mulhsu	a2,a0,a1
    27a8:	6ec6ae23          	sw	a2,1788(a3)

000027ac <inst_465>:
    27ac:	00600513          	li	a0,6
    27b0:	000105b7          	lui	a1,0x10
    27b4:	02b52633          	mulhsu	a2,a0,a1
    27b8:	70c6a023          	sw	a2,1792(a3)

000027bc <inst_466>:
    27bc:	33333537          	lui	a0,0x33333
    27c0:	33450513          	addi	a0,a0,820 # 33333334 <_end+0x3332c730>
    27c4:	00300593          	li	a1,3
    27c8:	02b52633          	mulhsu	a2,a0,a1
    27cc:	70c6a223          	sw	a2,1796(a3)

000027d0 <inst_467>:
    27d0:	33333537          	lui	a0,0x33333
    27d4:	33450513          	addi	a0,a0,820 # 33333334 <_end+0x3332c730>
    27d8:	555555b7          	lui	a1,0x55555
    27dc:	55558593          	addi	a1,a1,1365 # 55555555 <_end+0x5554e951>
    27e0:	02b52633          	mulhsu	a2,a0,a1
    27e4:	70c6a423          	sw	a2,1800(a3)

000027e8 <inst_468>:
    27e8:	33333537          	lui	a0,0x33333
    27ec:	33450513          	addi	a0,a0,820 # 33333334 <_end+0x3332c730>
    27f0:	aaaab5b7          	lui	a1,0xaaaab
    27f4:	aaa58593          	addi	a1,a1,-1366 # aaaaaaaa <_end+0xaaaa3ea6>
    27f8:	02b52633          	mulhsu	a2,a0,a1
    27fc:	70c6a623          	sw	a2,1804(a3)

00002800 <inst_469>:
    2800:	33333537          	lui	a0,0x33333
    2804:	33450513          	addi	a0,a0,820 # 33333334 <_end+0x3332c730>
    2808:	00500593          	li	a1,5
    280c:	02b52633          	mulhsu	a2,a0,a1
    2810:	70c6a823          	sw	a2,1808(a3)

00002814 <inst_470>:
    2814:	33333537          	lui	a0,0x33333
    2818:	33450513          	addi	a0,a0,820 # 33333334 <_end+0x3332c730>
    281c:	333335b7          	lui	a1,0x33333
    2820:	33358593          	addi	a1,a1,819 # 33333333 <_end+0x3332c72f>
    2824:	02b52633          	mulhsu	a2,a0,a1
    2828:	70c6aa23          	sw	a2,1812(a3)

0000282c <inst_471>:
    282c:	33333537          	lui	a0,0x33333
    2830:	33450513          	addi	a0,a0,820 # 33333334 <_end+0x3332c730>
    2834:	666665b7          	lui	a1,0x66666
    2838:	66658593          	addi	a1,a1,1638 # 66666666 <_end+0x6665fa62>
    283c:	02b52633          	mulhsu	a2,a0,a1
    2840:	70c6ac23          	sw	a2,1816(a3)

00002844 <inst_472>:
    2844:	33333537          	lui	a0,0x33333
    2848:	33450513          	addi	a0,a0,820 # 33333334 <_end+0x3332c730>
    284c:	0000b5b7          	lui	a1,0xb
    2850:	50458593          	addi	a1,a1,1284 # b504 <_end+0x4900>
    2854:	02b52633          	mulhsu	a2,a0,a1
    2858:	70c6ae23          	sw	a2,1820(a3)

0000285c <inst_473>:
    285c:	33333537          	lui	a0,0x33333
    2860:	33450513          	addi	a0,a0,820 # 33333334 <_end+0x3332c730>
    2864:	00000593          	li	a1,0
    2868:	02b52633          	mulhsu	a2,a0,a1
    286c:	72c6a023          	sw	a2,1824(a3)

00002870 <inst_474>:
    2870:	33333537          	lui	a0,0x33333
    2874:	33450513          	addi	a0,a0,820 # 33333334 <_end+0x3332c730>
    2878:	000105b7          	lui	a1,0x10
    287c:	fff58593          	addi	a1,a1,-1 # ffff <_end+0x93fb>
    2880:	02b52633          	mulhsu	a2,a0,a1
    2884:	72c6a223          	sw	a2,1828(a3)

00002888 <inst_475>:
    2888:	33333537          	lui	a0,0x33333
    288c:	33450513          	addi	a0,a0,820 # 33333334 <_end+0x3332c730>
    2890:	00200593          	li	a1,2
    2894:	02b52633          	mulhsu	a2,a0,a1
    2898:	72c6a423          	sw	a2,1832(a3)

0000289c <inst_476>:
    289c:	33333537          	lui	a0,0x33333
    28a0:	33450513          	addi	a0,a0,820 # 33333334 <_end+0x3332c730>
    28a4:	555555b7          	lui	a1,0x55555
    28a8:	55458593          	addi	a1,a1,1364 # 55555554 <_end+0x5554e950>
    28ac:	02b52633          	mulhsu	a2,a0,a1
    28b0:	72c6a623          	sw	a2,1836(a3)

000028b4 <inst_477>:
    28b4:	33333537          	lui	a0,0x33333
    28b8:	33450513          	addi	a0,a0,820 # 33333334 <_end+0x3332c730>
    28bc:	aaaab5b7          	lui	a1,0xaaaab
    28c0:	aa958593          	addi	a1,a1,-1367 # aaaaaaa9 <_end+0xaaaa3ea5>
    28c4:	02b52633          	mulhsu	a2,a0,a1
    28c8:	72c6a823          	sw	a2,1840(a3)

000028cc <inst_478>:
    28cc:	33333537          	lui	a0,0x33333
    28d0:	33450513          	addi	a0,a0,820 # 33333334 <_end+0x3332c730>
    28d4:	00400593          	li	a1,4
    28d8:	02b52633          	mulhsu	a2,a0,a1
    28dc:	72c6aa23          	sw	a2,1844(a3)

000028e0 <inst_479>:
    28e0:	33333537          	lui	a0,0x33333
    28e4:	33450513          	addi	a0,a0,820 # 33333334 <_end+0x3332c730>
    28e8:	333335b7          	lui	a1,0x33333
    28ec:	33258593          	addi	a1,a1,818 # 33333332 <_end+0x3332c72e>
    28f0:	02b52633          	mulhsu	a2,a0,a1
    28f4:	72c6ac23          	sw	a2,1848(a3)

000028f8 <inst_480>:
    28f8:	33333537          	lui	a0,0x33333
    28fc:	33450513          	addi	a0,a0,820 # 33333334 <_end+0x3332c730>
    2900:	666665b7          	lui	a1,0x66666
    2904:	66558593          	addi	a1,a1,1637 # 66666665 <_end+0x6665fa61>
    2908:	02b52633          	mulhsu	a2,a0,a1
    290c:	72c6ae23          	sw	a2,1852(a3)

00002910 <inst_481>:
    2910:	33333537          	lui	a0,0x33333
    2914:	33450513          	addi	a0,a0,820 # 33333334 <_end+0x3332c730>
    2918:	0000b5b7          	lui	a1,0xb
    291c:	50358593          	addi	a1,a1,1283 # b503 <_end+0x48ff>
    2920:	02b52633          	mulhsu	a2,a0,a1
    2924:	74c6a023          	sw	a2,1856(a3)

00002928 <inst_482>:
    2928:	33333537          	lui	a0,0x33333
    292c:	33450513          	addi	a0,a0,820 # 33333334 <_end+0x3332c730>
    2930:	000105b7          	lui	a1,0x10
    2934:	ffe58593          	addi	a1,a1,-2 # fffe <_end+0x93fa>
    2938:	02b52633          	mulhsu	a2,a0,a1
    293c:	74c6a223          	sw	a2,1860(a3)

00002940 <inst_483>:
    2940:	33333537          	lui	a0,0x33333
    2944:	33450513          	addi	a0,a0,820 # 33333334 <_end+0x3332c730>
    2948:	555555b7          	lui	a1,0x55555
    294c:	55658593          	addi	a1,a1,1366 # 55555556 <_end+0x5554e952>
    2950:	02b52633          	mulhsu	a2,a0,a1
    2954:	74c6a423          	sw	a2,1864(a3)

00002958 <inst_484>:
    2958:	33333537          	lui	a0,0x33333
    295c:	33450513          	addi	a0,a0,820 # 33333334 <_end+0x3332c730>
    2960:	aaaab5b7          	lui	a1,0xaaaab
    2964:	aab58593          	addi	a1,a1,-1365 # aaaaaaab <_end+0xaaaa3ea7>
    2968:	02b52633          	mulhsu	a2,a0,a1
    296c:	74c6a623          	sw	a2,1868(a3)

00002970 <inst_485>:
    2970:	33333537          	lui	a0,0x33333
    2974:	33450513          	addi	a0,a0,820 # 33333334 <_end+0x3332c730>
    2978:	00600593          	li	a1,6
    297c:	02b52633          	mulhsu	a2,a0,a1
    2980:	74c6a823          	sw	a2,1872(a3)

00002984 <inst_486>:
    2984:	33333537          	lui	a0,0x33333
    2988:	33450513          	addi	a0,a0,820 # 33333334 <_end+0x3332c730>
    298c:	333335b7          	lui	a1,0x33333
    2990:	33458593          	addi	a1,a1,820 # 33333334 <_end+0x3332c730>
    2994:	02b52633          	mulhsu	a2,a0,a1
    2998:	74c6aa23          	sw	a2,1876(a3)

0000299c <inst_487>:
    299c:	33333537          	lui	a0,0x33333
    29a0:	33450513          	addi	a0,a0,820 # 33333334 <_end+0x3332c730>
    29a4:	666665b7          	lui	a1,0x66666
    29a8:	66758593          	addi	a1,a1,1639 # 66666667 <_end+0x6665fa63>
    29ac:	02b52633          	mulhsu	a2,a0,a1
    29b0:	74c6ac23          	sw	a2,1880(a3)

000029b4 <inst_488>:
    29b4:	33333537          	lui	a0,0x33333
    29b8:	33450513          	addi	a0,a0,820 # 33333334 <_end+0x3332c730>
    29bc:	0000b5b7          	lui	a1,0xb
    29c0:	50558593          	addi	a1,a1,1285 # b505 <_end+0x4901>
    29c4:	02b52633          	mulhsu	a2,a0,a1
    29c8:	74c6ae23          	sw	a2,1884(a3)

000029cc <inst_489>:
    29cc:	33333537          	lui	a0,0x33333
    29d0:	33450513          	addi	a0,a0,820 # 33333334 <_end+0x3332c730>
    29d4:	00100593          	li	a1,1
    29d8:	02b52633          	mulhsu	a2,a0,a1
    29dc:	76c6a023          	sw	a2,1888(a3)

000029e0 <inst_490>:
    29e0:	33333537          	lui	a0,0x33333
    29e4:	33450513          	addi	a0,a0,820 # 33333334 <_end+0x3332c730>
    29e8:	000105b7          	lui	a1,0x10
    29ec:	02b52633          	mulhsu	a2,a0,a1
    29f0:	76c6a223          	sw	a2,1892(a3)

000029f4 <inst_491>:
    29f4:	66666537          	lui	a0,0x66666
    29f8:	66750513          	addi	a0,a0,1639 # 66666667 <_end+0x6665fa63>
    29fc:	00300593          	li	a1,3
    2a00:	02b52633          	mulhsu	a2,a0,a1
    2a04:	76c6a423          	sw	a2,1896(a3)

00002a08 <inst_492>:
    2a08:	66666537          	lui	a0,0x66666
    2a0c:	66750513          	addi	a0,a0,1639 # 66666667 <_end+0x6665fa63>
    2a10:	555555b7          	lui	a1,0x55555
    2a14:	55558593          	addi	a1,a1,1365 # 55555555 <_end+0x5554e951>
    2a18:	02b52633          	mulhsu	a2,a0,a1
    2a1c:	76c6a623          	sw	a2,1900(a3)

00002a20 <inst_493>:
    2a20:	66666537          	lui	a0,0x66666
    2a24:	66750513          	addi	a0,a0,1639 # 66666667 <_end+0x6665fa63>
    2a28:	aaaab5b7          	lui	a1,0xaaaab
    2a2c:	aaa58593          	addi	a1,a1,-1366 # aaaaaaaa <_end+0xaaaa3ea6>
    2a30:	02b52633          	mulhsu	a2,a0,a1
    2a34:	76c6a823          	sw	a2,1904(a3)

00002a38 <inst_494>:
    2a38:	66666537          	lui	a0,0x66666
    2a3c:	66750513          	addi	a0,a0,1639 # 66666667 <_end+0x6665fa63>
    2a40:	00500593          	li	a1,5
    2a44:	02b52633          	mulhsu	a2,a0,a1
    2a48:	76c6aa23          	sw	a2,1908(a3)

00002a4c <inst_495>:
    2a4c:	66666537          	lui	a0,0x66666
    2a50:	66750513          	addi	a0,a0,1639 # 66666667 <_end+0x6665fa63>
    2a54:	333335b7          	lui	a1,0x33333
    2a58:	33358593          	addi	a1,a1,819 # 33333333 <_end+0x3332c72f>
    2a5c:	02b52633          	mulhsu	a2,a0,a1
    2a60:	76c6ac23          	sw	a2,1912(a3)

00002a64 <inst_496>:
    2a64:	66666537          	lui	a0,0x66666
    2a68:	66750513          	addi	a0,a0,1639 # 66666667 <_end+0x6665fa63>
    2a6c:	666665b7          	lui	a1,0x66666
    2a70:	66658593          	addi	a1,a1,1638 # 66666666 <_end+0x6665fa62>
    2a74:	02b52633          	mulhsu	a2,a0,a1
    2a78:	76c6ae23          	sw	a2,1916(a3)

00002a7c <inst_497>:
    2a7c:	66666537          	lui	a0,0x66666
    2a80:	66750513          	addi	a0,a0,1639 # 66666667 <_end+0x6665fa63>
    2a84:	0000b5b7          	lui	a1,0xb
    2a88:	50458593          	addi	a1,a1,1284 # b504 <_end+0x4900>
    2a8c:	02b52633          	mulhsu	a2,a0,a1
    2a90:	78c6a023          	sw	a2,1920(a3)

00002a94 <inst_498>:
    2a94:	66666537          	lui	a0,0x66666
    2a98:	66750513          	addi	a0,a0,1639 # 66666667 <_end+0x6665fa63>
    2a9c:	00000593          	li	a1,0
    2aa0:	02b52633          	mulhsu	a2,a0,a1
    2aa4:	78c6a223          	sw	a2,1924(a3)

00002aa8 <inst_499>:
    2aa8:	66666537          	lui	a0,0x66666
    2aac:	66750513          	addi	a0,a0,1639 # 66666667 <_end+0x6665fa63>
    2ab0:	000105b7          	lui	a1,0x10
    2ab4:	fff58593          	addi	a1,a1,-1 # ffff <_end+0x93fb>
    2ab8:	02b52633          	mulhsu	a2,a0,a1
    2abc:	78c6a423          	sw	a2,1928(a3)

00002ac0 <inst_500>:
    2ac0:	66666537          	lui	a0,0x66666
    2ac4:	66750513          	addi	a0,a0,1639 # 66666667 <_end+0x6665fa63>
    2ac8:	00200593          	li	a1,2
    2acc:	02b52633          	mulhsu	a2,a0,a1
    2ad0:	78c6a623          	sw	a2,1932(a3)

00002ad4 <inst_501>:
    2ad4:	66666537          	lui	a0,0x66666
    2ad8:	66750513          	addi	a0,a0,1639 # 66666667 <_end+0x6665fa63>
    2adc:	555555b7          	lui	a1,0x55555
    2ae0:	55458593          	addi	a1,a1,1364 # 55555554 <_end+0x5554e950>
    2ae4:	02b52633          	mulhsu	a2,a0,a1
    2ae8:	78c6a823          	sw	a2,1936(a3)

00002aec <inst_502>:
    2aec:	66666537          	lui	a0,0x66666
    2af0:	66750513          	addi	a0,a0,1639 # 66666667 <_end+0x6665fa63>
    2af4:	aaaab5b7          	lui	a1,0xaaaab
    2af8:	aa958593          	addi	a1,a1,-1367 # aaaaaaa9 <_end+0xaaaa3ea5>
    2afc:	02b52633          	mulhsu	a2,a0,a1
    2b00:	78c6aa23          	sw	a2,1940(a3)

00002b04 <inst_503>:
    2b04:	66666537          	lui	a0,0x66666
    2b08:	66750513          	addi	a0,a0,1639 # 66666667 <_end+0x6665fa63>
    2b0c:	00400593          	li	a1,4
    2b10:	02b52633          	mulhsu	a2,a0,a1
    2b14:	78c6ac23          	sw	a2,1944(a3)

00002b18 <inst_504>:
    2b18:	66666537          	lui	a0,0x66666
    2b1c:	66750513          	addi	a0,a0,1639 # 66666667 <_end+0x6665fa63>
    2b20:	333335b7          	lui	a1,0x33333
    2b24:	33258593          	addi	a1,a1,818 # 33333332 <_end+0x3332c72e>
    2b28:	02b52633          	mulhsu	a2,a0,a1
    2b2c:	78c6ae23          	sw	a2,1948(a3)

00002b30 <inst_505>:
    2b30:	66666537          	lui	a0,0x66666
    2b34:	66750513          	addi	a0,a0,1639 # 66666667 <_end+0x6665fa63>
    2b38:	666665b7          	lui	a1,0x66666
    2b3c:	66558593          	addi	a1,a1,1637 # 66666665 <_end+0x6665fa61>
    2b40:	02b52633          	mulhsu	a2,a0,a1
    2b44:	7ac6a023          	sw	a2,1952(a3)

00002b48 <inst_506>:
    2b48:	66666537          	lui	a0,0x66666
    2b4c:	66750513          	addi	a0,a0,1639 # 66666667 <_end+0x6665fa63>
    2b50:	0000b5b7          	lui	a1,0xb
    2b54:	50358593          	addi	a1,a1,1283 # b503 <_end+0x48ff>
    2b58:	02b52633          	mulhsu	a2,a0,a1
    2b5c:	7ac6a223          	sw	a2,1956(a3)

00002b60 <inst_507>:
    2b60:	66666537          	lui	a0,0x66666
    2b64:	66750513          	addi	a0,a0,1639 # 66666667 <_end+0x6665fa63>
    2b68:	000105b7          	lui	a1,0x10
    2b6c:	ffe58593          	addi	a1,a1,-2 # fffe <_end+0x93fa>
    2b70:	02b52633          	mulhsu	a2,a0,a1
    2b74:	7ac6a423          	sw	a2,1960(a3)

00002b78 <inst_508>:
    2b78:	66666537          	lui	a0,0x66666
    2b7c:	66750513          	addi	a0,a0,1639 # 66666667 <_end+0x6665fa63>
    2b80:	555555b7          	lui	a1,0x55555
    2b84:	55658593          	addi	a1,a1,1366 # 55555556 <_end+0x5554e952>
    2b88:	02b52633          	mulhsu	a2,a0,a1
    2b8c:	7ac6a623          	sw	a2,1964(a3)

00002b90 <inst_509>:
    2b90:	66666537          	lui	a0,0x66666
    2b94:	66750513          	addi	a0,a0,1639 # 66666667 <_end+0x6665fa63>
    2b98:	aaaab5b7          	lui	a1,0xaaaab
    2b9c:	aab58593          	addi	a1,a1,-1365 # aaaaaaab <_end+0xaaaa3ea7>
    2ba0:	02b52633          	mulhsu	a2,a0,a1
    2ba4:	7ac6a823          	sw	a2,1968(a3)

00002ba8 <inst_510>:
    2ba8:	66666537          	lui	a0,0x66666
    2bac:	66750513          	addi	a0,a0,1639 # 66666667 <_end+0x6665fa63>
    2bb0:	00600593          	li	a1,6
    2bb4:	02b52633          	mulhsu	a2,a0,a1
    2bb8:	7ac6aa23          	sw	a2,1972(a3)

00002bbc <inst_511>:
    2bbc:	66666537          	lui	a0,0x66666
    2bc0:	66750513          	addi	a0,a0,1639 # 66666667 <_end+0x6665fa63>
    2bc4:	333335b7          	lui	a1,0x33333
    2bc8:	33458593          	addi	a1,a1,820 # 33333334 <_end+0x3332c730>
    2bcc:	02b52633          	mulhsu	a2,a0,a1
    2bd0:	7ac6ac23          	sw	a2,1976(a3)

00002bd4 <inst_512>:
    2bd4:	66666537          	lui	a0,0x66666
    2bd8:	66750513          	addi	a0,a0,1639 # 66666667 <_end+0x6665fa63>
    2bdc:	666665b7          	lui	a1,0x66666
    2be0:	66758593          	addi	a1,a1,1639 # 66666667 <_end+0x6665fa63>
    2be4:	02b52633          	mulhsu	a2,a0,a1
    2be8:	7ac6ae23          	sw	a2,1980(a3)

00002bec <inst_513>:
    2bec:	66666537          	lui	a0,0x66666
    2bf0:	66750513          	addi	a0,a0,1639 # 66666667 <_end+0x6665fa63>
    2bf4:	0000b5b7          	lui	a1,0xb
    2bf8:	50558593          	addi	a1,a1,1285 # b505 <_end+0x4901>
    2bfc:	02b52633          	mulhsu	a2,a0,a1
    2c00:	7cc6a023          	sw	a2,1984(a3)

00002c04 <inst_514>:
    2c04:	66666537          	lui	a0,0x66666
    2c08:	66750513          	addi	a0,a0,1639 # 66666667 <_end+0x6665fa63>
    2c0c:	00100593          	li	a1,1
    2c10:	02b52633          	mulhsu	a2,a0,a1
    2c14:	7cc6a223          	sw	a2,1988(a3)

00002c18 <inst_515>:
    2c18:	66666537          	lui	a0,0x66666
    2c1c:	66750513          	addi	a0,a0,1639 # 66666667 <_end+0x6665fa63>
    2c20:	000105b7          	lui	a1,0x10
    2c24:	02b52633          	mulhsu	a2,a0,a1
    2c28:	7cc6a423          	sw	a2,1992(a3)

00002c2c <inst_516>:
    2c2c:	ffff5537          	lui	a0,0xffff5
    2c30:	afd50513          	addi	a0,a0,-1283 # ffff4afd <_end+0xfffedef9>
    2c34:	00300593          	li	a1,3
    2c38:	02b52633          	mulhsu	a2,a0,a1
    2c3c:	7cc6a623          	sw	a2,1996(a3)

00002c40 <inst_517>:
    2c40:	ffff5537          	lui	a0,0xffff5
    2c44:	afd50513          	addi	a0,a0,-1283 # ffff4afd <_end+0xfffedef9>
    2c48:	555555b7          	lui	a1,0x55555
    2c4c:	55558593          	addi	a1,a1,1365 # 55555555 <_end+0x5554e951>
    2c50:	02b52633          	mulhsu	a2,a0,a1
    2c54:	7cc6a823          	sw	a2,2000(a3)

00002c58 <inst_518>:
    2c58:	0000b537          	lui	a0,0xb
    2c5c:	50350513          	addi	a0,a0,1283 # b503 <_end+0x48ff>
    2c60:	333335b7          	lui	a1,0x33333
    2c64:	33258593          	addi	a1,a1,818 # 33333332 <_end+0x3332c72e>
    2c68:	02b52633          	mulhsu	a2,a0,a1
    2c6c:	7cc6aa23          	sw	a2,2004(a3)

00002c70 <inst_519>:
    2c70:	ffff5537          	lui	a0,0xffff5
    2c74:	afd50513          	addi	a0,a0,-1283 # ffff4afd <_end+0xfffedef9>
    2c78:	aaaab5b7          	lui	a1,0xaaaab
    2c7c:	aaa58593          	addi	a1,a1,-1366 # aaaaaaaa <_end+0xaaaa3ea6>
    2c80:	02b52633          	mulhsu	a2,a0,a1
    2c84:	7cc6ac23          	sw	a2,2008(a3)

00002c88 <inst_520>:
    2c88:	ffff5537          	lui	a0,0xffff5
    2c8c:	afd50513          	addi	a0,a0,-1283 # ffff4afd <_end+0xfffedef9>
    2c90:	00500593          	li	a1,5
    2c94:	02b52633          	mulhsu	a2,a0,a1
    2c98:	7cc6ae23          	sw	a2,2012(a3)

00002c9c <inst_521>:
    2c9c:	ffff5537          	lui	a0,0xffff5
    2ca0:	afd50513          	addi	a0,a0,-1283 # ffff4afd <_end+0xfffedef9>
    2ca4:	333335b7          	lui	a1,0x33333
    2ca8:	33358593          	addi	a1,a1,819 # 33333333 <_end+0x3332c72f>
    2cac:	02b52633          	mulhsu	a2,a0,a1
    2cb0:	7ec6a023          	sw	a2,2016(a3)

00002cb4 <inst_522>:
    2cb4:	ffff5537          	lui	a0,0xffff5
    2cb8:	afd50513          	addi	a0,a0,-1283 # ffff4afd <_end+0xfffedef9>
    2cbc:	666665b7          	lui	a1,0x66666
    2cc0:	66658593          	addi	a1,a1,1638 # 66666666 <_end+0x6665fa62>
    2cc4:	02b52633          	mulhsu	a2,a0,a1
    2cc8:	7ec6a223          	sw	a2,2020(a3)

00002ccc <inst_523>:
    2ccc:	ffff5537          	lui	a0,0xffff5
    2cd0:	afd50513          	addi	a0,a0,-1283 # ffff4afd <_end+0xfffedef9>
    2cd4:	0000b5b7          	lui	a1,0xb
    2cd8:	50458593          	addi	a1,a1,1284 # b504 <_end+0x4900>
    2cdc:	02b52633          	mulhsu	a2,a0,a1
    2ce0:	7ec6a423          	sw	a2,2024(a3)

00002ce4 <inst_524>:
    2ce4:	ffff5537          	lui	a0,0xffff5
    2ce8:	afd50513          	addi	a0,a0,-1283 # ffff4afd <_end+0xfffedef9>
    2cec:	00000593          	li	a1,0
    2cf0:	02b52633          	mulhsu	a2,a0,a1
    2cf4:	7ec6a623          	sw	a2,2028(a3)

00002cf8 <inst_525>:
    2cf8:	ffff5537          	lui	a0,0xffff5
    2cfc:	afd50513          	addi	a0,a0,-1283 # ffff4afd <_end+0xfffedef9>
    2d00:	000105b7          	lui	a1,0x10
    2d04:	fff58593          	addi	a1,a1,-1 # ffff <_end+0x93fb>
    2d08:	02b52633          	mulhsu	a2,a0,a1
    2d0c:	7ec6a823          	sw	a2,2032(a3)

00002d10 <inst_526>:
    2d10:	ffff5537          	lui	a0,0xffff5
    2d14:	afd50513          	addi	a0,a0,-1283 # ffff4afd <_end+0xfffedef9>
    2d18:	00200593          	li	a1,2
    2d1c:	02b52633          	mulhsu	a2,a0,a1
    2d20:	7ec6aa23          	sw	a2,2036(a3)

00002d24 <inst_527>:
    2d24:	ffff5537          	lui	a0,0xffff5
    2d28:	afd50513          	addi	a0,a0,-1283 # ffff4afd <_end+0xfffedef9>
    2d2c:	555555b7          	lui	a1,0x55555
    2d30:	55458593          	addi	a1,a1,1364 # 55555554 <_end+0x5554e950>
    2d34:	02b52633          	mulhsu	a2,a0,a1
    2d38:	7ec6ac23          	sw	a2,2040(a3)

00002d3c <inst_528>:
    2d3c:	ffff5537          	lui	a0,0xffff5
    2d40:	afd50513          	addi	a0,a0,-1283 # ffff4afd <_end+0xfffedef9>
    2d44:	aaaab5b7          	lui	a1,0xaaaab
    2d48:	aa958593          	addi	a1,a1,-1367 # aaaaaaa9 <_end+0xaaaa3ea5>
    2d4c:	02b52633          	mulhsu	a2,a0,a1
    2d50:	7ec6ae23          	sw	a2,2044(a3)
    2d54:	00004697          	auipc	a3,0x4
    2d58:	af068693          	addi	a3,a3,-1296 # 6844 <signature_x13_1>

00002d5c <inst_529>:
    2d5c:	ffff5537          	lui	a0,0xffff5
    2d60:	afd50513          	addi	a0,a0,-1283 # ffff4afd <_end+0xfffedef9>
    2d64:	00400593          	li	a1,4
    2d68:	02b52633          	mulhsu	a2,a0,a1
    2d6c:	00c6a023          	sw	a2,0(a3)

00002d70 <inst_530>:
    2d70:	ffff5537          	lui	a0,0xffff5
    2d74:	afd50513          	addi	a0,a0,-1283 # ffff4afd <_end+0xfffedef9>
    2d78:	333335b7          	lui	a1,0x33333
    2d7c:	33258593          	addi	a1,a1,818 # 33333332 <_end+0x3332c72e>
    2d80:	02b52633          	mulhsu	a2,a0,a1
    2d84:	00c6a223          	sw	a2,4(a3)

00002d88 <inst_531>:
    2d88:	ffff5537          	lui	a0,0xffff5
    2d8c:	afd50513          	addi	a0,a0,-1283 # ffff4afd <_end+0xfffedef9>
    2d90:	666665b7          	lui	a1,0x66666
    2d94:	66558593          	addi	a1,a1,1637 # 66666665 <_end+0x6665fa61>
    2d98:	02b52633          	mulhsu	a2,a0,a1
    2d9c:	00c6a423          	sw	a2,8(a3)

00002da0 <inst_532>:
    2da0:	ffff5537          	lui	a0,0xffff5
    2da4:	afd50513          	addi	a0,a0,-1283 # ffff4afd <_end+0xfffedef9>
    2da8:	0000b5b7          	lui	a1,0xb
    2dac:	50358593          	addi	a1,a1,1283 # b503 <_end+0x48ff>
    2db0:	02b52633          	mulhsu	a2,a0,a1
    2db4:	00c6a623          	sw	a2,12(a3)

00002db8 <inst_533>:
    2db8:	ffff5537          	lui	a0,0xffff5
    2dbc:	afd50513          	addi	a0,a0,-1283 # ffff4afd <_end+0xfffedef9>
    2dc0:	000105b7          	lui	a1,0x10
    2dc4:	ffe58593          	addi	a1,a1,-2 # fffe <_end+0x93fa>
    2dc8:	02b52633          	mulhsu	a2,a0,a1
    2dcc:	00c6a823          	sw	a2,16(a3)

00002dd0 <inst_534>:
    2dd0:	ffff5537          	lui	a0,0xffff5
    2dd4:	afd50513          	addi	a0,a0,-1283 # ffff4afd <_end+0xfffedef9>
    2dd8:	555555b7          	lui	a1,0x55555
    2ddc:	55658593          	addi	a1,a1,1366 # 55555556 <_end+0x5554e952>
    2de0:	02b52633          	mulhsu	a2,a0,a1
    2de4:	00c6aa23          	sw	a2,20(a3)

00002de8 <inst_535>:
    2de8:	ffff5537          	lui	a0,0xffff5
    2dec:	afd50513          	addi	a0,a0,-1283 # ffff4afd <_end+0xfffedef9>
    2df0:	aaaab5b7          	lui	a1,0xaaaab
    2df4:	aab58593          	addi	a1,a1,-1365 # aaaaaaab <_end+0xaaaa3ea7>
    2df8:	02b52633          	mulhsu	a2,a0,a1
    2dfc:	00c6ac23          	sw	a2,24(a3)

00002e00 <inst_536>:
    2e00:	ffff5537          	lui	a0,0xffff5
    2e04:	afd50513          	addi	a0,a0,-1283 # ffff4afd <_end+0xfffedef9>
    2e08:	00600593          	li	a1,6
    2e0c:	02b52633          	mulhsu	a2,a0,a1
    2e10:	00c6ae23          	sw	a2,28(a3)

00002e14 <inst_537>:
    2e14:	ffff5537          	lui	a0,0xffff5
    2e18:	afd50513          	addi	a0,a0,-1283 # ffff4afd <_end+0xfffedef9>
    2e1c:	333335b7          	lui	a1,0x33333
    2e20:	33458593          	addi	a1,a1,820 # 33333334 <_end+0x3332c730>
    2e24:	02b52633          	mulhsu	a2,a0,a1
    2e28:	02c6a023          	sw	a2,32(a3)

00002e2c <inst_538>:
    2e2c:	ffff5537          	lui	a0,0xffff5
    2e30:	afd50513          	addi	a0,a0,-1283 # ffff4afd <_end+0xfffedef9>
    2e34:	666665b7          	lui	a1,0x66666
    2e38:	66758593          	addi	a1,a1,1639 # 66666667 <_end+0x6665fa63>
    2e3c:	02b52633          	mulhsu	a2,a0,a1
    2e40:	02c6a223          	sw	a2,36(a3)

00002e44 <inst_539>:
    2e44:	ffff5537          	lui	a0,0xffff5
    2e48:	afd50513          	addi	a0,a0,-1283 # ffff4afd <_end+0xfffedef9>
    2e4c:	0000b5b7          	lui	a1,0xb
    2e50:	50558593          	addi	a1,a1,1285 # b505 <_end+0x4901>
    2e54:	02b52633          	mulhsu	a2,a0,a1
    2e58:	02c6a423          	sw	a2,40(a3)

00002e5c <inst_540>:
    2e5c:	ffff5537          	lui	a0,0xffff5
    2e60:	afd50513          	addi	a0,a0,-1283 # ffff4afd <_end+0xfffedef9>
    2e64:	00100593          	li	a1,1
    2e68:	02b52633          	mulhsu	a2,a0,a1
    2e6c:	02c6a623          	sw	a2,44(a3)

00002e70 <inst_541>:
    2e70:	ffff5537          	lui	a0,0xffff5
    2e74:	afd50513          	addi	a0,a0,-1283 # ffff4afd <_end+0xfffedef9>
    2e78:	000105b7          	lui	a1,0x10
    2e7c:	02b52633          	mulhsu	a2,a0,a1
    2e80:	02c6a823          	sw	a2,48(a3)

00002e84 <inst_542>:
    2e84:	0000b537          	lui	a0,0xb
    2e88:	50550513          	addi	a0,a0,1285 # b505 <_end+0x4901>
    2e8c:	00300593          	li	a1,3
    2e90:	02b52633          	mulhsu	a2,a0,a1
    2e94:	02c6aa23          	sw	a2,52(a3)

00002e98 <inst_543>:
    2e98:	0000b537          	lui	a0,0xb
    2e9c:	50550513          	addi	a0,a0,1285 # b505 <_end+0x4901>
    2ea0:	555555b7          	lui	a1,0x55555
    2ea4:	55558593          	addi	a1,a1,1365 # 55555555 <_end+0x5554e951>
    2ea8:	02b52633          	mulhsu	a2,a0,a1
    2eac:	02c6ac23          	sw	a2,56(a3)

00002eb0 <inst_544>:
    2eb0:	0000b537          	lui	a0,0xb
    2eb4:	50550513          	addi	a0,a0,1285 # b505 <_end+0x4901>
    2eb8:	aaaab5b7          	lui	a1,0xaaaab
    2ebc:	aaa58593          	addi	a1,a1,-1366 # aaaaaaaa <_end+0xaaaa3ea6>
    2ec0:	02b52633          	mulhsu	a2,a0,a1
    2ec4:	02c6ae23          	sw	a2,60(a3)

00002ec8 <inst_545>:
    2ec8:	0000b537          	lui	a0,0xb
    2ecc:	50550513          	addi	a0,a0,1285 # b505 <_end+0x4901>
    2ed0:	00500593          	li	a1,5
    2ed4:	02b52633          	mulhsu	a2,a0,a1
    2ed8:	04c6a023          	sw	a2,64(a3)

00002edc <inst_546>:
    2edc:	0000b537          	lui	a0,0xb
    2ee0:	50550513          	addi	a0,a0,1285 # b505 <_end+0x4901>
    2ee4:	333335b7          	lui	a1,0x33333
    2ee8:	33358593          	addi	a1,a1,819 # 33333333 <_end+0x3332c72f>
    2eec:	02b52633          	mulhsu	a2,a0,a1
    2ef0:	04c6a223          	sw	a2,68(a3)

00002ef4 <inst_547>:
    2ef4:	0000b537          	lui	a0,0xb
    2ef8:	50550513          	addi	a0,a0,1285 # b505 <_end+0x4901>
    2efc:	666665b7          	lui	a1,0x66666
    2f00:	66658593          	addi	a1,a1,1638 # 66666666 <_end+0x6665fa62>
    2f04:	02b52633          	mulhsu	a2,a0,a1
    2f08:	04c6a423          	sw	a2,72(a3)

00002f0c <inst_548>:
    2f0c:	0000b537          	lui	a0,0xb
    2f10:	50550513          	addi	a0,a0,1285 # b505 <_end+0x4901>
    2f14:	0000b5b7          	lui	a1,0xb
    2f18:	50458593          	addi	a1,a1,1284 # b504 <_end+0x4900>
    2f1c:	02b52633          	mulhsu	a2,a0,a1
    2f20:	04c6a623          	sw	a2,76(a3)

00002f24 <inst_549>:
    2f24:	0000b537          	lui	a0,0xb
    2f28:	50550513          	addi	a0,a0,1285 # b505 <_end+0x4901>
    2f2c:	00000593          	li	a1,0
    2f30:	02b52633          	mulhsu	a2,a0,a1
    2f34:	04c6a823          	sw	a2,80(a3)

00002f38 <inst_550>:
    2f38:	0000b537          	lui	a0,0xb
    2f3c:	50550513          	addi	a0,a0,1285 # b505 <_end+0x4901>
    2f40:	000105b7          	lui	a1,0x10
    2f44:	fff58593          	addi	a1,a1,-1 # ffff <_end+0x93fb>
    2f48:	02b52633          	mulhsu	a2,a0,a1
    2f4c:	04c6aa23          	sw	a2,84(a3)

00002f50 <inst_551>:
    2f50:	0000b537          	lui	a0,0xb
    2f54:	50550513          	addi	a0,a0,1285 # b505 <_end+0x4901>
    2f58:	00200593          	li	a1,2
    2f5c:	02b52633          	mulhsu	a2,a0,a1
    2f60:	04c6ac23          	sw	a2,88(a3)

00002f64 <inst_552>:
    2f64:	0000b537          	lui	a0,0xb
    2f68:	50550513          	addi	a0,a0,1285 # b505 <_end+0x4901>
    2f6c:	555555b7          	lui	a1,0x55555
    2f70:	55458593          	addi	a1,a1,1364 # 55555554 <_end+0x5554e950>
    2f74:	02b52633          	mulhsu	a2,a0,a1
    2f78:	04c6ae23          	sw	a2,92(a3)

00002f7c <inst_553>:
    2f7c:	0000b537          	lui	a0,0xb
    2f80:	50550513          	addi	a0,a0,1285 # b505 <_end+0x4901>
    2f84:	aaaab5b7          	lui	a1,0xaaaab
    2f88:	aa958593          	addi	a1,a1,-1367 # aaaaaaa9 <_end+0xaaaa3ea5>
    2f8c:	02b52633          	mulhsu	a2,a0,a1
    2f90:	06c6a023          	sw	a2,96(a3)

00002f94 <inst_554>:
    2f94:	0000b537          	lui	a0,0xb
    2f98:	50550513          	addi	a0,a0,1285 # b505 <_end+0x4901>
    2f9c:	00400593          	li	a1,4
    2fa0:	02b52633          	mulhsu	a2,a0,a1
    2fa4:	06c6a223          	sw	a2,100(a3)

00002fa8 <inst_555>:
    2fa8:	0000b537          	lui	a0,0xb
    2fac:	50550513          	addi	a0,a0,1285 # b505 <_end+0x4901>
    2fb0:	333335b7          	lui	a1,0x33333
    2fb4:	33258593          	addi	a1,a1,818 # 33333332 <_end+0x3332c72e>
    2fb8:	02b52633          	mulhsu	a2,a0,a1
    2fbc:	06c6a423          	sw	a2,104(a3)

00002fc0 <inst_556>:
    2fc0:	0000b537          	lui	a0,0xb
    2fc4:	50550513          	addi	a0,a0,1285 # b505 <_end+0x4901>
    2fc8:	666665b7          	lui	a1,0x66666
    2fcc:	66558593          	addi	a1,a1,1637 # 66666665 <_end+0x6665fa61>
    2fd0:	02b52633          	mulhsu	a2,a0,a1
    2fd4:	06c6a623          	sw	a2,108(a3)

00002fd8 <inst_557>:
    2fd8:	0000b537          	lui	a0,0xb
    2fdc:	50550513          	addi	a0,a0,1285 # b505 <_end+0x4901>
    2fe0:	0000b5b7          	lui	a1,0xb
    2fe4:	50358593          	addi	a1,a1,1283 # b503 <_end+0x48ff>
    2fe8:	02b52633          	mulhsu	a2,a0,a1
    2fec:	06c6a823          	sw	a2,112(a3)

00002ff0 <inst_558>:
    2ff0:	0000b537          	lui	a0,0xb
    2ff4:	50550513          	addi	a0,a0,1285 # b505 <_end+0x4901>
    2ff8:	000105b7          	lui	a1,0x10
    2ffc:	ffe58593          	addi	a1,a1,-2 # fffe <_end+0x93fa>
    3000:	02b52633          	mulhsu	a2,a0,a1
    3004:	06c6aa23          	sw	a2,116(a3)

00003008 <inst_559>:
    3008:	0000b537          	lui	a0,0xb
    300c:	50550513          	addi	a0,a0,1285 # b505 <_end+0x4901>
    3010:	555555b7          	lui	a1,0x55555
    3014:	55658593          	addi	a1,a1,1366 # 55555556 <_end+0x5554e952>
    3018:	02b52633          	mulhsu	a2,a0,a1
    301c:	06c6ac23          	sw	a2,120(a3)

00003020 <inst_560>:
    3020:	0000b537          	lui	a0,0xb
    3024:	50550513          	addi	a0,a0,1285 # b505 <_end+0x4901>
    3028:	aaaab5b7          	lui	a1,0xaaaab
    302c:	aab58593          	addi	a1,a1,-1365 # aaaaaaab <_end+0xaaaa3ea7>
    3030:	02b52633          	mulhsu	a2,a0,a1
    3034:	06c6ae23          	sw	a2,124(a3)

00003038 <inst_561>:
    3038:	0000b537          	lui	a0,0xb
    303c:	50550513          	addi	a0,a0,1285 # b505 <_end+0x4901>
    3040:	00600593          	li	a1,6
    3044:	02b52633          	mulhsu	a2,a0,a1
    3048:	08c6a023          	sw	a2,128(a3)

0000304c <inst_562>:
    304c:	0000b537          	lui	a0,0xb
    3050:	50550513          	addi	a0,a0,1285 # b505 <_end+0x4901>
    3054:	333335b7          	lui	a1,0x33333
    3058:	33458593          	addi	a1,a1,820 # 33333334 <_end+0x3332c730>
    305c:	02b52633          	mulhsu	a2,a0,a1
    3060:	08c6a223          	sw	a2,132(a3)

00003064 <inst_563>:
    3064:	0000b537          	lui	a0,0xb
    3068:	50550513          	addi	a0,a0,1285 # b505 <_end+0x4901>
    306c:	666665b7          	lui	a1,0x66666
    3070:	66758593          	addi	a1,a1,1639 # 66666667 <_end+0x6665fa63>
    3074:	02b52633          	mulhsu	a2,a0,a1
    3078:	08c6a423          	sw	a2,136(a3)

0000307c <inst_564>:
    307c:	0000b537          	lui	a0,0xb
    3080:	50550513          	addi	a0,a0,1285 # b505 <_end+0x4901>
    3084:	0000b5b7          	lui	a1,0xb
    3088:	50558593          	addi	a1,a1,1285 # b505 <_end+0x4901>
    308c:	02b52633          	mulhsu	a2,a0,a1
    3090:	08c6a623          	sw	a2,140(a3)

00003094 <inst_565>:
    3094:	0000b537          	lui	a0,0xb
    3098:	50550513          	addi	a0,a0,1285 # b505 <_end+0x4901>
    309c:	00100593          	li	a1,1
    30a0:	02b52633          	mulhsu	a2,a0,a1
    30a4:	08c6a823          	sw	a2,144(a3)

000030a8 <inst_566>:
    30a8:	00400513          	li	a0,4
    30ac:	555555b7          	lui	a1,0x55555
    30b0:	55658593          	addi	a1,a1,1366 # 55555556 <_end+0x5554e952>
    30b4:	02b52633          	mulhsu	a2,a0,a1
    30b8:	08c6aa23          	sw	a2,148(a3)

000030bc <inst_567>:
    30bc:	0000b537          	lui	a0,0xb
    30c0:	50550513          	addi	a0,a0,1285 # b505 <_end+0x4901>
    30c4:	000105b7          	lui	a1,0x10
    30c8:	02b52633          	mulhsu	a2,a0,a1
    30cc:	08c6ac23          	sw	a2,152(a3)

000030d0 <inst_568>:
    30d0:	00400513          	li	a0,4
    30d4:	aaaab5b7          	lui	a1,0xaaaab
    30d8:	aab58593          	addi	a1,a1,-1365 # aaaaaaab <_end+0xaaaa3ea7>
    30dc:	02b52633          	mulhsu	a2,a0,a1
    30e0:	08c6ae23          	sw	a2,156(a3)

000030e4 <inst_569>:
    30e4:	00400513          	li	a0,4
    30e8:	00600593          	li	a1,6
    30ec:	02b52633          	mulhsu	a2,a0,a1
    30f0:	0ac6a023          	sw	a2,160(a3)

000030f4 <inst_570>:
    30f4:	00400513          	li	a0,4
    30f8:	333335b7          	lui	a1,0x33333
    30fc:	33458593          	addi	a1,a1,820 # 33333334 <_end+0x3332c730>
    3100:	02b52633          	mulhsu	a2,a0,a1
    3104:	0ac6a223          	sw	a2,164(a3)

00003108 <inst_571>:
    3108:	00400513          	li	a0,4
    310c:	666665b7          	lui	a1,0x66666
    3110:	66758593          	addi	a1,a1,1639 # 66666667 <_end+0x6665fa63>
    3114:	02b52633          	mulhsu	a2,a0,a1
    3118:	0ac6a423          	sw	a2,168(a3)

0000311c <inst_572>:
    311c:	00400513          	li	a0,4
    3120:	0000b5b7          	lui	a1,0xb
    3124:	50558593          	addi	a1,a1,1285 # b505 <_end+0x4901>
    3128:	02b52633          	mulhsu	a2,a0,a1
    312c:	0ac6a623          	sw	a2,172(a3)

00003130 <inst_573>:
    3130:	00400513          	li	a0,4
    3134:	00100593          	li	a1,1
    3138:	02b52633          	mulhsu	a2,a0,a1
    313c:	0ac6a823          	sw	a2,176(a3)

00003140 <inst_574>:
    3140:	00400513          	li	a0,4
    3144:	000105b7          	lui	a1,0x10
    3148:	02b52633          	mulhsu	a2,a0,a1
    314c:	0ac6aa23          	sw	a2,180(a3)

00003150 <inst_575>:
    3150:	33333537          	lui	a0,0x33333
    3154:	33250513          	addi	a0,a0,818 # 33333332 <_end+0x3332c72e>
    3158:	00300593          	li	a1,3
    315c:	02b52633          	mulhsu	a2,a0,a1
    3160:	0ac6ac23          	sw	a2,184(a3)

00003164 <inst_576>:
    3164:	33333537          	lui	a0,0x33333
    3168:	33250513          	addi	a0,a0,818 # 33333332 <_end+0x3332c72e>
    316c:	555555b7          	lui	a1,0x55555
    3170:	55558593          	addi	a1,a1,1365 # 55555555 <_end+0x5554e951>
    3174:	02b52633          	mulhsu	a2,a0,a1
    3178:	0ac6ae23          	sw	a2,188(a3)

0000317c <inst_577>:
    317c:	33333537          	lui	a0,0x33333
    3180:	33250513          	addi	a0,a0,818 # 33333332 <_end+0x3332c72e>
    3184:	aaaab5b7          	lui	a1,0xaaaab
    3188:	aaa58593          	addi	a1,a1,-1366 # aaaaaaaa <_end+0xaaaa3ea6>
    318c:	02b52633          	mulhsu	a2,a0,a1
    3190:	0cc6a023          	sw	a2,192(a3)

00003194 <inst_578>:
    3194:	33333537          	lui	a0,0x33333
    3198:	33250513          	addi	a0,a0,818 # 33333332 <_end+0x3332c72e>
    319c:	00500593          	li	a1,5
    31a0:	02b52633          	mulhsu	a2,a0,a1
    31a4:	0cc6a223          	sw	a2,196(a3)

000031a8 <inst_579>:
    31a8:	33333537          	lui	a0,0x33333
    31ac:	33250513          	addi	a0,a0,818 # 33333332 <_end+0x3332c72e>
    31b0:	333335b7          	lui	a1,0x33333
    31b4:	33358593          	addi	a1,a1,819 # 33333333 <_end+0x3332c72f>
    31b8:	02b52633          	mulhsu	a2,a0,a1
    31bc:	0cc6a423          	sw	a2,200(a3)

000031c0 <inst_580>:
    31c0:	33333537          	lui	a0,0x33333
    31c4:	33250513          	addi	a0,a0,818 # 33333332 <_end+0x3332c72e>
    31c8:	666665b7          	lui	a1,0x66666
    31cc:	66658593          	addi	a1,a1,1638 # 66666666 <_end+0x6665fa62>
    31d0:	02b52633          	mulhsu	a2,a0,a1
    31d4:	0cc6a623          	sw	a2,204(a3)

000031d8 <inst_581>:
    31d8:	33333537          	lui	a0,0x33333
    31dc:	33250513          	addi	a0,a0,818 # 33333332 <_end+0x3332c72e>
    31e0:	0000b5b7          	lui	a1,0xb
    31e4:	50458593          	addi	a1,a1,1284 # b504 <_end+0x4900>
    31e8:	02b52633          	mulhsu	a2,a0,a1
    31ec:	0cc6a823          	sw	a2,208(a3)

000031f0 <inst_582>:
    31f0:	33333537          	lui	a0,0x33333
    31f4:	33250513          	addi	a0,a0,818 # 33333332 <_end+0x3332c72e>
    31f8:	00000593          	li	a1,0
    31fc:	02b52633          	mulhsu	a2,a0,a1
    3200:	0cc6aa23          	sw	a2,212(a3)

00003204 <inst_583>:
    3204:	33333537          	lui	a0,0x33333
    3208:	33250513          	addi	a0,a0,818 # 33333332 <_end+0x3332c72e>
    320c:	000105b7          	lui	a1,0x10
    3210:	fff58593          	addi	a1,a1,-1 # ffff <_end+0x93fb>
    3214:	02b52633          	mulhsu	a2,a0,a1
    3218:	0cc6ac23          	sw	a2,216(a3)

0000321c <inst_584>:
    321c:	33333537          	lui	a0,0x33333
    3220:	33250513          	addi	a0,a0,818 # 33333332 <_end+0x3332c72e>
    3224:	00200593          	li	a1,2
    3228:	02b52633          	mulhsu	a2,a0,a1
    322c:	0cc6ae23          	sw	a2,220(a3)

00003230 <inst_585>:
    3230:	33333537          	lui	a0,0x33333
    3234:	33250513          	addi	a0,a0,818 # 33333332 <_end+0x3332c72e>
    3238:	555555b7          	lui	a1,0x55555
    323c:	55458593          	addi	a1,a1,1364 # 55555554 <_end+0x5554e950>
    3240:	02b52633          	mulhsu	a2,a0,a1
    3244:	0ec6a023          	sw	a2,224(a3)

00003248 <inst_586>:
    3248:	33333537          	lui	a0,0x33333
    324c:	33250513          	addi	a0,a0,818 # 33333332 <_end+0x3332c72e>
    3250:	aaaab5b7          	lui	a1,0xaaaab
    3254:	aa958593          	addi	a1,a1,-1367 # aaaaaaa9 <_end+0xaaaa3ea5>
    3258:	02b52633          	mulhsu	a2,a0,a1
    325c:	0ec6a223          	sw	a2,228(a3)

00003260 <inst_587>:
    3260:	33333537          	lui	a0,0x33333
    3264:	33250513          	addi	a0,a0,818 # 33333332 <_end+0x3332c72e>
    3268:	00400593          	li	a1,4
    326c:	02b52633          	mulhsu	a2,a0,a1
    3270:	0ec6a423          	sw	a2,232(a3)

00003274 <inst_588>:
    3274:	33333537          	lui	a0,0x33333
    3278:	33250513          	addi	a0,a0,818 # 33333332 <_end+0x3332c72e>
    327c:	333335b7          	lui	a1,0x33333
    3280:	33258593          	addi	a1,a1,818 # 33333332 <_end+0x3332c72e>
    3284:	02b52633          	mulhsu	a2,a0,a1
    3288:	0ec6a623          	sw	a2,236(a3)

0000328c <inst_589>:
    328c:	33333537          	lui	a0,0x33333
    3290:	33250513          	addi	a0,a0,818 # 33333332 <_end+0x3332c72e>
    3294:	666665b7          	lui	a1,0x66666
    3298:	66558593          	addi	a1,a1,1637 # 66666665 <_end+0x6665fa61>
    329c:	02b52633          	mulhsu	a2,a0,a1
    32a0:	0ec6a823          	sw	a2,240(a3)

000032a4 <inst_590>:
    32a4:	33333537          	lui	a0,0x33333
    32a8:	33250513          	addi	a0,a0,818 # 33333332 <_end+0x3332c72e>
    32ac:	0000b5b7          	lui	a1,0xb
    32b0:	50358593          	addi	a1,a1,1283 # b503 <_end+0x48ff>
    32b4:	02b52633          	mulhsu	a2,a0,a1
    32b8:	0ec6aa23          	sw	a2,244(a3)

000032bc <inst_591>:
    32bc:	33333537          	lui	a0,0x33333
    32c0:	33250513          	addi	a0,a0,818 # 33333332 <_end+0x3332c72e>
    32c4:	000105b7          	lui	a1,0x10
    32c8:	ffe58593          	addi	a1,a1,-2 # fffe <_end+0x93fa>
    32cc:	02b52633          	mulhsu	a2,a0,a1
    32d0:	0ec6ac23          	sw	a2,248(a3)

000032d4 <inst_592>:
    32d4:	33333537          	lui	a0,0x33333
    32d8:	33250513          	addi	a0,a0,818 # 33333332 <_end+0x3332c72e>
    32dc:	555555b7          	lui	a1,0x55555
    32e0:	55658593          	addi	a1,a1,1366 # 55555556 <_end+0x5554e952>
    32e4:	02b52633          	mulhsu	a2,a0,a1
    32e8:	0ec6ae23          	sw	a2,252(a3)

000032ec <inst_593>:
    32ec:	33333537          	lui	a0,0x33333
    32f0:	33250513          	addi	a0,a0,818 # 33333332 <_end+0x3332c72e>
    32f4:	aaaab5b7          	lui	a1,0xaaaab
    32f8:	aab58593          	addi	a1,a1,-1365 # aaaaaaab <_end+0xaaaa3ea7>
    32fc:	02b52633          	mulhsu	a2,a0,a1
    3300:	10c6a023          	sw	a2,256(a3)

00003304 <inst_594>:
    3304:	33333537          	lui	a0,0x33333
    3308:	33250513          	addi	a0,a0,818 # 33333332 <_end+0x3332c72e>
    330c:	00600593          	li	a1,6
    3310:	02b52633          	mulhsu	a2,a0,a1
    3314:	10c6a223          	sw	a2,260(a3)

00003318 <inst_595>:
    3318:	33333537          	lui	a0,0x33333
    331c:	33250513          	addi	a0,a0,818 # 33333332 <_end+0x3332c72e>
    3320:	333335b7          	lui	a1,0x33333
    3324:	33458593          	addi	a1,a1,820 # 33333334 <_end+0x3332c730>
    3328:	02b52633          	mulhsu	a2,a0,a1
    332c:	10c6a423          	sw	a2,264(a3)

00003330 <inst_596>:
    3330:	33333537          	lui	a0,0x33333
    3334:	33250513          	addi	a0,a0,818 # 33333332 <_end+0x3332c72e>
    3338:	666665b7          	lui	a1,0x66666
    333c:	66758593          	addi	a1,a1,1639 # 66666667 <_end+0x6665fa63>
    3340:	02b52633          	mulhsu	a2,a0,a1
    3344:	10c6a623          	sw	a2,268(a3)

00003348 <inst_597>:
    3348:	33333537          	lui	a0,0x33333
    334c:	33250513          	addi	a0,a0,818 # 33333332 <_end+0x3332c72e>
    3350:	0000b5b7          	lui	a1,0xb
    3354:	50558593          	addi	a1,a1,1285 # b505 <_end+0x4901>
    3358:	02b52633          	mulhsu	a2,a0,a1
    335c:	10c6a823          	sw	a2,272(a3)

00003360 <inst_598>:
    3360:	33333537          	lui	a0,0x33333
    3364:	33250513          	addi	a0,a0,818 # 33333332 <_end+0x3332c72e>
    3368:	00100593          	li	a1,1
    336c:	02b52633          	mulhsu	a2,a0,a1
    3370:	10c6aa23          	sw	a2,276(a3)

00003374 <inst_599>:
    3374:	33333537          	lui	a0,0x33333
    3378:	33250513          	addi	a0,a0,818 # 33333332 <_end+0x3332c72e>
    337c:	000105b7          	lui	a1,0x10
    3380:	02b52633          	mulhsu	a2,a0,a1
    3384:	10c6ac23          	sw	a2,280(a3)

00003388 <inst_600>:
    3388:	66666537          	lui	a0,0x66666
    338c:	66550513          	addi	a0,a0,1637 # 66666665 <_end+0x6665fa61>
    3390:	00300593          	li	a1,3
    3394:	02b52633          	mulhsu	a2,a0,a1
    3398:	10c6ae23          	sw	a2,284(a3)

0000339c <inst_601>:
    339c:	66666537          	lui	a0,0x66666
    33a0:	66550513          	addi	a0,a0,1637 # 66666665 <_end+0x6665fa61>
    33a4:	555555b7          	lui	a1,0x55555
    33a8:	55558593          	addi	a1,a1,1365 # 55555555 <_end+0x5554e951>
    33ac:	02b52633          	mulhsu	a2,a0,a1
    33b0:	12c6a023          	sw	a2,288(a3)

000033b4 <inst_602>:
    33b4:	66666537          	lui	a0,0x66666
    33b8:	66550513          	addi	a0,a0,1637 # 66666665 <_end+0x6665fa61>
    33bc:	aaaab5b7          	lui	a1,0xaaaab
    33c0:	aaa58593          	addi	a1,a1,-1366 # aaaaaaaa <_end+0xaaaa3ea6>
    33c4:	02b52633          	mulhsu	a2,a0,a1
    33c8:	12c6a223          	sw	a2,292(a3)

000033cc <inst_603>:
    33cc:	66666537          	lui	a0,0x66666
    33d0:	66550513          	addi	a0,a0,1637 # 66666665 <_end+0x6665fa61>
    33d4:	00500593          	li	a1,5
    33d8:	02b52633          	mulhsu	a2,a0,a1
    33dc:	12c6a423          	sw	a2,296(a3)

000033e0 <inst_604>:
    33e0:	66666537          	lui	a0,0x66666
    33e4:	66550513          	addi	a0,a0,1637 # 66666665 <_end+0x6665fa61>
    33e8:	333335b7          	lui	a1,0x33333
    33ec:	33358593          	addi	a1,a1,819 # 33333333 <_end+0x3332c72f>
    33f0:	02b52633          	mulhsu	a2,a0,a1
    33f4:	12c6a623          	sw	a2,300(a3)

000033f8 <inst_605>:
    33f8:	66666537          	lui	a0,0x66666
    33fc:	66550513          	addi	a0,a0,1637 # 66666665 <_end+0x6665fa61>
    3400:	666665b7          	lui	a1,0x66666
    3404:	66658593          	addi	a1,a1,1638 # 66666666 <_end+0x6665fa62>
    3408:	02b52633          	mulhsu	a2,a0,a1
    340c:	12c6a823          	sw	a2,304(a3)

00003410 <inst_606>:
    3410:	66666537          	lui	a0,0x66666
    3414:	66550513          	addi	a0,a0,1637 # 66666665 <_end+0x6665fa61>
    3418:	0000b5b7          	lui	a1,0xb
    341c:	50458593          	addi	a1,a1,1284 # b504 <_end+0x4900>
    3420:	02b52633          	mulhsu	a2,a0,a1
    3424:	12c6aa23          	sw	a2,308(a3)

00003428 <inst_607>:
    3428:	66666537          	lui	a0,0x66666
    342c:	66550513          	addi	a0,a0,1637 # 66666665 <_end+0x6665fa61>
    3430:	00000593          	li	a1,0
    3434:	02b52633          	mulhsu	a2,a0,a1
    3438:	12c6ac23          	sw	a2,312(a3)

0000343c <inst_608>:
    343c:	66666537          	lui	a0,0x66666
    3440:	66550513          	addi	a0,a0,1637 # 66666665 <_end+0x6665fa61>
    3444:	000105b7          	lui	a1,0x10
    3448:	fff58593          	addi	a1,a1,-1 # ffff <_end+0x93fb>
    344c:	02b52633          	mulhsu	a2,a0,a1
    3450:	12c6ae23          	sw	a2,316(a3)

00003454 <inst_609>:
    3454:	66666537          	lui	a0,0x66666
    3458:	66550513          	addi	a0,a0,1637 # 66666665 <_end+0x6665fa61>
    345c:	00200593          	li	a1,2
    3460:	02b52633          	mulhsu	a2,a0,a1
    3464:	14c6a023          	sw	a2,320(a3)

00003468 <inst_610>:
    3468:	66666537          	lui	a0,0x66666
    346c:	66550513          	addi	a0,a0,1637 # 66666665 <_end+0x6665fa61>
    3470:	555555b7          	lui	a1,0x55555
    3474:	55458593          	addi	a1,a1,1364 # 55555554 <_end+0x5554e950>
    3478:	02b52633          	mulhsu	a2,a0,a1
    347c:	14c6a223          	sw	a2,324(a3)

00003480 <inst_611>:
    3480:	66666537          	lui	a0,0x66666
    3484:	66550513          	addi	a0,a0,1637 # 66666665 <_end+0x6665fa61>
    3488:	aaaab5b7          	lui	a1,0xaaaab
    348c:	aa958593          	addi	a1,a1,-1367 # aaaaaaa9 <_end+0xaaaa3ea5>
    3490:	02b52633          	mulhsu	a2,a0,a1
    3494:	14c6a423          	sw	a2,328(a3)

00003498 <inst_612>:
    3498:	66666537          	lui	a0,0x66666
    349c:	66550513          	addi	a0,a0,1637 # 66666665 <_end+0x6665fa61>
    34a0:	00400593          	li	a1,4
    34a4:	02b52633          	mulhsu	a2,a0,a1
    34a8:	14c6a623          	sw	a2,332(a3)

000034ac <inst_613>:
    34ac:	66666537          	lui	a0,0x66666
    34b0:	66550513          	addi	a0,a0,1637 # 66666665 <_end+0x6665fa61>
    34b4:	333335b7          	lui	a1,0x33333
    34b8:	33258593          	addi	a1,a1,818 # 33333332 <_end+0x3332c72e>
    34bc:	02b52633          	mulhsu	a2,a0,a1
    34c0:	14c6a823          	sw	a2,336(a3)

000034c4 <inst_614>:
    34c4:	66666537          	lui	a0,0x66666
    34c8:	66550513          	addi	a0,a0,1637 # 66666665 <_end+0x6665fa61>
    34cc:	666665b7          	lui	a1,0x66666
    34d0:	66558593          	addi	a1,a1,1637 # 66666665 <_end+0x6665fa61>
    34d4:	02b52633          	mulhsu	a2,a0,a1
    34d8:	14c6aa23          	sw	a2,340(a3)

000034dc <inst_615>:
    34dc:	66666537          	lui	a0,0x66666
    34e0:	66550513          	addi	a0,a0,1637 # 66666665 <_end+0x6665fa61>
    34e4:	0000b5b7          	lui	a1,0xb
    34e8:	50358593          	addi	a1,a1,1283 # b503 <_end+0x48ff>
    34ec:	02b52633          	mulhsu	a2,a0,a1
    34f0:	14c6ac23          	sw	a2,344(a3)

000034f4 <inst_616>:
    34f4:	66666537          	lui	a0,0x66666
    34f8:	66550513          	addi	a0,a0,1637 # 66666665 <_end+0x6665fa61>
    34fc:	000105b7          	lui	a1,0x10
    3500:	ffe58593          	addi	a1,a1,-2 # fffe <_end+0x93fa>
    3504:	02b52633          	mulhsu	a2,a0,a1
    3508:	14c6ae23          	sw	a2,348(a3)

0000350c <inst_617>:
    350c:	66666537          	lui	a0,0x66666
    3510:	66550513          	addi	a0,a0,1637 # 66666665 <_end+0x6665fa61>
    3514:	555555b7          	lui	a1,0x55555
    3518:	55658593          	addi	a1,a1,1366 # 55555556 <_end+0x5554e952>
    351c:	02b52633          	mulhsu	a2,a0,a1
    3520:	16c6a023          	sw	a2,352(a3)

00003524 <inst_618>:
    3524:	66666537          	lui	a0,0x66666
    3528:	66550513          	addi	a0,a0,1637 # 66666665 <_end+0x6665fa61>
    352c:	aaaab5b7          	lui	a1,0xaaaab
    3530:	aab58593          	addi	a1,a1,-1365 # aaaaaaab <_end+0xaaaa3ea7>
    3534:	02b52633          	mulhsu	a2,a0,a1
    3538:	16c6a223          	sw	a2,356(a3)

0000353c <inst_619>:
    353c:	66666537          	lui	a0,0x66666
    3540:	66550513          	addi	a0,a0,1637 # 66666665 <_end+0x6665fa61>
    3544:	00600593          	li	a1,6
    3548:	02b52633          	mulhsu	a2,a0,a1
    354c:	16c6a423          	sw	a2,360(a3)

00003550 <inst_620>:
    3550:	66666537          	lui	a0,0x66666
    3554:	66550513          	addi	a0,a0,1637 # 66666665 <_end+0x6665fa61>
    3558:	333335b7          	lui	a1,0x33333
    355c:	33458593          	addi	a1,a1,820 # 33333334 <_end+0x3332c730>
    3560:	02b52633          	mulhsu	a2,a0,a1
    3564:	16c6a623          	sw	a2,364(a3)

00003568 <inst_621>:
    3568:	66666537          	lui	a0,0x66666
    356c:	66550513          	addi	a0,a0,1637 # 66666665 <_end+0x6665fa61>
    3570:	666665b7          	lui	a1,0x66666
    3574:	66758593          	addi	a1,a1,1639 # 66666667 <_end+0x6665fa63>
    3578:	02b52633          	mulhsu	a2,a0,a1
    357c:	16c6a823          	sw	a2,368(a3)

00003580 <inst_622>:
    3580:	66666537          	lui	a0,0x66666
    3584:	66550513          	addi	a0,a0,1637 # 66666665 <_end+0x6665fa61>
    3588:	0000b5b7          	lui	a1,0xb
    358c:	50558593          	addi	a1,a1,1285 # b505 <_end+0x4901>
    3590:	02b52633          	mulhsu	a2,a0,a1
    3594:	16c6aa23          	sw	a2,372(a3)

00003598 <inst_623>:
    3598:	66666537          	lui	a0,0x66666
    359c:	66550513          	addi	a0,a0,1637 # 66666665 <_end+0x6665fa61>
    35a0:	00100593          	li	a1,1
    35a4:	02b52633          	mulhsu	a2,a0,a1
    35a8:	16c6ac23          	sw	a2,376(a3)

000035ac <inst_624>:
    35ac:	66666537          	lui	a0,0x66666
    35b0:	66550513          	addi	a0,a0,1637 # 66666665 <_end+0x6665fa61>
    35b4:	000105b7          	lui	a1,0x10
    35b8:	02b52633          	mulhsu	a2,a0,a1
    35bc:	16c6ae23          	sw	a2,380(a3)

000035c0 <inst_625>:
    35c0:	0000b537          	lui	a0,0xb
    35c4:	50350513          	addi	a0,a0,1283 # b503 <_end+0x48ff>
    35c8:	00300593          	li	a1,3
    35cc:	02b52633          	mulhsu	a2,a0,a1
    35d0:	18c6a023          	sw	a2,384(a3)

000035d4 <inst_626>:
    35d4:	0000b537          	lui	a0,0xb
    35d8:	50350513          	addi	a0,a0,1283 # b503 <_end+0x48ff>
    35dc:	555555b7          	lui	a1,0x55555
    35e0:	55558593          	addi	a1,a1,1365 # 55555555 <_end+0x5554e951>
    35e4:	02b52633          	mulhsu	a2,a0,a1
    35e8:	18c6a223          	sw	a2,388(a3)

000035ec <inst_627>:
    35ec:	0000b537          	lui	a0,0xb
    35f0:	50350513          	addi	a0,a0,1283 # b503 <_end+0x48ff>
    35f4:	aaaab5b7          	lui	a1,0xaaaab
    35f8:	aaa58593          	addi	a1,a1,-1366 # aaaaaaaa <_end+0xaaaa3ea6>
    35fc:	02b52633          	mulhsu	a2,a0,a1
    3600:	18c6a423          	sw	a2,392(a3)

00003604 <inst_628>:
    3604:	0000b537          	lui	a0,0xb
    3608:	50350513          	addi	a0,a0,1283 # b503 <_end+0x48ff>
    360c:	00500593          	li	a1,5
    3610:	02b52633          	mulhsu	a2,a0,a1
    3614:	18c6a623          	sw	a2,396(a3)

00003618 <inst_629>:
    3618:	0000b537          	lui	a0,0xb
    361c:	50350513          	addi	a0,a0,1283 # b503 <_end+0x48ff>
    3620:	333335b7          	lui	a1,0x33333
    3624:	33358593          	addi	a1,a1,819 # 33333333 <_end+0x3332c72f>
    3628:	02b52633          	mulhsu	a2,a0,a1
    362c:	18c6a823          	sw	a2,400(a3)

00003630 <inst_630>:
    3630:	0000b537          	lui	a0,0xb
    3634:	50350513          	addi	a0,a0,1283 # b503 <_end+0x48ff>
    3638:	666665b7          	lui	a1,0x66666
    363c:	66658593          	addi	a1,a1,1638 # 66666666 <_end+0x6665fa62>
    3640:	02b52633          	mulhsu	a2,a0,a1
    3644:	18c6aa23          	sw	a2,404(a3)

00003648 <inst_631>:
    3648:	0000b537          	lui	a0,0xb
    364c:	50350513          	addi	a0,a0,1283 # b503 <_end+0x48ff>
    3650:	0000b5b7          	lui	a1,0xb
    3654:	50458593          	addi	a1,a1,1284 # b504 <_end+0x4900>
    3658:	02b52633          	mulhsu	a2,a0,a1
    365c:	18c6ac23          	sw	a2,408(a3)

00003660 <inst_632>:
    3660:	0000b537          	lui	a0,0xb
    3664:	50350513          	addi	a0,a0,1283 # b503 <_end+0x48ff>
    3668:	000105b7          	lui	a1,0x10
    366c:	fff58593          	addi	a1,a1,-1 # ffff <_end+0x93fb>
    3670:	02b52633          	mulhsu	a2,a0,a1
    3674:	18c6ae23          	sw	a2,412(a3)

00003678 <inst_633>:
    3678:	0000b537          	lui	a0,0xb
    367c:	50350513          	addi	a0,a0,1283 # b503 <_end+0x48ff>
    3680:	00200593          	li	a1,2
    3684:	02b52633          	mulhsu	a2,a0,a1
    3688:	1ac6a023          	sw	a2,416(a3)

0000368c <inst_634>:
    368c:	0000b537          	lui	a0,0xb
    3690:	50350513          	addi	a0,a0,1283 # b503 <_end+0x48ff>
    3694:	555555b7          	lui	a1,0x55555
    3698:	55458593          	addi	a1,a1,1364 # 55555554 <_end+0x5554e950>
    369c:	02b52633          	mulhsu	a2,a0,a1
    36a0:	1ac6a223          	sw	a2,420(a3)

000036a4 <inst_635>:
    36a4:	0000b537          	lui	a0,0xb
    36a8:	50350513          	addi	a0,a0,1283 # b503 <_end+0x48ff>
    36ac:	aaaab5b7          	lui	a1,0xaaaab
    36b0:	aa958593          	addi	a1,a1,-1367 # aaaaaaa9 <_end+0xaaaa3ea5>
    36b4:	02b52633          	mulhsu	a2,a0,a1
    36b8:	1ac6a423          	sw	a2,424(a3)

000036bc <inst_636>:
    36bc:	0000b537          	lui	a0,0xb
    36c0:	50350513          	addi	a0,a0,1283 # b503 <_end+0x48ff>
    36c4:	00400593          	li	a1,4
    36c8:	02b52633          	mulhsu	a2,a0,a1
    36cc:	1ac6a623          	sw	a2,428(a3)

000036d0 <inst_637>:
    36d0:	0000b537          	lui	a0,0xb
    36d4:	50350513          	addi	a0,a0,1283 # b503 <_end+0x48ff>
    36d8:	666665b7          	lui	a1,0x66666
    36dc:	66558593          	addi	a1,a1,1637 # 66666665 <_end+0x6665fa61>
    36e0:	02b52633          	mulhsu	a2,a0,a1
    36e4:	1ac6a823          	sw	a2,432(a3)

000036e8 <inst_638>:
    36e8:	0000b537          	lui	a0,0xb
    36ec:	50350513          	addi	a0,a0,1283 # b503 <_end+0x48ff>
    36f0:	0000b5b7          	lui	a1,0xb
    36f4:	50358593          	addi	a1,a1,1283 # b503 <_end+0x48ff>
    36f8:	02b52633          	mulhsu	a2,a0,a1
    36fc:	1ac6aa23          	sw	a2,436(a3)

00003700 <inst_639>:
    3700:	0000b537          	lui	a0,0xb
    3704:	50350513          	addi	a0,a0,1283 # b503 <_end+0x48ff>
    3708:	000105b7          	lui	a1,0x10
    370c:	ffe58593          	addi	a1,a1,-2 # fffe <_end+0x93fa>
    3710:	02b52633          	mulhsu	a2,a0,a1
    3714:	1ac6ac23          	sw	a2,440(a3)

00003718 <inst_640>:
    3718:	0000b537          	lui	a0,0xb
    371c:	50350513          	addi	a0,a0,1283 # b503 <_end+0x48ff>
    3720:	555555b7          	lui	a1,0x55555
    3724:	55658593          	addi	a1,a1,1366 # 55555556 <_end+0x5554e952>
    3728:	02b52633          	mulhsu	a2,a0,a1
    372c:	1ac6ae23          	sw	a2,444(a3)

00003730 <inst_641>:
    3730:	0000b537          	lui	a0,0xb
    3734:	50350513          	addi	a0,a0,1283 # b503 <_end+0x48ff>
    3738:	aaaab5b7          	lui	a1,0xaaaab
    373c:	aab58593          	addi	a1,a1,-1365 # aaaaaaab <_end+0xaaaa3ea7>
    3740:	02b52633          	mulhsu	a2,a0,a1
    3744:	1cc6a023          	sw	a2,448(a3)

00003748 <inst_642>:
    3748:	0000b537          	lui	a0,0xb
    374c:	50350513          	addi	a0,a0,1283 # b503 <_end+0x48ff>
    3750:	00600593          	li	a1,6
    3754:	02b52633          	mulhsu	a2,a0,a1
    3758:	1cc6a223          	sw	a2,452(a3)

0000375c <inst_643>:
    375c:	0000b537          	lui	a0,0xb
    3760:	50350513          	addi	a0,a0,1283 # b503 <_end+0x48ff>
    3764:	333335b7          	lui	a1,0x33333
    3768:	33458593          	addi	a1,a1,820 # 33333334 <_end+0x3332c730>
    376c:	02b52633          	mulhsu	a2,a0,a1
    3770:	1cc6a423          	sw	a2,456(a3)

00003774 <inst_644>:
    3774:	0000b537          	lui	a0,0xb
    3778:	50350513          	addi	a0,a0,1283 # b503 <_end+0x48ff>
    377c:	666665b7          	lui	a1,0x66666
    3780:	66758593          	addi	a1,a1,1639 # 66666667 <_end+0x6665fa63>
    3784:	02b52633          	mulhsu	a2,a0,a1
    3788:	1cc6a623          	sw	a2,460(a3)

0000378c <inst_645>:
    378c:	e0000537          	lui	a0,0xe0000
    3790:	fff50513          	addi	a0,a0,-1 # dfffffff <_end+0xdfff93fb>
    3794:	00100593          	li	a1,1
    3798:	02b52633          	mulhsu	a2,a0,a1
    379c:	1cc6a823          	sw	a2,464(a3)

000037a0 <inst_646>:
    37a0:	80000537          	lui	a0,0x80000
    37a4:	fdf00593          	li	a1,-33
    37a8:	02b52633          	mulhsu	a2,a0,a1
    37ac:	1cc6aa23          	sw	a2,468(a3)

000037b0 <inst_647>:
    37b0:	00400537          	lui	a0,0x400
    37b4:	000025b7          	lui	a1,0x2
    37b8:	02b52633          	mulhsu	a2,a0,a1
    37bc:	1cc6ac23          	sw	a2,472(a3)

000037c0 <halt>:
    37c0:	0000006f          	j	37c0 <halt>
    37c4:	00000013          	nop
    37c8:	00000013          	nop
    37cc:	00000013          	nop

000037d0 <rvtest_code_end>:
    37d0:	0000006f          	j	37d0 <rvtest_code_end>
    37d4:	00000013          	nop
    37d8:	00000013          	nop
    37dc:	00000013          	nop
    37e0:	00000013          	nop

Disassembly of section .text:

000037e4 <FN_WriteStr>:
    37e4:	00008067          	ret

000037e8 <FN_WriteNmbr>:
    37e8:	00008067          	ret

Disassembly of section .tohost:

00003800 <tohost>:
    3800:	0000                	.insn	2, 0x0000
    3802:	0000                	.insn	2, 0x0000
    3804:	0000                	.insn	2, 0x0000
    3806:	0000                	.insn	2, 0x0000
    3808:	0000                	.insn	2, 0x0000
    380a:	0000                	.insn	2, 0x0000
    380c:	0000                	.insn	2, 0x0000
    380e:	0000                	.insn	2, 0x0000
    3810:	0000                	.insn	2, 0x0000
    3812:	0000                	.insn	2, 0x0000
    3814:	0000                	.insn	2, 0x0000
    3816:	0000                	.insn	2, 0x0000
    3818:	0000                	.insn	2, 0x0000
    381a:	0000                	.insn	2, 0x0000
    381c:	0000                	.insn	2, 0x0000
    381e:	0000                	.insn	2, 0x0000
    3820:	0000                	.insn	2, 0x0000
    3822:	0000                	.insn	2, 0x0000
    3824:	0000                	.insn	2, 0x0000
    3826:	0000                	.insn	2, 0x0000
    3828:	0000                	.insn	2, 0x0000
    382a:	0000                	.insn	2, 0x0000
    382c:	0000                	.insn	2, 0x0000
    382e:	0000                	.insn	2, 0x0000
    3830:	0000                	.insn	2, 0x0000
    3832:	0000                	.insn	2, 0x0000
    3834:	0000                	.insn	2, 0x0000
    3836:	0000                	.insn	2, 0x0000
    3838:	0000                	.insn	2, 0x0000
    383a:	0000                	.insn	2, 0x0000
    383c:	0000                	.insn	2, 0x0000
    383e:	0000                	.insn	2, 0x0000
    3840:	0000                	.insn	2, 0x0000
    3842:	0000                	.insn	2, 0x0000
    3844:	0000                	.insn	2, 0x0000
    3846:	0000                	.insn	2, 0x0000
    3848:	0000                	.insn	2, 0x0000
    384a:	0000                	.insn	2, 0x0000
    384c:	0000                	.insn	2, 0x0000
    384e:	0000                	.insn	2, 0x0000
    3850:	0000                	.insn	2, 0x0000
    3852:	0000                	.insn	2, 0x0000
    3854:	0000                	.insn	2, 0x0000
    3856:	0000                	.insn	2, 0x0000
    3858:	0000                	.insn	2, 0x0000
    385a:	0000                	.insn	2, 0x0000
    385c:	0000                	.insn	2, 0x0000
    385e:	0000                	.insn	2, 0x0000
    3860:	0000                	.insn	2, 0x0000
    3862:	0000                	.insn	2, 0x0000
    3864:	0000                	.insn	2, 0x0000
    3866:	0000                	.insn	2, 0x0000
    3868:	0000                	.insn	2, 0x0000
    386a:	0000                	.insn	2, 0x0000
    386c:	0000                	.insn	2, 0x0000
    386e:	0000                	.insn	2, 0x0000
    3870:	0000                	.insn	2, 0x0000
    3872:	0000                	.insn	2, 0x0000
    3874:	0000                	.insn	2, 0x0000
    3876:	0000                	.insn	2, 0x0000
    3878:	0000                	.insn	2, 0x0000
    387a:	0000                	.insn	2, 0x0000
    387c:	0000                	.insn	2, 0x0000
    387e:	0000                	.insn	2, 0x0000
    3880:	0000                	.insn	2, 0x0000
    3882:	0000                	.insn	2, 0x0000
    3884:	0000                	.insn	2, 0x0000
    3886:	0000                	.insn	2, 0x0000
    3888:	0000                	.insn	2, 0x0000
    388a:	0000                	.insn	2, 0x0000
    388c:	0000                	.insn	2, 0x0000
    388e:	0000                	.insn	2, 0x0000
    3890:	0000                	.insn	2, 0x0000
    3892:	0000                	.insn	2, 0x0000
    3894:	0000                	.insn	2, 0x0000
    3896:	0000                	.insn	2, 0x0000
    3898:	0000                	.insn	2, 0x0000
    389a:	0000                	.insn	2, 0x0000
    389c:	0000                	.insn	2, 0x0000
    389e:	0000                	.insn	2, 0x0000
    38a0:	0000                	.insn	2, 0x0000
    38a2:	0000                	.insn	2, 0x0000
    38a4:	0000                	.insn	2, 0x0000
    38a6:	0000                	.insn	2, 0x0000
    38a8:	0000                	.insn	2, 0x0000
    38aa:	0000                	.insn	2, 0x0000
    38ac:	0000                	.insn	2, 0x0000
    38ae:	0000                	.insn	2, 0x0000
    38b0:	0000                	.insn	2, 0x0000
    38b2:	0000                	.insn	2, 0x0000
    38b4:	0000                	.insn	2, 0x0000
    38b6:	0000                	.insn	2, 0x0000
    38b8:	0000                	.insn	2, 0x0000
    38ba:	0000                	.insn	2, 0x0000
    38bc:	0000                	.insn	2, 0x0000
    38be:	0000                	.insn	2, 0x0000
    38c0:	0000                	.insn	2, 0x0000
    38c2:	0000                	.insn	2, 0x0000
    38c4:	0000                	.insn	2, 0x0000
    38c6:	0000                	.insn	2, 0x0000
    38c8:	0000                	.insn	2, 0x0000
    38ca:	0000                	.insn	2, 0x0000
    38cc:	0000                	.insn	2, 0x0000
    38ce:	0000                	.insn	2, 0x0000
    38d0:	0000                	.insn	2, 0x0000
    38d2:	0000                	.insn	2, 0x0000
    38d4:	0000                	.insn	2, 0x0000
    38d6:	0000                	.insn	2, 0x0000
    38d8:	0000                	.insn	2, 0x0000
    38da:	0000                	.insn	2, 0x0000
    38dc:	0000                	.insn	2, 0x0000
    38de:	0000                	.insn	2, 0x0000
    38e0:	0000                	.insn	2, 0x0000
    38e2:	0000                	.insn	2, 0x0000
    38e4:	0000                	.insn	2, 0x0000
    38e6:	0000                	.insn	2, 0x0000
    38e8:	0000                	.insn	2, 0x0000
    38ea:	0000                	.insn	2, 0x0000
    38ec:	0000                	.insn	2, 0x0000
    38ee:	0000                	.insn	2, 0x0000
    38f0:	0000                	.insn	2, 0x0000
    38f2:	0000                	.insn	2, 0x0000
    38f4:	0000                	.insn	2, 0x0000
    38f6:	0000                	.insn	2, 0x0000
    38f8:	0000                	.insn	2, 0x0000
    38fa:	0000                	.insn	2, 0x0000
    38fc:	0000                	.insn	2, 0x0000
    38fe:	0000                	.insn	2, 0x0000

00003900 <fromhost>:
    3900:	0000                	.insn	2, 0x0000
    3902:	0000                	.insn	2, 0x0000
    3904:	0000                	.insn	2, 0x0000
    3906:	0000                	.insn	2, 0x0000

Disassembly of section .io_buf:

00006000 <begin_signature>:
    6000:	deadbeef          	jal	t4,fffe15ea <_end+0xfffda9e6>
    6004:	deadbeef          	jal	t4,fffe15ee <_end+0xfffda9ea>
    6008:	deadbeef          	jal	t4,fffe15f2 <_end+0xfffda9ee>
    600c:	deadbeef          	jal	t4,fffe15f6 <_end+0xfffda9f2>
    6010:	deadbeef          	jal	t4,fffe15fa <_end+0xfffda9f6>
    6014:	deadbeef          	jal	t4,fffe15fe <_end+0xfffda9fa>
    6018:	deadbeef          	jal	t4,fffe1602 <_end+0xfffda9fe>
    601c:	deadbeef          	jal	t4,fffe1606 <_end+0xfffdaa02>
    6020:	deadbeef          	jal	t4,fffe160a <_end+0xfffdaa06>
    6024:	deadbeef          	jal	t4,fffe160e <_end+0xfffdaa0a>
    6028:	deadbeef          	jal	t4,fffe1612 <_end+0xfffdaa0e>
    602c:	deadbeef          	jal	t4,fffe1616 <_end+0xfffdaa12>
    6030:	deadbeef          	jal	t4,fffe161a <_end+0xfffdaa16>
    6034:	deadbeef          	jal	t4,fffe161e <_end+0xfffdaa1a>
    6038:	deadbeef          	jal	t4,fffe1622 <_end+0xfffdaa1e>
    603c:	deadbeef          	jal	t4,fffe1626 <_end+0xfffdaa22>
    6040:	deadbeef          	jal	t4,fffe162a <_end+0xfffdaa26>

00006044 <signature_x13_0>:
    6044:	deadbeef          	jal	t4,fffe162e <_end+0xfffdaa2a>
    6048:	deadbeef          	jal	t4,fffe1632 <_end+0xfffdaa2e>
    604c:	deadbeef          	jal	t4,fffe1636 <_end+0xfffdaa32>
    6050:	deadbeef          	jal	t4,fffe163a <_end+0xfffdaa36>
    6054:	deadbeef          	jal	t4,fffe163e <_end+0xfffdaa3a>
    6058:	deadbeef          	jal	t4,fffe1642 <_end+0xfffdaa3e>
    605c:	deadbeef          	jal	t4,fffe1646 <_end+0xfffdaa42>
    6060:	deadbeef          	jal	t4,fffe164a <_end+0xfffdaa46>
    6064:	deadbeef          	jal	t4,fffe164e <_end+0xfffdaa4a>
    6068:	deadbeef          	jal	t4,fffe1652 <_end+0xfffdaa4e>
    606c:	deadbeef          	jal	t4,fffe1656 <_end+0xfffdaa52>
    6070:	deadbeef          	jal	t4,fffe165a <_end+0xfffdaa56>
    6074:	deadbeef          	jal	t4,fffe165e <_end+0xfffdaa5a>
    6078:	deadbeef          	jal	t4,fffe1662 <_end+0xfffdaa5e>
    607c:	deadbeef          	jal	t4,fffe1666 <_end+0xfffdaa62>
    6080:	deadbeef          	jal	t4,fffe166a <_end+0xfffdaa66>
    6084:	deadbeef          	jal	t4,fffe166e <_end+0xfffdaa6a>
    6088:	deadbeef          	jal	t4,fffe1672 <_end+0xfffdaa6e>
    608c:	deadbeef          	jal	t4,fffe1676 <_end+0xfffdaa72>
    6090:	deadbeef          	jal	t4,fffe167a <_end+0xfffdaa76>
    6094:	deadbeef          	jal	t4,fffe167e <_end+0xfffdaa7a>
    6098:	deadbeef          	jal	t4,fffe1682 <_end+0xfffdaa7e>
    609c:	deadbeef          	jal	t4,fffe1686 <_end+0xfffdaa82>
    60a0:	deadbeef          	jal	t4,fffe168a <_end+0xfffdaa86>
    60a4:	deadbeef          	jal	t4,fffe168e <_end+0xfffdaa8a>
    60a8:	deadbeef          	jal	t4,fffe1692 <_end+0xfffdaa8e>
    60ac:	deadbeef          	jal	t4,fffe1696 <_end+0xfffdaa92>
    60b0:	deadbeef          	jal	t4,fffe169a <_end+0xfffdaa96>
    60b4:	deadbeef          	jal	t4,fffe169e <_end+0xfffdaa9a>
    60b8:	deadbeef          	jal	t4,fffe16a2 <_end+0xfffdaa9e>
    60bc:	deadbeef          	jal	t4,fffe16a6 <_end+0xfffdaaa2>
    60c0:	deadbeef          	jal	t4,fffe16aa <_end+0xfffdaaa6>
    60c4:	deadbeef          	jal	t4,fffe16ae <_end+0xfffdaaaa>
    60c8:	deadbeef          	jal	t4,fffe16b2 <_end+0xfffdaaae>
    60cc:	deadbeef          	jal	t4,fffe16b6 <_end+0xfffdaab2>
    60d0:	deadbeef          	jal	t4,fffe16ba <_end+0xfffdaab6>
    60d4:	deadbeef          	jal	t4,fffe16be <_end+0xfffdaaba>
    60d8:	deadbeef          	jal	t4,fffe16c2 <_end+0xfffdaabe>
    60dc:	deadbeef          	jal	t4,fffe16c6 <_end+0xfffdaac2>
    60e0:	deadbeef          	jal	t4,fffe16ca <_end+0xfffdaac6>
    60e4:	deadbeef          	jal	t4,fffe16ce <_end+0xfffdaaca>
    60e8:	deadbeef          	jal	t4,fffe16d2 <_end+0xfffdaace>
    60ec:	deadbeef          	jal	t4,fffe16d6 <_end+0xfffdaad2>
    60f0:	deadbeef          	jal	t4,fffe16da <_end+0xfffdaad6>
    60f4:	deadbeef          	jal	t4,fffe16de <_end+0xfffdaada>
    60f8:	deadbeef          	jal	t4,fffe16e2 <_end+0xfffdaade>
    60fc:	deadbeef          	jal	t4,fffe16e6 <_end+0xfffdaae2>
    6100:	deadbeef          	jal	t4,fffe16ea <_end+0xfffdaae6>
    6104:	deadbeef          	jal	t4,fffe16ee <_end+0xfffdaaea>
    6108:	deadbeef          	jal	t4,fffe16f2 <_end+0xfffdaaee>
    610c:	deadbeef          	jal	t4,fffe16f6 <_end+0xfffdaaf2>
    6110:	deadbeef          	jal	t4,fffe16fa <_end+0xfffdaaf6>
    6114:	deadbeef          	jal	t4,fffe16fe <_end+0xfffdaafa>
    6118:	deadbeef          	jal	t4,fffe1702 <_end+0xfffdaafe>
    611c:	deadbeef          	jal	t4,fffe1706 <_end+0xfffdab02>
    6120:	deadbeef          	jal	t4,fffe170a <_end+0xfffdab06>
    6124:	deadbeef          	jal	t4,fffe170e <_end+0xfffdab0a>
    6128:	deadbeef          	jal	t4,fffe1712 <_end+0xfffdab0e>
    612c:	deadbeef          	jal	t4,fffe1716 <_end+0xfffdab12>
    6130:	deadbeef          	jal	t4,fffe171a <_end+0xfffdab16>
    6134:	deadbeef          	jal	t4,fffe171e <_end+0xfffdab1a>
    6138:	deadbeef          	jal	t4,fffe1722 <_end+0xfffdab1e>
    613c:	deadbeef          	jal	t4,fffe1726 <_end+0xfffdab22>
    6140:	deadbeef          	jal	t4,fffe172a <_end+0xfffdab26>
    6144:	deadbeef          	jal	t4,fffe172e <_end+0xfffdab2a>
    6148:	deadbeef          	jal	t4,fffe1732 <_end+0xfffdab2e>
    614c:	deadbeef          	jal	t4,fffe1736 <_end+0xfffdab32>
    6150:	deadbeef          	jal	t4,fffe173a <_end+0xfffdab36>
    6154:	deadbeef          	jal	t4,fffe173e <_end+0xfffdab3a>
    6158:	deadbeef          	jal	t4,fffe1742 <_end+0xfffdab3e>
    615c:	deadbeef          	jal	t4,fffe1746 <_end+0xfffdab42>
    6160:	deadbeef          	jal	t4,fffe174a <_end+0xfffdab46>
    6164:	deadbeef          	jal	t4,fffe174e <_end+0xfffdab4a>
    6168:	deadbeef          	jal	t4,fffe1752 <_end+0xfffdab4e>
    616c:	deadbeef          	jal	t4,fffe1756 <_end+0xfffdab52>
    6170:	deadbeef          	jal	t4,fffe175a <_end+0xfffdab56>
    6174:	deadbeef          	jal	t4,fffe175e <_end+0xfffdab5a>
    6178:	deadbeef          	jal	t4,fffe1762 <_end+0xfffdab5e>
    617c:	deadbeef          	jal	t4,fffe1766 <_end+0xfffdab62>
    6180:	deadbeef          	jal	t4,fffe176a <_end+0xfffdab66>
    6184:	deadbeef          	jal	t4,fffe176e <_end+0xfffdab6a>
    6188:	deadbeef          	jal	t4,fffe1772 <_end+0xfffdab6e>
    618c:	deadbeef          	jal	t4,fffe1776 <_end+0xfffdab72>
    6190:	deadbeef          	jal	t4,fffe177a <_end+0xfffdab76>
    6194:	deadbeef          	jal	t4,fffe177e <_end+0xfffdab7a>
    6198:	deadbeef          	jal	t4,fffe1782 <_end+0xfffdab7e>
    619c:	deadbeef          	jal	t4,fffe1786 <_end+0xfffdab82>
    61a0:	deadbeef          	jal	t4,fffe178a <_end+0xfffdab86>
    61a4:	deadbeef          	jal	t4,fffe178e <_end+0xfffdab8a>
    61a8:	deadbeef          	jal	t4,fffe1792 <_end+0xfffdab8e>
    61ac:	deadbeef          	jal	t4,fffe1796 <_end+0xfffdab92>
    61b0:	deadbeef          	jal	t4,fffe179a <_end+0xfffdab96>
    61b4:	deadbeef          	jal	t4,fffe179e <_end+0xfffdab9a>
    61b8:	deadbeef          	jal	t4,fffe17a2 <_end+0xfffdab9e>
    61bc:	deadbeef          	jal	t4,fffe17a6 <_end+0xfffdaba2>
    61c0:	deadbeef          	jal	t4,fffe17aa <_end+0xfffdaba6>
    61c4:	deadbeef          	jal	t4,fffe17ae <_end+0xfffdabaa>
    61c8:	deadbeef          	jal	t4,fffe17b2 <_end+0xfffdabae>
    61cc:	deadbeef          	jal	t4,fffe17b6 <_end+0xfffdabb2>
    61d0:	deadbeef          	jal	t4,fffe17ba <_end+0xfffdabb6>
    61d4:	deadbeef          	jal	t4,fffe17be <_end+0xfffdabba>
    61d8:	deadbeef          	jal	t4,fffe17c2 <_end+0xfffdabbe>
    61dc:	deadbeef          	jal	t4,fffe17c6 <_end+0xfffdabc2>
    61e0:	deadbeef          	jal	t4,fffe17ca <_end+0xfffdabc6>
    61e4:	deadbeef          	jal	t4,fffe17ce <_end+0xfffdabca>
    61e8:	deadbeef          	jal	t4,fffe17d2 <_end+0xfffdabce>
    61ec:	deadbeef          	jal	t4,fffe17d6 <_end+0xfffdabd2>
    61f0:	deadbeef          	jal	t4,fffe17da <_end+0xfffdabd6>
    61f4:	deadbeef          	jal	t4,fffe17de <_end+0xfffdabda>
    61f8:	deadbeef          	jal	t4,fffe17e2 <_end+0xfffdabde>
    61fc:	deadbeef          	jal	t4,fffe17e6 <_end+0xfffdabe2>
    6200:	deadbeef          	jal	t4,fffe17ea <_end+0xfffdabe6>
    6204:	deadbeef          	jal	t4,fffe17ee <_end+0xfffdabea>
    6208:	deadbeef          	jal	t4,fffe17f2 <_end+0xfffdabee>
    620c:	deadbeef          	jal	t4,fffe17f6 <_end+0xfffdabf2>
    6210:	deadbeef          	jal	t4,fffe17fa <_end+0xfffdabf6>
    6214:	deadbeef          	jal	t4,fffe17fe <_end+0xfffdabfa>
    6218:	deadbeef          	jal	t4,fffe1802 <_end+0xfffdabfe>
    621c:	deadbeef          	jal	t4,fffe1806 <_end+0xfffdac02>
    6220:	deadbeef          	jal	t4,fffe180a <_end+0xfffdac06>
    6224:	deadbeef          	jal	t4,fffe180e <_end+0xfffdac0a>
    6228:	deadbeef          	jal	t4,fffe1812 <_end+0xfffdac0e>
    622c:	deadbeef          	jal	t4,fffe1816 <_end+0xfffdac12>
    6230:	deadbeef          	jal	t4,fffe181a <_end+0xfffdac16>
    6234:	deadbeef          	jal	t4,fffe181e <_end+0xfffdac1a>
    6238:	deadbeef          	jal	t4,fffe1822 <_end+0xfffdac1e>
    623c:	deadbeef          	jal	t4,fffe1826 <_end+0xfffdac22>
    6240:	deadbeef          	jal	t4,fffe182a <_end+0xfffdac26>
    6244:	deadbeef          	jal	t4,fffe182e <_end+0xfffdac2a>
    6248:	deadbeef          	jal	t4,fffe1832 <_end+0xfffdac2e>
    624c:	deadbeef          	jal	t4,fffe1836 <_end+0xfffdac32>
    6250:	deadbeef          	jal	t4,fffe183a <_end+0xfffdac36>
    6254:	deadbeef          	jal	t4,fffe183e <_end+0xfffdac3a>
    6258:	deadbeef          	jal	t4,fffe1842 <_end+0xfffdac3e>
    625c:	deadbeef          	jal	t4,fffe1846 <_end+0xfffdac42>
    6260:	deadbeef          	jal	t4,fffe184a <_end+0xfffdac46>
    6264:	deadbeef          	jal	t4,fffe184e <_end+0xfffdac4a>
    6268:	deadbeef          	jal	t4,fffe1852 <_end+0xfffdac4e>
    626c:	deadbeef          	jal	t4,fffe1856 <_end+0xfffdac52>
    6270:	deadbeef          	jal	t4,fffe185a <_end+0xfffdac56>
    6274:	deadbeef          	jal	t4,fffe185e <_end+0xfffdac5a>
    6278:	deadbeef          	jal	t4,fffe1862 <_end+0xfffdac5e>
    627c:	deadbeef          	jal	t4,fffe1866 <_end+0xfffdac62>
    6280:	deadbeef          	jal	t4,fffe186a <_end+0xfffdac66>
    6284:	deadbeef          	jal	t4,fffe186e <_end+0xfffdac6a>
    6288:	deadbeef          	jal	t4,fffe1872 <_end+0xfffdac6e>
    628c:	deadbeef          	jal	t4,fffe1876 <_end+0xfffdac72>
    6290:	deadbeef          	jal	t4,fffe187a <_end+0xfffdac76>
    6294:	deadbeef          	jal	t4,fffe187e <_end+0xfffdac7a>
    6298:	deadbeef          	jal	t4,fffe1882 <_end+0xfffdac7e>
    629c:	deadbeef          	jal	t4,fffe1886 <_end+0xfffdac82>
    62a0:	deadbeef          	jal	t4,fffe188a <_end+0xfffdac86>
    62a4:	deadbeef          	jal	t4,fffe188e <_end+0xfffdac8a>
    62a8:	deadbeef          	jal	t4,fffe1892 <_end+0xfffdac8e>
    62ac:	deadbeef          	jal	t4,fffe1896 <_end+0xfffdac92>
    62b0:	deadbeef          	jal	t4,fffe189a <_end+0xfffdac96>
    62b4:	deadbeef          	jal	t4,fffe189e <_end+0xfffdac9a>
    62b8:	deadbeef          	jal	t4,fffe18a2 <_end+0xfffdac9e>
    62bc:	deadbeef          	jal	t4,fffe18a6 <_end+0xfffdaca2>
    62c0:	deadbeef          	jal	t4,fffe18aa <_end+0xfffdaca6>
    62c4:	deadbeef          	jal	t4,fffe18ae <_end+0xfffdacaa>
    62c8:	deadbeef          	jal	t4,fffe18b2 <_end+0xfffdacae>
    62cc:	deadbeef          	jal	t4,fffe18b6 <_end+0xfffdacb2>
    62d0:	deadbeef          	jal	t4,fffe18ba <_end+0xfffdacb6>
    62d4:	deadbeef          	jal	t4,fffe18be <_end+0xfffdacba>
    62d8:	deadbeef          	jal	t4,fffe18c2 <_end+0xfffdacbe>
    62dc:	deadbeef          	jal	t4,fffe18c6 <_end+0xfffdacc2>
    62e0:	deadbeef          	jal	t4,fffe18ca <_end+0xfffdacc6>
    62e4:	deadbeef          	jal	t4,fffe18ce <_end+0xfffdacca>
    62e8:	deadbeef          	jal	t4,fffe18d2 <_end+0xfffdacce>
    62ec:	deadbeef          	jal	t4,fffe18d6 <_end+0xfffdacd2>
    62f0:	deadbeef          	jal	t4,fffe18da <_end+0xfffdacd6>
    62f4:	deadbeef          	jal	t4,fffe18de <_end+0xfffdacda>
    62f8:	deadbeef          	jal	t4,fffe18e2 <_end+0xfffdacde>
    62fc:	deadbeef          	jal	t4,fffe18e6 <_end+0xfffdace2>
    6300:	deadbeef          	jal	t4,fffe18ea <_end+0xfffdace6>
    6304:	deadbeef          	jal	t4,fffe18ee <_end+0xfffdacea>
    6308:	deadbeef          	jal	t4,fffe18f2 <_end+0xfffdacee>
    630c:	deadbeef          	jal	t4,fffe18f6 <_end+0xfffdacf2>
    6310:	deadbeef          	jal	t4,fffe18fa <_end+0xfffdacf6>
    6314:	deadbeef          	jal	t4,fffe18fe <_end+0xfffdacfa>
    6318:	deadbeef          	jal	t4,fffe1902 <_end+0xfffdacfe>
    631c:	deadbeef          	jal	t4,fffe1906 <_end+0xfffdad02>
    6320:	deadbeef          	jal	t4,fffe190a <_end+0xfffdad06>
    6324:	deadbeef          	jal	t4,fffe190e <_end+0xfffdad0a>
    6328:	deadbeef          	jal	t4,fffe1912 <_end+0xfffdad0e>
    632c:	deadbeef          	jal	t4,fffe1916 <_end+0xfffdad12>
    6330:	deadbeef          	jal	t4,fffe191a <_end+0xfffdad16>
    6334:	deadbeef          	jal	t4,fffe191e <_end+0xfffdad1a>
    6338:	deadbeef          	jal	t4,fffe1922 <_end+0xfffdad1e>
    633c:	deadbeef          	jal	t4,fffe1926 <_end+0xfffdad22>
    6340:	deadbeef          	jal	t4,fffe192a <_end+0xfffdad26>
    6344:	deadbeef          	jal	t4,fffe192e <_end+0xfffdad2a>
    6348:	deadbeef          	jal	t4,fffe1932 <_end+0xfffdad2e>
    634c:	deadbeef          	jal	t4,fffe1936 <_end+0xfffdad32>
    6350:	deadbeef          	jal	t4,fffe193a <_end+0xfffdad36>
    6354:	deadbeef          	jal	t4,fffe193e <_end+0xfffdad3a>
    6358:	deadbeef          	jal	t4,fffe1942 <_end+0xfffdad3e>
    635c:	deadbeef          	jal	t4,fffe1946 <_end+0xfffdad42>
    6360:	deadbeef          	jal	t4,fffe194a <_end+0xfffdad46>
    6364:	deadbeef          	jal	t4,fffe194e <_end+0xfffdad4a>
    6368:	deadbeef          	jal	t4,fffe1952 <_end+0xfffdad4e>
    636c:	deadbeef          	jal	t4,fffe1956 <_end+0xfffdad52>
    6370:	deadbeef          	jal	t4,fffe195a <_end+0xfffdad56>
    6374:	deadbeef          	jal	t4,fffe195e <_end+0xfffdad5a>
    6378:	deadbeef          	jal	t4,fffe1962 <_end+0xfffdad5e>
    637c:	deadbeef          	jal	t4,fffe1966 <_end+0xfffdad62>
    6380:	deadbeef          	jal	t4,fffe196a <_end+0xfffdad66>
    6384:	deadbeef          	jal	t4,fffe196e <_end+0xfffdad6a>
    6388:	deadbeef          	jal	t4,fffe1972 <_end+0xfffdad6e>
    638c:	deadbeef          	jal	t4,fffe1976 <_end+0xfffdad72>
    6390:	deadbeef          	jal	t4,fffe197a <_end+0xfffdad76>
    6394:	deadbeef          	jal	t4,fffe197e <_end+0xfffdad7a>
    6398:	deadbeef          	jal	t4,fffe1982 <_end+0xfffdad7e>
    639c:	deadbeef          	jal	t4,fffe1986 <_end+0xfffdad82>
    63a0:	deadbeef          	jal	t4,fffe198a <_end+0xfffdad86>
    63a4:	deadbeef          	jal	t4,fffe198e <_end+0xfffdad8a>
    63a8:	deadbeef          	jal	t4,fffe1992 <_end+0xfffdad8e>
    63ac:	deadbeef          	jal	t4,fffe1996 <_end+0xfffdad92>
    63b0:	deadbeef          	jal	t4,fffe199a <_end+0xfffdad96>
    63b4:	deadbeef          	jal	t4,fffe199e <_end+0xfffdad9a>
    63b8:	deadbeef          	jal	t4,fffe19a2 <_end+0xfffdad9e>
    63bc:	deadbeef          	jal	t4,fffe19a6 <_end+0xfffdada2>
    63c0:	deadbeef          	jal	t4,fffe19aa <_end+0xfffdada6>
    63c4:	deadbeef          	jal	t4,fffe19ae <_end+0xfffdadaa>
    63c8:	deadbeef          	jal	t4,fffe19b2 <_end+0xfffdadae>
    63cc:	deadbeef          	jal	t4,fffe19b6 <_end+0xfffdadb2>
    63d0:	deadbeef          	jal	t4,fffe19ba <_end+0xfffdadb6>
    63d4:	deadbeef          	jal	t4,fffe19be <_end+0xfffdadba>
    63d8:	deadbeef          	jal	t4,fffe19c2 <_end+0xfffdadbe>
    63dc:	deadbeef          	jal	t4,fffe19c6 <_end+0xfffdadc2>
    63e0:	deadbeef          	jal	t4,fffe19ca <_end+0xfffdadc6>
    63e4:	deadbeef          	jal	t4,fffe19ce <_end+0xfffdadca>
    63e8:	deadbeef          	jal	t4,fffe19d2 <_end+0xfffdadce>
    63ec:	deadbeef          	jal	t4,fffe19d6 <_end+0xfffdadd2>
    63f0:	deadbeef          	jal	t4,fffe19da <_end+0xfffdadd6>
    63f4:	deadbeef          	jal	t4,fffe19de <_end+0xfffdadda>
    63f8:	deadbeef          	jal	t4,fffe19e2 <_end+0xfffdadde>
    63fc:	deadbeef          	jal	t4,fffe19e6 <_end+0xfffdade2>
    6400:	deadbeef          	jal	t4,fffe19ea <_end+0xfffdade6>
    6404:	deadbeef          	jal	t4,fffe19ee <_end+0xfffdadea>
    6408:	deadbeef          	jal	t4,fffe19f2 <_end+0xfffdadee>
    640c:	deadbeef          	jal	t4,fffe19f6 <_end+0xfffdadf2>
    6410:	deadbeef          	jal	t4,fffe19fa <_end+0xfffdadf6>
    6414:	deadbeef          	jal	t4,fffe19fe <_end+0xfffdadfa>
    6418:	deadbeef          	jal	t4,fffe1a02 <_end+0xfffdadfe>
    641c:	deadbeef          	jal	t4,fffe1a06 <_end+0xfffdae02>
    6420:	deadbeef          	jal	t4,fffe1a0a <_end+0xfffdae06>
    6424:	deadbeef          	jal	t4,fffe1a0e <_end+0xfffdae0a>
    6428:	deadbeef          	jal	t4,fffe1a12 <_end+0xfffdae0e>
    642c:	deadbeef          	jal	t4,fffe1a16 <_end+0xfffdae12>
    6430:	deadbeef          	jal	t4,fffe1a1a <_end+0xfffdae16>
    6434:	deadbeef          	jal	t4,fffe1a1e <_end+0xfffdae1a>
    6438:	deadbeef          	jal	t4,fffe1a22 <_end+0xfffdae1e>
    643c:	deadbeef          	jal	t4,fffe1a26 <_end+0xfffdae22>
    6440:	deadbeef          	jal	t4,fffe1a2a <_end+0xfffdae26>
    6444:	deadbeef          	jal	t4,fffe1a2e <_end+0xfffdae2a>
    6448:	deadbeef          	jal	t4,fffe1a32 <_end+0xfffdae2e>
    644c:	deadbeef          	jal	t4,fffe1a36 <_end+0xfffdae32>
    6450:	deadbeef          	jal	t4,fffe1a3a <_end+0xfffdae36>
    6454:	deadbeef          	jal	t4,fffe1a3e <_end+0xfffdae3a>
    6458:	deadbeef          	jal	t4,fffe1a42 <_end+0xfffdae3e>
    645c:	deadbeef          	jal	t4,fffe1a46 <_end+0xfffdae42>
    6460:	deadbeef          	jal	t4,fffe1a4a <_end+0xfffdae46>
    6464:	deadbeef          	jal	t4,fffe1a4e <_end+0xfffdae4a>
    6468:	deadbeef          	jal	t4,fffe1a52 <_end+0xfffdae4e>
    646c:	deadbeef          	jal	t4,fffe1a56 <_end+0xfffdae52>
    6470:	deadbeef          	jal	t4,fffe1a5a <_end+0xfffdae56>
    6474:	deadbeef          	jal	t4,fffe1a5e <_end+0xfffdae5a>
    6478:	deadbeef          	jal	t4,fffe1a62 <_end+0xfffdae5e>
    647c:	deadbeef          	jal	t4,fffe1a66 <_end+0xfffdae62>
    6480:	deadbeef          	jal	t4,fffe1a6a <_end+0xfffdae66>
    6484:	deadbeef          	jal	t4,fffe1a6e <_end+0xfffdae6a>
    6488:	deadbeef          	jal	t4,fffe1a72 <_end+0xfffdae6e>
    648c:	deadbeef          	jal	t4,fffe1a76 <_end+0xfffdae72>
    6490:	deadbeef          	jal	t4,fffe1a7a <_end+0xfffdae76>
    6494:	deadbeef          	jal	t4,fffe1a7e <_end+0xfffdae7a>
    6498:	deadbeef          	jal	t4,fffe1a82 <_end+0xfffdae7e>
    649c:	deadbeef          	jal	t4,fffe1a86 <_end+0xfffdae82>
    64a0:	deadbeef          	jal	t4,fffe1a8a <_end+0xfffdae86>
    64a4:	deadbeef          	jal	t4,fffe1a8e <_end+0xfffdae8a>
    64a8:	deadbeef          	jal	t4,fffe1a92 <_end+0xfffdae8e>
    64ac:	deadbeef          	jal	t4,fffe1a96 <_end+0xfffdae92>
    64b0:	deadbeef          	jal	t4,fffe1a9a <_end+0xfffdae96>
    64b4:	deadbeef          	jal	t4,fffe1a9e <_end+0xfffdae9a>
    64b8:	deadbeef          	jal	t4,fffe1aa2 <_end+0xfffdae9e>
    64bc:	deadbeef          	jal	t4,fffe1aa6 <_end+0xfffdaea2>
    64c0:	deadbeef          	jal	t4,fffe1aaa <_end+0xfffdaea6>
    64c4:	deadbeef          	jal	t4,fffe1aae <_end+0xfffdaeaa>
    64c8:	deadbeef          	jal	t4,fffe1ab2 <_end+0xfffdaeae>
    64cc:	deadbeef          	jal	t4,fffe1ab6 <_end+0xfffdaeb2>
    64d0:	deadbeef          	jal	t4,fffe1aba <_end+0xfffdaeb6>
    64d4:	deadbeef          	jal	t4,fffe1abe <_end+0xfffdaeba>
    64d8:	deadbeef          	jal	t4,fffe1ac2 <_end+0xfffdaebe>
    64dc:	deadbeef          	jal	t4,fffe1ac6 <_end+0xfffdaec2>
    64e0:	deadbeef          	jal	t4,fffe1aca <_end+0xfffdaec6>
    64e4:	deadbeef          	jal	t4,fffe1ace <_end+0xfffdaeca>
    64e8:	deadbeef          	jal	t4,fffe1ad2 <_end+0xfffdaece>
    64ec:	deadbeef          	jal	t4,fffe1ad6 <_end+0xfffdaed2>
    64f0:	deadbeef          	jal	t4,fffe1ada <_end+0xfffdaed6>
    64f4:	deadbeef          	jal	t4,fffe1ade <_end+0xfffdaeda>
    64f8:	deadbeef          	jal	t4,fffe1ae2 <_end+0xfffdaede>
    64fc:	deadbeef          	jal	t4,fffe1ae6 <_end+0xfffdaee2>
    6500:	deadbeef          	jal	t4,fffe1aea <_end+0xfffdaee6>
    6504:	deadbeef          	jal	t4,fffe1aee <_end+0xfffdaeea>
    6508:	deadbeef          	jal	t4,fffe1af2 <_end+0xfffdaeee>
    650c:	deadbeef          	jal	t4,fffe1af6 <_end+0xfffdaef2>
    6510:	deadbeef          	jal	t4,fffe1afa <_end+0xfffdaef6>
    6514:	deadbeef          	jal	t4,fffe1afe <_end+0xfffdaefa>
    6518:	deadbeef          	jal	t4,fffe1b02 <_end+0xfffdaefe>
    651c:	deadbeef          	jal	t4,fffe1b06 <_end+0xfffdaf02>
    6520:	deadbeef          	jal	t4,fffe1b0a <_end+0xfffdaf06>
    6524:	deadbeef          	jal	t4,fffe1b0e <_end+0xfffdaf0a>
    6528:	deadbeef          	jal	t4,fffe1b12 <_end+0xfffdaf0e>
    652c:	deadbeef          	jal	t4,fffe1b16 <_end+0xfffdaf12>
    6530:	deadbeef          	jal	t4,fffe1b1a <_end+0xfffdaf16>
    6534:	deadbeef          	jal	t4,fffe1b1e <_end+0xfffdaf1a>
    6538:	deadbeef          	jal	t4,fffe1b22 <_end+0xfffdaf1e>
    653c:	deadbeef          	jal	t4,fffe1b26 <_end+0xfffdaf22>
    6540:	deadbeef          	jal	t4,fffe1b2a <_end+0xfffdaf26>
    6544:	deadbeef          	jal	t4,fffe1b2e <_end+0xfffdaf2a>
    6548:	deadbeef          	jal	t4,fffe1b32 <_end+0xfffdaf2e>
    654c:	deadbeef          	jal	t4,fffe1b36 <_end+0xfffdaf32>
    6550:	deadbeef          	jal	t4,fffe1b3a <_end+0xfffdaf36>
    6554:	deadbeef          	jal	t4,fffe1b3e <_end+0xfffdaf3a>
    6558:	deadbeef          	jal	t4,fffe1b42 <_end+0xfffdaf3e>
    655c:	deadbeef          	jal	t4,fffe1b46 <_end+0xfffdaf42>
    6560:	deadbeef          	jal	t4,fffe1b4a <_end+0xfffdaf46>
    6564:	deadbeef          	jal	t4,fffe1b4e <_end+0xfffdaf4a>
    6568:	deadbeef          	jal	t4,fffe1b52 <_end+0xfffdaf4e>
    656c:	deadbeef          	jal	t4,fffe1b56 <_end+0xfffdaf52>
    6570:	deadbeef          	jal	t4,fffe1b5a <_end+0xfffdaf56>
    6574:	deadbeef          	jal	t4,fffe1b5e <_end+0xfffdaf5a>
    6578:	deadbeef          	jal	t4,fffe1b62 <_end+0xfffdaf5e>
    657c:	deadbeef          	jal	t4,fffe1b66 <_end+0xfffdaf62>
    6580:	deadbeef          	jal	t4,fffe1b6a <_end+0xfffdaf66>
    6584:	deadbeef          	jal	t4,fffe1b6e <_end+0xfffdaf6a>
    6588:	deadbeef          	jal	t4,fffe1b72 <_end+0xfffdaf6e>
    658c:	deadbeef          	jal	t4,fffe1b76 <_end+0xfffdaf72>
    6590:	deadbeef          	jal	t4,fffe1b7a <_end+0xfffdaf76>
    6594:	deadbeef          	jal	t4,fffe1b7e <_end+0xfffdaf7a>
    6598:	deadbeef          	jal	t4,fffe1b82 <_end+0xfffdaf7e>
    659c:	deadbeef          	jal	t4,fffe1b86 <_end+0xfffdaf82>
    65a0:	deadbeef          	jal	t4,fffe1b8a <_end+0xfffdaf86>
    65a4:	deadbeef          	jal	t4,fffe1b8e <_end+0xfffdaf8a>
    65a8:	deadbeef          	jal	t4,fffe1b92 <_end+0xfffdaf8e>
    65ac:	deadbeef          	jal	t4,fffe1b96 <_end+0xfffdaf92>
    65b0:	deadbeef          	jal	t4,fffe1b9a <_end+0xfffdaf96>
    65b4:	deadbeef          	jal	t4,fffe1b9e <_end+0xfffdaf9a>
    65b8:	deadbeef          	jal	t4,fffe1ba2 <_end+0xfffdaf9e>
    65bc:	deadbeef          	jal	t4,fffe1ba6 <_end+0xfffdafa2>
    65c0:	deadbeef          	jal	t4,fffe1baa <_end+0xfffdafa6>
    65c4:	deadbeef          	jal	t4,fffe1bae <_end+0xfffdafaa>
    65c8:	deadbeef          	jal	t4,fffe1bb2 <_end+0xfffdafae>
    65cc:	deadbeef          	jal	t4,fffe1bb6 <_end+0xfffdafb2>
    65d0:	deadbeef          	jal	t4,fffe1bba <_end+0xfffdafb6>
    65d4:	deadbeef          	jal	t4,fffe1bbe <_end+0xfffdafba>
    65d8:	deadbeef          	jal	t4,fffe1bc2 <_end+0xfffdafbe>
    65dc:	deadbeef          	jal	t4,fffe1bc6 <_end+0xfffdafc2>
    65e0:	deadbeef          	jal	t4,fffe1bca <_end+0xfffdafc6>
    65e4:	deadbeef          	jal	t4,fffe1bce <_end+0xfffdafca>
    65e8:	deadbeef          	jal	t4,fffe1bd2 <_end+0xfffdafce>
    65ec:	deadbeef          	jal	t4,fffe1bd6 <_end+0xfffdafd2>
    65f0:	deadbeef          	jal	t4,fffe1bda <_end+0xfffdafd6>
    65f4:	deadbeef          	jal	t4,fffe1bde <_end+0xfffdafda>
    65f8:	deadbeef          	jal	t4,fffe1be2 <_end+0xfffdafde>
    65fc:	deadbeef          	jal	t4,fffe1be6 <_end+0xfffdafe2>
    6600:	deadbeef          	jal	t4,fffe1bea <_end+0xfffdafe6>
    6604:	deadbeef          	jal	t4,fffe1bee <_end+0xfffdafea>
    6608:	deadbeef          	jal	t4,fffe1bf2 <_end+0xfffdafee>
    660c:	deadbeef          	jal	t4,fffe1bf6 <_end+0xfffdaff2>
    6610:	deadbeef          	jal	t4,fffe1bfa <_end+0xfffdaff6>
    6614:	deadbeef          	jal	t4,fffe1bfe <_end+0xfffdaffa>
    6618:	deadbeef          	jal	t4,fffe1c02 <_end+0xfffdaffe>
    661c:	deadbeef          	jal	t4,fffe1c06 <_end+0xfffdb002>
    6620:	deadbeef          	jal	t4,fffe1c0a <_end+0xfffdb006>
    6624:	deadbeef          	jal	t4,fffe1c0e <_end+0xfffdb00a>
    6628:	deadbeef          	jal	t4,fffe1c12 <_end+0xfffdb00e>
    662c:	deadbeef          	jal	t4,fffe1c16 <_end+0xfffdb012>
    6630:	deadbeef          	jal	t4,fffe1c1a <_end+0xfffdb016>
    6634:	deadbeef          	jal	t4,fffe1c1e <_end+0xfffdb01a>
    6638:	deadbeef          	jal	t4,fffe1c22 <_end+0xfffdb01e>
    663c:	deadbeef          	jal	t4,fffe1c26 <_end+0xfffdb022>
    6640:	deadbeef          	jal	t4,fffe1c2a <_end+0xfffdb026>
    6644:	deadbeef          	jal	t4,fffe1c2e <_end+0xfffdb02a>
    6648:	deadbeef          	jal	t4,fffe1c32 <_end+0xfffdb02e>
    664c:	deadbeef          	jal	t4,fffe1c36 <_end+0xfffdb032>
    6650:	deadbeef          	jal	t4,fffe1c3a <_end+0xfffdb036>
    6654:	deadbeef          	jal	t4,fffe1c3e <_end+0xfffdb03a>
    6658:	deadbeef          	jal	t4,fffe1c42 <_end+0xfffdb03e>
    665c:	deadbeef          	jal	t4,fffe1c46 <_end+0xfffdb042>
    6660:	deadbeef          	jal	t4,fffe1c4a <_end+0xfffdb046>
    6664:	deadbeef          	jal	t4,fffe1c4e <_end+0xfffdb04a>
    6668:	deadbeef          	jal	t4,fffe1c52 <_end+0xfffdb04e>
    666c:	deadbeef          	jal	t4,fffe1c56 <_end+0xfffdb052>
    6670:	deadbeef          	jal	t4,fffe1c5a <_end+0xfffdb056>
    6674:	deadbeef          	jal	t4,fffe1c5e <_end+0xfffdb05a>
    6678:	deadbeef          	jal	t4,fffe1c62 <_end+0xfffdb05e>
    667c:	deadbeef          	jal	t4,fffe1c66 <_end+0xfffdb062>
    6680:	deadbeef          	jal	t4,fffe1c6a <_end+0xfffdb066>
    6684:	deadbeef          	jal	t4,fffe1c6e <_end+0xfffdb06a>
    6688:	deadbeef          	jal	t4,fffe1c72 <_end+0xfffdb06e>
    668c:	deadbeef          	jal	t4,fffe1c76 <_end+0xfffdb072>
    6690:	deadbeef          	jal	t4,fffe1c7a <_end+0xfffdb076>
    6694:	deadbeef          	jal	t4,fffe1c7e <_end+0xfffdb07a>
    6698:	deadbeef          	jal	t4,fffe1c82 <_end+0xfffdb07e>
    669c:	deadbeef          	jal	t4,fffe1c86 <_end+0xfffdb082>
    66a0:	deadbeef          	jal	t4,fffe1c8a <_end+0xfffdb086>
    66a4:	deadbeef          	jal	t4,fffe1c8e <_end+0xfffdb08a>
    66a8:	deadbeef          	jal	t4,fffe1c92 <_end+0xfffdb08e>
    66ac:	deadbeef          	jal	t4,fffe1c96 <_end+0xfffdb092>
    66b0:	deadbeef          	jal	t4,fffe1c9a <_end+0xfffdb096>
    66b4:	deadbeef          	jal	t4,fffe1c9e <_end+0xfffdb09a>
    66b8:	deadbeef          	jal	t4,fffe1ca2 <_end+0xfffdb09e>
    66bc:	deadbeef          	jal	t4,fffe1ca6 <_end+0xfffdb0a2>
    66c0:	deadbeef          	jal	t4,fffe1caa <_end+0xfffdb0a6>
    66c4:	deadbeef          	jal	t4,fffe1cae <_end+0xfffdb0aa>
    66c8:	deadbeef          	jal	t4,fffe1cb2 <_end+0xfffdb0ae>
    66cc:	deadbeef          	jal	t4,fffe1cb6 <_end+0xfffdb0b2>
    66d0:	deadbeef          	jal	t4,fffe1cba <_end+0xfffdb0b6>
    66d4:	deadbeef          	jal	t4,fffe1cbe <_end+0xfffdb0ba>
    66d8:	deadbeef          	jal	t4,fffe1cc2 <_end+0xfffdb0be>
    66dc:	deadbeef          	jal	t4,fffe1cc6 <_end+0xfffdb0c2>
    66e0:	deadbeef          	jal	t4,fffe1cca <_end+0xfffdb0c6>
    66e4:	deadbeef          	jal	t4,fffe1cce <_end+0xfffdb0ca>
    66e8:	deadbeef          	jal	t4,fffe1cd2 <_end+0xfffdb0ce>
    66ec:	deadbeef          	jal	t4,fffe1cd6 <_end+0xfffdb0d2>
    66f0:	deadbeef          	jal	t4,fffe1cda <_end+0xfffdb0d6>
    66f4:	deadbeef          	jal	t4,fffe1cde <_end+0xfffdb0da>
    66f8:	deadbeef          	jal	t4,fffe1ce2 <_end+0xfffdb0de>
    66fc:	deadbeef          	jal	t4,fffe1ce6 <_end+0xfffdb0e2>
    6700:	deadbeef          	jal	t4,fffe1cea <_end+0xfffdb0e6>
    6704:	deadbeef          	jal	t4,fffe1cee <_end+0xfffdb0ea>
    6708:	deadbeef          	jal	t4,fffe1cf2 <_end+0xfffdb0ee>
    670c:	deadbeef          	jal	t4,fffe1cf6 <_end+0xfffdb0f2>
    6710:	deadbeef          	jal	t4,fffe1cfa <_end+0xfffdb0f6>
    6714:	deadbeef          	jal	t4,fffe1cfe <_end+0xfffdb0fa>
    6718:	deadbeef          	jal	t4,fffe1d02 <_end+0xfffdb0fe>
    671c:	deadbeef          	jal	t4,fffe1d06 <_end+0xfffdb102>
    6720:	deadbeef          	jal	t4,fffe1d0a <_end+0xfffdb106>
    6724:	deadbeef          	jal	t4,fffe1d0e <_end+0xfffdb10a>
    6728:	deadbeef          	jal	t4,fffe1d12 <_end+0xfffdb10e>
    672c:	deadbeef          	jal	t4,fffe1d16 <_end+0xfffdb112>
    6730:	deadbeef          	jal	t4,fffe1d1a <_end+0xfffdb116>
    6734:	deadbeef          	jal	t4,fffe1d1e <_end+0xfffdb11a>
    6738:	deadbeef          	jal	t4,fffe1d22 <_end+0xfffdb11e>
    673c:	deadbeef          	jal	t4,fffe1d26 <_end+0xfffdb122>
    6740:	deadbeef          	jal	t4,fffe1d2a <_end+0xfffdb126>
    6744:	deadbeef          	jal	t4,fffe1d2e <_end+0xfffdb12a>
    6748:	deadbeef          	jal	t4,fffe1d32 <_end+0xfffdb12e>
    674c:	deadbeef          	jal	t4,fffe1d36 <_end+0xfffdb132>
    6750:	deadbeef          	jal	t4,fffe1d3a <_end+0xfffdb136>
    6754:	deadbeef          	jal	t4,fffe1d3e <_end+0xfffdb13a>
    6758:	deadbeef          	jal	t4,fffe1d42 <_end+0xfffdb13e>
    675c:	deadbeef          	jal	t4,fffe1d46 <_end+0xfffdb142>
    6760:	deadbeef          	jal	t4,fffe1d4a <_end+0xfffdb146>
    6764:	deadbeef          	jal	t4,fffe1d4e <_end+0xfffdb14a>
    6768:	deadbeef          	jal	t4,fffe1d52 <_end+0xfffdb14e>
    676c:	deadbeef          	jal	t4,fffe1d56 <_end+0xfffdb152>
    6770:	deadbeef          	jal	t4,fffe1d5a <_end+0xfffdb156>
    6774:	deadbeef          	jal	t4,fffe1d5e <_end+0xfffdb15a>
    6778:	deadbeef          	jal	t4,fffe1d62 <_end+0xfffdb15e>
    677c:	deadbeef          	jal	t4,fffe1d66 <_end+0xfffdb162>
    6780:	deadbeef          	jal	t4,fffe1d6a <_end+0xfffdb166>
    6784:	deadbeef          	jal	t4,fffe1d6e <_end+0xfffdb16a>
    6788:	deadbeef          	jal	t4,fffe1d72 <_end+0xfffdb16e>
    678c:	deadbeef          	jal	t4,fffe1d76 <_end+0xfffdb172>
    6790:	deadbeef          	jal	t4,fffe1d7a <_end+0xfffdb176>
    6794:	deadbeef          	jal	t4,fffe1d7e <_end+0xfffdb17a>
    6798:	deadbeef          	jal	t4,fffe1d82 <_end+0xfffdb17e>
    679c:	deadbeef          	jal	t4,fffe1d86 <_end+0xfffdb182>
    67a0:	deadbeef          	jal	t4,fffe1d8a <_end+0xfffdb186>
    67a4:	deadbeef          	jal	t4,fffe1d8e <_end+0xfffdb18a>
    67a8:	deadbeef          	jal	t4,fffe1d92 <_end+0xfffdb18e>
    67ac:	deadbeef          	jal	t4,fffe1d96 <_end+0xfffdb192>
    67b0:	deadbeef          	jal	t4,fffe1d9a <_end+0xfffdb196>
    67b4:	deadbeef          	jal	t4,fffe1d9e <_end+0xfffdb19a>
    67b8:	deadbeef          	jal	t4,fffe1da2 <_end+0xfffdb19e>
    67bc:	deadbeef          	jal	t4,fffe1da6 <_end+0xfffdb1a2>
    67c0:	deadbeef          	jal	t4,fffe1daa <_end+0xfffdb1a6>
    67c4:	deadbeef          	jal	t4,fffe1dae <_end+0xfffdb1aa>
    67c8:	deadbeef          	jal	t4,fffe1db2 <_end+0xfffdb1ae>
    67cc:	deadbeef          	jal	t4,fffe1db6 <_end+0xfffdb1b2>
    67d0:	deadbeef          	jal	t4,fffe1dba <_end+0xfffdb1b6>
    67d4:	deadbeef          	jal	t4,fffe1dbe <_end+0xfffdb1ba>
    67d8:	deadbeef          	jal	t4,fffe1dc2 <_end+0xfffdb1be>
    67dc:	deadbeef          	jal	t4,fffe1dc6 <_end+0xfffdb1c2>
    67e0:	deadbeef          	jal	t4,fffe1dca <_end+0xfffdb1c6>
    67e4:	deadbeef          	jal	t4,fffe1dce <_end+0xfffdb1ca>
    67e8:	deadbeef          	jal	t4,fffe1dd2 <_end+0xfffdb1ce>
    67ec:	deadbeef          	jal	t4,fffe1dd6 <_end+0xfffdb1d2>
    67f0:	deadbeef          	jal	t4,fffe1dda <_end+0xfffdb1d6>
    67f4:	deadbeef          	jal	t4,fffe1dde <_end+0xfffdb1da>
    67f8:	deadbeef          	jal	t4,fffe1de2 <_end+0xfffdb1de>
    67fc:	deadbeef          	jal	t4,fffe1de6 <_end+0xfffdb1e2>
    6800:	deadbeef          	jal	t4,fffe1dea <_end+0xfffdb1e6>
    6804:	deadbeef          	jal	t4,fffe1dee <_end+0xfffdb1ea>
    6808:	deadbeef          	jal	t4,fffe1df2 <_end+0xfffdb1ee>
    680c:	deadbeef          	jal	t4,fffe1df6 <_end+0xfffdb1f2>
    6810:	deadbeef          	jal	t4,fffe1dfa <_end+0xfffdb1f6>
    6814:	deadbeef          	jal	t4,fffe1dfe <_end+0xfffdb1fa>
    6818:	deadbeef          	jal	t4,fffe1e02 <_end+0xfffdb1fe>
    681c:	deadbeef          	jal	t4,fffe1e06 <_end+0xfffdb202>
    6820:	deadbeef          	jal	t4,fffe1e0a <_end+0xfffdb206>
    6824:	deadbeef          	jal	t4,fffe1e0e <_end+0xfffdb20a>
    6828:	deadbeef          	jal	t4,fffe1e12 <_end+0xfffdb20e>
    682c:	deadbeef          	jal	t4,fffe1e16 <_end+0xfffdb212>
    6830:	deadbeef          	jal	t4,fffe1e1a <_end+0xfffdb216>
    6834:	deadbeef          	jal	t4,fffe1e1e <_end+0xfffdb21a>
    6838:	deadbeef          	jal	t4,fffe1e22 <_end+0xfffdb21e>
    683c:	deadbeef          	jal	t4,fffe1e26 <_end+0xfffdb222>
    6840:	deadbeef          	jal	t4,fffe1e2a <_end+0xfffdb226>

00006844 <signature_x13_1>:
    6844:	deadbeef          	jal	t4,fffe1e2e <_end+0xfffdb22a>
    6848:	deadbeef          	jal	t4,fffe1e32 <_end+0xfffdb22e>
    684c:	deadbeef          	jal	t4,fffe1e36 <_end+0xfffdb232>
    6850:	deadbeef          	jal	t4,fffe1e3a <_end+0xfffdb236>
    6854:	deadbeef          	jal	t4,fffe1e3e <_end+0xfffdb23a>
    6858:	deadbeef          	jal	t4,fffe1e42 <_end+0xfffdb23e>
    685c:	deadbeef          	jal	t4,fffe1e46 <_end+0xfffdb242>
    6860:	deadbeef          	jal	t4,fffe1e4a <_end+0xfffdb246>
    6864:	deadbeef          	jal	t4,fffe1e4e <_end+0xfffdb24a>
    6868:	deadbeef          	jal	t4,fffe1e52 <_end+0xfffdb24e>
    686c:	deadbeef          	jal	t4,fffe1e56 <_end+0xfffdb252>
    6870:	deadbeef          	jal	t4,fffe1e5a <_end+0xfffdb256>
    6874:	deadbeef          	jal	t4,fffe1e5e <_end+0xfffdb25a>
    6878:	deadbeef          	jal	t4,fffe1e62 <_end+0xfffdb25e>
    687c:	deadbeef          	jal	t4,fffe1e66 <_end+0xfffdb262>
    6880:	deadbeef          	jal	t4,fffe1e6a <_end+0xfffdb266>
    6884:	deadbeef          	jal	t4,fffe1e6e <_end+0xfffdb26a>
    6888:	deadbeef          	jal	t4,fffe1e72 <_end+0xfffdb26e>
    688c:	deadbeef          	jal	t4,fffe1e76 <_end+0xfffdb272>
    6890:	deadbeef          	jal	t4,fffe1e7a <_end+0xfffdb276>
    6894:	deadbeef          	jal	t4,fffe1e7e <_end+0xfffdb27a>
    6898:	deadbeef          	jal	t4,fffe1e82 <_end+0xfffdb27e>
    689c:	deadbeef          	jal	t4,fffe1e86 <_end+0xfffdb282>
    68a0:	deadbeef          	jal	t4,fffe1e8a <_end+0xfffdb286>
    68a4:	deadbeef          	jal	t4,fffe1e8e <_end+0xfffdb28a>
    68a8:	deadbeef          	jal	t4,fffe1e92 <_end+0xfffdb28e>
    68ac:	deadbeef          	jal	t4,fffe1e96 <_end+0xfffdb292>
    68b0:	deadbeef          	jal	t4,fffe1e9a <_end+0xfffdb296>
    68b4:	deadbeef          	jal	t4,fffe1e9e <_end+0xfffdb29a>
    68b8:	deadbeef          	jal	t4,fffe1ea2 <_end+0xfffdb29e>
    68bc:	deadbeef          	jal	t4,fffe1ea6 <_end+0xfffdb2a2>
    68c0:	deadbeef          	jal	t4,fffe1eaa <_end+0xfffdb2a6>
    68c4:	deadbeef          	jal	t4,fffe1eae <_end+0xfffdb2aa>
    68c8:	deadbeef          	jal	t4,fffe1eb2 <_end+0xfffdb2ae>
    68cc:	deadbeef          	jal	t4,fffe1eb6 <_end+0xfffdb2b2>
    68d0:	deadbeef          	jal	t4,fffe1eba <_end+0xfffdb2b6>
    68d4:	deadbeef          	jal	t4,fffe1ebe <_end+0xfffdb2ba>
    68d8:	deadbeef          	jal	t4,fffe1ec2 <_end+0xfffdb2be>
    68dc:	deadbeef          	jal	t4,fffe1ec6 <_end+0xfffdb2c2>
    68e0:	deadbeef          	jal	t4,fffe1eca <_end+0xfffdb2c6>
    68e4:	deadbeef          	jal	t4,fffe1ece <_end+0xfffdb2ca>
    68e8:	deadbeef          	jal	t4,fffe1ed2 <_end+0xfffdb2ce>
    68ec:	deadbeef          	jal	t4,fffe1ed6 <_end+0xfffdb2d2>
    68f0:	deadbeef          	jal	t4,fffe1eda <_end+0xfffdb2d6>
    68f4:	deadbeef          	jal	t4,fffe1ede <_end+0xfffdb2da>
    68f8:	deadbeef          	jal	t4,fffe1ee2 <_end+0xfffdb2de>
    68fc:	deadbeef          	jal	t4,fffe1ee6 <_end+0xfffdb2e2>
    6900:	deadbeef          	jal	t4,fffe1eea <_end+0xfffdb2e6>
    6904:	deadbeef          	jal	t4,fffe1eee <_end+0xfffdb2ea>
    6908:	deadbeef          	jal	t4,fffe1ef2 <_end+0xfffdb2ee>
    690c:	deadbeef          	jal	t4,fffe1ef6 <_end+0xfffdb2f2>
    6910:	deadbeef          	jal	t4,fffe1efa <_end+0xfffdb2f6>
    6914:	deadbeef          	jal	t4,fffe1efe <_end+0xfffdb2fa>
    6918:	deadbeef          	jal	t4,fffe1f02 <_end+0xfffdb2fe>
    691c:	deadbeef          	jal	t4,fffe1f06 <_end+0xfffdb302>
    6920:	deadbeef          	jal	t4,fffe1f0a <_end+0xfffdb306>
    6924:	deadbeef          	jal	t4,fffe1f0e <_end+0xfffdb30a>
    6928:	deadbeef          	jal	t4,fffe1f12 <_end+0xfffdb30e>
    692c:	deadbeef          	jal	t4,fffe1f16 <_end+0xfffdb312>
    6930:	deadbeef          	jal	t4,fffe1f1a <_end+0xfffdb316>
    6934:	deadbeef          	jal	t4,fffe1f1e <_end+0xfffdb31a>
    6938:	deadbeef          	jal	t4,fffe1f22 <_end+0xfffdb31e>
    693c:	deadbeef          	jal	t4,fffe1f26 <_end+0xfffdb322>
    6940:	deadbeef          	jal	t4,fffe1f2a <_end+0xfffdb326>
    6944:	deadbeef          	jal	t4,fffe1f2e <_end+0xfffdb32a>
    6948:	deadbeef          	jal	t4,fffe1f32 <_end+0xfffdb32e>
    694c:	deadbeef          	jal	t4,fffe1f36 <_end+0xfffdb332>
    6950:	deadbeef          	jal	t4,fffe1f3a <_end+0xfffdb336>
    6954:	deadbeef          	jal	t4,fffe1f3e <_end+0xfffdb33a>
    6958:	deadbeef          	jal	t4,fffe1f42 <_end+0xfffdb33e>
    695c:	deadbeef          	jal	t4,fffe1f46 <_end+0xfffdb342>
    6960:	deadbeef          	jal	t4,fffe1f4a <_end+0xfffdb346>
    6964:	deadbeef          	jal	t4,fffe1f4e <_end+0xfffdb34a>
    6968:	deadbeef          	jal	t4,fffe1f52 <_end+0xfffdb34e>
    696c:	deadbeef          	jal	t4,fffe1f56 <_end+0xfffdb352>
    6970:	deadbeef          	jal	t4,fffe1f5a <_end+0xfffdb356>
    6974:	deadbeef          	jal	t4,fffe1f5e <_end+0xfffdb35a>
    6978:	deadbeef          	jal	t4,fffe1f62 <_end+0xfffdb35e>
    697c:	deadbeef          	jal	t4,fffe1f66 <_end+0xfffdb362>
    6980:	deadbeef          	jal	t4,fffe1f6a <_end+0xfffdb366>
    6984:	deadbeef          	jal	t4,fffe1f6e <_end+0xfffdb36a>
    6988:	deadbeef          	jal	t4,fffe1f72 <_end+0xfffdb36e>
    698c:	deadbeef          	jal	t4,fffe1f76 <_end+0xfffdb372>
    6990:	deadbeef          	jal	t4,fffe1f7a <_end+0xfffdb376>
    6994:	deadbeef          	jal	t4,fffe1f7e <_end+0xfffdb37a>
    6998:	deadbeef          	jal	t4,fffe1f82 <_end+0xfffdb37e>
    699c:	deadbeef          	jal	t4,fffe1f86 <_end+0xfffdb382>
    69a0:	deadbeef          	jal	t4,fffe1f8a <_end+0xfffdb386>
    69a4:	deadbeef          	jal	t4,fffe1f8e <_end+0xfffdb38a>
    69a8:	deadbeef          	jal	t4,fffe1f92 <_end+0xfffdb38e>
    69ac:	deadbeef          	jal	t4,fffe1f96 <_end+0xfffdb392>
    69b0:	deadbeef          	jal	t4,fffe1f9a <_end+0xfffdb396>
    69b4:	deadbeef          	jal	t4,fffe1f9e <_end+0xfffdb39a>
    69b8:	deadbeef          	jal	t4,fffe1fa2 <_end+0xfffdb39e>
    69bc:	deadbeef          	jal	t4,fffe1fa6 <_end+0xfffdb3a2>
    69c0:	deadbeef          	jal	t4,fffe1faa <_end+0xfffdb3a6>
    69c4:	deadbeef          	jal	t4,fffe1fae <_end+0xfffdb3aa>
    69c8:	deadbeef          	jal	t4,fffe1fb2 <_end+0xfffdb3ae>
    69cc:	deadbeef          	jal	t4,fffe1fb6 <_end+0xfffdb3b2>
    69d0:	deadbeef          	jal	t4,fffe1fba <_end+0xfffdb3b6>
    69d4:	deadbeef          	jal	t4,fffe1fbe <_end+0xfffdb3ba>
    69d8:	deadbeef          	jal	t4,fffe1fc2 <_end+0xfffdb3be>
    69dc:	deadbeef          	jal	t4,fffe1fc6 <_end+0xfffdb3c2>
    69e0:	deadbeef          	jal	t4,fffe1fca <_end+0xfffdb3c6>
    69e4:	deadbeef          	jal	t4,fffe1fce <_end+0xfffdb3ca>
    69e8:	deadbeef          	jal	t4,fffe1fd2 <_end+0xfffdb3ce>
    69ec:	deadbeef          	jal	t4,fffe1fd6 <_end+0xfffdb3d2>
    69f0:	deadbeef          	jal	t4,fffe1fda <_end+0xfffdb3d6>
    69f4:	deadbeef          	jal	t4,fffe1fde <_end+0xfffdb3da>
    69f8:	deadbeef          	jal	t4,fffe1fe2 <_end+0xfffdb3de>
    69fc:	deadbeef          	jal	t4,fffe1fe6 <_end+0xfffdb3e2>
    6a00:	deadbeef          	jal	t4,fffe1fea <_end+0xfffdb3e6>
    6a04:	deadbeef          	jal	t4,fffe1fee <_end+0xfffdb3ea>
    6a08:	deadbeef          	jal	t4,fffe1ff2 <_end+0xfffdb3ee>
    6a0c:	deadbeef          	jal	t4,fffe1ff6 <_end+0xfffdb3f2>
    6a10:	deadbeef          	jal	t4,fffe1ffa <_end+0xfffdb3f6>
    6a14:	deadbeef          	jal	t4,fffe1ffe <_end+0xfffdb3fa>
    6a18:	deadbeef          	jal	t4,fffe2002 <_end+0xfffdb3fe>
    6a1c:	deadbeef          	jal	t4,fffe2006 <_end+0xfffdb402>

00006a20 <end_signature>:
    6a20:	0000                	.insn	2, 0x0000
    6a22:	0000                	.insn	2, 0x0000
    6a24:	0000                	.insn	2, 0x0000
    6a26:	0000                	.insn	2, 0x0000
    6a28:	0000                	.insn	2, 0x0000
    6a2a:	0000                	.insn	2, 0x0000
    6a2c:	0000                	.insn	2, 0x0000
    6a2e:	0000                	.insn	2, 0x0000
    6a30:	0000                	.insn	2, 0x0000
    6a32:	0000                	.insn	2, 0x0000
    6a34:	0000                	.insn	2, 0x0000
    6a36:	0000                	.insn	2, 0x0000
    6a38:	0000                	.insn	2, 0x0000
    6a3a:	0000                	.insn	2, 0x0000
    6a3c:	0000                	.insn	2, 0x0000
    6a3e:	0000                	.insn	2, 0x0000
    6a40:	0000                	.insn	2, 0x0000
    6a42:	0000                	.insn	2, 0x0000
    6a44:	0000                	.insn	2, 0x0000
    6a46:	0000                	.insn	2, 0x0000
    6a48:	0000                	.insn	2, 0x0000
    6a4a:	0000                	.insn	2, 0x0000
    6a4c:	0000                	.insn	2, 0x0000
    6a4e:	0000                	.insn	2, 0x0000
    6a50:	0000                	.insn	2, 0x0000
    6a52:	0000                	.insn	2, 0x0000
    6a54:	0000                	.insn	2, 0x0000
    6a56:	0000                	.insn	2, 0x0000
    6a58:	0000                	.insn	2, 0x0000
    6a5a:	0000                	.insn	2, 0x0000
    6a5c:	0000                	.insn	2, 0x0000
    6a5e:	0000                	.insn	2, 0x0000
    6a60:	0000                	.insn	2, 0x0000
    6a62:	0000                	.insn	2, 0x0000
    6a64:	0000                	.insn	2, 0x0000
    6a66:	0000                	.insn	2, 0x0000
    6a68:	0000                	.insn	2, 0x0000
    6a6a:	0000                	.insn	2, 0x0000
    6a6c:	0000                	.insn	2, 0x0000
    6a6e:	0000                	.insn	2, 0x0000
    6a70:	0000                	.insn	2, 0x0000
    6a72:	0000                	.insn	2, 0x0000
    6a74:	0000                	.insn	2, 0x0000
    6a76:	0000                	.insn	2, 0x0000
    6a78:	0000                	.insn	2, 0x0000
    6a7a:	0000                	.insn	2, 0x0000
    6a7c:	0000                	.insn	2, 0x0000
    6a7e:	0000                	.insn	2, 0x0000
    6a80:	0000                	.insn	2, 0x0000
    6a82:	0000                	.insn	2, 0x0000
    6a84:	0000                	.insn	2, 0x0000
    6a86:	0000                	.insn	2, 0x0000
    6a88:	0000                	.insn	2, 0x0000
    6a8a:	0000                	.insn	2, 0x0000
    6a8c:	0000                	.insn	2, 0x0000
    6a8e:	0000                	.insn	2, 0x0000
    6a90:	0000                	.insn	2, 0x0000
    6a92:	0000                	.insn	2, 0x0000
    6a94:	0000                	.insn	2, 0x0000
    6a96:	0000                	.insn	2, 0x0000
    6a98:	0000                	.insn	2, 0x0000
    6a9a:	0000                	.insn	2, 0x0000
    6a9c:	0000                	.insn	2, 0x0000
    6a9e:	0000                	.insn	2, 0x0000
    6aa0:	0000                	.insn	2, 0x0000
    6aa2:	0000                	.insn	2, 0x0000
    6aa4:	0000                	.insn	2, 0x0000
    6aa6:	0000                	.insn	2, 0x0000
    6aa8:	0000                	.insn	2, 0x0000
    6aaa:	0000                	.insn	2, 0x0000
    6aac:	0000                	.insn	2, 0x0000
    6aae:	0000                	.insn	2, 0x0000
    6ab0:	0000                	.insn	2, 0x0000
    6ab2:	0000                	.insn	2, 0x0000
    6ab4:	0000                	.insn	2, 0x0000
    6ab6:	0000                	.insn	2, 0x0000
    6ab8:	0000                	.insn	2, 0x0000
    6aba:	0000                	.insn	2, 0x0000
    6abc:	0000                	.insn	2, 0x0000
    6abe:	0000                	.insn	2, 0x0000
    6ac0:	0000                	.insn	2, 0x0000
    6ac2:	0000                	.insn	2, 0x0000
    6ac4:	0000                	.insn	2, 0x0000
    6ac6:	0000                	.insn	2, 0x0000
    6ac8:	0000                	.insn	2, 0x0000
    6aca:	0000                	.insn	2, 0x0000
    6acc:	0000                	.insn	2, 0x0000
    6ace:	0000                	.insn	2, 0x0000
    6ad0:	0000                	.insn	2, 0x0000
    6ad2:	0000                	.insn	2, 0x0000
    6ad4:	0000                	.insn	2, 0x0000
    6ad6:	0000                	.insn	2, 0x0000
    6ad8:	0000                	.insn	2, 0x0000
    6ada:	0000                	.insn	2, 0x0000
    6adc:	0000                	.insn	2, 0x0000
    6ade:	0000                	.insn	2, 0x0000
    6ae0:	0000                	.insn	2, 0x0000
    6ae2:	0000                	.insn	2, 0x0000
    6ae4:	0000                	.insn	2, 0x0000
    6ae6:	0000                	.insn	2, 0x0000
    6ae8:	0000                	.insn	2, 0x0000
    6aea:	0000                	.insn	2, 0x0000
    6aec:	0000                	.insn	2, 0x0000
    6aee:	0000                	.insn	2, 0x0000
    6af0:	0000                	.insn	2, 0x0000
    6af2:	0000                	.insn	2, 0x0000
    6af4:	0000                	.insn	2, 0x0000
    6af6:	0000                	.insn	2, 0x0000
    6af8:	0000                	.insn	2, 0x0000
    6afa:	0000                	.insn	2, 0x0000
    6afc:	0000                	.insn	2, 0x0000
    6afe:	0000                	.insn	2, 0x0000

00006b00 <begin_regstate>:
    6b00:	0080                	.insn	2, 0x0080
    6b02:	0000                	.insn	2, 0x0000
    6b04:	0000                	.insn	2, 0x0000
    6b06:	0000                	.insn	2, 0x0000
    6b08:	0000                	.insn	2, 0x0000
    6b0a:	0000                	.insn	2, 0x0000
    6b0c:	0000                	.insn	2, 0x0000
    6b0e:	0000                	.insn	2, 0x0000
    6b10:	0000                	.insn	2, 0x0000
    6b12:	0000                	.insn	2, 0x0000
    6b14:	0000                	.insn	2, 0x0000
    6b16:	0000                	.insn	2, 0x0000
    6b18:	0000                	.insn	2, 0x0000
    6b1a:	0000                	.insn	2, 0x0000
    6b1c:	0000                	.insn	2, 0x0000
    6b1e:	0000                	.insn	2, 0x0000
    6b20:	0000                	.insn	2, 0x0000
    6b22:	0000                	.insn	2, 0x0000
    6b24:	0000                	.insn	2, 0x0000
    6b26:	0000                	.insn	2, 0x0000
    6b28:	0000                	.insn	2, 0x0000
    6b2a:	0000                	.insn	2, 0x0000
    6b2c:	0000                	.insn	2, 0x0000
    6b2e:	0000                	.insn	2, 0x0000
    6b30:	0000                	.insn	2, 0x0000
    6b32:	0000                	.insn	2, 0x0000
    6b34:	0000                	.insn	2, 0x0000
    6b36:	0000                	.insn	2, 0x0000
    6b38:	0000                	.insn	2, 0x0000
    6b3a:	0000                	.insn	2, 0x0000
    6b3c:	0000                	.insn	2, 0x0000
    6b3e:	0000                	.insn	2, 0x0000
    6b40:	0000                	.insn	2, 0x0000
    6b42:	0000                	.insn	2, 0x0000
    6b44:	0000                	.insn	2, 0x0000
    6b46:	0000                	.insn	2, 0x0000
    6b48:	0000                	.insn	2, 0x0000
    6b4a:	0000                	.insn	2, 0x0000
    6b4c:	0000                	.insn	2, 0x0000
    6b4e:	0000                	.insn	2, 0x0000
    6b50:	0000                	.insn	2, 0x0000
    6b52:	0000                	.insn	2, 0x0000
    6b54:	0000                	.insn	2, 0x0000
    6b56:	0000                	.insn	2, 0x0000
    6b58:	0000                	.insn	2, 0x0000
    6b5a:	0000                	.insn	2, 0x0000
    6b5c:	0000                	.insn	2, 0x0000
    6b5e:	0000                	.insn	2, 0x0000
    6b60:	0000                	.insn	2, 0x0000
    6b62:	0000                	.insn	2, 0x0000
    6b64:	0000                	.insn	2, 0x0000
    6b66:	0000                	.insn	2, 0x0000
    6b68:	0000                	.insn	2, 0x0000
    6b6a:	0000                	.insn	2, 0x0000
    6b6c:	0000                	.insn	2, 0x0000
    6b6e:	0000                	.insn	2, 0x0000
    6b70:	0000                	.insn	2, 0x0000
    6b72:	0000                	.insn	2, 0x0000
    6b74:	0000                	.insn	2, 0x0000
    6b76:	0000                	.insn	2, 0x0000
    6b78:	0000                	.insn	2, 0x0000
    6b7a:	0000                	.insn	2, 0x0000
    6b7c:	0000                	.insn	2, 0x0000
    6b7e:	0000                	.insn	2, 0x0000
    6b80:	0000                	.insn	2, 0x0000
    6b82:	0000                	.insn	2, 0x0000
    6b84:	0000                	.insn	2, 0x0000
    6b86:	0000                	.insn	2, 0x0000
    6b88:	0000                	.insn	2, 0x0000
    6b8a:	0000                	.insn	2, 0x0000
    6b8c:	0000                	.insn	2, 0x0000
    6b8e:	0000                	.insn	2, 0x0000
    6b90:	0000                	.insn	2, 0x0000
    6b92:	0000                	.insn	2, 0x0000
    6b94:	0000                	.insn	2, 0x0000
    6b96:	0000                	.insn	2, 0x0000
    6b98:	0000                	.insn	2, 0x0000
    6b9a:	0000                	.insn	2, 0x0000
    6b9c:	0000                	.insn	2, 0x0000
    6b9e:	0000                	.insn	2, 0x0000
    6ba0:	0000                	.insn	2, 0x0000
    6ba2:	0000                	.insn	2, 0x0000
    6ba4:	0000                	.insn	2, 0x0000
    6ba6:	0000                	.insn	2, 0x0000
    6ba8:	0000                	.insn	2, 0x0000
    6baa:	0000                	.insn	2, 0x0000
    6bac:	0000                	.insn	2, 0x0000
    6bae:	0000                	.insn	2, 0x0000
    6bb0:	0000                	.insn	2, 0x0000
    6bb2:	0000                	.insn	2, 0x0000
    6bb4:	0000                	.insn	2, 0x0000
    6bb6:	0000                	.insn	2, 0x0000
    6bb8:	0000                	.insn	2, 0x0000
    6bba:	0000                	.insn	2, 0x0000
    6bbc:	0000                	.insn	2, 0x0000
    6bbe:	0000                	.insn	2, 0x0000
    6bc0:	0000                	.insn	2, 0x0000
    6bc2:	0000                	.insn	2, 0x0000
    6bc4:	0000                	.insn	2, 0x0000
    6bc6:	0000                	.insn	2, 0x0000
    6bc8:	0000                	.insn	2, 0x0000
    6bca:	0000                	.insn	2, 0x0000
    6bcc:	0000                	.insn	2, 0x0000
    6bce:	0000                	.insn	2, 0x0000
    6bd0:	0000                	.insn	2, 0x0000
    6bd2:	0000                	.insn	2, 0x0000
    6bd4:	0000                	.insn	2, 0x0000
    6bd6:	0000                	.insn	2, 0x0000
    6bd8:	0000                	.insn	2, 0x0000
    6bda:	0000                	.insn	2, 0x0000
    6bdc:	0000                	.insn	2, 0x0000
    6bde:	0000                	.insn	2, 0x0000
    6be0:	0000                	.insn	2, 0x0000
    6be2:	0000                	.insn	2, 0x0000
    6be4:	0000                	.insn	2, 0x0000
    6be6:	0000                	.insn	2, 0x0000
    6be8:	0000                	.insn	2, 0x0000
    6bea:	0000                	.insn	2, 0x0000
    6bec:	0000                	.insn	2, 0x0000
    6bee:	0000                	.insn	2, 0x0000
    6bf0:	0000                	.insn	2, 0x0000
    6bf2:	0000                	.insn	2, 0x0000
    6bf4:	0000                	.insn	2, 0x0000
    6bf6:	0000                	.insn	2, 0x0000
    6bf8:	0000                	.insn	2, 0x0000
    6bfa:	0000                	.insn	2, 0x0000
    6bfc:	0000                	.insn	2, 0x0000
    6bfe:	0000                	.insn	2, 0x0000

00006c00 <end_regstate>:
    6c00:	0004                	.insn	2, 0x0004
    6c02:	0000                	.insn	2, 0x0000
