
rem-01.riscv:     file format elf32-littleriscv

Sections:
Idx Name          Size      VMA       LMA       File off  Algn
  0 .text.init    00003104  00000200  00000200  00000200  2**5
                  CONTENTS, ALLOC, LOAD, READONLY, CODE
  1 .text         00000008  00003304  00003304  00003304  2**2
                  CONTENTS, ALLOC, LOAD, READONLY, CODE
  2 .data         00000004  00003310  00003310  00003310  2**4
                  CONTENTS, ALLOC, LOAD, DATA
  3 .tohost       00000108  00003400  00003400  00003400  2**8
                  CONTENTS, ALLOC, LOAD, DATA
  4 .io_buf       00000b04  00006000  00006000  00004000  2**8
                  CONTENTS, ALLOC, LOAD, READONLY, DATA
  5 .riscv.attributes 00000031  00000000  00000000  00004b04  2**0
                  CONTENTS, READONLY

Disassembly of section .text.init:

00000200 <rvtest_code_begin>:
     200:	00006d17          	auipc	s10,0x6
     204:	e00d0d13          	addi	s10,s10,-512 # 6000 <begin_signature>

00000208 <inst_0>:
     208:	55555c37          	lui	s8,0x55555
     20c:	556c0c13          	addi	s8,s8,1366 # 55555556 <_end+0x5554ea52>
     210:	00200593          	li	a1,2
     214:	02bc65b3          	rem	a1,s8,a1
     218:	00bd2023          	sw	a1,0(s10)

0000021c <inst_1>:
     21c:	04000113          	li	sp,64
     220:	04000113          	li	sp,64
     224:	02216133          	rem	sp,sp,sp
     228:	002d2223          	sw	sp,4(s10)

0000022c <inst_2>:
     22c:	fbf00193          	li	gp,-65
     230:	fbf00193          	li	gp,-65
     234:	0231e6b3          	rem	a3,gp,gp
     238:	00dd2423          	sw	a3,8(s10)

0000023c <inst_3>:
     23c:	800002b7          	lui	t0,0x80000
     240:	000100b7          	lui	ra,0x10
     244:	0212ecb3          	rem	s9,t0,ra
     248:	019d2623          	sw	s9,12(s10)

0000024c <inst_4>:
     24c:	0000bb37          	lui	s6,0xb
     250:	504b0b13          	addi	s6,s6,1284 # b504 <_end+0x4a00>
     254:	0000b8b7          	lui	a7,0xb
     258:	50488893          	addi	a7,a7,1284 # b504 <_end+0x4a00>
     25c:	031b6b33          	rem	s6,s6,a7
     260:	016d2823          	sw	s6,16(s10)

00000264 <inst_5>:
     264:	55555db7          	lui	s11,0x55555
     268:	554d8d93          	addi	s11,s11,1364 # 55555554 <_end+0x5554ea50>
     26c:	800003b7          	lui	t2,0x80000
     270:	027de233          	rem	tp,s11,t2
     274:	004d2a23          	sw	tp,20(s10)

00000278 <inst_6>:
     278:	00200437          	lui	s0,0x200
     27c:	00000c93          	li	s9,0
     280:	039462b3          	rem	t0,s0,s9
     284:	005d2c23          	sw	t0,24(s10)

00000288 <inst_7>:
     288:	ffff5237          	lui	tp,0xffff5
     28c:	afd20213          	addi	tp,tp,-1283 # ffff4afd <_end+0xfffedff9>
     290:	00000013          	nop
     294:	02026733          	rem	a4,tp,zero
     298:	00ed2e23          	sw	a4,28(s10)

0000029c <inst_8>:
     29c:	00600493          	li	s1,6
     2a0:	00100693          	li	a3,1
     2a4:	02d4ec33          	rem	s8,s1,a3
     2a8:	038d2023          	sw	s8,32(s10)

000002ac <inst_9>:
     2ac:	00000e13          	li	t3,0
     2b0:	00400913          	li	s2,4
     2b4:	032e6f33          	rem	t5,t3,s2
     2b8:	03ed2223          	sw	t5,36(s10)

000002bc <inst_10>:
     2bc:	800006b7          	lui	a3,0x80000
     2c0:	fff68693          	addi	a3,a3,-1 # 7fffffff <_end+0x7fff94fb>
     2c4:	ff600813          	li	a6,-10
     2c8:	0306e9b3          	rem	s3,a3,a6
     2cc:	033d2423          	sw	s3,40(s10)

000002d0 <inst_11>:
     2d0:	00100393          	li	t2,1
     2d4:	0000b4b7          	lui	s1,0xb
     2d8:	50348493          	addi	s1,s1,1283 # b503 <_end+0x49ff>
     2dc:	0293ea33          	rem	s4,t2,s1
     2e0:	034d2623          	sw	s4,44(s10)

000002e4 <inst_12>:
     2e4:	00000013          	nop
     2e8:	00800313          	li	t1,8
     2ec:	026063b3          	rem	t2,zero,t1
     2f0:	027d2823          	sw	t2,48(s10)

000002f4 <inst_13>:
     2f4:	20000913          	li	s2,512
     2f8:	01000c13          	li	s8,16
     2fc:	03896833          	rem	a6,s2,s8
     300:	030d2a23          	sw	a6,52(s10)

00000304 <inst_14>:
     304:	eff00793          	li	a5,-257
     308:	02000a93          	li	s5,32
     30c:	0357ebb3          	rem	s7,a5,s5
     310:	037d2c23          	sw	s7,56(s10)

00000314 <inst_15>:
     314:	f00000b7          	lui	ra,0xf0000
     318:	fff08093          	addi	ra,ra,-1 # efffffff <_end+0xefff94fb>
     31c:	04000713          	li	a4,64
     320:	02e0e8b3          	rem	a7,ra,a4
     324:	031d2e23          	sw	a7,60(s10)

00000328 <inst_16>:
     328:	ffd00993          	li	s3,-3
     32c:	08000793          	li	a5,128
     330:	02f9e0b3          	rem	ra,s3,a5
     334:	041d2023          	sw	ra,64(s10)

00000338 <inst_17>:
     338:	ff0005b7          	lui	a1,0xff000
     33c:	fff58593          	addi	a1,a1,-1 # feffffff <_end+0xfeff94fb>
     340:	10000613          	li	a2,256
     344:	02c5e7b3          	rem	a5,a1,a2
     348:	04fd2223          	sw	a5,68(s10)

0000034c <inst_18>:
     34c:	ff800337          	lui	t1,0xff800
     350:	fff30313          	addi	t1,t1,-1 # ff7fffff <_end+0xff7f94fb>
     354:	20000a13          	li	s4,512
     358:	034361b3          	rem	gp,t1,s4
     35c:	043d2423          	sw	gp,72(s10)

00000360 <inst_19>:
     360:	ffffccb7          	lui	s9,0xffffc
     364:	fffc8c93          	addi	s9,s9,-1 # ffffbfff <_end+0xffff54fb>
     368:	40000f13          	li	t5,1024
     36c:	03ece533          	rem	a0,s9,t5
     370:	04ad2623          	sw	a0,76(s10)
     374:	00006097          	auipc	ra,0x6
     378:	cdc08093          	addi	ra,ra,-804 # 6050 <signature_x1_0>

0000037c <inst_20>:
     37c:	ffffc837          	lui	a6,0xffffc
     380:	fff80813          	addi	a6,a6,-1 # ffffbfff <_end+0xffff54fb>
     384:	00001d37          	lui	s10,0x1
     388:	800d0d13          	addi	s10,s10,-2048 # 800 <inst_80+0xc>
     38c:	03a86033          	rem	zero,a6,s10
     390:	0000a023          	sw	zero,0(ra)

00000394 <inst_21>:
     394:	fffe0737          	lui	a4,0xfffe0
     398:	fff70713          	addi	a4,a4,-1 # fffdffff <_end+0xfffd94fb>
     39c:	00001fb7          	lui	t6,0x1
     3a0:	03f764b3          	rem	s1,a4,t6
     3a4:	0090a223          	sw	s1,4(ra)

000003a8 <inst_22>:
     3a8:	fef00b93          	li	s7,-17
     3ac:	00002237          	lui	tp,0x2
     3b0:	024be333          	rem	t1,s7,tp
     3b4:	0060a423          	sw	t1,8(ra)

000003b8 <inst_23>:
     3b8:	01000513          	li	a0,16
     3bc:	000042b7          	lui	t0,0x4
     3c0:	02556933          	rem	s2,a0,t0
     3c4:	0120a623          	sw	s2,12(ra)

000003c8 <inst_24>:
     3c8:	04000893          	li	a7,64
     3cc:	000089b7          	lui	s3,0x8
     3d0:	0338edb3          	rem	s11,a7,s3
     3d4:	01b0a823          	sw	s11,16(ra)

000003d8 <inst_25>:
     3d8:	fff80637          	lui	a2,0xfff80
     3dc:	fff60613          	addi	a2,a2,-1 # fff7ffff <_end+0xfff794fb>
     3e0:	00020437          	lui	s0,0x20
     3e4:	02866e33          	rem	t3,a2,s0
     3e8:	01c0aa23          	sw	t3,20(ra)

000003ec <inst_26>:
     3ec:	00002ab7          	lui	s5,0x2
     3f0:	00040e37          	lui	t3,0x40
     3f4:	03caed33          	rem	s10,s5,t3
     3f8:	01a0ac23          	sw	s10,24(ra)

000003fc <inst_27>:
     3fc:	00400f93          	li	t6,4
     400:	00080bb7          	lui	s7,0x80
     404:	037feeb3          	rem	t4,t6,s7
     408:	01d0ae23          	sw	t4,28(ra)

0000040c <inst_28>:
     40c:	00020eb7          	lui	t4,0x20
     410:	00100b37          	lui	s6,0x100
     414:	036ee433          	rem	s0,t4,s6
     418:	0280a023          	sw	s0,32(ra)

0000041c <inst_29>:
     41c:	04000a13          	li	s4,64
     420:	00200db7          	lui	s11,0x200
     424:	03ba6fb3          	rem	t6,s4,s11
     428:	03f0a223          	sw	t6,36(ra)

0000042c <inst_30>:
     42c:	00100f37          	lui	t5,0x100
     430:	00400eb7          	lui	t4,0x400
     434:	03df6ab3          	rem	s5,t5,t4
     438:	0350a423          	sw	s5,40(ra)

0000043c <inst_31>:
     43c:	10000d37          	lui	s10,0x10000
     440:	00800537          	lui	a0,0x800
     444:	02ad6633          	rem	a2,s10,a0
     448:	02c0a623          	sw	a2,44(ra)

0000044c <inst_32>:
     44c:	33333537          	lui	a0,0x33333
     450:	33350513          	addi	a0,a0,819 # 33333333 <_end+0x3332c82f>
     454:	010005b7          	lui	a1,0x1000
     458:	02b56633          	rem	a2,a0,a1
     45c:	02c0a823          	sw	a2,48(ra)

00000460 <inst_33>:
     460:	ffffc537          	lui	a0,0xffffc
     464:	fff50513          	addi	a0,a0,-1 # ffffbfff <_end+0xffff54fb>
     468:	020005b7          	lui	a1,0x2000
     46c:	02b56633          	rem	a2,a0,a1
     470:	02c0aa23          	sw	a2,52(ra)

00000474 <inst_34>:
     474:	00000513          	li	a0,0
     478:	040005b7          	lui	a1,0x4000
     47c:	02b56633          	rem	a2,a0,a1
     480:	02c0ac23          	sw	a2,56(ra)

00000484 <inst_35>:
     484:	dff00513          	li	a0,-513
     488:	080005b7          	lui	a1,0x8000
     48c:	02b56633          	rem	a2,a0,a1
     490:	02c0ae23          	sw	a2,60(ra)

00000494 <inst_36>:
     494:	0000b537          	lui	a0,0xb
     498:	50550513          	addi	a0,a0,1285 # b505 <_end+0x4a01>
     49c:	100005b7          	lui	a1,0x10000
     4a0:	02b56633          	rem	a2,a0,a1
     4a4:	04c0a023          	sw	a2,64(ra)

000004a8 <inst_37>:
     4a8:	00800513          	li	a0,8
     4ac:	200005b7          	lui	a1,0x20000
     4b0:	02b56633          	rem	a2,a0,a1
     4b4:	04c0a223          	sw	a2,68(ra)

000004b8 <inst_38>:
     4b8:	fc000537          	lui	a0,0xfc000
     4bc:	fff50513          	addi	a0,a0,-1 # fbffffff <_end+0xfbff94fb>
     4c0:	400005b7          	lui	a1,0x40000
     4c4:	02b56633          	rem	a2,a0,a1
     4c8:	04c0a423          	sw	a2,72(ra)

000004cc <inst_39>:
     4cc:	55555537          	lui	a0,0x55555
     4d0:	55550513          	addi	a0,a0,1365 # 55555555 <_end+0x5554ea51>
     4d4:	ffe00593          	li	a1,-2
     4d8:	02b56633          	rem	a2,a0,a1
     4dc:	04c0a623          	sw	a2,76(ra)

000004e0 <inst_40>:
     4e0:	aaaab537          	lui	a0,0xaaaab
     4e4:	aaa50513          	addi	a0,a0,-1366 # aaaaaaaa <_end+0xaaaa3fa6>
     4e8:	ffd00593          	li	a1,-3
     4ec:	02b56633          	rem	a2,a0,a1
     4f0:	04c0a823          	sw	a2,80(ra)

000004f4 <inst_41>:
     4f4:	fef00513          	li	a0,-17
     4f8:	ffb00593          	li	a1,-5
     4fc:	02b56633          	rem	a2,a0,a1
     500:	04c0aa23          	sw	a2,84(ra)

00000504 <inst_42>:
     504:	f8000537          	lui	a0,0xf8000
     508:	fff50513          	addi	a0,a0,-1 # f7ffffff <_end+0xf7ff94fb>
     50c:	ff700593          	li	a1,-9
     510:	02b56633          	rem	a2,a0,a1
     514:	04c0ac23          	sw	a2,88(ra)

00000518 <inst_43>:
     518:	fff80537          	lui	a0,0xfff80
     51c:	fff50513          	addi	a0,a0,-1 # fff7ffff <_end+0xfff794fb>
     520:	fef00593          	li	a1,-17
     524:	02b56633          	rem	a2,a0,a1
     528:	04c0ae23          	sw	a2,92(ra)

0000052c <inst_44>:
     52c:	00300513          	li	a0,3
     530:	fdf00593          	li	a1,-33
     534:	02b56633          	rem	a2,a0,a1
     538:	06c0a023          	sw	a2,96(ra)

0000053c <inst_45>:
     53c:	f8000537          	lui	a0,0xf8000
     540:	fff50513          	addi	a0,a0,-1 # f7ffffff <_end+0xf7ff94fb>
     544:	fbf00593          	li	a1,-65
     548:	02b56633          	rem	a2,a0,a1
     54c:	06c0a223          	sw	a2,100(ra)

00000550 <inst_46>:
     550:	00200513          	li	a0,2
     554:	f7f00593          	li	a1,-129
     558:	02b56633          	rem	a2,a0,a1
     55c:	06c0a423          	sw	a2,104(ra)

00000560 <inst_47>:
     560:	00900513          	li	a0,9
     564:	eff00593          	li	a1,-257
     568:	02b56633          	rem	a2,a0,a1
     56c:	06c0a623          	sw	a2,108(ra)

00000570 <inst_48>:
     570:	ff800537          	lui	a0,0xff800
     574:	fff50513          	addi	a0,a0,-1 # ff7fffff <_end+0xff7f94fb>
     578:	dff00593          	li	a1,-513
     57c:	02b56633          	rem	a2,a0,a1
     580:	06c0a823          	sw	a2,112(ra)

00000584 <inst_49>:
     584:	aaaab537          	lui	a0,0xaaaab
     588:	aaa50513          	addi	a0,a0,-1366 # aaaaaaaa <_end+0xaaaa3fa6>
     58c:	bff00593          	li	a1,-1025
     590:	02b56633          	rem	a2,a0,a1
     594:	06c0aa23          	sw	a2,116(ra)

00000598 <inst_50>:
     598:	fff00537          	lui	a0,0xfff00
     59c:	fff50513          	addi	a0,a0,-1 # ffefffff <_end+0xffef94fb>
     5a0:	fffff5b7          	lui	a1,0xfffff
     5a4:	7ff58593          	addi	a1,a1,2047 # fffff7ff <_end+0xffff8cfb>
     5a8:	02b56633          	rem	a2,a0,a1
     5ac:	06c0ac23          	sw	a2,120(ra)

000005b0 <inst_51>:
     5b0:	00040537          	lui	a0,0x40
     5b4:	fffff5b7          	lui	a1,0xfffff
     5b8:	fff58593          	addi	a1,a1,-1 # ffffefff <_end+0xffff84fb>
     5bc:	02b56633          	rem	a2,a0,a1
     5c0:	06c0ae23          	sw	a2,124(ra)

000005c4 <inst_52>:
     5c4:	33333537          	lui	a0,0x33333
     5c8:	33450513          	addi	a0,a0,820 # 33333334 <_end+0x3332c830>
     5cc:	ffffe5b7          	lui	a1,0xffffe
     5d0:	fff58593          	addi	a1,a1,-1 # ffffdfff <_end+0xffff74fb>
     5d4:	02b56633          	rem	a2,a0,a1
     5d8:	08c0a023          	sw	a2,128(ra)

000005dc <inst_53>:
     5dc:	00008537          	lui	a0,0x8
     5e0:	ffffc5b7          	lui	a1,0xffffc
     5e4:	fff58593          	addi	a1,a1,-1 # ffffbfff <_end+0xffff54fb>
     5e8:	02b56633          	rem	a2,a0,a1
     5ec:	08c0a223          	sw	a2,132(ra)

000005f0 <inst_54>:
     5f0:	00100537          	lui	a0,0x100
     5f4:	ffff85b7          	lui	a1,0xffff8
     5f8:	fff58593          	addi	a1,a1,-1 # ffff7fff <_end+0xffff14fb>
     5fc:	02b56633          	rem	a2,a0,a1
     600:	08c0a423          	sw	a2,136(ra)

00000604 <inst_55>:
     604:	00100537          	lui	a0,0x100
     608:	ffff05b7          	lui	a1,0xffff0
     60c:	fff58593          	addi	a1,a1,-1 # fffeffff <_end+0xfffe94fb>
     610:	02b56633          	rem	a2,a0,a1
     614:	08c0a623          	sw	a2,140(ra)

00000618 <inst_56>:
     618:	00200537          	lui	a0,0x200
     61c:	fffe05b7          	lui	a1,0xfffe0
     620:	fff58593          	addi	a1,a1,-1 # fffdffff <_end+0xfffd94fb>
     624:	02b56633          	rem	a2,a0,a1
     628:	08c0a823          	sw	a2,144(ra)

0000062c <inst_57>:
     62c:	80000537          	lui	a0,0x80000
     630:	fffc05b7          	lui	a1,0xfffc0
     634:	fff58593          	addi	a1,a1,-1 # fffbffff <_end+0xfffb94fb>
     638:	02b56633          	rem	a2,a0,a1
     63c:	08c0aa23          	sw	a2,148(ra)

00000640 <inst_58>:
     640:	00200537          	lui	a0,0x200
     644:	fff805b7          	lui	a1,0xfff80
     648:	fff58593          	addi	a1,a1,-1 # fff7ffff <_end+0xfff794fb>
     64c:	02b56633          	rem	a2,a0,a1
     650:	08c0ac23          	sw	a2,152(ra)

00000654 <inst_59>:
     654:	10000513          	li	a0,256
     658:	fff005b7          	lui	a1,0xfff00
     65c:	fff58593          	addi	a1,a1,-1 # ffefffff <_end+0xffef94fb>
     660:	02b56633          	rem	a2,a0,a1
     664:	08c0ae23          	sw	a2,156(ra)

00000668 <inst_60>:
     668:	fef00513          	li	a0,-17
     66c:	ffe005b7          	lui	a1,0xffe00
     670:	fff58593          	addi	a1,a1,-1 # ffdfffff <_end+0xffdf94fb>
     674:	02b56633          	rem	a2,a0,a1
     678:	0ac0a023          	sw	a2,160(ra)

0000067c <inst_61>:
     67c:	00001537          	lui	a0,0x1
     680:	ff8005b7          	lui	a1,0xff800
     684:	fff58593          	addi	a1,a1,-1 # ff7fffff <_end+0xff7f94fb>
     688:	02b56633          	rem	a2,a0,a1
     68c:	0ac0a223          	sw	a2,164(ra)

00000690 <inst_62>:
     690:	ffff8537          	lui	a0,0xffff8
     694:	fff50513          	addi	a0,a0,-1 # ffff7fff <_end+0xffff14fb>
     698:	ff0005b7          	lui	a1,0xff000
     69c:	fff58593          	addi	a1,a1,-1 # feffffff <_end+0xfeff94fb>
     6a0:	02b56633          	rem	a2,a0,a1
     6a4:	0ac0a423          	sw	a2,168(ra)

000006a8 <inst_63>:
     6a8:	00000513          	li	a0,0
     6ac:	fe0005b7          	lui	a1,0xfe000
     6b0:	fff58593          	addi	a1,a1,-1 # fdffffff <_end+0xfdff94fb>
     6b4:	02b56633          	rem	a2,a0,a1
     6b8:	0ac0a623          	sw	a2,172(ra)

000006bc <inst_64>:
     6bc:	10000537          	lui	a0,0x10000
     6c0:	fc0005b7          	lui	a1,0xfc000
     6c4:	fff58593          	addi	a1,a1,-1 # fbffffff <_end+0xfbff94fb>
     6c8:	02b56633          	rem	a2,a0,a1
     6cc:	0ac0a823          	sw	a2,176(ra)

000006d0 <inst_65>:
     6d0:	00500513          	li	a0,5
     6d4:	f80005b7          	lui	a1,0xf8000
     6d8:	fff58593          	addi	a1,a1,-1 # f7ffffff <_end+0xf7ff94fb>
     6dc:	02b56633          	rem	a2,a0,a1
     6e0:	0ac0aa23          	sw	a2,180(ra)

000006e4 <inst_66>:
     6e4:	ffff5537          	lui	a0,0xffff5
     6e8:	afd50513          	addi	a0,a0,-1283 # ffff4afd <_end+0xfffedff9>
     6ec:	f00005b7          	lui	a1,0xf0000
     6f0:	fff58593          	addi	a1,a1,-1 # efffffff <_end+0xefff94fb>
     6f4:	02b56633          	rem	a2,a0,a1
     6f8:	0ac0ac23          	sw	a2,184(ra)

000006fc <inst_67>:
     6fc:	00000513          	li	a0,0
     700:	e00005b7          	lui	a1,0xe0000
     704:	fff58593          	addi	a1,a1,-1 # dfffffff <_end+0xdfff94fb>
     708:	02b56633          	rem	a2,a0,a1
     70c:	0ac0ae23          	sw	a2,188(ra)

00000710 <inst_68>:
     710:	00000513          	li	a0,0
     714:	c00005b7          	lui	a1,0xc0000
     718:	fff58593          	addi	a1,a1,-1 # bfffffff <_end+0xbfff94fb>
     71c:	02b56633          	rem	a2,a0,a1
     720:	0cc0a023          	sw	a2,192(ra)

00000724 <inst_69>:
     724:	ff000537          	lui	a0,0xff000
     728:	fff50513          	addi	a0,a0,-1 # feffffff <_end+0xfeff94fb>
     72c:	555555b7          	lui	a1,0x55555
     730:	55558593          	addi	a1,a1,1365 # 55555555 <_end+0x5554ea51>
     734:	02b56633          	rem	a2,a0,a1
     738:	0cc0a223          	sw	a2,196(ra)

0000073c <inst_70>:
     73c:	40000537          	lui	a0,0x40000
     740:	aaaab5b7          	lui	a1,0xaaaab
     744:	aaa58593          	addi	a1,a1,-1366 # aaaaaaaa <_end+0xaaaa3fa6>
     748:	02b56633          	rem	a2,a0,a1
     74c:	0cc0a423          	sw	a2,200(ra)

00000750 <inst_71>:
     750:	02000513          	li	a0,32
     754:	400005b7          	lui	a1,0x40000
     758:	02b56633          	rem	a2,a0,a1
     75c:	0cc0a623          	sw	a2,204(ra)

00000760 <inst_72>:
     760:	08000513          	li	a0,128
     764:	555555b7          	lui	a1,0x55555
     768:	55658593          	addi	a1,a1,1366 # 55555556 <_end+0x5554ea52>
     76c:	02b56633          	rem	a2,a0,a1
     770:	0cc0a823          	sw	a2,208(ra)

00000774 <inst_73>:
     774:	40000513          	li	a0,1024
     778:	00100593          	li	a1,1
     77c:	02b56633          	rem	a2,a0,a1
     780:	0cc0aa23          	sw	a2,212(ra)

00000784 <inst_74>:
     784:	00001537          	lui	a0,0x1
     788:	80050513          	addi	a0,a0,-2048 # 800 <inst_80+0xc>
     78c:	bff00593          	li	a1,-1025
     790:	02b56633          	rem	a2,a0,a1
     794:	0cc0ac23          	sw	a2,216(ra)

00000798 <inst_75>:
     798:	00004537          	lui	a0,0x4
     79c:	f7f00593          	li	a1,-129
     7a0:	02b56633          	rem	a2,a0,a1
     7a4:	0cc0ae23          	sw	a2,220(ra)

000007a8 <inst_76>:
     7a8:	00010537          	lui	a0,0x10
     7ac:	400005b7          	lui	a1,0x40000
     7b0:	fff58593          	addi	a1,a1,-1 # 3fffffff <_end+0x3fff94fb>
     7b4:	02b56633          	rem	a2,a0,a1
     7b8:	0ec0a023          	sw	a2,224(ra)

000007bc <inst_77>:
     7bc:	00080537          	lui	a0,0x80
     7c0:	fffe05b7          	lui	a1,0xfffe0
     7c4:	fff58593          	addi	a1,a1,-1 # fffdffff <_end+0xfffd94fb>
     7c8:	02b56633          	rem	a2,a0,a1
     7cc:	0ec0a223          	sw	a2,228(ra)

000007d0 <inst_78>:
     7d0:	00400537          	lui	a0,0x400
     7d4:	00200593          	li	a1,2
     7d8:	02b56633          	rem	a2,a0,a1
     7dc:	0ec0a423          	sw	a2,232(ra)

000007e0 <inst_79>:
     7e0:	00800537          	lui	a0,0x800
     7e4:	0000b5b7          	lui	a1,0xb
     7e8:	50558593          	addi	a1,a1,1285 # b505 <_end+0x4a01>
     7ec:	02b56633          	rem	a2,a0,a1
     7f0:	0ec0a623          	sw	a2,236(ra)

000007f4 <inst_80>:
     7f4:	01000537          	lui	a0,0x1000
     7f8:	04000593          	li	a1,64
     7fc:	02b56633          	rem	a2,a0,a1
     800:	0ec0a823          	sw	a2,240(ra)

00000804 <inst_81>:
     804:	02000537          	lui	a0,0x2000
     808:	20000593          	li	a1,512
     80c:	02b56633          	rem	a2,a0,a1
     810:	0ec0aa23          	sw	a2,244(ra)

00000814 <inst_82>:
     814:	04000537          	lui	a0,0x4000
     818:	000205b7          	lui	a1,0x20
     81c:	02b56633          	rem	a2,a0,a1
     820:	0ec0ac23          	sw	a2,248(ra)

00000824 <inst_83>:
     824:	08000537          	lui	a0,0x8000
     828:	f7f00593          	li	a1,-129
     82c:	02b56633          	rem	a2,a0,a1
     830:	0ec0ae23          	sw	a2,252(ra)

00000834 <inst_84>:
     834:	20000537          	lui	a0,0x20000
     838:	00000593          	li	a1,0
     83c:	02b56633          	rem	a2,a0,a1
     840:	10c0a023          	sw	a2,256(ra)

00000844 <inst_85>:
     844:	ffe00513          	li	a0,-2
     848:	dff00593          	li	a1,-513
     84c:	02b56633          	rem	a2,a0,a1
     850:	10c0a223          	sw	a2,260(ra)

00000854 <inst_86>:
     854:	ffb00513          	li	a0,-5
     858:	ffd00593          	li	a1,-3
     85c:	02b56633          	rem	a2,a0,a1
     860:	10c0a423          	sw	a2,264(ra)

00000864 <inst_87>:
     864:	ff700513          	li	a0,-9
     868:	666665b7          	lui	a1,0x66666
     86c:	66658593          	addi	a1,a1,1638 # 66666666 <_end+0x6665fb62>
     870:	02b56633          	rem	a2,a0,a1
     874:	10c0a623          	sw	a2,268(ra)

00000878 <inst_88>:
     878:	fdf00513          	li	a0,-33
     87c:	00500593          	li	a1,5
     880:	02b56633          	rem	a2,a0,a1
     884:	10c0a823          	sw	a2,272(ra)

00000888 <inst_89>:
     888:	f7f00513          	li	a0,-129
     88c:	ffe005b7          	lui	a1,0xffe00
     890:	fff58593          	addi	a1,a1,-1 # ffdfffff <_end+0xffdf94fb>
     894:	02b56633          	rem	a2,a0,a1
     898:	10c0aa23          	sw	a2,276(ra)

0000089c <inst_90>:
     89c:	bff00513          	li	a0,-1025
     8a0:	00200593          	li	a1,2
     8a4:	02b56633          	rem	a2,a0,a1
     8a8:	10c0ac23          	sw	a2,280(ra)

000008ac <inst_91>:
     8ac:	fffff537          	lui	a0,0xfffff
     8b0:	7ff50513          	addi	a0,a0,2047 # fffff7ff <_end+0xffff8cfb>
     8b4:	02000593          	li	a1,32
     8b8:	02b56633          	rem	a2,a0,a1
     8bc:	10c0ae23          	sw	a2,284(ra)

000008c0 <inst_92>:
     8c0:	fffff537          	lui	a0,0xfffff
     8c4:	fff50513          	addi	a0,a0,-1 # ffffefff <_end+0xffff84fb>
     8c8:	08000593          	li	a1,128
     8cc:	02b56633          	rem	a2,a0,a1
     8d0:	12c0a023          	sw	a2,288(ra)

000008d4 <inst_93>:
     8d4:	ffffe537          	lui	a0,0xffffe
     8d8:	fff50513          	addi	a0,a0,-1 # ffffdfff <_end+0xffff74fb>
     8dc:	00300593          	li	a1,3
     8e0:	02b56633          	rem	a2,a0,a1
     8e4:	12c0a223          	sw	a2,292(ra)

000008e8 <inst_94>:
     8e8:	ffff0537          	lui	a0,0xffff0
     8ec:	fff50513          	addi	a0,a0,-1 # fffeffff <_end+0xfffe94fb>
     8f0:	04000593          	li	a1,64
     8f4:	02b56633          	rem	a2,a0,a1
     8f8:	12c0a423          	sw	a2,296(ra)

000008fc <inst_95>:
     8fc:	fffc0537          	lui	a0,0xfffc0
     900:	fff50513          	addi	a0,a0,-1 # fffbffff <_end+0xfffb94fb>
     904:	e00005b7          	lui	a1,0xe0000
     908:	fff58593          	addi	a1,a1,-1 # dfffffff <_end+0xdfff94fb>
     90c:	02b56633          	rem	a2,a0,a1
     910:	12c0a623          	sw	a2,300(ra)

00000914 <inst_96>:
     914:	ffe00537          	lui	a0,0xffe00
     918:	fff50513          	addi	a0,a0,-1 # ffdfffff <_end+0xffdf94fb>
     91c:	555555b7          	lui	a1,0x55555
     920:	55558593          	addi	a1,a1,1365 # 55555555 <_end+0x5554ea51>
     924:	02b56633          	rem	a2,a0,a1
     928:	12c0a823          	sw	a2,304(ra)

0000092c <inst_97>:
     92c:	ffc00537          	lui	a0,0xffc00
     930:	fff50513          	addi	a0,a0,-1 # ffbfffff <_end+0xffbf94fb>
     934:	fef00593          	li	a1,-17
     938:	02b56633          	rem	a2,a0,a1
     93c:	12c0aa23          	sw	a2,308(ra)

00000940 <inst_98>:
     940:	fe000537          	lui	a0,0xfe000
     944:	fff50513          	addi	a0,a0,-1 # fdffffff <_end+0xfdff94fb>
     948:	020005b7          	lui	a1,0x2000
     94c:	02b56633          	rem	a2,a0,a1
     950:	12c0ac23          	sw	a2,312(ra)

00000954 <inst_99>:
     954:	e0000537          	lui	a0,0xe0000
     958:	fff50513          	addi	a0,a0,-1 # dfffffff <_end+0xdfff94fb>
     95c:	020005b7          	lui	a1,0x2000
     960:	02b56633          	rem	a2,a0,a1
     964:	12c0ae23          	sw	a2,316(ra)

00000968 <inst_100>:
     968:	c0000537          	lui	a0,0xc0000
     96c:	fff50513          	addi	a0,a0,-1 # bfffffff <_end+0xbfff94fb>
     970:	200005b7          	lui	a1,0x20000
     974:	02b56633          	rem	a2,a0,a1
     978:	14c0a023          	sw	a2,320(ra)

0000097c <inst_101>:
     97c:	00300513          	li	a0,3
     980:	00300593          	li	a1,3
     984:	02b56633          	rem	a2,a0,a1
     988:	14c0a223          	sw	a2,324(ra)

0000098c <inst_102>:
     98c:	00300513          	li	a0,3
     990:	555555b7          	lui	a1,0x55555
     994:	55558593          	addi	a1,a1,1365 # 55555555 <_end+0x5554ea51>
     998:	02b56633          	rem	a2,a0,a1
     99c:	14c0a423          	sw	a2,328(ra)

000009a0 <inst_103>:
     9a0:	00300513          	li	a0,3
     9a4:	aaaab5b7          	lui	a1,0xaaaab
     9a8:	aaa58593          	addi	a1,a1,-1366 # aaaaaaaa <_end+0xaaaa3fa6>
     9ac:	02b56633          	rem	a2,a0,a1
     9b0:	14c0a623          	sw	a2,332(ra)

000009b4 <inst_104>:
     9b4:	00300513          	li	a0,3
     9b8:	00500593          	li	a1,5
     9bc:	02b56633          	rem	a2,a0,a1
     9c0:	14c0a823          	sw	a2,336(ra)

000009c4 <inst_105>:
     9c4:	00300513          	li	a0,3
     9c8:	333335b7          	lui	a1,0x33333
     9cc:	33358593          	addi	a1,a1,819 # 33333333 <_end+0x3332c82f>
     9d0:	02b56633          	rem	a2,a0,a1
     9d4:	14c0aa23          	sw	a2,340(ra)

000009d8 <inst_106>:
     9d8:	00300513          	li	a0,3
     9dc:	666665b7          	lui	a1,0x66666
     9e0:	66658593          	addi	a1,a1,1638 # 66666666 <_end+0x6665fb62>
     9e4:	02b56633          	rem	a2,a0,a1
     9e8:	14c0ac23          	sw	a2,344(ra)

000009ec <inst_107>:
     9ec:	00300513          	li	a0,3
     9f0:	ffff55b7          	lui	a1,0xffff5
     9f4:	afc58593          	addi	a1,a1,-1284 # ffff4afc <_end+0xfffedff8>
     9f8:	02b56633          	rem	a2,a0,a1
     9fc:	14c0ae23          	sw	a2,348(ra)

00000a00 <inst_108>:
     a00:	00300513          	li	a0,3
     a04:	0000b5b7          	lui	a1,0xb
     a08:	50458593          	addi	a1,a1,1284 # b504 <_end+0x4a00>
     a0c:	02b56633          	rem	a2,a0,a1
     a10:	16c0a023          	sw	a2,352(ra)

00000a14 <inst_109>:
     a14:	00300513          	li	a0,3
     a18:	00200593          	li	a1,2
     a1c:	02b56633          	rem	a2,a0,a1
     a20:	16c0a223          	sw	a2,356(ra)

00000a24 <inst_110>:
     a24:	00300513          	li	a0,3
     a28:	555555b7          	lui	a1,0x55555
     a2c:	55458593          	addi	a1,a1,1364 # 55555554 <_end+0x5554ea50>
     a30:	02b56633          	rem	a2,a0,a1
     a34:	16c0a423          	sw	a2,360(ra)

00000a38 <inst_111>:
     a38:	00300513          	li	a0,3
     a3c:	00000593          	li	a1,0
     a40:	02b56633          	rem	a2,a0,a1
     a44:	16c0a623          	sw	a2,364(ra)

00000a48 <inst_112>:
     a48:	00300513          	li	a0,3
     a4c:	00400593          	li	a1,4
     a50:	02b56633          	rem	a2,a0,a1
     a54:	16c0a823          	sw	a2,368(ra)

00000a58 <inst_113>:
     a58:	00300513          	li	a0,3
     a5c:	333335b7          	lui	a1,0x33333
     a60:	33258593          	addi	a1,a1,818 # 33333332 <_end+0x3332c82e>
     a64:	02b56633          	rem	a2,a0,a1
     a68:	16c0aa23          	sw	a2,372(ra)

00000a6c <inst_114>:
     a6c:	00300513          	li	a0,3
     a70:	666665b7          	lui	a1,0x66666
     a74:	66558593          	addi	a1,a1,1637 # 66666665 <_end+0x6665fb61>
     a78:	02b56633          	rem	a2,a0,a1
     a7c:	16c0ac23          	sw	a2,376(ra)

00000a80 <inst_115>:
     a80:	00300513          	li	a0,3
     a84:	0000b5b7          	lui	a1,0xb
     a88:	50358593          	addi	a1,a1,1283 # b503 <_end+0x49ff>
     a8c:	02b56633          	rem	a2,a0,a1
     a90:	16c0ae23          	sw	a2,380(ra)

00000a94 <inst_116>:
     a94:	00300513          	li	a0,3
     a98:	555555b7          	lui	a1,0x55555
     a9c:	55658593          	addi	a1,a1,1366 # 55555556 <_end+0x5554ea52>
     aa0:	02b56633          	rem	a2,a0,a1
     aa4:	18c0a023          	sw	a2,384(ra)

00000aa8 <inst_117>:
     aa8:	00300513          	li	a0,3
     aac:	aaaab5b7          	lui	a1,0xaaaab
     ab0:	aab58593          	addi	a1,a1,-1365 # aaaaaaab <_end+0xaaaa3fa7>
     ab4:	02b56633          	rem	a2,a0,a1
     ab8:	18c0a223          	sw	a2,388(ra)

00000abc <inst_118>:
     abc:	00300513          	li	a0,3
     ac0:	00600593          	li	a1,6
     ac4:	02b56633          	rem	a2,a0,a1
     ac8:	18c0a423          	sw	a2,392(ra)

00000acc <inst_119>:
     acc:	00300513          	li	a0,3
     ad0:	333335b7          	lui	a1,0x33333
     ad4:	33458593          	addi	a1,a1,820 # 33333334 <_end+0x3332c830>
     ad8:	02b56633          	rem	a2,a0,a1
     adc:	18c0a623          	sw	a2,396(ra)

00000ae0 <inst_120>:
     ae0:	00300513          	li	a0,3
     ae4:	666665b7          	lui	a1,0x66666
     ae8:	66758593          	addi	a1,a1,1639 # 66666667 <_end+0x6665fb63>
     aec:	02b56633          	rem	a2,a0,a1
     af0:	18c0a823          	sw	a2,400(ra)

00000af4 <inst_121>:
     af4:	00300513          	li	a0,3
     af8:	ffff55b7          	lui	a1,0xffff5
     afc:	afd58593          	addi	a1,a1,-1283 # ffff4afd <_end+0xfffedff9>
     b00:	02b56633          	rem	a2,a0,a1
     b04:	18c0aa23          	sw	a2,404(ra)

00000b08 <inst_122>:
     b08:	00300513          	li	a0,3
     b0c:	0000b5b7          	lui	a1,0xb
     b10:	50558593          	addi	a1,a1,1285 # b505 <_end+0x4a01>
     b14:	02b56633          	rem	a2,a0,a1
     b18:	18c0ac23          	sw	a2,408(ra)

00000b1c <inst_123>:
     b1c:	55555537          	lui	a0,0x55555
     b20:	55550513          	addi	a0,a0,1365 # 55555555 <_end+0x5554ea51>
     b24:	00300593          	li	a1,3
     b28:	02b56633          	rem	a2,a0,a1
     b2c:	18c0ae23          	sw	a2,412(ra)

00000b30 <inst_124>:
     b30:	55555537          	lui	a0,0x55555
     b34:	55550513          	addi	a0,a0,1365 # 55555555 <_end+0x5554ea51>
     b38:	555555b7          	lui	a1,0x55555
     b3c:	55558593          	addi	a1,a1,1365 # 55555555 <_end+0x5554ea51>
     b40:	02b56633          	rem	a2,a0,a1
     b44:	1ac0a023          	sw	a2,416(ra)

00000b48 <inst_125>:
     b48:	55555537          	lui	a0,0x55555
     b4c:	55550513          	addi	a0,a0,1365 # 55555555 <_end+0x5554ea51>
     b50:	aaaab5b7          	lui	a1,0xaaaab
     b54:	aaa58593          	addi	a1,a1,-1366 # aaaaaaaa <_end+0xaaaa3fa6>
     b58:	02b56633          	rem	a2,a0,a1
     b5c:	1ac0a223          	sw	a2,420(ra)

00000b60 <inst_126>:
     b60:	55555537          	lui	a0,0x55555
     b64:	55550513          	addi	a0,a0,1365 # 55555555 <_end+0x5554ea51>
     b68:	00500593          	li	a1,5
     b6c:	02b56633          	rem	a2,a0,a1
     b70:	1ac0a423          	sw	a2,424(ra)

00000b74 <inst_127>:
     b74:	55555537          	lui	a0,0x55555
     b78:	55550513          	addi	a0,a0,1365 # 55555555 <_end+0x5554ea51>
     b7c:	333335b7          	lui	a1,0x33333
     b80:	33358593          	addi	a1,a1,819 # 33333333 <_end+0x3332c82f>
     b84:	02b56633          	rem	a2,a0,a1
     b88:	1ac0a623          	sw	a2,428(ra)

00000b8c <inst_128>:
     b8c:	55555537          	lui	a0,0x55555
     b90:	55550513          	addi	a0,a0,1365 # 55555555 <_end+0x5554ea51>
     b94:	666665b7          	lui	a1,0x66666
     b98:	66658593          	addi	a1,a1,1638 # 66666666 <_end+0x6665fb62>
     b9c:	02b56633          	rem	a2,a0,a1
     ba0:	1ac0a823          	sw	a2,432(ra)

00000ba4 <inst_129>:
     ba4:	55555537          	lui	a0,0x55555
     ba8:	55550513          	addi	a0,a0,1365 # 55555555 <_end+0x5554ea51>
     bac:	ffff55b7          	lui	a1,0xffff5
     bb0:	afc58593          	addi	a1,a1,-1284 # ffff4afc <_end+0xfffedff8>
     bb4:	02b56633          	rem	a2,a0,a1
     bb8:	1ac0aa23          	sw	a2,436(ra)

00000bbc <inst_130>:
     bbc:	55555537          	lui	a0,0x55555
     bc0:	55550513          	addi	a0,a0,1365 # 55555555 <_end+0x5554ea51>
     bc4:	0000b5b7          	lui	a1,0xb
     bc8:	50458593          	addi	a1,a1,1284 # b504 <_end+0x4a00>
     bcc:	02b56633          	rem	a2,a0,a1
     bd0:	1ac0ac23          	sw	a2,440(ra)

00000bd4 <inst_131>:
     bd4:	55555537          	lui	a0,0x55555
     bd8:	55550513          	addi	a0,a0,1365 # 55555555 <_end+0x5554ea51>
     bdc:	00200593          	li	a1,2
     be0:	02b56633          	rem	a2,a0,a1
     be4:	1ac0ae23          	sw	a2,444(ra)

00000be8 <inst_132>:
     be8:	55555537          	lui	a0,0x55555
     bec:	55550513          	addi	a0,a0,1365 # 55555555 <_end+0x5554ea51>
     bf0:	555555b7          	lui	a1,0x55555
     bf4:	55458593          	addi	a1,a1,1364 # 55555554 <_end+0x5554ea50>
     bf8:	02b56633          	rem	a2,a0,a1
     bfc:	1cc0a023          	sw	a2,448(ra)

00000c00 <inst_133>:
     c00:	55555537          	lui	a0,0x55555
     c04:	55550513          	addi	a0,a0,1365 # 55555555 <_end+0x5554ea51>
     c08:	00000593          	li	a1,0
     c0c:	02b56633          	rem	a2,a0,a1
     c10:	1cc0a223          	sw	a2,452(ra)

00000c14 <inst_134>:
     c14:	55555537          	lui	a0,0x55555
     c18:	55550513          	addi	a0,a0,1365 # 55555555 <_end+0x5554ea51>
     c1c:	00400593          	li	a1,4
     c20:	02b56633          	rem	a2,a0,a1
     c24:	1cc0a423          	sw	a2,456(ra)

00000c28 <inst_135>:
     c28:	55555537          	lui	a0,0x55555
     c2c:	55550513          	addi	a0,a0,1365 # 55555555 <_end+0x5554ea51>
     c30:	333335b7          	lui	a1,0x33333
     c34:	33258593          	addi	a1,a1,818 # 33333332 <_end+0x3332c82e>
     c38:	02b56633          	rem	a2,a0,a1
     c3c:	1cc0a623          	sw	a2,460(ra)

00000c40 <inst_136>:
     c40:	55555537          	lui	a0,0x55555
     c44:	55550513          	addi	a0,a0,1365 # 55555555 <_end+0x5554ea51>
     c48:	666665b7          	lui	a1,0x66666
     c4c:	66558593          	addi	a1,a1,1637 # 66666665 <_end+0x6665fb61>
     c50:	02b56633          	rem	a2,a0,a1
     c54:	1cc0a823          	sw	a2,464(ra)

00000c58 <inst_137>:
     c58:	55555537          	lui	a0,0x55555
     c5c:	55550513          	addi	a0,a0,1365 # 55555555 <_end+0x5554ea51>
     c60:	0000b5b7          	lui	a1,0xb
     c64:	50358593          	addi	a1,a1,1283 # b503 <_end+0x49ff>
     c68:	02b56633          	rem	a2,a0,a1
     c6c:	1cc0aa23          	sw	a2,468(ra)

00000c70 <inst_138>:
     c70:	55555537          	lui	a0,0x55555
     c74:	55550513          	addi	a0,a0,1365 # 55555555 <_end+0x5554ea51>
     c78:	555555b7          	lui	a1,0x55555
     c7c:	55658593          	addi	a1,a1,1366 # 55555556 <_end+0x5554ea52>
     c80:	02b56633          	rem	a2,a0,a1
     c84:	1cc0ac23          	sw	a2,472(ra)

00000c88 <inst_139>:
     c88:	55555537          	lui	a0,0x55555
     c8c:	55550513          	addi	a0,a0,1365 # 55555555 <_end+0x5554ea51>
     c90:	aaaab5b7          	lui	a1,0xaaaab
     c94:	aab58593          	addi	a1,a1,-1365 # aaaaaaab <_end+0xaaaa3fa7>
     c98:	02b56633          	rem	a2,a0,a1
     c9c:	1cc0ae23          	sw	a2,476(ra)

00000ca0 <inst_140>:
     ca0:	55555537          	lui	a0,0x55555
     ca4:	55550513          	addi	a0,a0,1365 # 55555555 <_end+0x5554ea51>
     ca8:	00600593          	li	a1,6
     cac:	02b56633          	rem	a2,a0,a1
     cb0:	1ec0a023          	sw	a2,480(ra)

00000cb4 <inst_141>:
     cb4:	55555537          	lui	a0,0x55555
     cb8:	55550513          	addi	a0,a0,1365 # 55555555 <_end+0x5554ea51>
     cbc:	333335b7          	lui	a1,0x33333
     cc0:	33458593          	addi	a1,a1,820 # 33333334 <_end+0x3332c830>
     cc4:	02b56633          	rem	a2,a0,a1
     cc8:	1ec0a223          	sw	a2,484(ra)

00000ccc <inst_142>:
     ccc:	55555537          	lui	a0,0x55555
     cd0:	55550513          	addi	a0,a0,1365 # 55555555 <_end+0x5554ea51>
     cd4:	666665b7          	lui	a1,0x66666
     cd8:	66758593          	addi	a1,a1,1639 # 66666667 <_end+0x6665fb63>
     cdc:	02b56633          	rem	a2,a0,a1
     ce0:	1ec0a423          	sw	a2,488(ra)

00000ce4 <inst_143>:
     ce4:	55555537          	lui	a0,0x55555
     ce8:	55550513          	addi	a0,a0,1365 # 55555555 <_end+0x5554ea51>
     cec:	ffff55b7          	lui	a1,0xffff5
     cf0:	afd58593          	addi	a1,a1,-1283 # ffff4afd <_end+0xfffedff9>
     cf4:	02b56633          	rem	a2,a0,a1
     cf8:	1ec0a623          	sw	a2,492(ra)

00000cfc <inst_144>:
     cfc:	55555537          	lui	a0,0x55555
     d00:	55550513          	addi	a0,a0,1365 # 55555555 <_end+0x5554ea51>
     d04:	0000b5b7          	lui	a1,0xb
     d08:	50558593          	addi	a1,a1,1285 # b505 <_end+0x4a01>
     d0c:	02b56633          	rem	a2,a0,a1
     d10:	1ec0a823          	sw	a2,496(ra)

00000d14 <inst_145>:
     d14:	aaaab537          	lui	a0,0xaaaab
     d18:	aaa50513          	addi	a0,a0,-1366 # aaaaaaaa <_end+0xaaaa3fa6>
     d1c:	00300593          	li	a1,3
     d20:	02b56633          	rem	a2,a0,a1
     d24:	1ec0aa23          	sw	a2,500(ra)

00000d28 <inst_146>:
     d28:	aaaab537          	lui	a0,0xaaaab
     d2c:	aaa50513          	addi	a0,a0,-1366 # aaaaaaaa <_end+0xaaaa3fa6>
     d30:	555555b7          	lui	a1,0x55555
     d34:	55558593          	addi	a1,a1,1365 # 55555555 <_end+0x5554ea51>
     d38:	02b56633          	rem	a2,a0,a1
     d3c:	1ec0ac23          	sw	a2,504(ra)

00000d40 <inst_147>:
     d40:	aaaab537          	lui	a0,0xaaaab
     d44:	aaa50513          	addi	a0,a0,-1366 # aaaaaaaa <_end+0xaaaa3fa6>
     d48:	aaaab5b7          	lui	a1,0xaaaab
     d4c:	aaa58593          	addi	a1,a1,-1366 # aaaaaaaa <_end+0xaaaa3fa6>
     d50:	02b56633          	rem	a2,a0,a1
     d54:	1ec0ae23          	sw	a2,508(ra)

00000d58 <inst_148>:
     d58:	aaaab537          	lui	a0,0xaaaab
     d5c:	aaa50513          	addi	a0,a0,-1366 # aaaaaaaa <_end+0xaaaa3fa6>
     d60:	00500593          	li	a1,5
     d64:	02b56633          	rem	a2,a0,a1
     d68:	20c0a023          	sw	a2,512(ra)

00000d6c <inst_149>:
     d6c:	aaaab537          	lui	a0,0xaaaab
     d70:	aaa50513          	addi	a0,a0,-1366 # aaaaaaaa <_end+0xaaaa3fa6>
     d74:	333335b7          	lui	a1,0x33333
     d78:	33358593          	addi	a1,a1,819 # 33333333 <_end+0x3332c82f>
     d7c:	02b56633          	rem	a2,a0,a1
     d80:	20c0a223          	sw	a2,516(ra)

00000d84 <inst_150>:
     d84:	aaaab537          	lui	a0,0xaaaab
     d88:	aaa50513          	addi	a0,a0,-1366 # aaaaaaaa <_end+0xaaaa3fa6>
     d8c:	666665b7          	lui	a1,0x66666
     d90:	66658593          	addi	a1,a1,1638 # 66666666 <_end+0x6665fb62>
     d94:	02b56633          	rem	a2,a0,a1
     d98:	20c0a423          	sw	a2,520(ra)

00000d9c <inst_151>:
     d9c:	aaaab537          	lui	a0,0xaaaab
     da0:	aaa50513          	addi	a0,a0,-1366 # aaaaaaaa <_end+0xaaaa3fa6>
     da4:	ffff55b7          	lui	a1,0xffff5
     da8:	afc58593          	addi	a1,a1,-1284 # ffff4afc <_end+0xfffedff8>
     dac:	02b56633          	rem	a2,a0,a1
     db0:	20c0a623          	sw	a2,524(ra)

00000db4 <inst_152>:
     db4:	aaaab537          	lui	a0,0xaaaab
     db8:	aaa50513          	addi	a0,a0,-1366 # aaaaaaaa <_end+0xaaaa3fa6>
     dbc:	0000b5b7          	lui	a1,0xb
     dc0:	50458593          	addi	a1,a1,1284 # b504 <_end+0x4a00>
     dc4:	02b56633          	rem	a2,a0,a1
     dc8:	20c0a823          	sw	a2,528(ra)

00000dcc <inst_153>:
     dcc:	aaaab537          	lui	a0,0xaaaab
     dd0:	aaa50513          	addi	a0,a0,-1366 # aaaaaaaa <_end+0xaaaa3fa6>
     dd4:	00200593          	li	a1,2
     dd8:	02b56633          	rem	a2,a0,a1
     ddc:	20c0aa23          	sw	a2,532(ra)

00000de0 <inst_154>:
     de0:	aaaab537          	lui	a0,0xaaaab
     de4:	aaa50513          	addi	a0,a0,-1366 # aaaaaaaa <_end+0xaaaa3fa6>
     de8:	555555b7          	lui	a1,0x55555
     dec:	55458593          	addi	a1,a1,1364 # 55555554 <_end+0x5554ea50>
     df0:	02b56633          	rem	a2,a0,a1
     df4:	20c0ac23          	sw	a2,536(ra)

00000df8 <inst_155>:
     df8:	aaaab537          	lui	a0,0xaaaab
     dfc:	aaa50513          	addi	a0,a0,-1366 # aaaaaaaa <_end+0xaaaa3fa6>
     e00:	00000593          	li	a1,0
     e04:	02b56633          	rem	a2,a0,a1
     e08:	20c0ae23          	sw	a2,540(ra)

00000e0c <inst_156>:
     e0c:	aaaab537          	lui	a0,0xaaaab
     e10:	aaa50513          	addi	a0,a0,-1366 # aaaaaaaa <_end+0xaaaa3fa6>
     e14:	00400593          	li	a1,4
     e18:	02b56633          	rem	a2,a0,a1
     e1c:	22c0a023          	sw	a2,544(ra)

00000e20 <inst_157>:
     e20:	aaaab537          	lui	a0,0xaaaab
     e24:	aaa50513          	addi	a0,a0,-1366 # aaaaaaaa <_end+0xaaaa3fa6>
     e28:	333335b7          	lui	a1,0x33333
     e2c:	33258593          	addi	a1,a1,818 # 33333332 <_end+0x3332c82e>
     e30:	02b56633          	rem	a2,a0,a1
     e34:	22c0a223          	sw	a2,548(ra)

00000e38 <inst_158>:
     e38:	aaaab537          	lui	a0,0xaaaab
     e3c:	aaa50513          	addi	a0,a0,-1366 # aaaaaaaa <_end+0xaaaa3fa6>
     e40:	666665b7          	lui	a1,0x66666
     e44:	66558593          	addi	a1,a1,1637 # 66666665 <_end+0x6665fb61>
     e48:	02b56633          	rem	a2,a0,a1
     e4c:	22c0a423          	sw	a2,552(ra)

00000e50 <inst_159>:
     e50:	aaaab537          	lui	a0,0xaaaab
     e54:	aaa50513          	addi	a0,a0,-1366 # aaaaaaaa <_end+0xaaaa3fa6>
     e58:	0000b5b7          	lui	a1,0xb
     e5c:	50358593          	addi	a1,a1,1283 # b503 <_end+0x49ff>
     e60:	02b56633          	rem	a2,a0,a1
     e64:	22c0a623          	sw	a2,556(ra)

00000e68 <inst_160>:
     e68:	aaaab537          	lui	a0,0xaaaab
     e6c:	aaa50513          	addi	a0,a0,-1366 # aaaaaaaa <_end+0xaaaa3fa6>
     e70:	555555b7          	lui	a1,0x55555
     e74:	55658593          	addi	a1,a1,1366 # 55555556 <_end+0x5554ea52>
     e78:	02b56633          	rem	a2,a0,a1
     e7c:	22c0a823          	sw	a2,560(ra)

00000e80 <inst_161>:
     e80:	aaaab537          	lui	a0,0xaaaab
     e84:	aaa50513          	addi	a0,a0,-1366 # aaaaaaaa <_end+0xaaaa3fa6>
     e88:	aaaab5b7          	lui	a1,0xaaaab
     e8c:	aab58593          	addi	a1,a1,-1365 # aaaaaaab <_end+0xaaaa3fa7>
     e90:	02b56633          	rem	a2,a0,a1
     e94:	22c0aa23          	sw	a2,564(ra)

00000e98 <inst_162>:
     e98:	aaaab537          	lui	a0,0xaaaab
     e9c:	aaa50513          	addi	a0,a0,-1366 # aaaaaaaa <_end+0xaaaa3fa6>
     ea0:	00600593          	li	a1,6
     ea4:	02b56633          	rem	a2,a0,a1
     ea8:	22c0ac23          	sw	a2,568(ra)

00000eac <inst_163>:
     eac:	aaaab537          	lui	a0,0xaaaab
     eb0:	aaa50513          	addi	a0,a0,-1366 # aaaaaaaa <_end+0xaaaa3fa6>
     eb4:	333335b7          	lui	a1,0x33333
     eb8:	33458593          	addi	a1,a1,820 # 33333334 <_end+0x3332c830>
     ebc:	02b56633          	rem	a2,a0,a1
     ec0:	22c0ae23          	sw	a2,572(ra)

00000ec4 <inst_164>:
     ec4:	aaaab537          	lui	a0,0xaaaab
     ec8:	aaa50513          	addi	a0,a0,-1366 # aaaaaaaa <_end+0xaaaa3fa6>
     ecc:	666665b7          	lui	a1,0x66666
     ed0:	66758593          	addi	a1,a1,1639 # 66666667 <_end+0x6665fb63>
     ed4:	02b56633          	rem	a2,a0,a1
     ed8:	24c0a023          	sw	a2,576(ra)

00000edc <inst_165>:
     edc:	aaaab537          	lui	a0,0xaaaab
     ee0:	aaa50513          	addi	a0,a0,-1366 # aaaaaaaa <_end+0xaaaa3fa6>
     ee4:	ffff55b7          	lui	a1,0xffff5
     ee8:	afd58593          	addi	a1,a1,-1283 # ffff4afd <_end+0xfffedff9>
     eec:	02b56633          	rem	a2,a0,a1
     ef0:	24c0a223          	sw	a2,580(ra)

00000ef4 <inst_166>:
     ef4:	aaaab537          	lui	a0,0xaaaab
     ef8:	aaa50513          	addi	a0,a0,-1366 # aaaaaaaa <_end+0xaaaa3fa6>
     efc:	0000b5b7          	lui	a1,0xb
     f00:	50558593          	addi	a1,a1,1285 # b505 <_end+0x4a01>
     f04:	02b56633          	rem	a2,a0,a1
     f08:	24c0a423          	sw	a2,584(ra)

00000f0c <inst_167>:
     f0c:	00500513          	li	a0,5
     f10:	00300593          	li	a1,3
     f14:	02b56633          	rem	a2,a0,a1
     f18:	24c0a623          	sw	a2,588(ra)

00000f1c <inst_168>:
     f1c:	00500513          	li	a0,5
     f20:	555555b7          	lui	a1,0x55555
     f24:	55558593          	addi	a1,a1,1365 # 55555555 <_end+0x5554ea51>
     f28:	02b56633          	rem	a2,a0,a1
     f2c:	24c0a823          	sw	a2,592(ra)

00000f30 <inst_169>:
     f30:	00500513          	li	a0,5
     f34:	aaaab5b7          	lui	a1,0xaaaab
     f38:	aaa58593          	addi	a1,a1,-1366 # aaaaaaaa <_end+0xaaaa3fa6>
     f3c:	02b56633          	rem	a2,a0,a1
     f40:	24c0aa23          	sw	a2,596(ra)

00000f44 <inst_170>:
     f44:	00500513          	li	a0,5
     f48:	00500593          	li	a1,5
     f4c:	02b56633          	rem	a2,a0,a1
     f50:	24c0ac23          	sw	a2,600(ra)

00000f54 <inst_171>:
     f54:	00500513          	li	a0,5
     f58:	333335b7          	lui	a1,0x33333
     f5c:	33358593          	addi	a1,a1,819 # 33333333 <_end+0x3332c82f>
     f60:	02b56633          	rem	a2,a0,a1
     f64:	24c0ae23          	sw	a2,604(ra)

00000f68 <inst_172>:
     f68:	00500513          	li	a0,5
     f6c:	666665b7          	lui	a1,0x66666
     f70:	66658593          	addi	a1,a1,1638 # 66666666 <_end+0x6665fb62>
     f74:	02b56633          	rem	a2,a0,a1
     f78:	26c0a023          	sw	a2,608(ra)

00000f7c <inst_173>:
     f7c:	00500513          	li	a0,5
     f80:	ffff55b7          	lui	a1,0xffff5
     f84:	afc58593          	addi	a1,a1,-1284 # ffff4afc <_end+0xfffedff8>
     f88:	02b56633          	rem	a2,a0,a1
     f8c:	26c0a223          	sw	a2,612(ra)

00000f90 <inst_174>:
     f90:	00500513          	li	a0,5
     f94:	0000b5b7          	lui	a1,0xb
     f98:	50458593          	addi	a1,a1,1284 # b504 <_end+0x4a00>
     f9c:	02b56633          	rem	a2,a0,a1
     fa0:	26c0a423          	sw	a2,616(ra)

00000fa4 <inst_175>:
     fa4:	00500513          	li	a0,5
     fa8:	00200593          	li	a1,2
     fac:	02b56633          	rem	a2,a0,a1
     fb0:	26c0a623          	sw	a2,620(ra)

00000fb4 <inst_176>:
     fb4:	00500513          	li	a0,5
     fb8:	555555b7          	lui	a1,0x55555
     fbc:	55458593          	addi	a1,a1,1364 # 55555554 <_end+0x5554ea50>
     fc0:	02b56633          	rem	a2,a0,a1
     fc4:	26c0a823          	sw	a2,624(ra)

00000fc8 <inst_177>:
     fc8:	00500513          	li	a0,5
     fcc:	00000593          	li	a1,0
     fd0:	02b56633          	rem	a2,a0,a1
     fd4:	26c0aa23          	sw	a2,628(ra)

00000fd8 <inst_178>:
     fd8:	00500513          	li	a0,5
     fdc:	00400593          	li	a1,4
     fe0:	02b56633          	rem	a2,a0,a1
     fe4:	26c0ac23          	sw	a2,632(ra)

00000fe8 <inst_179>:
     fe8:	00500513          	li	a0,5
     fec:	333335b7          	lui	a1,0x33333
     ff0:	33258593          	addi	a1,a1,818 # 33333332 <_end+0x3332c82e>
     ff4:	02b56633          	rem	a2,a0,a1
     ff8:	26c0ae23          	sw	a2,636(ra)

00000ffc <inst_180>:
     ffc:	00500513          	li	a0,5
    1000:	666665b7          	lui	a1,0x66666
    1004:	66558593          	addi	a1,a1,1637 # 66666665 <_end+0x6665fb61>
    1008:	02b56633          	rem	a2,a0,a1
    100c:	28c0a023          	sw	a2,640(ra)

00001010 <inst_181>:
    1010:	00500513          	li	a0,5
    1014:	0000b5b7          	lui	a1,0xb
    1018:	50358593          	addi	a1,a1,1283 # b503 <_end+0x49ff>
    101c:	02b56633          	rem	a2,a0,a1
    1020:	28c0a223          	sw	a2,644(ra)

00001024 <inst_182>:
    1024:	00500513          	li	a0,5
    1028:	555555b7          	lui	a1,0x55555
    102c:	55658593          	addi	a1,a1,1366 # 55555556 <_end+0x5554ea52>
    1030:	02b56633          	rem	a2,a0,a1
    1034:	28c0a423          	sw	a2,648(ra)

00001038 <inst_183>:
    1038:	00500513          	li	a0,5
    103c:	aaaab5b7          	lui	a1,0xaaaab
    1040:	aab58593          	addi	a1,a1,-1365 # aaaaaaab <_end+0xaaaa3fa7>
    1044:	02b56633          	rem	a2,a0,a1
    1048:	28c0a623          	sw	a2,652(ra)

0000104c <inst_184>:
    104c:	00500513          	li	a0,5
    1050:	00600593          	li	a1,6
    1054:	02b56633          	rem	a2,a0,a1
    1058:	28c0a823          	sw	a2,656(ra)

0000105c <inst_185>:
    105c:	00500513          	li	a0,5
    1060:	333335b7          	lui	a1,0x33333
    1064:	33458593          	addi	a1,a1,820 # 33333334 <_end+0x3332c830>
    1068:	02b56633          	rem	a2,a0,a1
    106c:	28c0aa23          	sw	a2,660(ra)

00001070 <inst_186>:
    1070:	00500513          	li	a0,5
    1074:	666665b7          	lui	a1,0x66666
    1078:	66758593          	addi	a1,a1,1639 # 66666667 <_end+0x6665fb63>
    107c:	02b56633          	rem	a2,a0,a1
    1080:	28c0ac23          	sw	a2,664(ra)

00001084 <inst_187>:
    1084:	00500513          	li	a0,5
    1088:	ffff55b7          	lui	a1,0xffff5
    108c:	afd58593          	addi	a1,a1,-1283 # ffff4afd <_end+0xfffedff9>
    1090:	02b56633          	rem	a2,a0,a1
    1094:	28c0ae23          	sw	a2,668(ra)

00001098 <inst_188>:
    1098:	00500513          	li	a0,5
    109c:	0000b5b7          	lui	a1,0xb
    10a0:	50558593          	addi	a1,a1,1285 # b505 <_end+0x4a01>
    10a4:	02b56633          	rem	a2,a0,a1
    10a8:	2ac0a023          	sw	a2,672(ra)

000010ac <inst_189>:
    10ac:	33333537          	lui	a0,0x33333
    10b0:	33350513          	addi	a0,a0,819 # 33333333 <_end+0x3332c82f>
    10b4:	00300593          	li	a1,3
    10b8:	02b56633          	rem	a2,a0,a1
    10bc:	2ac0a223          	sw	a2,676(ra)

000010c0 <inst_190>:
    10c0:	33333537          	lui	a0,0x33333
    10c4:	33350513          	addi	a0,a0,819 # 33333333 <_end+0x3332c82f>
    10c8:	555555b7          	lui	a1,0x55555
    10cc:	55558593          	addi	a1,a1,1365 # 55555555 <_end+0x5554ea51>
    10d0:	02b56633          	rem	a2,a0,a1
    10d4:	2ac0a423          	sw	a2,680(ra)

000010d8 <inst_191>:
    10d8:	33333537          	lui	a0,0x33333
    10dc:	33350513          	addi	a0,a0,819 # 33333333 <_end+0x3332c82f>
    10e0:	aaaab5b7          	lui	a1,0xaaaab
    10e4:	aaa58593          	addi	a1,a1,-1366 # aaaaaaaa <_end+0xaaaa3fa6>
    10e8:	02b56633          	rem	a2,a0,a1
    10ec:	2ac0a623          	sw	a2,684(ra)

000010f0 <inst_192>:
    10f0:	33333537          	lui	a0,0x33333
    10f4:	33350513          	addi	a0,a0,819 # 33333333 <_end+0x3332c82f>
    10f8:	00500593          	li	a1,5
    10fc:	02b56633          	rem	a2,a0,a1
    1100:	2ac0a823          	sw	a2,688(ra)

00001104 <inst_193>:
    1104:	33333537          	lui	a0,0x33333
    1108:	33350513          	addi	a0,a0,819 # 33333333 <_end+0x3332c82f>
    110c:	333335b7          	lui	a1,0x33333
    1110:	33358593          	addi	a1,a1,819 # 33333333 <_end+0x3332c82f>
    1114:	02b56633          	rem	a2,a0,a1
    1118:	2ac0aa23          	sw	a2,692(ra)

0000111c <inst_194>:
    111c:	33333537          	lui	a0,0x33333
    1120:	33350513          	addi	a0,a0,819 # 33333333 <_end+0x3332c82f>
    1124:	666665b7          	lui	a1,0x66666
    1128:	66658593          	addi	a1,a1,1638 # 66666666 <_end+0x6665fb62>
    112c:	02b56633          	rem	a2,a0,a1
    1130:	2ac0ac23          	sw	a2,696(ra)

00001134 <inst_195>:
    1134:	33333537          	lui	a0,0x33333
    1138:	33350513          	addi	a0,a0,819 # 33333333 <_end+0x3332c82f>
    113c:	ffff55b7          	lui	a1,0xffff5
    1140:	afc58593          	addi	a1,a1,-1284 # ffff4afc <_end+0xfffedff8>
    1144:	02b56633          	rem	a2,a0,a1
    1148:	2ac0ae23          	sw	a2,700(ra)

0000114c <inst_196>:
    114c:	33333537          	lui	a0,0x33333
    1150:	33350513          	addi	a0,a0,819 # 33333333 <_end+0x3332c82f>
    1154:	0000b5b7          	lui	a1,0xb
    1158:	50458593          	addi	a1,a1,1284 # b504 <_end+0x4a00>
    115c:	02b56633          	rem	a2,a0,a1
    1160:	2cc0a023          	sw	a2,704(ra)

00001164 <inst_197>:
    1164:	33333537          	lui	a0,0x33333
    1168:	33350513          	addi	a0,a0,819 # 33333333 <_end+0x3332c82f>
    116c:	00200593          	li	a1,2
    1170:	02b56633          	rem	a2,a0,a1
    1174:	2cc0a223          	sw	a2,708(ra)

00001178 <inst_198>:
    1178:	33333537          	lui	a0,0x33333
    117c:	33350513          	addi	a0,a0,819 # 33333333 <_end+0x3332c82f>
    1180:	555555b7          	lui	a1,0x55555
    1184:	55458593          	addi	a1,a1,1364 # 55555554 <_end+0x5554ea50>
    1188:	02b56633          	rem	a2,a0,a1
    118c:	2cc0a423          	sw	a2,712(ra)

00001190 <inst_199>:
    1190:	33333537          	lui	a0,0x33333
    1194:	33350513          	addi	a0,a0,819 # 33333333 <_end+0x3332c82f>
    1198:	00000593          	li	a1,0
    119c:	02b56633          	rem	a2,a0,a1
    11a0:	2cc0a623          	sw	a2,716(ra)

000011a4 <inst_200>:
    11a4:	33333537          	lui	a0,0x33333
    11a8:	33350513          	addi	a0,a0,819 # 33333333 <_end+0x3332c82f>
    11ac:	00400593          	li	a1,4
    11b0:	02b56633          	rem	a2,a0,a1
    11b4:	2cc0a823          	sw	a2,720(ra)

000011b8 <inst_201>:
    11b8:	33333537          	lui	a0,0x33333
    11bc:	33350513          	addi	a0,a0,819 # 33333333 <_end+0x3332c82f>
    11c0:	333335b7          	lui	a1,0x33333
    11c4:	33258593          	addi	a1,a1,818 # 33333332 <_end+0x3332c82e>
    11c8:	02b56633          	rem	a2,a0,a1
    11cc:	2cc0aa23          	sw	a2,724(ra)

000011d0 <inst_202>:
    11d0:	33333537          	lui	a0,0x33333
    11d4:	33350513          	addi	a0,a0,819 # 33333333 <_end+0x3332c82f>
    11d8:	666665b7          	lui	a1,0x66666
    11dc:	66558593          	addi	a1,a1,1637 # 66666665 <_end+0x6665fb61>
    11e0:	02b56633          	rem	a2,a0,a1
    11e4:	2cc0ac23          	sw	a2,728(ra)

000011e8 <inst_203>:
    11e8:	33333537          	lui	a0,0x33333
    11ec:	33350513          	addi	a0,a0,819 # 33333333 <_end+0x3332c82f>
    11f0:	0000b5b7          	lui	a1,0xb
    11f4:	50358593          	addi	a1,a1,1283 # b503 <_end+0x49ff>
    11f8:	02b56633          	rem	a2,a0,a1
    11fc:	2cc0ae23          	sw	a2,732(ra)

00001200 <inst_204>:
    1200:	33333537          	lui	a0,0x33333
    1204:	33350513          	addi	a0,a0,819 # 33333333 <_end+0x3332c82f>
    1208:	555555b7          	lui	a1,0x55555
    120c:	55658593          	addi	a1,a1,1366 # 55555556 <_end+0x5554ea52>
    1210:	02b56633          	rem	a2,a0,a1
    1214:	2ec0a023          	sw	a2,736(ra)

00001218 <inst_205>:
    1218:	33333537          	lui	a0,0x33333
    121c:	33350513          	addi	a0,a0,819 # 33333333 <_end+0x3332c82f>
    1220:	aaaab5b7          	lui	a1,0xaaaab
    1224:	aab58593          	addi	a1,a1,-1365 # aaaaaaab <_end+0xaaaa3fa7>
    1228:	02b56633          	rem	a2,a0,a1
    122c:	2ec0a223          	sw	a2,740(ra)

00001230 <inst_206>:
    1230:	33333537          	lui	a0,0x33333
    1234:	33350513          	addi	a0,a0,819 # 33333333 <_end+0x3332c82f>
    1238:	00600593          	li	a1,6
    123c:	02b56633          	rem	a2,a0,a1
    1240:	2ec0a423          	sw	a2,744(ra)

00001244 <inst_207>:
    1244:	33333537          	lui	a0,0x33333
    1248:	33350513          	addi	a0,a0,819 # 33333333 <_end+0x3332c82f>
    124c:	333335b7          	lui	a1,0x33333
    1250:	33458593          	addi	a1,a1,820 # 33333334 <_end+0x3332c830>
    1254:	02b56633          	rem	a2,a0,a1
    1258:	2ec0a623          	sw	a2,748(ra)

0000125c <inst_208>:
    125c:	33333537          	lui	a0,0x33333
    1260:	33350513          	addi	a0,a0,819 # 33333333 <_end+0x3332c82f>
    1264:	666665b7          	lui	a1,0x66666
    1268:	66758593          	addi	a1,a1,1639 # 66666667 <_end+0x6665fb63>
    126c:	02b56633          	rem	a2,a0,a1
    1270:	2ec0a823          	sw	a2,752(ra)

00001274 <inst_209>:
    1274:	33333537          	lui	a0,0x33333
    1278:	33350513          	addi	a0,a0,819 # 33333333 <_end+0x3332c82f>
    127c:	ffff55b7          	lui	a1,0xffff5
    1280:	afd58593          	addi	a1,a1,-1283 # ffff4afd <_end+0xfffedff9>
    1284:	02b56633          	rem	a2,a0,a1
    1288:	2ec0aa23          	sw	a2,756(ra)

0000128c <inst_210>:
    128c:	33333537          	lui	a0,0x33333
    1290:	33350513          	addi	a0,a0,819 # 33333333 <_end+0x3332c82f>
    1294:	0000b5b7          	lui	a1,0xb
    1298:	50558593          	addi	a1,a1,1285 # b505 <_end+0x4a01>
    129c:	02b56633          	rem	a2,a0,a1
    12a0:	2ec0ac23          	sw	a2,760(ra)

000012a4 <inst_211>:
    12a4:	66666537          	lui	a0,0x66666
    12a8:	66650513          	addi	a0,a0,1638 # 66666666 <_end+0x6665fb62>
    12ac:	00300593          	li	a1,3
    12b0:	02b56633          	rem	a2,a0,a1
    12b4:	2ec0ae23          	sw	a2,764(ra)

000012b8 <inst_212>:
    12b8:	66666537          	lui	a0,0x66666
    12bc:	66650513          	addi	a0,a0,1638 # 66666666 <_end+0x6665fb62>
    12c0:	555555b7          	lui	a1,0x55555
    12c4:	55558593          	addi	a1,a1,1365 # 55555555 <_end+0x5554ea51>
    12c8:	02b56633          	rem	a2,a0,a1
    12cc:	30c0a023          	sw	a2,768(ra)

000012d0 <inst_213>:
    12d0:	66666537          	lui	a0,0x66666
    12d4:	66650513          	addi	a0,a0,1638 # 66666666 <_end+0x6665fb62>
    12d8:	aaaab5b7          	lui	a1,0xaaaab
    12dc:	aaa58593          	addi	a1,a1,-1366 # aaaaaaaa <_end+0xaaaa3fa6>
    12e0:	02b56633          	rem	a2,a0,a1
    12e4:	30c0a223          	sw	a2,772(ra)

000012e8 <inst_214>:
    12e8:	66666537          	lui	a0,0x66666
    12ec:	66650513          	addi	a0,a0,1638 # 66666666 <_end+0x6665fb62>
    12f0:	00500593          	li	a1,5
    12f4:	02b56633          	rem	a2,a0,a1
    12f8:	30c0a423          	sw	a2,776(ra)

000012fc <inst_215>:
    12fc:	66666537          	lui	a0,0x66666
    1300:	66650513          	addi	a0,a0,1638 # 66666666 <_end+0x6665fb62>
    1304:	333335b7          	lui	a1,0x33333
    1308:	33358593          	addi	a1,a1,819 # 33333333 <_end+0x3332c82f>
    130c:	02b56633          	rem	a2,a0,a1
    1310:	30c0a623          	sw	a2,780(ra)

00001314 <inst_216>:
    1314:	66666537          	lui	a0,0x66666
    1318:	66650513          	addi	a0,a0,1638 # 66666666 <_end+0x6665fb62>
    131c:	666665b7          	lui	a1,0x66666
    1320:	66658593          	addi	a1,a1,1638 # 66666666 <_end+0x6665fb62>
    1324:	02b56633          	rem	a2,a0,a1
    1328:	30c0a823          	sw	a2,784(ra)

0000132c <inst_217>:
    132c:	66666537          	lui	a0,0x66666
    1330:	66650513          	addi	a0,a0,1638 # 66666666 <_end+0x6665fb62>
    1334:	ffff55b7          	lui	a1,0xffff5
    1338:	afc58593          	addi	a1,a1,-1284 # ffff4afc <_end+0xfffedff8>
    133c:	02b56633          	rem	a2,a0,a1
    1340:	30c0aa23          	sw	a2,788(ra)

00001344 <inst_218>:
    1344:	66666537          	lui	a0,0x66666
    1348:	66650513          	addi	a0,a0,1638 # 66666666 <_end+0x6665fb62>
    134c:	0000b5b7          	lui	a1,0xb
    1350:	50458593          	addi	a1,a1,1284 # b504 <_end+0x4a00>
    1354:	02b56633          	rem	a2,a0,a1
    1358:	30c0ac23          	sw	a2,792(ra)

0000135c <inst_219>:
    135c:	66666537          	lui	a0,0x66666
    1360:	66650513          	addi	a0,a0,1638 # 66666666 <_end+0x6665fb62>
    1364:	00200593          	li	a1,2
    1368:	02b56633          	rem	a2,a0,a1
    136c:	30c0ae23          	sw	a2,796(ra)

00001370 <inst_220>:
    1370:	66666537          	lui	a0,0x66666
    1374:	66650513          	addi	a0,a0,1638 # 66666666 <_end+0x6665fb62>
    1378:	555555b7          	lui	a1,0x55555
    137c:	55458593          	addi	a1,a1,1364 # 55555554 <_end+0x5554ea50>
    1380:	02b56633          	rem	a2,a0,a1
    1384:	32c0a023          	sw	a2,800(ra)

00001388 <inst_221>:
    1388:	66666537          	lui	a0,0x66666
    138c:	66650513          	addi	a0,a0,1638 # 66666666 <_end+0x6665fb62>
    1390:	00000593          	li	a1,0
    1394:	02b56633          	rem	a2,a0,a1
    1398:	32c0a223          	sw	a2,804(ra)

0000139c <inst_222>:
    139c:	66666537          	lui	a0,0x66666
    13a0:	66650513          	addi	a0,a0,1638 # 66666666 <_end+0x6665fb62>
    13a4:	00400593          	li	a1,4
    13a8:	02b56633          	rem	a2,a0,a1
    13ac:	32c0a423          	sw	a2,808(ra)

000013b0 <inst_223>:
    13b0:	66666537          	lui	a0,0x66666
    13b4:	66650513          	addi	a0,a0,1638 # 66666666 <_end+0x6665fb62>
    13b8:	333335b7          	lui	a1,0x33333
    13bc:	33258593          	addi	a1,a1,818 # 33333332 <_end+0x3332c82e>
    13c0:	02b56633          	rem	a2,a0,a1
    13c4:	32c0a623          	sw	a2,812(ra)

000013c8 <inst_224>:
    13c8:	66666537          	lui	a0,0x66666
    13cc:	66650513          	addi	a0,a0,1638 # 66666666 <_end+0x6665fb62>
    13d0:	666665b7          	lui	a1,0x66666
    13d4:	66558593          	addi	a1,a1,1637 # 66666665 <_end+0x6665fb61>
    13d8:	02b56633          	rem	a2,a0,a1
    13dc:	32c0a823          	sw	a2,816(ra)

000013e0 <inst_225>:
    13e0:	66666537          	lui	a0,0x66666
    13e4:	66650513          	addi	a0,a0,1638 # 66666666 <_end+0x6665fb62>
    13e8:	0000b5b7          	lui	a1,0xb
    13ec:	50358593          	addi	a1,a1,1283 # b503 <_end+0x49ff>
    13f0:	02b56633          	rem	a2,a0,a1
    13f4:	32c0aa23          	sw	a2,820(ra)

000013f8 <inst_226>:
    13f8:	66666537          	lui	a0,0x66666
    13fc:	66650513          	addi	a0,a0,1638 # 66666666 <_end+0x6665fb62>
    1400:	555555b7          	lui	a1,0x55555
    1404:	55658593          	addi	a1,a1,1366 # 55555556 <_end+0x5554ea52>
    1408:	02b56633          	rem	a2,a0,a1
    140c:	32c0ac23          	sw	a2,824(ra)

00001410 <inst_227>:
    1410:	66666537          	lui	a0,0x66666
    1414:	66650513          	addi	a0,a0,1638 # 66666666 <_end+0x6665fb62>
    1418:	aaaab5b7          	lui	a1,0xaaaab
    141c:	aab58593          	addi	a1,a1,-1365 # aaaaaaab <_end+0xaaaa3fa7>
    1420:	02b56633          	rem	a2,a0,a1
    1424:	32c0ae23          	sw	a2,828(ra)

00001428 <inst_228>:
    1428:	66666537          	lui	a0,0x66666
    142c:	66650513          	addi	a0,a0,1638 # 66666666 <_end+0x6665fb62>
    1430:	00600593          	li	a1,6
    1434:	02b56633          	rem	a2,a0,a1
    1438:	34c0a023          	sw	a2,832(ra)

0000143c <inst_229>:
    143c:	66666537          	lui	a0,0x66666
    1440:	66650513          	addi	a0,a0,1638 # 66666666 <_end+0x6665fb62>
    1444:	333335b7          	lui	a1,0x33333
    1448:	33458593          	addi	a1,a1,820 # 33333334 <_end+0x3332c830>
    144c:	02b56633          	rem	a2,a0,a1
    1450:	34c0a223          	sw	a2,836(ra)

00001454 <inst_230>:
    1454:	66666537          	lui	a0,0x66666
    1458:	66650513          	addi	a0,a0,1638 # 66666666 <_end+0x6665fb62>
    145c:	666665b7          	lui	a1,0x66666
    1460:	66758593          	addi	a1,a1,1639 # 66666667 <_end+0x6665fb63>
    1464:	02b56633          	rem	a2,a0,a1
    1468:	34c0a423          	sw	a2,840(ra)

0000146c <inst_231>:
    146c:	66666537          	lui	a0,0x66666
    1470:	66650513          	addi	a0,a0,1638 # 66666666 <_end+0x6665fb62>
    1474:	ffff55b7          	lui	a1,0xffff5
    1478:	afd58593          	addi	a1,a1,-1283 # ffff4afd <_end+0xfffedff9>
    147c:	02b56633          	rem	a2,a0,a1
    1480:	34c0a623          	sw	a2,844(ra)

00001484 <inst_232>:
    1484:	66666537          	lui	a0,0x66666
    1488:	66650513          	addi	a0,a0,1638 # 66666666 <_end+0x6665fb62>
    148c:	0000b5b7          	lui	a1,0xb
    1490:	50558593          	addi	a1,a1,1285 # b505 <_end+0x4a01>
    1494:	02b56633          	rem	a2,a0,a1
    1498:	34c0a823          	sw	a2,848(ra)

0000149c <inst_233>:
    149c:	ffff5537          	lui	a0,0xffff5
    14a0:	afc50513          	addi	a0,a0,-1284 # ffff4afc <_end+0xfffedff8>
    14a4:	00300593          	li	a1,3
    14a8:	02b56633          	rem	a2,a0,a1
    14ac:	34c0aa23          	sw	a2,852(ra)

000014b0 <inst_234>:
    14b0:	ffff5537          	lui	a0,0xffff5
    14b4:	afc50513          	addi	a0,a0,-1284 # ffff4afc <_end+0xfffedff8>
    14b8:	555555b7          	lui	a1,0x55555
    14bc:	55558593          	addi	a1,a1,1365 # 55555555 <_end+0x5554ea51>
    14c0:	02b56633          	rem	a2,a0,a1
    14c4:	34c0ac23          	sw	a2,856(ra)

000014c8 <inst_235>:
    14c8:	ffff5537          	lui	a0,0xffff5
    14cc:	afc50513          	addi	a0,a0,-1284 # ffff4afc <_end+0xfffedff8>
    14d0:	aaaab5b7          	lui	a1,0xaaaab
    14d4:	aaa58593          	addi	a1,a1,-1366 # aaaaaaaa <_end+0xaaaa3fa6>
    14d8:	02b56633          	rem	a2,a0,a1
    14dc:	34c0ae23          	sw	a2,860(ra)

000014e0 <inst_236>:
    14e0:	ffff5537          	lui	a0,0xffff5
    14e4:	afc50513          	addi	a0,a0,-1284 # ffff4afc <_end+0xfffedff8>
    14e8:	00500593          	li	a1,5
    14ec:	02b56633          	rem	a2,a0,a1
    14f0:	36c0a023          	sw	a2,864(ra)

000014f4 <inst_237>:
    14f4:	ffff5537          	lui	a0,0xffff5
    14f8:	afc50513          	addi	a0,a0,-1284 # ffff4afc <_end+0xfffedff8>
    14fc:	333335b7          	lui	a1,0x33333
    1500:	33358593          	addi	a1,a1,819 # 33333333 <_end+0x3332c82f>
    1504:	02b56633          	rem	a2,a0,a1
    1508:	36c0a223          	sw	a2,868(ra)

0000150c <inst_238>:
    150c:	ffff5537          	lui	a0,0xffff5
    1510:	afc50513          	addi	a0,a0,-1284 # ffff4afc <_end+0xfffedff8>
    1514:	666665b7          	lui	a1,0x66666
    1518:	66658593          	addi	a1,a1,1638 # 66666666 <_end+0x6665fb62>
    151c:	02b56633          	rem	a2,a0,a1
    1520:	36c0a423          	sw	a2,872(ra)

00001524 <inst_239>:
    1524:	ffff5537          	lui	a0,0xffff5
    1528:	afc50513          	addi	a0,a0,-1284 # ffff4afc <_end+0xfffedff8>
    152c:	ffff55b7          	lui	a1,0xffff5
    1530:	afc58593          	addi	a1,a1,-1284 # ffff4afc <_end+0xfffedff8>
    1534:	02b56633          	rem	a2,a0,a1
    1538:	36c0a623          	sw	a2,876(ra)

0000153c <inst_240>:
    153c:	ffff5537          	lui	a0,0xffff5
    1540:	afc50513          	addi	a0,a0,-1284 # ffff4afc <_end+0xfffedff8>
    1544:	0000b5b7          	lui	a1,0xb
    1548:	50458593          	addi	a1,a1,1284 # b504 <_end+0x4a00>
    154c:	02b56633          	rem	a2,a0,a1
    1550:	36c0a823          	sw	a2,880(ra)

00001554 <inst_241>:
    1554:	ffff5537          	lui	a0,0xffff5
    1558:	afc50513          	addi	a0,a0,-1284 # ffff4afc <_end+0xfffedff8>
    155c:	00200593          	li	a1,2
    1560:	02b56633          	rem	a2,a0,a1
    1564:	36c0aa23          	sw	a2,884(ra)

00001568 <inst_242>:
    1568:	ffff5537          	lui	a0,0xffff5
    156c:	afc50513          	addi	a0,a0,-1284 # ffff4afc <_end+0xfffedff8>
    1570:	555555b7          	lui	a1,0x55555
    1574:	55458593          	addi	a1,a1,1364 # 55555554 <_end+0x5554ea50>
    1578:	02b56633          	rem	a2,a0,a1
    157c:	36c0ac23          	sw	a2,888(ra)

00001580 <inst_243>:
    1580:	ffff5537          	lui	a0,0xffff5
    1584:	afc50513          	addi	a0,a0,-1284 # ffff4afc <_end+0xfffedff8>
    1588:	00000593          	li	a1,0
    158c:	02b56633          	rem	a2,a0,a1
    1590:	36c0ae23          	sw	a2,892(ra)

00001594 <inst_244>:
    1594:	ffff5537          	lui	a0,0xffff5
    1598:	afc50513          	addi	a0,a0,-1284 # ffff4afc <_end+0xfffedff8>
    159c:	00400593          	li	a1,4
    15a0:	02b56633          	rem	a2,a0,a1
    15a4:	38c0a023          	sw	a2,896(ra)

000015a8 <inst_245>:
    15a8:	ffff5537          	lui	a0,0xffff5
    15ac:	afc50513          	addi	a0,a0,-1284 # ffff4afc <_end+0xfffedff8>
    15b0:	333335b7          	lui	a1,0x33333
    15b4:	33258593          	addi	a1,a1,818 # 33333332 <_end+0x3332c82e>
    15b8:	02b56633          	rem	a2,a0,a1
    15bc:	38c0a223          	sw	a2,900(ra)

000015c0 <inst_246>:
    15c0:	ffff5537          	lui	a0,0xffff5
    15c4:	afc50513          	addi	a0,a0,-1284 # ffff4afc <_end+0xfffedff8>
    15c8:	666665b7          	lui	a1,0x66666
    15cc:	66558593          	addi	a1,a1,1637 # 66666665 <_end+0x6665fb61>
    15d0:	02b56633          	rem	a2,a0,a1
    15d4:	38c0a423          	sw	a2,904(ra)

000015d8 <inst_247>:
    15d8:	ffff5537          	lui	a0,0xffff5
    15dc:	afc50513          	addi	a0,a0,-1284 # ffff4afc <_end+0xfffedff8>
    15e0:	0000b5b7          	lui	a1,0xb
    15e4:	50358593          	addi	a1,a1,1283 # b503 <_end+0x49ff>
    15e8:	02b56633          	rem	a2,a0,a1
    15ec:	38c0a623          	sw	a2,908(ra)

000015f0 <inst_248>:
    15f0:	ffff5537          	lui	a0,0xffff5
    15f4:	afc50513          	addi	a0,a0,-1284 # ffff4afc <_end+0xfffedff8>
    15f8:	555555b7          	lui	a1,0x55555
    15fc:	55658593          	addi	a1,a1,1366 # 55555556 <_end+0x5554ea52>
    1600:	02b56633          	rem	a2,a0,a1
    1604:	38c0a823          	sw	a2,912(ra)

00001608 <inst_249>:
    1608:	ffff5537          	lui	a0,0xffff5
    160c:	afc50513          	addi	a0,a0,-1284 # ffff4afc <_end+0xfffedff8>
    1610:	aaaab5b7          	lui	a1,0xaaaab
    1614:	aab58593          	addi	a1,a1,-1365 # aaaaaaab <_end+0xaaaa3fa7>
    1618:	02b56633          	rem	a2,a0,a1
    161c:	38c0aa23          	sw	a2,916(ra)

00001620 <inst_250>:
    1620:	ffff5537          	lui	a0,0xffff5
    1624:	afc50513          	addi	a0,a0,-1284 # ffff4afc <_end+0xfffedff8>
    1628:	00600593          	li	a1,6
    162c:	02b56633          	rem	a2,a0,a1
    1630:	38c0ac23          	sw	a2,920(ra)

00001634 <inst_251>:
    1634:	ffff5537          	lui	a0,0xffff5
    1638:	afc50513          	addi	a0,a0,-1284 # ffff4afc <_end+0xfffedff8>
    163c:	333335b7          	lui	a1,0x33333
    1640:	33458593          	addi	a1,a1,820 # 33333334 <_end+0x3332c830>
    1644:	02b56633          	rem	a2,a0,a1
    1648:	38c0ae23          	sw	a2,924(ra)

0000164c <inst_252>:
    164c:	ffff5537          	lui	a0,0xffff5
    1650:	afc50513          	addi	a0,a0,-1284 # ffff4afc <_end+0xfffedff8>
    1654:	666665b7          	lui	a1,0x66666
    1658:	66758593          	addi	a1,a1,1639 # 66666667 <_end+0x6665fb63>
    165c:	02b56633          	rem	a2,a0,a1
    1660:	3ac0a023          	sw	a2,928(ra)

00001664 <inst_253>:
    1664:	ffff5537          	lui	a0,0xffff5
    1668:	afc50513          	addi	a0,a0,-1284 # ffff4afc <_end+0xfffedff8>
    166c:	ffff55b7          	lui	a1,0xffff5
    1670:	afd58593          	addi	a1,a1,-1283 # ffff4afd <_end+0xfffedff9>
    1674:	02b56633          	rem	a2,a0,a1
    1678:	3ac0a223          	sw	a2,932(ra)

0000167c <inst_254>:
    167c:	ffff5537          	lui	a0,0xffff5
    1680:	afc50513          	addi	a0,a0,-1284 # ffff4afc <_end+0xfffedff8>
    1684:	0000b5b7          	lui	a1,0xb
    1688:	50558593          	addi	a1,a1,1285 # b505 <_end+0x4a01>
    168c:	02b56633          	rem	a2,a0,a1
    1690:	3ac0a423          	sw	a2,936(ra)

00001694 <inst_255>:
    1694:	0000b537          	lui	a0,0xb
    1698:	50450513          	addi	a0,a0,1284 # b504 <_end+0x4a00>
    169c:	00300593          	li	a1,3
    16a0:	02b56633          	rem	a2,a0,a1
    16a4:	3ac0a623          	sw	a2,940(ra)

000016a8 <inst_256>:
    16a8:	0000b537          	lui	a0,0xb
    16ac:	50450513          	addi	a0,a0,1284 # b504 <_end+0x4a00>
    16b0:	555555b7          	lui	a1,0x55555
    16b4:	55558593          	addi	a1,a1,1365 # 55555555 <_end+0x5554ea51>
    16b8:	02b56633          	rem	a2,a0,a1
    16bc:	3ac0a823          	sw	a2,944(ra)

000016c0 <inst_257>:
    16c0:	0000b537          	lui	a0,0xb
    16c4:	50450513          	addi	a0,a0,1284 # b504 <_end+0x4a00>
    16c8:	aaaab5b7          	lui	a1,0xaaaab
    16cc:	aaa58593          	addi	a1,a1,-1366 # aaaaaaaa <_end+0xaaaa3fa6>
    16d0:	02b56633          	rem	a2,a0,a1
    16d4:	3ac0aa23          	sw	a2,948(ra)

000016d8 <inst_258>:
    16d8:	0000b537          	lui	a0,0xb
    16dc:	50450513          	addi	a0,a0,1284 # b504 <_end+0x4a00>
    16e0:	00500593          	li	a1,5
    16e4:	02b56633          	rem	a2,a0,a1
    16e8:	3ac0ac23          	sw	a2,952(ra)

000016ec <inst_259>:
    16ec:	0000b537          	lui	a0,0xb
    16f0:	50450513          	addi	a0,a0,1284 # b504 <_end+0x4a00>
    16f4:	333335b7          	lui	a1,0x33333
    16f8:	33358593          	addi	a1,a1,819 # 33333333 <_end+0x3332c82f>
    16fc:	02b56633          	rem	a2,a0,a1
    1700:	3ac0ae23          	sw	a2,956(ra)

00001704 <inst_260>:
    1704:	0000b537          	lui	a0,0xb
    1708:	50450513          	addi	a0,a0,1284 # b504 <_end+0x4a00>
    170c:	666665b7          	lui	a1,0x66666
    1710:	66658593          	addi	a1,a1,1638 # 66666666 <_end+0x6665fb62>
    1714:	02b56633          	rem	a2,a0,a1
    1718:	3cc0a023          	sw	a2,960(ra)

0000171c <inst_261>:
    171c:	0000b537          	lui	a0,0xb
    1720:	50450513          	addi	a0,a0,1284 # b504 <_end+0x4a00>
    1724:	ffff55b7          	lui	a1,0xffff5
    1728:	afc58593          	addi	a1,a1,-1284 # ffff4afc <_end+0xfffedff8>
    172c:	02b56633          	rem	a2,a0,a1
    1730:	3cc0a223          	sw	a2,964(ra)

00001734 <inst_262>:
    1734:	0000b537          	lui	a0,0xb
    1738:	50450513          	addi	a0,a0,1284 # b504 <_end+0x4a00>
    173c:	00200593          	li	a1,2
    1740:	02b56633          	rem	a2,a0,a1
    1744:	3cc0a423          	sw	a2,968(ra)

00001748 <inst_263>:
    1748:	0000b537          	lui	a0,0xb
    174c:	50450513          	addi	a0,a0,1284 # b504 <_end+0x4a00>
    1750:	555555b7          	lui	a1,0x55555
    1754:	55458593          	addi	a1,a1,1364 # 55555554 <_end+0x5554ea50>
    1758:	02b56633          	rem	a2,a0,a1
    175c:	3cc0a623          	sw	a2,972(ra)

00001760 <inst_264>:
    1760:	0000b537          	lui	a0,0xb
    1764:	50450513          	addi	a0,a0,1284 # b504 <_end+0x4a00>
    1768:	00000593          	li	a1,0
    176c:	02b56633          	rem	a2,a0,a1
    1770:	3cc0a823          	sw	a2,976(ra)

00001774 <inst_265>:
    1774:	0000b537          	lui	a0,0xb
    1778:	50450513          	addi	a0,a0,1284 # b504 <_end+0x4a00>
    177c:	00400593          	li	a1,4
    1780:	02b56633          	rem	a2,a0,a1
    1784:	3cc0aa23          	sw	a2,980(ra)

00001788 <inst_266>:
    1788:	0000b537          	lui	a0,0xb
    178c:	50450513          	addi	a0,a0,1284 # b504 <_end+0x4a00>
    1790:	333335b7          	lui	a1,0x33333
    1794:	33258593          	addi	a1,a1,818 # 33333332 <_end+0x3332c82e>
    1798:	02b56633          	rem	a2,a0,a1
    179c:	3cc0ac23          	sw	a2,984(ra)

000017a0 <inst_267>:
    17a0:	0000b537          	lui	a0,0xb
    17a4:	50450513          	addi	a0,a0,1284 # b504 <_end+0x4a00>
    17a8:	666665b7          	lui	a1,0x66666
    17ac:	66558593          	addi	a1,a1,1637 # 66666665 <_end+0x6665fb61>
    17b0:	02b56633          	rem	a2,a0,a1
    17b4:	3cc0ae23          	sw	a2,988(ra)

000017b8 <inst_268>:
    17b8:	0000b537          	lui	a0,0xb
    17bc:	50450513          	addi	a0,a0,1284 # b504 <_end+0x4a00>
    17c0:	0000b5b7          	lui	a1,0xb
    17c4:	50358593          	addi	a1,a1,1283 # b503 <_end+0x49ff>
    17c8:	02b56633          	rem	a2,a0,a1
    17cc:	3ec0a023          	sw	a2,992(ra)

000017d0 <inst_269>:
    17d0:	0000b537          	lui	a0,0xb
    17d4:	50450513          	addi	a0,a0,1284 # b504 <_end+0x4a00>
    17d8:	555555b7          	lui	a1,0x55555
    17dc:	55658593          	addi	a1,a1,1366 # 55555556 <_end+0x5554ea52>
    17e0:	02b56633          	rem	a2,a0,a1
    17e4:	3ec0a223          	sw	a2,996(ra)

000017e8 <inst_270>:
    17e8:	0000b537          	lui	a0,0xb
    17ec:	50450513          	addi	a0,a0,1284 # b504 <_end+0x4a00>
    17f0:	aaaab5b7          	lui	a1,0xaaaab
    17f4:	aab58593          	addi	a1,a1,-1365 # aaaaaaab <_end+0xaaaa3fa7>
    17f8:	02b56633          	rem	a2,a0,a1
    17fc:	3ec0a423          	sw	a2,1000(ra)

00001800 <inst_271>:
    1800:	0000b537          	lui	a0,0xb
    1804:	50450513          	addi	a0,a0,1284 # b504 <_end+0x4a00>
    1808:	00600593          	li	a1,6
    180c:	02b56633          	rem	a2,a0,a1
    1810:	3ec0a623          	sw	a2,1004(ra)

00001814 <inst_272>:
    1814:	0000b537          	lui	a0,0xb
    1818:	50450513          	addi	a0,a0,1284 # b504 <_end+0x4a00>
    181c:	333335b7          	lui	a1,0x33333
    1820:	33458593          	addi	a1,a1,820 # 33333334 <_end+0x3332c830>
    1824:	02b56633          	rem	a2,a0,a1
    1828:	3ec0a823          	sw	a2,1008(ra)

0000182c <inst_273>:
    182c:	0000b537          	lui	a0,0xb
    1830:	50450513          	addi	a0,a0,1284 # b504 <_end+0x4a00>
    1834:	666665b7          	lui	a1,0x66666
    1838:	66758593          	addi	a1,a1,1639 # 66666667 <_end+0x6665fb63>
    183c:	02b56633          	rem	a2,a0,a1
    1840:	3ec0aa23          	sw	a2,1012(ra)

00001844 <inst_274>:
    1844:	0000b537          	lui	a0,0xb
    1848:	50450513          	addi	a0,a0,1284 # b504 <_end+0x4a00>
    184c:	ffff55b7          	lui	a1,0xffff5
    1850:	afd58593          	addi	a1,a1,-1283 # ffff4afd <_end+0xfffedff9>
    1854:	02b56633          	rem	a2,a0,a1
    1858:	3ec0ac23          	sw	a2,1016(ra)

0000185c <inst_275>:
    185c:	0000b537          	lui	a0,0xb
    1860:	50450513          	addi	a0,a0,1284 # b504 <_end+0x4a00>
    1864:	0000b5b7          	lui	a1,0xb
    1868:	50558593          	addi	a1,a1,1285 # b505 <_end+0x4a01>
    186c:	02b56633          	rem	a2,a0,a1
    1870:	3ec0ae23          	sw	a2,1020(ra)

00001874 <inst_276>:
    1874:	00200513          	li	a0,2
    1878:	00300593          	li	a1,3
    187c:	02b56633          	rem	a2,a0,a1
    1880:	40c0a023          	sw	a2,1024(ra)

00001884 <inst_277>:
    1884:	00200513          	li	a0,2
    1888:	555555b7          	lui	a1,0x55555
    188c:	55558593          	addi	a1,a1,1365 # 55555555 <_end+0x5554ea51>
    1890:	02b56633          	rem	a2,a0,a1
    1894:	40c0a223          	sw	a2,1028(ra)

00001898 <inst_278>:
    1898:	00200513          	li	a0,2
    189c:	aaaab5b7          	lui	a1,0xaaaab
    18a0:	aaa58593          	addi	a1,a1,-1366 # aaaaaaaa <_end+0xaaaa3fa6>
    18a4:	02b56633          	rem	a2,a0,a1
    18a8:	40c0a423          	sw	a2,1032(ra)

000018ac <inst_279>:
    18ac:	00200513          	li	a0,2
    18b0:	00500593          	li	a1,5
    18b4:	02b56633          	rem	a2,a0,a1
    18b8:	40c0a623          	sw	a2,1036(ra)

000018bc <inst_280>:
    18bc:	00200513          	li	a0,2
    18c0:	333335b7          	lui	a1,0x33333
    18c4:	33358593          	addi	a1,a1,819 # 33333333 <_end+0x3332c82f>
    18c8:	02b56633          	rem	a2,a0,a1
    18cc:	40c0a823          	sw	a2,1040(ra)

000018d0 <inst_281>:
    18d0:	00200513          	li	a0,2
    18d4:	666665b7          	lui	a1,0x66666
    18d8:	66658593          	addi	a1,a1,1638 # 66666666 <_end+0x6665fb62>
    18dc:	02b56633          	rem	a2,a0,a1
    18e0:	40c0aa23          	sw	a2,1044(ra)

000018e4 <inst_282>:
    18e4:	00200513          	li	a0,2
    18e8:	ffff55b7          	lui	a1,0xffff5
    18ec:	afc58593          	addi	a1,a1,-1284 # ffff4afc <_end+0xfffedff8>
    18f0:	02b56633          	rem	a2,a0,a1
    18f4:	40c0ac23          	sw	a2,1048(ra)

000018f8 <inst_283>:
    18f8:	00200513          	li	a0,2
    18fc:	0000b5b7          	lui	a1,0xb
    1900:	50458593          	addi	a1,a1,1284 # b504 <_end+0x4a00>
    1904:	02b56633          	rem	a2,a0,a1
    1908:	40c0ae23          	sw	a2,1052(ra)

0000190c <inst_284>:
    190c:	00200513          	li	a0,2
    1910:	00200593          	li	a1,2
    1914:	02b56633          	rem	a2,a0,a1
    1918:	42c0a023          	sw	a2,1056(ra)

0000191c <inst_285>:
    191c:	00200513          	li	a0,2
    1920:	555555b7          	lui	a1,0x55555
    1924:	55458593          	addi	a1,a1,1364 # 55555554 <_end+0x5554ea50>
    1928:	02b56633          	rem	a2,a0,a1
    192c:	42c0a223          	sw	a2,1060(ra)

00001930 <inst_286>:
    1930:	00200513          	li	a0,2
    1934:	00000593          	li	a1,0
    1938:	02b56633          	rem	a2,a0,a1
    193c:	42c0a423          	sw	a2,1064(ra)

00001940 <inst_287>:
    1940:	00200513          	li	a0,2
    1944:	00400593          	li	a1,4
    1948:	02b56633          	rem	a2,a0,a1
    194c:	42c0a623          	sw	a2,1068(ra)

00001950 <inst_288>:
    1950:	00200513          	li	a0,2
    1954:	333335b7          	lui	a1,0x33333
    1958:	33258593          	addi	a1,a1,818 # 33333332 <_end+0x3332c82e>
    195c:	02b56633          	rem	a2,a0,a1
    1960:	42c0a823          	sw	a2,1072(ra)

00001964 <inst_289>:
    1964:	00200513          	li	a0,2
    1968:	666665b7          	lui	a1,0x66666
    196c:	66558593          	addi	a1,a1,1637 # 66666665 <_end+0x6665fb61>
    1970:	02b56633          	rem	a2,a0,a1
    1974:	42c0aa23          	sw	a2,1076(ra)

00001978 <inst_290>:
    1978:	00200513          	li	a0,2
    197c:	0000b5b7          	lui	a1,0xb
    1980:	50358593          	addi	a1,a1,1283 # b503 <_end+0x49ff>
    1984:	02b56633          	rem	a2,a0,a1
    1988:	42c0ac23          	sw	a2,1080(ra)

0000198c <inst_291>:
    198c:	00200513          	li	a0,2
    1990:	555555b7          	lui	a1,0x55555
    1994:	55658593          	addi	a1,a1,1366 # 55555556 <_end+0x5554ea52>
    1998:	02b56633          	rem	a2,a0,a1
    199c:	42c0ae23          	sw	a2,1084(ra)

000019a0 <inst_292>:
    19a0:	00200513          	li	a0,2
    19a4:	aaaab5b7          	lui	a1,0xaaaab
    19a8:	aab58593          	addi	a1,a1,-1365 # aaaaaaab <_end+0xaaaa3fa7>
    19ac:	02b56633          	rem	a2,a0,a1
    19b0:	44c0a023          	sw	a2,1088(ra)

000019b4 <inst_293>:
    19b4:	00200513          	li	a0,2
    19b8:	00600593          	li	a1,6
    19bc:	02b56633          	rem	a2,a0,a1
    19c0:	44c0a223          	sw	a2,1092(ra)

000019c4 <inst_294>:
    19c4:	00200513          	li	a0,2
    19c8:	333335b7          	lui	a1,0x33333
    19cc:	33458593          	addi	a1,a1,820 # 33333334 <_end+0x3332c830>
    19d0:	02b56633          	rem	a2,a0,a1
    19d4:	44c0a423          	sw	a2,1096(ra)

000019d8 <inst_295>:
    19d8:	00200513          	li	a0,2
    19dc:	666665b7          	lui	a1,0x66666
    19e0:	66758593          	addi	a1,a1,1639 # 66666667 <_end+0x6665fb63>
    19e4:	02b56633          	rem	a2,a0,a1
    19e8:	44c0a623          	sw	a2,1100(ra)

000019ec <inst_296>:
    19ec:	00200513          	li	a0,2
    19f0:	ffff55b7          	lui	a1,0xffff5
    19f4:	afd58593          	addi	a1,a1,-1283 # ffff4afd <_end+0xfffedff9>
    19f8:	02b56633          	rem	a2,a0,a1
    19fc:	44c0a823          	sw	a2,1104(ra)

00001a00 <inst_297>:
    1a00:	00200513          	li	a0,2
    1a04:	0000b5b7          	lui	a1,0xb
    1a08:	50558593          	addi	a1,a1,1285 # b505 <_end+0x4a01>
    1a0c:	02b56633          	rem	a2,a0,a1
    1a10:	44c0aa23          	sw	a2,1108(ra)

00001a14 <inst_298>:
    1a14:	55555537          	lui	a0,0x55555
    1a18:	55450513          	addi	a0,a0,1364 # 55555554 <_end+0x5554ea50>
    1a1c:	00300593          	li	a1,3
    1a20:	02b56633          	rem	a2,a0,a1
    1a24:	44c0ac23          	sw	a2,1112(ra)

00001a28 <inst_299>:
    1a28:	55555537          	lui	a0,0x55555
    1a2c:	55450513          	addi	a0,a0,1364 # 55555554 <_end+0x5554ea50>
    1a30:	555555b7          	lui	a1,0x55555
    1a34:	55558593          	addi	a1,a1,1365 # 55555555 <_end+0x5554ea51>
    1a38:	02b56633          	rem	a2,a0,a1
    1a3c:	44c0ae23          	sw	a2,1116(ra)

00001a40 <inst_300>:
    1a40:	55555537          	lui	a0,0x55555
    1a44:	55450513          	addi	a0,a0,1364 # 55555554 <_end+0x5554ea50>
    1a48:	aaaab5b7          	lui	a1,0xaaaab
    1a4c:	aaa58593          	addi	a1,a1,-1366 # aaaaaaaa <_end+0xaaaa3fa6>
    1a50:	02b56633          	rem	a2,a0,a1
    1a54:	46c0a023          	sw	a2,1120(ra)

00001a58 <inst_301>:
    1a58:	55555537          	lui	a0,0x55555
    1a5c:	55450513          	addi	a0,a0,1364 # 55555554 <_end+0x5554ea50>
    1a60:	00500593          	li	a1,5
    1a64:	02b56633          	rem	a2,a0,a1
    1a68:	46c0a223          	sw	a2,1124(ra)

00001a6c <inst_302>:
    1a6c:	55555537          	lui	a0,0x55555
    1a70:	55450513          	addi	a0,a0,1364 # 55555554 <_end+0x5554ea50>
    1a74:	333335b7          	lui	a1,0x33333
    1a78:	33358593          	addi	a1,a1,819 # 33333333 <_end+0x3332c82f>
    1a7c:	02b56633          	rem	a2,a0,a1
    1a80:	46c0a423          	sw	a2,1128(ra)

00001a84 <inst_303>:
    1a84:	55555537          	lui	a0,0x55555
    1a88:	55450513          	addi	a0,a0,1364 # 55555554 <_end+0x5554ea50>
    1a8c:	666665b7          	lui	a1,0x66666
    1a90:	66658593          	addi	a1,a1,1638 # 66666666 <_end+0x6665fb62>
    1a94:	02b56633          	rem	a2,a0,a1
    1a98:	46c0a623          	sw	a2,1132(ra)

00001a9c <inst_304>:
    1a9c:	55555537          	lui	a0,0x55555
    1aa0:	55450513          	addi	a0,a0,1364 # 55555554 <_end+0x5554ea50>
    1aa4:	ffff55b7          	lui	a1,0xffff5
    1aa8:	afc58593          	addi	a1,a1,-1284 # ffff4afc <_end+0xfffedff8>
    1aac:	02b56633          	rem	a2,a0,a1
    1ab0:	46c0a823          	sw	a2,1136(ra)

00001ab4 <inst_305>:
    1ab4:	55555537          	lui	a0,0x55555
    1ab8:	55450513          	addi	a0,a0,1364 # 55555554 <_end+0x5554ea50>
    1abc:	0000b5b7          	lui	a1,0xb
    1ac0:	50458593          	addi	a1,a1,1284 # b504 <_end+0x4a00>
    1ac4:	02b56633          	rem	a2,a0,a1
    1ac8:	46c0aa23          	sw	a2,1140(ra)

00001acc <inst_306>:
    1acc:	55555537          	lui	a0,0x55555
    1ad0:	55450513          	addi	a0,a0,1364 # 55555554 <_end+0x5554ea50>
    1ad4:	00200593          	li	a1,2
    1ad8:	02b56633          	rem	a2,a0,a1
    1adc:	46c0ac23          	sw	a2,1144(ra)

00001ae0 <inst_307>:
    1ae0:	55555537          	lui	a0,0x55555
    1ae4:	55450513          	addi	a0,a0,1364 # 55555554 <_end+0x5554ea50>
    1ae8:	555555b7          	lui	a1,0x55555
    1aec:	55458593          	addi	a1,a1,1364 # 55555554 <_end+0x5554ea50>
    1af0:	02b56633          	rem	a2,a0,a1
    1af4:	46c0ae23          	sw	a2,1148(ra)

00001af8 <inst_308>:
    1af8:	55555537          	lui	a0,0x55555
    1afc:	55450513          	addi	a0,a0,1364 # 55555554 <_end+0x5554ea50>
    1b00:	00000593          	li	a1,0
    1b04:	02b56633          	rem	a2,a0,a1
    1b08:	48c0a023          	sw	a2,1152(ra)

00001b0c <inst_309>:
    1b0c:	55555537          	lui	a0,0x55555
    1b10:	55450513          	addi	a0,a0,1364 # 55555554 <_end+0x5554ea50>
    1b14:	00400593          	li	a1,4
    1b18:	02b56633          	rem	a2,a0,a1
    1b1c:	48c0a223          	sw	a2,1156(ra)

00001b20 <inst_310>:
    1b20:	55555537          	lui	a0,0x55555
    1b24:	55450513          	addi	a0,a0,1364 # 55555554 <_end+0x5554ea50>
    1b28:	333335b7          	lui	a1,0x33333
    1b2c:	33258593          	addi	a1,a1,818 # 33333332 <_end+0x3332c82e>
    1b30:	02b56633          	rem	a2,a0,a1
    1b34:	48c0a423          	sw	a2,1160(ra)

00001b38 <inst_311>:
    1b38:	55555537          	lui	a0,0x55555
    1b3c:	55450513          	addi	a0,a0,1364 # 55555554 <_end+0x5554ea50>
    1b40:	666665b7          	lui	a1,0x66666
    1b44:	66558593          	addi	a1,a1,1637 # 66666665 <_end+0x6665fb61>
    1b48:	02b56633          	rem	a2,a0,a1
    1b4c:	48c0a623          	sw	a2,1164(ra)

00001b50 <inst_312>:
    1b50:	55555537          	lui	a0,0x55555
    1b54:	55450513          	addi	a0,a0,1364 # 55555554 <_end+0x5554ea50>
    1b58:	0000b5b7          	lui	a1,0xb
    1b5c:	50358593          	addi	a1,a1,1283 # b503 <_end+0x49ff>
    1b60:	02b56633          	rem	a2,a0,a1
    1b64:	48c0a823          	sw	a2,1168(ra)

00001b68 <inst_313>:
    1b68:	55555537          	lui	a0,0x55555
    1b6c:	55450513          	addi	a0,a0,1364 # 55555554 <_end+0x5554ea50>
    1b70:	555555b7          	lui	a1,0x55555
    1b74:	55658593          	addi	a1,a1,1366 # 55555556 <_end+0x5554ea52>
    1b78:	02b56633          	rem	a2,a0,a1
    1b7c:	48c0aa23          	sw	a2,1172(ra)

00001b80 <inst_314>:
    1b80:	55555537          	lui	a0,0x55555
    1b84:	55450513          	addi	a0,a0,1364 # 55555554 <_end+0x5554ea50>
    1b88:	aaaab5b7          	lui	a1,0xaaaab
    1b8c:	aab58593          	addi	a1,a1,-1365 # aaaaaaab <_end+0xaaaa3fa7>
    1b90:	02b56633          	rem	a2,a0,a1
    1b94:	48c0ac23          	sw	a2,1176(ra)

00001b98 <inst_315>:
    1b98:	55555537          	lui	a0,0x55555
    1b9c:	55450513          	addi	a0,a0,1364 # 55555554 <_end+0x5554ea50>
    1ba0:	00600593          	li	a1,6
    1ba4:	02b56633          	rem	a2,a0,a1
    1ba8:	48c0ae23          	sw	a2,1180(ra)

00001bac <inst_316>:
    1bac:	55555537          	lui	a0,0x55555
    1bb0:	55450513          	addi	a0,a0,1364 # 55555554 <_end+0x5554ea50>
    1bb4:	333335b7          	lui	a1,0x33333
    1bb8:	33458593          	addi	a1,a1,820 # 33333334 <_end+0x3332c830>
    1bbc:	02b56633          	rem	a2,a0,a1
    1bc0:	4ac0a023          	sw	a2,1184(ra)

00001bc4 <inst_317>:
    1bc4:	55555537          	lui	a0,0x55555
    1bc8:	55450513          	addi	a0,a0,1364 # 55555554 <_end+0x5554ea50>
    1bcc:	666665b7          	lui	a1,0x66666
    1bd0:	66758593          	addi	a1,a1,1639 # 66666667 <_end+0x6665fb63>
    1bd4:	02b56633          	rem	a2,a0,a1
    1bd8:	4ac0a223          	sw	a2,1188(ra)

00001bdc <inst_318>:
    1bdc:	55555537          	lui	a0,0x55555
    1be0:	55450513          	addi	a0,a0,1364 # 55555554 <_end+0x5554ea50>
    1be4:	ffff55b7          	lui	a1,0xffff5
    1be8:	afd58593          	addi	a1,a1,-1283 # ffff4afd <_end+0xfffedff9>
    1bec:	02b56633          	rem	a2,a0,a1
    1bf0:	4ac0a423          	sw	a2,1192(ra)

00001bf4 <inst_319>:
    1bf4:	55555537          	lui	a0,0x55555
    1bf8:	55450513          	addi	a0,a0,1364 # 55555554 <_end+0x5554ea50>
    1bfc:	0000b5b7          	lui	a1,0xb
    1c00:	50558593          	addi	a1,a1,1285 # b505 <_end+0x4a01>
    1c04:	02b56633          	rem	a2,a0,a1
    1c08:	4ac0a623          	sw	a2,1196(ra)

00001c0c <inst_320>:
    1c0c:	00000513          	li	a0,0
    1c10:	00300593          	li	a1,3
    1c14:	02b56633          	rem	a2,a0,a1
    1c18:	4ac0a823          	sw	a2,1200(ra)

00001c1c <inst_321>:
    1c1c:	00000513          	li	a0,0
    1c20:	555555b7          	lui	a1,0x55555
    1c24:	55558593          	addi	a1,a1,1365 # 55555555 <_end+0x5554ea51>
    1c28:	02b56633          	rem	a2,a0,a1
    1c2c:	4ac0aa23          	sw	a2,1204(ra)

00001c30 <inst_322>:
    1c30:	00000513          	li	a0,0
    1c34:	aaaab5b7          	lui	a1,0xaaaab
    1c38:	aaa58593          	addi	a1,a1,-1366 # aaaaaaaa <_end+0xaaaa3fa6>
    1c3c:	02b56633          	rem	a2,a0,a1
    1c40:	4ac0ac23          	sw	a2,1208(ra)

00001c44 <inst_323>:
    1c44:	00000513          	li	a0,0
    1c48:	00500593          	li	a1,5
    1c4c:	02b56633          	rem	a2,a0,a1
    1c50:	4ac0ae23          	sw	a2,1212(ra)

00001c54 <inst_324>:
    1c54:	00000513          	li	a0,0
    1c58:	333335b7          	lui	a1,0x33333
    1c5c:	33358593          	addi	a1,a1,819 # 33333333 <_end+0x3332c82f>
    1c60:	02b56633          	rem	a2,a0,a1
    1c64:	4cc0a023          	sw	a2,1216(ra)

00001c68 <inst_325>:
    1c68:	00000513          	li	a0,0
    1c6c:	666665b7          	lui	a1,0x66666
    1c70:	66658593          	addi	a1,a1,1638 # 66666666 <_end+0x6665fb62>
    1c74:	02b56633          	rem	a2,a0,a1
    1c78:	4cc0a223          	sw	a2,1220(ra)

00001c7c <inst_326>:
    1c7c:	00000513          	li	a0,0
    1c80:	ffff55b7          	lui	a1,0xffff5
    1c84:	afc58593          	addi	a1,a1,-1284 # ffff4afc <_end+0xfffedff8>
    1c88:	02b56633          	rem	a2,a0,a1
    1c8c:	4cc0a423          	sw	a2,1224(ra)

00001c90 <inst_327>:
    1c90:	aaaab537          	lui	a0,0xaaaab
    1c94:	aab50513          	addi	a0,a0,-1365 # aaaaaaab <_end+0xaaaa3fa7>
    1c98:	aaaab5b7          	lui	a1,0xaaaab
    1c9c:	aab58593          	addi	a1,a1,-1365 # aaaaaaab <_end+0xaaaa3fa7>
    1ca0:	02b56633          	rem	a2,a0,a1
    1ca4:	4cc0a623          	sw	a2,1228(ra)

00001ca8 <inst_328>:
    1ca8:	aaaab537          	lui	a0,0xaaaab
    1cac:	aab50513          	addi	a0,a0,-1365 # aaaaaaab <_end+0xaaaa3fa7>
    1cb0:	00600593          	li	a1,6
    1cb4:	02b56633          	rem	a2,a0,a1
    1cb8:	4cc0a823          	sw	a2,1232(ra)

00001cbc <inst_329>:
    1cbc:	aaaab537          	lui	a0,0xaaaab
    1cc0:	aab50513          	addi	a0,a0,-1365 # aaaaaaab <_end+0xaaaa3fa7>
    1cc4:	333335b7          	lui	a1,0x33333
    1cc8:	33458593          	addi	a1,a1,820 # 33333334 <_end+0x3332c830>
    1ccc:	02b56633          	rem	a2,a0,a1
    1cd0:	4cc0aa23          	sw	a2,1236(ra)

00001cd4 <inst_330>:
    1cd4:	aaaab537          	lui	a0,0xaaaab
    1cd8:	aab50513          	addi	a0,a0,-1365 # aaaaaaab <_end+0xaaaa3fa7>
    1cdc:	666665b7          	lui	a1,0x66666
    1ce0:	66758593          	addi	a1,a1,1639 # 66666667 <_end+0x6665fb63>
    1ce4:	02b56633          	rem	a2,a0,a1
    1ce8:	4cc0ac23          	sw	a2,1240(ra)

00001cec <inst_331>:
    1cec:	aaaab537          	lui	a0,0xaaaab
    1cf0:	aab50513          	addi	a0,a0,-1365 # aaaaaaab <_end+0xaaaa3fa7>
    1cf4:	ffff55b7          	lui	a1,0xffff5
    1cf8:	afd58593          	addi	a1,a1,-1283 # ffff4afd <_end+0xfffedff9>
    1cfc:	02b56633          	rem	a2,a0,a1
    1d00:	4cc0ae23          	sw	a2,1244(ra)

00001d04 <inst_332>:
    1d04:	aaaab537          	lui	a0,0xaaaab
    1d08:	aab50513          	addi	a0,a0,-1365 # aaaaaaab <_end+0xaaaa3fa7>
    1d0c:	0000b5b7          	lui	a1,0xb
    1d10:	50558593          	addi	a1,a1,1285 # b505 <_end+0x4a01>
    1d14:	02b56633          	rem	a2,a0,a1
    1d18:	4ec0a023          	sw	a2,1248(ra)

00001d1c <inst_333>:
    1d1c:	00600513          	li	a0,6
    1d20:	00300593          	li	a1,3
    1d24:	02b56633          	rem	a2,a0,a1
    1d28:	4ec0a223          	sw	a2,1252(ra)

00001d2c <inst_334>:
    1d2c:	00600513          	li	a0,6
    1d30:	555555b7          	lui	a1,0x55555
    1d34:	55558593          	addi	a1,a1,1365 # 55555555 <_end+0x5554ea51>
    1d38:	02b56633          	rem	a2,a0,a1
    1d3c:	4ec0a423          	sw	a2,1256(ra)

00001d40 <inst_335>:
    1d40:	00600513          	li	a0,6
    1d44:	aaaab5b7          	lui	a1,0xaaaab
    1d48:	aaa58593          	addi	a1,a1,-1366 # aaaaaaaa <_end+0xaaaa3fa6>
    1d4c:	02b56633          	rem	a2,a0,a1
    1d50:	4ec0a623          	sw	a2,1260(ra)

00001d54 <inst_336>:
    1d54:	00600513          	li	a0,6
    1d58:	00500593          	li	a1,5
    1d5c:	02b56633          	rem	a2,a0,a1
    1d60:	4ec0a823          	sw	a2,1264(ra)

00001d64 <inst_337>:
    1d64:	00600513          	li	a0,6
    1d68:	333335b7          	lui	a1,0x33333
    1d6c:	33358593          	addi	a1,a1,819 # 33333333 <_end+0x3332c82f>
    1d70:	02b56633          	rem	a2,a0,a1
    1d74:	4ec0aa23          	sw	a2,1268(ra)

00001d78 <inst_338>:
    1d78:	00600513          	li	a0,6
    1d7c:	666665b7          	lui	a1,0x66666
    1d80:	66658593          	addi	a1,a1,1638 # 66666666 <_end+0x6665fb62>
    1d84:	02b56633          	rem	a2,a0,a1
    1d88:	4ec0ac23          	sw	a2,1272(ra)

00001d8c <inst_339>:
    1d8c:	00600513          	li	a0,6
    1d90:	ffff55b7          	lui	a1,0xffff5
    1d94:	afc58593          	addi	a1,a1,-1284 # ffff4afc <_end+0xfffedff8>
    1d98:	02b56633          	rem	a2,a0,a1
    1d9c:	4ec0ae23          	sw	a2,1276(ra)

00001da0 <inst_340>:
    1da0:	00600513          	li	a0,6
    1da4:	0000b5b7          	lui	a1,0xb
    1da8:	50458593          	addi	a1,a1,1284 # b504 <_end+0x4a00>
    1dac:	02b56633          	rem	a2,a0,a1
    1db0:	50c0a023          	sw	a2,1280(ra)

00001db4 <inst_341>:
    1db4:	00600513          	li	a0,6
    1db8:	00200593          	li	a1,2
    1dbc:	02b56633          	rem	a2,a0,a1
    1dc0:	50c0a223          	sw	a2,1284(ra)

00001dc4 <inst_342>:
    1dc4:	00600513          	li	a0,6
    1dc8:	555555b7          	lui	a1,0x55555
    1dcc:	55458593          	addi	a1,a1,1364 # 55555554 <_end+0x5554ea50>
    1dd0:	02b56633          	rem	a2,a0,a1
    1dd4:	50c0a423          	sw	a2,1288(ra)

00001dd8 <inst_343>:
    1dd8:	00600513          	li	a0,6
    1ddc:	00000593          	li	a1,0
    1de0:	02b56633          	rem	a2,a0,a1
    1de4:	50c0a623          	sw	a2,1292(ra)

00001de8 <inst_344>:
    1de8:	00600513          	li	a0,6
    1dec:	00400593          	li	a1,4
    1df0:	02b56633          	rem	a2,a0,a1
    1df4:	50c0a823          	sw	a2,1296(ra)

00001df8 <inst_345>:
    1df8:	00600513          	li	a0,6
    1dfc:	333335b7          	lui	a1,0x33333
    1e00:	33258593          	addi	a1,a1,818 # 33333332 <_end+0x3332c82e>
    1e04:	02b56633          	rem	a2,a0,a1
    1e08:	50c0aa23          	sw	a2,1300(ra)

00001e0c <inst_346>:
    1e0c:	00600513          	li	a0,6
    1e10:	666665b7          	lui	a1,0x66666
    1e14:	66558593          	addi	a1,a1,1637 # 66666665 <_end+0x6665fb61>
    1e18:	02b56633          	rem	a2,a0,a1
    1e1c:	50c0ac23          	sw	a2,1304(ra)

00001e20 <inst_347>:
    1e20:	00600513          	li	a0,6
    1e24:	0000b5b7          	lui	a1,0xb
    1e28:	50358593          	addi	a1,a1,1283 # b503 <_end+0x49ff>
    1e2c:	02b56633          	rem	a2,a0,a1
    1e30:	50c0ae23          	sw	a2,1308(ra)

00001e34 <inst_348>:
    1e34:	00600513          	li	a0,6
    1e38:	555555b7          	lui	a1,0x55555
    1e3c:	55658593          	addi	a1,a1,1366 # 55555556 <_end+0x5554ea52>
    1e40:	02b56633          	rem	a2,a0,a1
    1e44:	52c0a023          	sw	a2,1312(ra)

00001e48 <inst_349>:
    1e48:	00600513          	li	a0,6
    1e4c:	aaaab5b7          	lui	a1,0xaaaab
    1e50:	aab58593          	addi	a1,a1,-1365 # aaaaaaab <_end+0xaaaa3fa7>
    1e54:	02b56633          	rem	a2,a0,a1
    1e58:	52c0a223          	sw	a2,1316(ra)

00001e5c <inst_350>:
    1e5c:	00600513          	li	a0,6
    1e60:	00600593          	li	a1,6
    1e64:	02b56633          	rem	a2,a0,a1
    1e68:	52c0a423          	sw	a2,1320(ra)

00001e6c <inst_351>:
    1e6c:	00600513          	li	a0,6
    1e70:	333335b7          	lui	a1,0x33333
    1e74:	33458593          	addi	a1,a1,820 # 33333334 <_end+0x3332c830>
    1e78:	02b56633          	rem	a2,a0,a1
    1e7c:	52c0a623          	sw	a2,1324(ra)

00001e80 <inst_352>:
    1e80:	00600513          	li	a0,6
    1e84:	666665b7          	lui	a1,0x66666
    1e88:	66758593          	addi	a1,a1,1639 # 66666667 <_end+0x6665fb63>
    1e8c:	02b56633          	rem	a2,a0,a1
    1e90:	52c0a823          	sw	a2,1328(ra)

00001e94 <inst_353>:
    1e94:	00600513          	li	a0,6
    1e98:	ffff55b7          	lui	a1,0xffff5
    1e9c:	afd58593          	addi	a1,a1,-1283 # ffff4afd <_end+0xfffedff9>
    1ea0:	02b56633          	rem	a2,a0,a1
    1ea4:	52c0aa23          	sw	a2,1332(ra)

00001ea8 <inst_354>:
    1ea8:	00600513          	li	a0,6
    1eac:	0000b5b7          	lui	a1,0xb
    1eb0:	50558593          	addi	a1,a1,1285 # b505 <_end+0x4a01>
    1eb4:	02b56633          	rem	a2,a0,a1
    1eb8:	52c0ac23          	sw	a2,1336(ra)

00001ebc <inst_355>:
    1ebc:	33333537          	lui	a0,0x33333
    1ec0:	33450513          	addi	a0,a0,820 # 33333334 <_end+0x3332c830>
    1ec4:	00300593          	li	a1,3
    1ec8:	02b56633          	rem	a2,a0,a1
    1ecc:	52c0ae23          	sw	a2,1340(ra)

00001ed0 <inst_356>:
    1ed0:	33333537          	lui	a0,0x33333
    1ed4:	33450513          	addi	a0,a0,820 # 33333334 <_end+0x3332c830>
    1ed8:	555555b7          	lui	a1,0x55555
    1edc:	55558593          	addi	a1,a1,1365 # 55555555 <_end+0x5554ea51>
    1ee0:	02b56633          	rem	a2,a0,a1
    1ee4:	54c0a023          	sw	a2,1344(ra)

00001ee8 <inst_357>:
    1ee8:	33333537          	lui	a0,0x33333
    1eec:	33450513          	addi	a0,a0,820 # 33333334 <_end+0x3332c830>
    1ef0:	aaaab5b7          	lui	a1,0xaaaab
    1ef4:	aaa58593          	addi	a1,a1,-1366 # aaaaaaaa <_end+0xaaaa3fa6>
    1ef8:	02b56633          	rem	a2,a0,a1
    1efc:	54c0a223          	sw	a2,1348(ra)

00001f00 <inst_358>:
    1f00:	33333537          	lui	a0,0x33333
    1f04:	33450513          	addi	a0,a0,820 # 33333334 <_end+0x3332c830>
    1f08:	00500593          	li	a1,5
    1f0c:	02b56633          	rem	a2,a0,a1
    1f10:	54c0a423          	sw	a2,1352(ra)

00001f14 <inst_359>:
    1f14:	33333537          	lui	a0,0x33333
    1f18:	33450513          	addi	a0,a0,820 # 33333334 <_end+0x3332c830>
    1f1c:	333335b7          	lui	a1,0x33333
    1f20:	33358593          	addi	a1,a1,819 # 33333333 <_end+0x3332c82f>
    1f24:	02b56633          	rem	a2,a0,a1
    1f28:	54c0a623          	sw	a2,1356(ra)

00001f2c <inst_360>:
    1f2c:	33333537          	lui	a0,0x33333
    1f30:	33450513          	addi	a0,a0,820 # 33333334 <_end+0x3332c830>
    1f34:	666665b7          	lui	a1,0x66666
    1f38:	66658593          	addi	a1,a1,1638 # 66666666 <_end+0x6665fb62>
    1f3c:	02b56633          	rem	a2,a0,a1
    1f40:	54c0a823          	sw	a2,1360(ra)

00001f44 <inst_361>:
    1f44:	33333537          	lui	a0,0x33333
    1f48:	33450513          	addi	a0,a0,820 # 33333334 <_end+0x3332c830>
    1f4c:	ffff55b7          	lui	a1,0xffff5
    1f50:	afc58593          	addi	a1,a1,-1284 # ffff4afc <_end+0xfffedff8>
    1f54:	02b56633          	rem	a2,a0,a1
    1f58:	54c0aa23          	sw	a2,1364(ra)

00001f5c <inst_362>:
    1f5c:	33333537          	lui	a0,0x33333
    1f60:	33450513          	addi	a0,a0,820 # 33333334 <_end+0x3332c830>
    1f64:	0000b5b7          	lui	a1,0xb
    1f68:	50458593          	addi	a1,a1,1284 # b504 <_end+0x4a00>
    1f6c:	02b56633          	rem	a2,a0,a1
    1f70:	54c0ac23          	sw	a2,1368(ra)

00001f74 <inst_363>:
    1f74:	33333537          	lui	a0,0x33333
    1f78:	33450513          	addi	a0,a0,820 # 33333334 <_end+0x3332c830>
    1f7c:	00200593          	li	a1,2
    1f80:	02b56633          	rem	a2,a0,a1
    1f84:	54c0ae23          	sw	a2,1372(ra)

00001f88 <inst_364>:
    1f88:	33333537          	lui	a0,0x33333
    1f8c:	33450513          	addi	a0,a0,820 # 33333334 <_end+0x3332c830>
    1f90:	555555b7          	lui	a1,0x55555
    1f94:	55458593          	addi	a1,a1,1364 # 55555554 <_end+0x5554ea50>
    1f98:	02b56633          	rem	a2,a0,a1
    1f9c:	56c0a023          	sw	a2,1376(ra)

00001fa0 <inst_365>:
    1fa0:	33333537          	lui	a0,0x33333
    1fa4:	33450513          	addi	a0,a0,820 # 33333334 <_end+0x3332c830>
    1fa8:	00000593          	li	a1,0
    1fac:	02b56633          	rem	a2,a0,a1
    1fb0:	56c0a223          	sw	a2,1380(ra)

00001fb4 <inst_366>:
    1fb4:	33333537          	lui	a0,0x33333
    1fb8:	33450513          	addi	a0,a0,820 # 33333334 <_end+0x3332c830>
    1fbc:	00400593          	li	a1,4
    1fc0:	02b56633          	rem	a2,a0,a1
    1fc4:	56c0a423          	sw	a2,1384(ra)

00001fc8 <inst_367>:
    1fc8:	33333537          	lui	a0,0x33333
    1fcc:	33450513          	addi	a0,a0,820 # 33333334 <_end+0x3332c830>
    1fd0:	333335b7          	lui	a1,0x33333
    1fd4:	33258593          	addi	a1,a1,818 # 33333332 <_end+0x3332c82e>
    1fd8:	02b56633          	rem	a2,a0,a1
    1fdc:	56c0a623          	sw	a2,1388(ra)

00001fe0 <inst_368>:
    1fe0:	33333537          	lui	a0,0x33333
    1fe4:	33450513          	addi	a0,a0,820 # 33333334 <_end+0x3332c830>
    1fe8:	666665b7          	lui	a1,0x66666
    1fec:	66558593          	addi	a1,a1,1637 # 66666665 <_end+0x6665fb61>
    1ff0:	02b56633          	rem	a2,a0,a1
    1ff4:	56c0a823          	sw	a2,1392(ra)

00001ff8 <inst_369>:
    1ff8:	33333537          	lui	a0,0x33333
    1ffc:	33450513          	addi	a0,a0,820 # 33333334 <_end+0x3332c830>
    2000:	0000b5b7          	lui	a1,0xb
    2004:	50358593          	addi	a1,a1,1283 # b503 <_end+0x49ff>
    2008:	02b56633          	rem	a2,a0,a1
    200c:	56c0aa23          	sw	a2,1396(ra)

00002010 <inst_370>:
    2010:	33333537          	lui	a0,0x33333
    2014:	33450513          	addi	a0,a0,820 # 33333334 <_end+0x3332c830>
    2018:	555555b7          	lui	a1,0x55555
    201c:	55658593          	addi	a1,a1,1366 # 55555556 <_end+0x5554ea52>
    2020:	02b56633          	rem	a2,a0,a1
    2024:	56c0ac23          	sw	a2,1400(ra)

00002028 <inst_371>:
    2028:	33333537          	lui	a0,0x33333
    202c:	33450513          	addi	a0,a0,820 # 33333334 <_end+0x3332c830>
    2030:	aaaab5b7          	lui	a1,0xaaaab
    2034:	aab58593          	addi	a1,a1,-1365 # aaaaaaab <_end+0xaaaa3fa7>
    2038:	02b56633          	rem	a2,a0,a1
    203c:	56c0ae23          	sw	a2,1404(ra)

00002040 <inst_372>:
    2040:	33333537          	lui	a0,0x33333
    2044:	33450513          	addi	a0,a0,820 # 33333334 <_end+0x3332c830>
    2048:	00600593          	li	a1,6
    204c:	02b56633          	rem	a2,a0,a1
    2050:	58c0a023          	sw	a2,1408(ra)

00002054 <inst_373>:
    2054:	33333537          	lui	a0,0x33333
    2058:	33450513          	addi	a0,a0,820 # 33333334 <_end+0x3332c830>
    205c:	333335b7          	lui	a1,0x33333
    2060:	33458593          	addi	a1,a1,820 # 33333334 <_end+0x3332c830>
    2064:	02b56633          	rem	a2,a0,a1
    2068:	58c0a223          	sw	a2,1412(ra)

0000206c <inst_374>:
    206c:	33333537          	lui	a0,0x33333
    2070:	33450513          	addi	a0,a0,820 # 33333334 <_end+0x3332c830>
    2074:	666665b7          	lui	a1,0x66666
    2078:	66758593          	addi	a1,a1,1639 # 66666667 <_end+0x6665fb63>
    207c:	02b56633          	rem	a2,a0,a1
    2080:	58c0a423          	sw	a2,1416(ra)

00002084 <inst_375>:
    2084:	33333537          	lui	a0,0x33333
    2088:	33450513          	addi	a0,a0,820 # 33333334 <_end+0x3332c830>
    208c:	ffff55b7          	lui	a1,0xffff5
    2090:	afd58593          	addi	a1,a1,-1283 # ffff4afd <_end+0xfffedff9>
    2094:	02b56633          	rem	a2,a0,a1
    2098:	58c0a623          	sw	a2,1420(ra)

0000209c <inst_376>:
    209c:	33333537          	lui	a0,0x33333
    20a0:	33450513          	addi	a0,a0,820 # 33333334 <_end+0x3332c830>
    20a4:	0000b5b7          	lui	a1,0xb
    20a8:	50558593          	addi	a1,a1,1285 # b505 <_end+0x4a01>
    20ac:	02b56633          	rem	a2,a0,a1
    20b0:	58c0a823          	sw	a2,1424(ra)

000020b4 <inst_377>:
    20b4:	66666537          	lui	a0,0x66666
    20b8:	66750513          	addi	a0,a0,1639 # 66666667 <_end+0x6665fb63>
    20bc:	00300593          	li	a1,3
    20c0:	02b56633          	rem	a2,a0,a1
    20c4:	58c0aa23          	sw	a2,1428(ra)

000020c8 <inst_378>:
    20c8:	66666537          	lui	a0,0x66666
    20cc:	66750513          	addi	a0,a0,1639 # 66666667 <_end+0x6665fb63>
    20d0:	555555b7          	lui	a1,0x55555
    20d4:	55558593          	addi	a1,a1,1365 # 55555555 <_end+0x5554ea51>
    20d8:	02b56633          	rem	a2,a0,a1
    20dc:	58c0ac23          	sw	a2,1432(ra)

000020e0 <inst_379>:
    20e0:	66666537          	lui	a0,0x66666
    20e4:	66750513          	addi	a0,a0,1639 # 66666667 <_end+0x6665fb63>
    20e8:	aaaab5b7          	lui	a1,0xaaaab
    20ec:	aaa58593          	addi	a1,a1,-1366 # aaaaaaaa <_end+0xaaaa3fa6>
    20f0:	02b56633          	rem	a2,a0,a1
    20f4:	58c0ae23          	sw	a2,1436(ra)

000020f8 <inst_380>:
    20f8:	66666537          	lui	a0,0x66666
    20fc:	66750513          	addi	a0,a0,1639 # 66666667 <_end+0x6665fb63>
    2100:	00500593          	li	a1,5
    2104:	02b56633          	rem	a2,a0,a1
    2108:	5ac0a023          	sw	a2,1440(ra)

0000210c <inst_381>:
    210c:	66666537          	lui	a0,0x66666
    2110:	66750513          	addi	a0,a0,1639 # 66666667 <_end+0x6665fb63>
    2114:	333335b7          	lui	a1,0x33333
    2118:	33358593          	addi	a1,a1,819 # 33333333 <_end+0x3332c82f>
    211c:	02b56633          	rem	a2,a0,a1
    2120:	5ac0a223          	sw	a2,1444(ra)

00002124 <inst_382>:
    2124:	66666537          	lui	a0,0x66666
    2128:	66750513          	addi	a0,a0,1639 # 66666667 <_end+0x6665fb63>
    212c:	666665b7          	lui	a1,0x66666
    2130:	66658593          	addi	a1,a1,1638 # 66666666 <_end+0x6665fb62>
    2134:	02b56633          	rem	a2,a0,a1
    2138:	5ac0a423          	sw	a2,1448(ra)

0000213c <inst_383>:
    213c:	66666537          	lui	a0,0x66666
    2140:	66750513          	addi	a0,a0,1639 # 66666667 <_end+0x6665fb63>
    2144:	ffff55b7          	lui	a1,0xffff5
    2148:	afc58593          	addi	a1,a1,-1284 # ffff4afc <_end+0xfffedff8>
    214c:	02b56633          	rem	a2,a0,a1
    2150:	5ac0a623          	sw	a2,1452(ra)

00002154 <inst_384>:
    2154:	66666537          	lui	a0,0x66666
    2158:	66750513          	addi	a0,a0,1639 # 66666667 <_end+0x6665fb63>
    215c:	0000b5b7          	lui	a1,0xb
    2160:	50458593          	addi	a1,a1,1284 # b504 <_end+0x4a00>
    2164:	02b56633          	rem	a2,a0,a1
    2168:	5ac0a823          	sw	a2,1456(ra)

0000216c <inst_385>:
    216c:	66666537          	lui	a0,0x66666
    2170:	66750513          	addi	a0,a0,1639 # 66666667 <_end+0x6665fb63>
    2174:	00200593          	li	a1,2
    2178:	02b56633          	rem	a2,a0,a1
    217c:	5ac0aa23          	sw	a2,1460(ra)

00002180 <inst_386>:
    2180:	66666537          	lui	a0,0x66666
    2184:	66750513          	addi	a0,a0,1639 # 66666667 <_end+0x6665fb63>
    2188:	555555b7          	lui	a1,0x55555
    218c:	55458593          	addi	a1,a1,1364 # 55555554 <_end+0x5554ea50>
    2190:	02b56633          	rem	a2,a0,a1
    2194:	5ac0ac23          	sw	a2,1464(ra)

00002198 <inst_387>:
    2198:	66666537          	lui	a0,0x66666
    219c:	66750513          	addi	a0,a0,1639 # 66666667 <_end+0x6665fb63>
    21a0:	00000593          	li	a1,0
    21a4:	02b56633          	rem	a2,a0,a1
    21a8:	5ac0ae23          	sw	a2,1468(ra)

000021ac <inst_388>:
    21ac:	66666537          	lui	a0,0x66666
    21b0:	66750513          	addi	a0,a0,1639 # 66666667 <_end+0x6665fb63>
    21b4:	00400593          	li	a1,4
    21b8:	02b56633          	rem	a2,a0,a1
    21bc:	5cc0a023          	sw	a2,1472(ra)

000021c0 <inst_389>:
    21c0:	66666537          	lui	a0,0x66666
    21c4:	66750513          	addi	a0,a0,1639 # 66666667 <_end+0x6665fb63>
    21c8:	333335b7          	lui	a1,0x33333
    21cc:	33258593          	addi	a1,a1,818 # 33333332 <_end+0x3332c82e>
    21d0:	02b56633          	rem	a2,a0,a1
    21d4:	5cc0a223          	sw	a2,1476(ra)

000021d8 <inst_390>:
    21d8:	66666537          	lui	a0,0x66666
    21dc:	66750513          	addi	a0,a0,1639 # 66666667 <_end+0x6665fb63>
    21e0:	666665b7          	lui	a1,0x66666
    21e4:	66558593          	addi	a1,a1,1637 # 66666665 <_end+0x6665fb61>
    21e8:	02b56633          	rem	a2,a0,a1
    21ec:	5cc0a423          	sw	a2,1480(ra)

000021f0 <inst_391>:
    21f0:	66666537          	lui	a0,0x66666
    21f4:	66750513          	addi	a0,a0,1639 # 66666667 <_end+0x6665fb63>
    21f8:	0000b5b7          	lui	a1,0xb
    21fc:	50358593          	addi	a1,a1,1283 # b503 <_end+0x49ff>
    2200:	02b56633          	rem	a2,a0,a1
    2204:	5cc0a623          	sw	a2,1484(ra)

00002208 <inst_392>:
    2208:	66666537          	lui	a0,0x66666
    220c:	66750513          	addi	a0,a0,1639 # 66666667 <_end+0x6665fb63>
    2210:	555555b7          	lui	a1,0x55555
    2214:	55658593          	addi	a1,a1,1366 # 55555556 <_end+0x5554ea52>
    2218:	02b56633          	rem	a2,a0,a1
    221c:	5cc0a823          	sw	a2,1488(ra)

00002220 <inst_393>:
    2220:	66666537          	lui	a0,0x66666
    2224:	66750513          	addi	a0,a0,1639 # 66666667 <_end+0x6665fb63>
    2228:	aaaab5b7          	lui	a1,0xaaaab
    222c:	aab58593          	addi	a1,a1,-1365 # aaaaaaab <_end+0xaaaa3fa7>
    2230:	02b56633          	rem	a2,a0,a1
    2234:	5cc0aa23          	sw	a2,1492(ra)

00002238 <inst_394>:
    2238:	66666537          	lui	a0,0x66666
    223c:	66750513          	addi	a0,a0,1639 # 66666667 <_end+0x6665fb63>
    2240:	00600593          	li	a1,6
    2244:	02b56633          	rem	a2,a0,a1
    2248:	5cc0ac23          	sw	a2,1496(ra)

0000224c <inst_395>:
    224c:	66666537          	lui	a0,0x66666
    2250:	66750513          	addi	a0,a0,1639 # 66666667 <_end+0x6665fb63>
    2254:	333335b7          	lui	a1,0x33333
    2258:	33458593          	addi	a1,a1,820 # 33333334 <_end+0x3332c830>
    225c:	02b56633          	rem	a2,a0,a1
    2260:	5cc0ae23          	sw	a2,1500(ra)

00002264 <inst_396>:
    2264:	66666537          	lui	a0,0x66666
    2268:	66750513          	addi	a0,a0,1639 # 66666667 <_end+0x6665fb63>
    226c:	666665b7          	lui	a1,0x66666
    2270:	66758593          	addi	a1,a1,1639 # 66666667 <_end+0x6665fb63>
    2274:	02b56633          	rem	a2,a0,a1
    2278:	5ec0a023          	sw	a2,1504(ra)

0000227c <inst_397>:
    227c:	66666537          	lui	a0,0x66666
    2280:	66750513          	addi	a0,a0,1639 # 66666667 <_end+0x6665fb63>
    2284:	ffff55b7          	lui	a1,0xffff5
    2288:	afd58593          	addi	a1,a1,-1283 # ffff4afd <_end+0xfffedff9>
    228c:	02b56633          	rem	a2,a0,a1
    2290:	5ec0a223          	sw	a2,1508(ra)

00002294 <inst_398>:
    2294:	66666537          	lui	a0,0x66666
    2298:	66750513          	addi	a0,a0,1639 # 66666667 <_end+0x6665fb63>
    229c:	0000b5b7          	lui	a1,0xb
    22a0:	50558593          	addi	a1,a1,1285 # b505 <_end+0x4a01>
    22a4:	02b56633          	rem	a2,a0,a1
    22a8:	5ec0a423          	sw	a2,1512(ra)

000022ac <inst_399>:
    22ac:	ffff5537          	lui	a0,0xffff5
    22b0:	afd50513          	addi	a0,a0,-1283 # ffff4afd <_end+0xfffedff9>
    22b4:	00300593          	li	a1,3
    22b8:	02b56633          	rem	a2,a0,a1
    22bc:	5ec0a623          	sw	a2,1516(ra)

000022c0 <inst_400>:
    22c0:	ffff5537          	lui	a0,0xffff5
    22c4:	afd50513          	addi	a0,a0,-1283 # ffff4afd <_end+0xfffedff9>
    22c8:	555555b7          	lui	a1,0x55555
    22cc:	55558593          	addi	a1,a1,1365 # 55555555 <_end+0x5554ea51>
    22d0:	02b56633          	rem	a2,a0,a1
    22d4:	5ec0a823          	sw	a2,1520(ra)

000022d8 <inst_401>:
    22d8:	ffff5537          	lui	a0,0xffff5
    22dc:	afd50513          	addi	a0,a0,-1283 # ffff4afd <_end+0xfffedff9>
    22e0:	aaaab5b7          	lui	a1,0xaaaab
    22e4:	aaa58593          	addi	a1,a1,-1366 # aaaaaaaa <_end+0xaaaa3fa6>
    22e8:	02b56633          	rem	a2,a0,a1
    22ec:	5ec0aa23          	sw	a2,1524(ra)

000022f0 <inst_402>:
    22f0:	ffff5537          	lui	a0,0xffff5
    22f4:	afd50513          	addi	a0,a0,-1283 # ffff4afd <_end+0xfffedff9>
    22f8:	00500593          	li	a1,5
    22fc:	02b56633          	rem	a2,a0,a1
    2300:	5ec0ac23          	sw	a2,1528(ra)

00002304 <inst_403>:
    2304:	ffff5537          	lui	a0,0xffff5
    2308:	afd50513          	addi	a0,a0,-1283 # ffff4afd <_end+0xfffedff9>
    230c:	333335b7          	lui	a1,0x33333
    2310:	33358593          	addi	a1,a1,819 # 33333333 <_end+0x3332c82f>
    2314:	02b56633          	rem	a2,a0,a1
    2318:	5ec0ae23          	sw	a2,1532(ra)

0000231c <inst_404>:
    231c:	ffff5537          	lui	a0,0xffff5
    2320:	afd50513          	addi	a0,a0,-1283 # ffff4afd <_end+0xfffedff9>
    2324:	666665b7          	lui	a1,0x66666
    2328:	66658593          	addi	a1,a1,1638 # 66666666 <_end+0x6665fb62>
    232c:	02b56633          	rem	a2,a0,a1
    2330:	60c0a023          	sw	a2,1536(ra)

00002334 <inst_405>:
    2334:	ffff5537          	lui	a0,0xffff5
    2338:	afd50513          	addi	a0,a0,-1283 # ffff4afd <_end+0xfffedff9>
    233c:	ffff55b7          	lui	a1,0xffff5
    2340:	afc58593          	addi	a1,a1,-1284 # ffff4afc <_end+0xfffedff8>
    2344:	02b56633          	rem	a2,a0,a1
    2348:	60c0a223          	sw	a2,1540(ra)

0000234c <inst_406>:
    234c:	ffff5537          	lui	a0,0xffff5
    2350:	afd50513          	addi	a0,a0,-1283 # ffff4afd <_end+0xfffedff9>
    2354:	0000b5b7          	lui	a1,0xb
    2358:	50458593          	addi	a1,a1,1284 # b504 <_end+0x4a00>
    235c:	02b56633          	rem	a2,a0,a1
    2360:	60c0a423          	sw	a2,1544(ra)

00002364 <inst_407>:
    2364:	ffff5537          	lui	a0,0xffff5
    2368:	afd50513          	addi	a0,a0,-1283 # ffff4afd <_end+0xfffedff9>
    236c:	00200593          	li	a1,2
    2370:	02b56633          	rem	a2,a0,a1
    2374:	60c0a623          	sw	a2,1548(ra)

00002378 <inst_408>:
    2378:	ffff5537          	lui	a0,0xffff5
    237c:	afd50513          	addi	a0,a0,-1283 # ffff4afd <_end+0xfffedff9>
    2380:	555555b7          	lui	a1,0x55555
    2384:	55458593          	addi	a1,a1,1364 # 55555554 <_end+0x5554ea50>
    2388:	02b56633          	rem	a2,a0,a1
    238c:	60c0a823          	sw	a2,1552(ra)

00002390 <inst_409>:
    2390:	ffff5537          	lui	a0,0xffff5
    2394:	afd50513          	addi	a0,a0,-1283 # ffff4afd <_end+0xfffedff9>
    2398:	00000593          	li	a1,0
    239c:	02b56633          	rem	a2,a0,a1
    23a0:	60c0aa23          	sw	a2,1556(ra)

000023a4 <inst_410>:
    23a4:	ffff5537          	lui	a0,0xffff5
    23a8:	afd50513          	addi	a0,a0,-1283 # ffff4afd <_end+0xfffedff9>
    23ac:	00400593          	li	a1,4
    23b0:	02b56633          	rem	a2,a0,a1
    23b4:	60c0ac23          	sw	a2,1560(ra)

000023b8 <inst_411>:
    23b8:	ffff5537          	lui	a0,0xffff5
    23bc:	afd50513          	addi	a0,a0,-1283 # ffff4afd <_end+0xfffedff9>
    23c0:	333335b7          	lui	a1,0x33333
    23c4:	33258593          	addi	a1,a1,818 # 33333332 <_end+0x3332c82e>
    23c8:	02b56633          	rem	a2,a0,a1
    23cc:	60c0ae23          	sw	a2,1564(ra)

000023d0 <inst_412>:
    23d0:	ffff5537          	lui	a0,0xffff5
    23d4:	afd50513          	addi	a0,a0,-1283 # ffff4afd <_end+0xfffedff9>
    23d8:	666665b7          	lui	a1,0x66666
    23dc:	66558593          	addi	a1,a1,1637 # 66666665 <_end+0x6665fb61>
    23e0:	02b56633          	rem	a2,a0,a1
    23e4:	62c0a023          	sw	a2,1568(ra)

000023e8 <inst_413>:
    23e8:	ffff5537          	lui	a0,0xffff5
    23ec:	afd50513          	addi	a0,a0,-1283 # ffff4afd <_end+0xfffedff9>
    23f0:	0000b5b7          	lui	a1,0xb
    23f4:	50358593          	addi	a1,a1,1283 # b503 <_end+0x49ff>
    23f8:	02b56633          	rem	a2,a0,a1
    23fc:	62c0a223          	sw	a2,1572(ra)

00002400 <inst_414>:
    2400:	ffff5537          	lui	a0,0xffff5
    2404:	afd50513          	addi	a0,a0,-1283 # ffff4afd <_end+0xfffedff9>
    2408:	555555b7          	lui	a1,0x55555
    240c:	55658593          	addi	a1,a1,1366 # 55555556 <_end+0x5554ea52>
    2410:	02b56633          	rem	a2,a0,a1
    2414:	62c0a423          	sw	a2,1576(ra)

00002418 <inst_415>:
    2418:	ffff5537          	lui	a0,0xffff5
    241c:	afd50513          	addi	a0,a0,-1283 # ffff4afd <_end+0xfffedff9>
    2420:	aaaab5b7          	lui	a1,0xaaaab
    2424:	aab58593          	addi	a1,a1,-1365 # aaaaaaab <_end+0xaaaa3fa7>
    2428:	02b56633          	rem	a2,a0,a1
    242c:	62c0a623          	sw	a2,1580(ra)

00002430 <inst_416>:
    2430:	ffff5537          	lui	a0,0xffff5
    2434:	afd50513          	addi	a0,a0,-1283 # ffff4afd <_end+0xfffedff9>
    2438:	00600593          	li	a1,6
    243c:	02b56633          	rem	a2,a0,a1
    2440:	62c0a823          	sw	a2,1584(ra)

00002444 <inst_417>:
    2444:	ffff5537          	lui	a0,0xffff5
    2448:	afd50513          	addi	a0,a0,-1283 # ffff4afd <_end+0xfffedff9>
    244c:	333335b7          	lui	a1,0x33333
    2450:	33458593          	addi	a1,a1,820 # 33333334 <_end+0x3332c830>
    2454:	02b56633          	rem	a2,a0,a1
    2458:	62c0aa23          	sw	a2,1588(ra)

0000245c <inst_418>:
    245c:	ffff5537          	lui	a0,0xffff5
    2460:	afd50513          	addi	a0,a0,-1283 # ffff4afd <_end+0xfffedff9>
    2464:	666665b7          	lui	a1,0x66666
    2468:	66758593          	addi	a1,a1,1639 # 66666667 <_end+0x6665fb63>
    246c:	02b56633          	rem	a2,a0,a1
    2470:	62c0ac23          	sw	a2,1592(ra)

00002474 <inst_419>:
    2474:	ffff5537          	lui	a0,0xffff5
    2478:	afd50513          	addi	a0,a0,-1283 # ffff4afd <_end+0xfffedff9>
    247c:	ffff55b7          	lui	a1,0xffff5
    2480:	afd58593          	addi	a1,a1,-1283 # ffff4afd <_end+0xfffedff9>
    2484:	02b56633          	rem	a2,a0,a1
    2488:	62c0ae23          	sw	a2,1596(ra)

0000248c <inst_420>:
    248c:	ffff5537          	lui	a0,0xffff5
    2490:	afd50513          	addi	a0,a0,-1283 # ffff4afd <_end+0xfffedff9>
    2494:	0000b5b7          	lui	a1,0xb
    2498:	50558593          	addi	a1,a1,1285 # b505 <_end+0x4a01>
    249c:	02b56633          	rem	a2,a0,a1
    24a0:	64c0a023          	sw	a2,1600(ra)

000024a4 <inst_421>:
    24a4:	0000b537          	lui	a0,0xb
    24a8:	50550513          	addi	a0,a0,1285 # b505 <_end+0x4a01>
    24ac:	00300593          	li	a1,3
    24b0:	02b56633          	rem	a2,a0,a1
    24b4:	64c0a223          	sw	a2,1604(ra)

000024b8 <inst_422>:
    24b8:	0000b537          	lui	a0,0xb
    24bc:	50550513          	addi	a0,a0,1285 # b505 <_end+0x4a01>
    24c0:	555555b7          	lui	a1,0x55555
    24c4:	55558593          	addi	a1,a1,1365 # 55555555 <_end+0x5554ea51>
    24c8:	02b56633          	rem	a2,a0,a1
    24cc:	64c0a423          	sw	a2,1608(ra)

000024d0 <inst_423>:
    24d0:	0000b537          	lui	a0,0xb
    24d4:	50550513          	addi	a0,a0,1285 # b505 <_end+0x4a01>
    24d8:	aaaab5b7          	lui	a1,0xaaaab
    24dc:	aaa58593          	addi	a1,a1,-1366 # aaaaaaaa <_end+0xaaaa3fa6>
    24e0:	02b56633          	rem	a2,a0,a1
    24e4:	64c0a623          	sw	a2,1612(ra)

000024e8 <inst_424>:
    24e8:	0000b537          	lui	a0,0xb
    24ec:	50550513          	addi	a0,a0,1285 # b505 <_end+0x4a01>
    24f0:	00500593          	li	a1,5
    24f4:	02b56633          	rem	a2,a0,a1
    24f8:	64c0a823          	sw	a2,1616(ra)

000024fc <inst_425>:
    24fc:	0000b537          	lui	a0,0xb
    2500:	50550513          	addi	a0,a0,1285 # b505 <_end+0x4a01>
    2504:	333335b7          	lui	a1,0x33333
    2508:	33358593          	addi	a1,a1,819 # 33333333 <_end+0x3332c82f>
    250c:	02b56633          	rem	a2,a0,a1
    2510:	64c0aa23          	sw	a2,1620(ra)

00002514 <inst_426>:
    2514:	0000b537          	lui	a0,0xb
    2518:	50550513          	addi	a0,a0,1285 # b505 <_end+0x4a01>
    251c:	666665b7          	lui	a1,0x66666
    2520:	66658593          	addi	a1,a1,1638 # 66666666 <_end+0x6665fb62>
    2524:	02b56633          	rem	a2,a0,a1
    2528:	64c0ac23          	sw	a2,1624(ra)

0000252c <inst_427>:
    252c:	0000b537          	lui	a0,0xb
    2530:	50550513          	addi	a0,a0,1285 # b505 <_end+0x4a01>
    2534:	ffff55b7          	lui	a1,0xffff5
    2538:	afc58593          	addi	a1,a1,-1284 # ffff4afc <_end+0xfffedff8>
    253c:	02b56633          	rem	a2,a0,a1
    2540:	64c0ae23          	sw	a2,1628(ra)

00002544 <inst_428>:
    2544:	0000b537          	lui	a0,0xb
    2548:	50550513          	addi	a0,a0,1285 # b505 <_end+0x4a01>
    254c:	0000b5b7          	lui	a1,0xb
    2550:	50458593          	addi	a1,a1,1284 # b504 <_end+0x4a00>
    2554:	02b56633          	rem	a2,a0,a1
    2558:	66c0a023          	sw	a2,1632(ra)

0000255c <inst_429>:
    255c:	0000b537          	lui	a0,0xb
    2560:	50550513          	addi	a0,a0,1285 # b505 <_end+0x4a01>
    2564:	00200593          	li	a1,2
    2568:	02b56633          	rem	a2,a0,a1
    256c:	66c0a223          	sw	a2,1636(ra)

00002570 <inst_430>:
    2570:	0000b537          	lui	a0,0xb
    2574:	50550513          	addi	a0,a0,1285 # b505 <_end+0x4a01>
    2578:	555555b7          	lui	a1,0x55555
    257c:	55458593          	addi	a1,a1,1364 # 55555554 <_end+0x5554ea50>
    2580:	02b56633          	rem	a2,a0,a1
    2584:	66c0a423          	sw	a2,1640(ra)

00002588 <inst_431>:
    2588:	0000b537          	lui	a0,0xb
    258c:	50550513          	addi	a0,a0,1285 # b505 <_end+0x4a01>
    2590:	00000593          	li	a1,0
    2594:	02b56633          	rem	a2,a0,a1
    2598:	66c0a623          	sw	a2,1644(ra)

0000259c <inst_432>:
    259c:	0000b537          	lui	a0,0xb
    25a0:	50550513          	addi	a0,a0,1285 # b505 <_end+0x4a01>
    25a4:	00400593          	li	a1,4
    25a8:	02b56633          	rem	a2,a0,a1
    25ac:	66c0a823          	sw	a2,1648(ra)

000025b0 <inst_433>:
    25b0:	0000b537          	lui	a0,0xb
    25b4:	50550513          	addi	a0,a0,1285 # b505 <_end+0x4a01>
    25b8:	333335b7          	lui	a1,0x33333
    25bc:	33258593          	addi	a1,a1,818 # 33333332 <_end+0x3332c82e>
    25c0:	02b56633          	rem	a2,a0,a1
    25c4:	66c0aa23          	sw	a2,1652(ra)

000025c8 <inst_434>:
    25c8:	0000b537          	lui	a0,0xb
    25cc:	50550513          	addi	a0,a0,1285 # b505 <_end+0x4a01>
    25d0:	666665b7          	lui	a1,0x66666
    25d4:	66558593          	addi	a1,a1,1637 # 66666665 <_end+0x6665fb61>
    25d8:	02b56633          	rem	a2,a0,a1
    25dc:	66c0ac23          	sw	a2,1656(ra)

000025e0 <inst_435>:
    25e0:	0000b537          	lui	a0,0xb
    25e4:	50550513          	addi	a0,a0,1285 # b505 <_end+0x4a01>
    25e8:	0000b5b7          	lui	a1,0xb
    25ec:	50358593          	addi	a1,a1,1283 # b503 <_end+0x49ff>
    25f0:	02b56633          	rem	a2,a0,a1
    25f4:	66c0ae23          	sw	a2,1660(ra)

000025f8 <inst_436>:
    25f8:	0000b537          	lui	a0,0xb
    25fc:	50550513          	addi	a0,a0,1285 # b505 <_end+0x4a01>
    2600:	555555b7          	lui	a1,0x55555
    2604:	55658593          	addi	a1,a1,1366 # 55555556 <_end+0x5554ea52>
    2608:	02b56633          	rem	a2,a0,a1
    260c:	68c0a023          	sw	a2,1664(ra)

00002610 <inst_437>:
    2610:	0000b537          	lui	a0,0xb
    2614:	50550513          	addi	a0,a0,1285 # b505 <_end+0x4a01>
    2618:	aaaab5b7          	lui	a1,0xaaaab
    261c:	aab58593          	addi	a1,a1,-1365 # aaaaaaab <_end+0xaaaa3fa7>
    2620:	02b56633          	rem	a2,a0,a1
    2624:	68c0a223          	sw	a2,1668(ra)

00002628 <inst_438>:
    2628:	0000b537          	lui	a0,0xb
    262c:	50550513          	addi	a0,a0,1285 # b505 <_end+0x4a01>
    2630:	00600593          	li	a1,6
    2634:	02b56633          	rem	a2,a0,a1
    2638:	68c0a423          	sw	a2,1672(ra)

0000263c <inst_439>:
    263c:	0000b537          	lui	a0,0xb
    2640:	50550513          	addi	a0,a0,1285 # b505 <_end+0x4a01>
    2644:	333335b7          	lui	a1,0x33333
    2648:	33458593          	addi	a1,a1,820 # 33333334 <_end+0x3332c830>
    264c:	02b56633          	rem	a2,a0,a1
    2650:	68c0a623          	sw	a2,1676(ra)

00002654 <inst_440>:
    2654:	0000b537          	lui	a0,0xb
    2658:	50550513          	addi	a0,a0,1285 # b505 <_end+0x4a01>
    265c:	666665b7          	lui	a1,0x66666
    2660:	66758593          	addi	a1,a1,1639 # 66666667 <_end+0x6665fb63>
    2664:	02b56633          	rem	a2,a0,a1
    2668:	68c0a823          	sw	a2,1680(ra)

0000266c <inst_441>:
    266c:	0000b537          	lui	a0,0xb
    2670:	50550513          	addi	a0,a0,1285 # b505 <_end+0x4a01>
    2674:	ffff55b7          	lui	a1,0xffff5
    2678:	afd58593          	addi	a1,a1,-1283 # ffff4afd <_end+0xfffedff9>
    267c:	02b56633          	rem	a2,a0,a1
    2680:	68c0aa23          	sw	a2,1684(ra)

00002684 <inst_442>:
    2684:	0000b537          	lui	a0,0xb
    2688:	50550513          	addi	a0,a0,1285 # b505 <_end+0x4a01>
    268c:	0000b5b7          	lui	a1,0xb
    2690:	50558593          	addi	a1,a1,1285 # b505 <_end+0x4a01>
    2694:	02b56633          	rem	a2,a0,a1
    2698:	68c0ac23          	sw	a2,1688(ra)

0000269c <inst_443>:
    269c:	00000513          	li	a0,0
    26a0:	0000b5b7          	lui	a1,0xb
    26a4:	50458593          	addi	a1,a1,1284 # b504 <_end+0x4a00>
    26a8:	02b56633          	rem	a2,a0,a1
    26ac:	68c0ae23          	sw	a2,1692(ra)

000026b0 <inst_444>:
    26b0:	00000513          	li	a0,0
    26b4:	00200593          	li	a1,2
    26b8:	02b56633          	rem	a2,a0,a1
    26bc:	6ac0a023          	sw	a2,1696(ra)

000026c0 <inst_445>:
    26c0:	00000513          	li	a0,0
    26c4:	555555b7          	lui	a1,0x55555
    26c8:	55458593          	addi	a1,a1,1364 # 55555554 <_end+0x5554ea50>
    26cc:	02b56633          	rem	a2,a0,a1
    26d0:	6ac0a223          	sw	a2,1700(ra)

000026d4 <inst_446>:
    26d4:	00000513          	li	a0,0
    26d8:	00000593          	li	a1,0
    26dc:	02b56633          	rem	a2,a0,a1
    26e0:	6ac0a423          	sw	a2,1704(ra)

000026e4 <inst_447>:
    26e4:	00000513          	li	a0,0
    26e8:	333335b7          	lui	a1,0x33333
    26ec:	33258593          	addi	a1,a1,818 # 33333332 <_end+0x3332c82e>
    26f0:	02b56633          	rem	a2,a0,a1
    26f4:	6ac0a623          	sw	a2,1708(ra)

000026f8 <inst_448>:
    26f8:	00000513          	li	a0,0
    26fc:	666665b7          	lui	a1,0x66666
    2700:	66558593          	addi	a1,a1,1637 # 66666665 <_end+0x6665fb61>
    2704:	02b56633          	rem	a2,a0,a1
    2708:	6ac0a823          	sw	a2,1712(ra)

0000270c <inst_449>:
    270c:	00000513          	li	a0,0
    2710:	0000b5b7          	lui	a1,0xb
    2714:	50358593          	addi	a1,a1,1283 # b503 <_end+0x49ff>
    2718:	02b56633          	rem	a2,a0,a1
    271c:	6ac0aa23          	sw	a2,1716(ra)

00002720 <inst_450>:
    2720:	00000513          	li	a0,0
    2724:	555555b7          	lui	a1,0x55555
    2728:	55658593          	addi	a1,a1,1366 # 55555556 <_end+0x5554ea52>
    272c:	02b56633          	rem	a2,a0,a1
    2730:	6ac0ac23          	sw	a2,1720(ra)

00002734 <inst_451>:
    2734:	00000513          	li	a0,0
    2738:	aaaab5b7          	lui	a1,0xaaaab
    273c:	aab58593          	addi	a1,a1,-1365 # aaaaaaab <_end+0xaaaa3fa7>
    2740:	02b56633          	rem	a2,a0,a1
    2744:	6ac0ae23          	sw	a2,1724(ra)

00002748 <inst_452>:
    2748:	00000513          	li	a0,0
    274c:	00600593          	li	a1,6
    2750:	02b56633          	rem	a2,a0,a1
    2754:	6cc0a023          	sw	a2,1728(ra)

00002758 <inst_453>:
    2758:	00000513          	li	a0,0
    275c:	333335b7          	lui	a1,0x33333
    2760:	33458593          	addi	a1,a1,820 # 33333334 <_end+0x3332c830>
    2764:	02b56633          	rem	a2,a0,a1
    2768:	6cc0a223          	sw	a2,1732(ra)

0000276c <inst_454>:
    276c:	00000513          	li	a0,0
    2770:	666665b7          	lui	a1,0x66666
    2774:	66758593          	addi	a1,a1,1639 # 66666667 <_end+0x6665fb63>
    2778:	02b56633          	rem	a2,a0,a1
    277c:	6cc0a423          	sw	a2,1736(ra)

00002780 <inst_455>:
    2780:	00000513          	li	a0,0
    2784:	ffff55b7          	lui	a1,0xffff5
    2788:	afd58593          	addi	a1,a1,-1283 # ffff4afd <_end+0xfffedff9>
    278c:	02b56633          	rem	a2,a0,a1
    2790:	6cc0a623          	sw	a2,1740(ra)

00002794 <inst_456>:
    2794:	00000513          	li	a0,0
    2798:	0000b5b7          	lui	a1,0xb
    279c:	50558593          	addi	a1,a1,1285 # b505 <_end+0x4a01>
    27a0:	02b56633          	rem	a2,a0,a1
    27a4:	6cc0a823          	sw	a2,1744(ra)

000027a8 <inst_457>:
    27a8:	00400513          	li	a0,4
    27ac:	00300593          	li	a1,3
    27b0:	02b56633          	rem	a2,a0,a1
    27b4:	6cc0aa23          	sw	a2,1748(ra)

000027b8 <inst_458>:
    27b8:	00400513          	li	a0,4
    27bc:	555555b7          	lui	a1,0x55555
    27c0:	55558593          	addi	a1,a1,1365 # 55555555 <_end+0x5554ea51>
    27c4:	02b56633          	rem	a2,a0,a1
    27c8:	6cc0ac23          	sw	a2,1752(ra)

000027cc <inst_459>:
    27cc:	00400513          	li	a0,4
    27d0:	aaaab5b7          	lui	a1,0xaaaab
    27d4:	aaa58593          	addi	a1,a1,-1366 # aaaaaaaa <_end+0xaaaa3fa6>
    27d8:	02b56633          	rem	a2,a0,a1
    27dc:	6cc0ae23          	sw	a2,1756(ra)

000027e0 <inst_460>:
    27e0:	00400513          	li	a0,4
    27e4:	00500593          	li	a1,5
    27e8:	02b56633          	rem	a2,a0,a1
    27ec:	6ec0a023          	sw	a2,1760(ra)

000027f0 <inst_461>:
    27f0:	00400513          	li	a0,4
    27f4:	333335b7          	lui	a1,0x33333
    27f8:	33358593          	addi	a1,a1,819 # 33333333 <_end+0x3332c82f>
    27fc:	02b56633          	rem	a2,a0,a1
    2800:	6ec0a223          	sw	a2,1764(ra)

00002804 <inst_462>:
    2804:	00400513          	li	a0,4
    2808:	666665b7          	lui	a1,0x66666
    280c:	66658593          	addi	a1,a1,1638 # 66666666 <_end+0x6665fb62>
    2810:	02b56633          	rem	a2,a0,a1
    2814:	6ec0a423          	sw	a2,1768(ra)

00002818 <inst_463>:
    2818:	00400513          	li	a0,4
    281c:	ffff55b7          	lui	a1,0xffff5
    2820:	afc58593          	addi	a1,a1,-1284 # ffff4afc <_end+0xfffedff8>
    2824:	02b56633          	rem	a2,a0,a1
    2828:	6ec0a623          	sw	a2,1772(ra)

0000282c <inst_464>:
    282c:	00400513          	li	a0,4
    2830:	0000b5b7          	lui	a1,0xb
    2834:	50458593          	addi	a1,a1,1284 # b504 <_end+0x4a00>
    2838:	02b56633          	rem	a2,a0,a1
    283c:	6ec0a823          	sw	a2,1776(ra)

00002840 <inst_465>:
    2840:	00400513          	li	a0,4
    2844:	00200593          	li	a1,2
    2848:	02b56633          	rem	a2,a0,a1
    284c:	6ec0aa23          	sw	a2,1780(ra)

00002850 <inst_466>:
    2850:	00400513          	li	a0,4
    2854:	555555b7          	lui	a1,0x55555
    2858:	55458593          	addi	a1,a1,1364 # 55555554 <_end+0x5554ea50>
    285c:	02b56633          	rem	a2,a0,a1
    2860:	6ec0ac23          	sw	a2,1784(ra)

00002864 <inst_467>:
    2864:	00400513          	li	a0,4
    2868:	00000593          	li	a1,0
    286c:	02b56633          	rem	a2,a0,a1
    2870:	6ec0ae23          	sw	a2,1788(ra)

00002874 <inst_468>:
    2874:	00400513          	li	a0,4
    2878:	00400593          	li	a1,4
    287c:	02b56633          	rem	a2,a0,a1
    2880:	70c0a023          	sw	a2,1792(ra)

00002884 <inst_469>:
    2884:	00400513          	li	a0,4
    2888:	333335b7          	lui	a1,0x33333
    288c:	33258593          	addi	a1,a1,818 # 33333332 <_end+0x3332c82e>
    2890:	02b56633          	rem	a2,a0,a1
    2894:	70c0a223          	sw	a2,1796(ra)

00002898 <inst_470>:
    2898:	00400513          	li	a0,4
    289c:	666665b7          	lui	a1,0x66666
    28a0:	66558593          	addi	a1,a1,1637 # 66666665 <_end+0x6665fb61>
    28a4:	02b56633          	rem	a2,a0,a1
    28a8:	70c0a423          	sw	a2,1800(ra)

000028ac <inst_471>:
    28ac:	00400513          	li	a0,4
    28b0:	0000b5b7          	lui	a1,0xb
    28b4:	50358593          	addi	a1,a1,1283 # b503 <_end+0x49ff>
    28b8:	02b56633          	rem	a2,a0,a1
    28bc:	70c0a623          	sw	a2,1804(ra)

000028c0 <inst_472>:
    28c0:	00400513          	li	a0,4
    28c4:	555555b7          	lui	a1,0x55555
    28c8:	55658593          	addi	a1,a1,1366 # 55555556 <_end+0x5554ea52>
    28cc:	02b56633          	rem	a2,a0,a1
    28d0:	70c0a823          	sw	a2,1808(ra)

000028d4 <inst_473>:
    28d4:	00400513          	li	a0,4
    28d8:	aaaab5b7          	lui	a1,0xaaaab
    28dc:	aab58593          	addi	a1,a1,-1365 # aaaaaaab <_end+0xaaaa3fa7>
    28e0:	02b56633          	rem	a2,a0,a1
    28e4:	70c0aa23          	sw	a2,1812(ra)

000028e8 <inst_474>:
    28e8:	00400513          	li	a0,4
    28ec:	00600593          	li	a1,6
    28f0:	02b56633          	rem	a2,a0,a1
    28f4:	70c0ac23          	sw	a2,1816(ra)

000028f8 <inst_475>:
    28f8:	00400513          	li	a0,4
    28fc:	333335b7          	lui	a1,0x33333
    2900:	33458593          	addi	a1,a1,820 # 33333334 <_end+0x3332c830>
    2904:	02b56633          	rem	a2,a0,a1
    2908:	70c0ae23          	sw	a2,1820(ra)

0000290c <inst_476>:
    290c:	00400513          	li	a0,4
    2910:	666665b7          	lui	a1,0x66666
    2914:	66758593          	addi	a1,a1,1639 # 66666667 <_end+0x6665fb63>
    2918:	02b56633          	rem	a2,a0,a1
    291c:	72c0a023          	sw	a2,1824(ra)

00002920 <inst_477>:
    2920:	00400513          	li	a0,4
    2924:	ffff55b7          	lui	a1,0xffff5
    2928:	afd58593          	addi	a1,a1,-1283 # ffff4afd <_end+0xfffedff9>
    292c:	02b56633          	rem	a2,a0,a1
    2930:	72c0a223          	sw	a2,1828(ra)

00002934 <inst_478>:
    2934:	00400513          	li	a0,4
    2938:	0000b5b7          	lui	a1,0xb
    293c:	50558593          	addi	a1,a1,1285 # b505 <_end+0x4a01>
    2940:	02b56633          	rem	a2,a0,a1
    2944:	72c0a423          	sw	a2,1832(ra)

00002948 <inst_479>:
    2948:	33333537          	lui	a0,0x33333
    294c:	33250513          	addi	a0,a0,818 # 33333332 <_end+0x3332c82e>
    2950:	00300593          	li	a1,3
    2954:	02b56633          	rem	a2,a0,a1
    2958:	72c0a623          	sw	a2,1836(ra)

0000295c <inst_480>:
    295c:	33333537          	lui	a0,0x33333
    2960:	33250513          	addi	a0,a0,818 # 33333332 <_end+0x3332c82e>
    2964:	555555b7          	lui	a1,0x55555
    2968:	55558593          	addi	a1,a1,1365 # 55555555 <_end+0x5554ea51>
    296c:	02b56633          	rem	a2,a0,a1
    2970:	72c0a823          	sw	a2,1840(ra)

00002974 <inst_481>:
    2974:	33333537          	lui	a0,0x33333
    2978:	33250513          	addi	a0,a0,818 # 33333332 <_end+0x3332c82e>
    297c:	aaaab5b7          	lui	a1,0xaaaab
    2980:	aaa58593          	addi	a1,a1,-1366 # aaaaaaaa <_end+0xaaaa3fa6>
    2984:	02b56633          	rem	a2,a0,a1
    2988:	72c0aa23          	sw	a2,1844(ra)

0000298c <inst_482>:
    298c:	33333537          	lui	a0,0x33333
    2990:	33250513          	addi	a0,a0,818 # 33333332 <_end+0x3332c82e>
    2994:	00500593          	li	a1,5
    2998:	02b56633          	rem	a2,a0,a1
    299c:	72c0ac23          	sw	a2,1848(ra)

000029a0 <inst_483>:
    29a0:	33333537          	lui	a0,0x33333
    29a4:	33250513          	addi	a0,a0,818 # 33333332 <_end+0x3332c82e>
    29a8:	333335b7          	lui	a1,0x33333
    29ac:	33358593          	addi	a1,a1,819 # 33333333 <_end+0x3332c82f>
    29b0:	02b56633          	rem	a2,a0,a1
    29b4:	72c0ae23          	sw	a2,1852(ra)

000029b8 <inst_484>:
    29b8:	33333537          	lui	a0,0x33333
    29bc:	33250513          	addi	a0,a0,818 # 33333332 <_end+0x3332c82e>
    29c0:	666665b7          	lui	a1,0x66666
    29c4:	66658593          	addi	a1,a1,1638 # 66666666 <_end+0x6665fb62>
    29c8:	02b56633          	rem	a2,a0,a1
    29cc:	74c0a023          	sw	a2,1856(ra)

000029d0 <inst_485>:
    29d0:	33333537          	lui	a0,0x33333
    29d4:	33250513          	addi	a0,a0,818 # 33333332 <_end+0x3332c82e>
    29d8:	ffff55b7          	lui	a1,0xffff5
    29dc:	afc58593          	addi	a1,a1,-1284 # ffff4afc <_end+0xfffedff8>
    29e0:	02b56633          	rem	a2,a0,a1
    29e4:	74c0a223          	sw	a2,1860(ra)

000029e8 <inst_486>:
    29e8:	33333537          	lui	a0,0x33333
    29ec:	33250513          	addi	a0,a0,818 # 33333332 <_end+0x3332c82e>
    29f0:	0000b5b7          	lui	a1,0xb
    29f4:	50458593          	addi	a1,a1,1284 # b504 <_end+0x4a00>
    29f8:	02b56633          	rem	a2,a0,a1
    29fc:	74c0a423          	sw	a2,1864(ra)

00002a00 <inst_487>:
    2a00:	33333537          	lui	a0,0x33333
    2a04:	33250513          	addi	a0,a0,818 # 33333332 <_end+0x3332c82e>
    2a08:	00200593          	li	a1,2
    2a0c:	02b56633          	rem	a2,a0,a1
    2a10:	74c0a623          	sw	a2,1868(ra)

00002a14 <inst_488>:
    2a14:	33333537          	lui	a0,0x33333
    2a18:	33250513          	addi	a0,a0,818 # 33333332 <_end+0x3332c82e>
    2a1c:	555555b7          	lui	a1,0x55555
    2a20:	55458593          	addi	a1,a1,1364 # 55555554 <_end+0x5554ea50>
    2a24:	02b56633          	rem	a2,a0,a1
    2a28:	74c0a823          	sw	a2,1872(ra)

00002a2c <inst_489>:
    2a2c:	33333537          	lui	a0,0x33333
    2a30:	33250513          	addi	a0,a0,818 # 33333332 <_end+0x3332c82e>
    2a34:	00000593          	li	a1,0
    2a38:	02b56633          	rem	a2,a0,a1
    2a3c:	74c0aa23          	sw	a2,1876(ra)

00002a40 <inst_490>:
    2a40:	33333537          	lui	a0,0x33333
    2a44:	33250513          	addi	a0,a0,818 # 33333332 <_end+0x3332c82e>
    2a48:	00400593          	li	a1,4
    2a4c:	02b56633          	rem	a2,a0,a1
    2a50:	74c0ac23          	sw	a2,1880(ra)

00002a54 <inst_491>:
    2a54:	33333537          	lui	a0,0x33333
    2a58:	33250513          	addi	a0,a0,818 # 33333332 <_end+0x3332c82e>
    2a5c:	333335b7          	lui	a1,0x33333
    2a60:	33258593          	addi	a1,a1,818 # 33333332 <_end+0x3332c82e>
    2a64:	02b56633          	rem	a2,a0,a1
    2a68:	74c0ae23          	sw	a2,1884(ra)

00002a6c <inst_492>:
    2a6c:	33333537          	lui	a0,0x33333
    2a70:	33250513          	addi	a0,a0,818 # 33333332 <_end+0x3332c82e>
    2a74:	666665b7          	lui	a1,0x66666
    2a78:	66558593          	addi	a1,a1,1637 # 66666665 <_end+0x6665fb61>
    2a7c:	02b56633          	rem	a2,a0,a1
    2a80:	76c0a023          	sw	a2,1888(ra)

00002a84 <inst_493>:
    2a84:	33333537          	lui	a0,0x33333
    2a88:	33250513          	addi	a0,a0,818 # 33333332 <_end+0x3332c82e>
    2a8c:	0000b5b7          	lui	a1,0xb
    2a90:	50358593          	addi	a1,a1,1283 # b503 <_end+0x49ff>
    2a94:	02b56633          	rem	a2,a0,a1
    2a98:	76c0a223          	sw	a2,1892(ra)

00002a9c <inst_494>:
    2a9c:	33333537          	lui	a0,0x33333
    2aa0:	33250513          	addi	a0,a0,818 # 33333332 <_end+0x3332c82e>
    2aa4:	555555b7          	lui	a1,0x55555
    2aa8:	55658593          	addi	a1,a1,1366 # 55555556 <_end+0x5554ea52>
    2aac:	02b56633          	rem	a2,a0,a1
    2ab0:	76c0a423          	sw	a2,1896(ra)

00002ab4 <inst_495>:
    2ab4:	33333537          	lui	a0,0x33333
    2ab8:	33250513          	addi	a0,a0,818 # 33333332 <_end+0x3332c82e>
    2abc:	aaaab5b7          	lui	a1,0xaaaab
    2ac0:	aab58593          	addi	a1,a1,-1365 # aaaaaaab <_end+0xaaaa3fa7>
    2ac4:	02b56633          	rem	a2,a0,a1
    2ac8:	76c0a623          	sw	a2,1900(ra)

00002acc <inst_496>:
    2acc:	33333537          	lui	a0,0x33333
    2ad0:	33250513          	addi	a0,a0,818 # 33333332 <_end+0x3332c82e>
    2ad4:	00600593          	li	a1,6
    2ad8:	02b56633          	rem	a2,a0,a1
    2adc:	76c0a823          	sw	a2,1904(ra)

00002ae0 <inst_497>:
    2ae0:	33333537          	lui	a0,0x33333
    2ae4:	33250513          	addi	a0,a0,818 # 33333332 <_end+0x3332c82e>
    2ae8:	333335b7          	lui	a1,0x33333
    2aec:	33458593          	addi	a1,a1,820 # 33333334 <_end+0x3332c830>
    2af0:	02b56633          	rem	a2,a0,a1
    2af4:	76c0aa23          	sw	a2,1908(ra)

00002af8 <inst_498>:
    2af8:	33333537          	lui	a0,0x33333
    2afc:	33250513          	addi	a0,a0,818 # 33333332 <_end+0x3332c82e>
    2b00:	666665b7          	lui	a1,0x66666
    2b04:	66758593          	addi	a1,a1,1639 # 66666667 <_end+0x6665fb63>
    2b08:	02b56633          	rem	a2,a0,a1
    2b0c:	76c0ac23          	sw	a2,1912(ra)

00002b10 <inst_499>:
    2b10:	33333537          	lui	a0,0x33333
    2b14:	33250513          	addi	a0,a0,818 # 33333332 <_end+0x3332c82e>
    2b18:	ffff55b7          	lui	a1,0xffff5
    2b1c:	afd58593          	addi	a1,a1,-1283 # ffff4afd <_end+0xfffedff9>
    2b20:	02b56633          	rem	a2,a0,a1
    2b24:	76c0ae23          	sw	a2,1916(ra)

00002b28 <inst_500>:
    2b28:	33333537          	lui	a0,0x33333
    2b2c:	33250513          	addi	a0,a0,818 # 33333332 <_end+0x3332c82e>
    2b30:	0000b5b7          	lui	a1,0xb
    2b34:	50558593          	addi	a1,a1,1285 # b505 <_end+0x4a01>
    2b38:	02b56633          	rem	a2,a0,a1
    2b3c:	78c0a023          	sw	a2,1920(ra)

00002b40 <inst_501>:
    2b40:	66666537          	lui	a0,0x66666
    2b44:	66550513          	addi	a0,a0,1637 # 66666665 <_end+0x6665fb61>
    2b48:	00300593          	li	a1,3
    2b4c:	02b56633          	rem	a2,a0,a1
    2b50:	78c0a223          	sw	a2,1924(ra)

00002b54 <inst_502>:
    2b54:	66666537          	lui	a0,0x66666
    2b58:	66550513          	addi	a0,a0,1637 # 66666665 <_end+0x6665fb61>
    2b5c:	555555b7          	lui	a1,0x55555
    2b60:	55558593          	addi	a1,a1,1365 # 55555555 <_end+0x5554ea51>
    2b64:	02b56633          	rem	a2,a0,a1
    2b68:	78c0a423          	sw	a2,1928(ra)

00002b6c <inst_503>:
    2b6c:	66666537          	lui	a0,0x66666
    2b70:	66550513          	addi	a0,a0,1637 # 66666665 <_end+0x6665fb61>
    2b74:	aaaab5b7          	lui	a1,0xaaaab
    2b78:	aaa58593          	addi	a1,a1,-1366 # aaaaaaaa <_end+0xaaaa3fa6>
    2b7c:	02b56633          	rem	a2,a0,a1
    2b80:	78c0a623          	sw	a2,1932(ra)

00002b84 <inst_504>:
    2b84:	66666537          	lui	a0,0x66666
    2b88:	66550513          	addi	a0,a0,1637 # 66666665 <_end+0x6665fb61>
    2b8c:	00500593          	li	a1,5
    2b90:	02b56633          	rem	a2,a0,a1
    2b94:	78c0a823          	sw	a2,1936(ra)

00002b98 <inst_505>:
    2b98:	66666537          	lui	a0,0x66666
    2b9c:	66550513          	addi	a0,a0,1637 # 66666665 <_end+0x6665fb61>
    2ba0:	333335b7          	lui	a1,0x33333
    2ba4:	33358593          	addi	a1,a1,819 # 33333333 <_end+0x3332c82f>
    2ba8:	02b56633          	rem	a2,a0,a1
    2bac:	78c0aa23          	sw	a2,1940(ra)

00002bb0 <inst_506>:
    2bb0:	66666537          	lui	a0,0x66666
    2bb4:	66550513          	addi	a0,a0,1637 # 66666665 <_end+0x6665fb61>
    2bb8:	666665b7          	lui	a1,0x66666
    2bbc:	66658593          	addi	a1,a1,1638 # 66666666 <_end+0x6665fb62>
    2bc0:	02b56633          	rem	a2,a0,a1
    2bc4:	78c0ac23          	sw	a2,1944(ra)

00002bc8 <inst_507>:
    2bc8:	66666537          	lui	a0,0x66666
    2bcc:	66550513          	addi	a0,a0,1637 # 66666665 <_end+0x6665fb61>
    2bd0:	ffff55b7          	lui	a1,0xffff5
    2bd4:	afc58593          	addi	a1,a1,-1284 # ffff4afc <_end+0xfffedff8>
    2bd8:	02b56633          	rem	a2,a0,a1
    2bdc:	78c0ae23          	sw	a2,1948(ra)

00002be0 <inst_508>:
    2be0:	66666537          	lui	a0,0x66666
    2be4:	66550513          	addi	a0,a0,1637 # 66666665 <_end+0x6665fb61>
    2be8:	0000b5b7          	lui	a1,0xb
    2bec:	50458593          	addi	a1,a1,1284 # b504 <_end+0x4a00>
    2bf0:	02b56633          	rem	a2,a0,a1
    2bf4:	7ac0a023          	sw	a2,1952(ra)

00002bf8 <inst_509>:
    2bf8:	66666537          	lui	a0,0x66666
    2bfc:	66550513          	addi	a0,a0,1637 # 66666665 <_end+0x6665fb61>
    2c00:	00200593          	li	a1,2
    2c04:	02b56633          	rem	a2,a0,a1
    2c08:	7ac0a223          	sw	a2,1956(ra)

00002c0c <inst_510>:
    2c0c:	66666537          	lui	a0,0x66666
    2c10:	66550513          	addi	a0,a0,1637 # 66666665 <_end+0x6665fb61>
    2c14:	555555b7          	lui	a1,0x55555
    2c18:	55458593          	addi	a1,a1,1364 # 55555554 <_end+0x5554ea50>
    2c1c:	02b56633          	rem	a2,a0,a1
    2c20:	7ac0a423          	sw	a2,1960(ra)

00002c24 <inst_511>:
    2c24:	66666537          	lui	a0,0x66666
    2c28:	66550513          	addi	a0,a0,1637 # 66666665 <_end+0x6665fb61>
    2c2c:	00000593          	li	a1,0
    2c30:	02b56633          	rem	a2,a0,a1
    2c34:	7ac0a623          	sw	a2,1964(ra)

00002c38 <inst_512>:
    2c38:	66666537          	lui	a0,0x66666
    2c3c:	66550513          	addi	a0,a0,1637 # 66666665 <_end+0x6665fb61>
    2c40:	00400593          	li	a1,4
    2c44:	02b56633          	rem	a2,a0,a1
    2c48:	7ac0a823          	sw	a2,1968(ra)

00002c4c <inst_513>:
    2c4c:	66666537          	lui	a0,0x66666
    2c50:	66550513          	addi	a0,a0,1637 # 66666665 <_end+0x6665fb61>
    2c54:	333335b7          	lui	a1,0x33333
    2c58:	33258593          	addi	a1,a1,818 # 33333332 <_end+0x3332c82e>
    2c5c:	02b56633          	rem	a2,a0,a1
    2c60:	7ac0aa23          	sw	a2,1972(ra)

00002c64 <inst_514>:
    2c64:	66666537          	lui	a0,0x66666
    2c68:	66550513          	addi	a0,a0,1637 # 66666665 <_end+0x6665fb61>
    2c6c:	666665b7          	lui	a1,0x66666
    2c70:	66558593          	addi	a1,a1,1637 # 66666665 <_end+0x6665fb61>
    2c74:	02b56633          	rem	a2,a0,a1
    2c78:	7ac0ac23          	sw	a2,1976(ra)

00002c7c <inst_515>:
    2c7c:	66666537          	lui	a0,0x66666
    2c80:	66550513          	addi	a0,a0,1637 # 66666665 <_end+0x6665fb61>
    2c84:	0000b5b7          	lui	a1,0xb
    2c88:	50358593          	addi	a1,a1,1283 # b503 <_end+0x49ff>
    2c8c:	02b56633          	rem	a2,a0,a1
    2c90:	7ac0ae23          	sw	a2,1980(ra)

00002c94 <inst_516>:
    2c94:	66666537          	lui	a0,0x66666
    2c98:	66550513          	addi	a0,a0,1637 # 66666665 <_end+0x6665fb61>
    2c9c:	555555b7          	lui	a1,0x55555
    2ca0:	55658593          	addi	a1,a1,1366 # 55555556 <_end+0x5554ea52>
    2ca4:	02b56633          	rem	a2,a0,a1
    2ca8:	7cc0a023          	sw	a2,1984(ra)

00002cac <inst_517>:
    2cac:	66666537          	lui	a0,0x66666
    2cb0:	66550513          	addi	a0,a0,1637 # 66666665 <_end+0x6665fb61>
    2cb4:	aaaab5b7          	lui	a1,0xaaaab
    2cb8:	aab58593          	addi	a1,a1,-1365 # aaaaaaab <_end+0xaaaa3fa7>
    2cbc:	02b56633          	rem	a2,a0,a1
    2cc0:	7cc0a223          	sw	a2,1988(ra)

00002cc4 <inst_518>:
    2cc4:	66666537          	lui	a0,0x66666
    2cc8:	66550513          	addi	a0,a0,1637 # 66666665 <_end+0x6665fb61>
    2ccc:	00600593          	li	a1,6
    2cd0:	02b56633          	rem	a2,a0,a1
    2cd4:	7cc0a423          	sw	a2,1992(ra)

00002cd8 <inst_519>:
    2cd8:	66666537          	lui	a0,0x66666
    2cdc:	66550513          	addi	a0,a0,1637 # 66666665 <_end+0x6665fb61>
    2ce0:	333335b7          	lui	a1,0x33333
    2ce4:	33458593          	addi	a1,a1,820 # 33333334 <_end+0x3332c830>
    2ce8:	02b56633          	rem	a2,a0,a1
    2cec:	7cc0a623          	sw	a2,1996(ra)

00002cf0 <inst_520>:
    2cf0:	66666537          	lui	a0,0x66666
    2cf4:	66550513          	addi	a0,a0,1637 # 66666665 <_end+0x6665fb61>
    2cf8:	666665b7          	lui	a1,0x66666
    2cfc:	66758593          	addi	a1,a1,1639 # 66666667 <_end+0x6665fb63>
    2d00:	02b56633          	rem	a2,a0,a1
    2d04:	7cc0a823          	sw	a2,2000(ra)

00002d08 <inst_521>:
    2d08:	66666537          	lui	a0,0x66666
    2d0c:	66550513          	addi	a0,a0,1637 # 66666665 <_end+0x6665fb61>
    2d10:	ffff55b7          	lui	a1,0xffff5
    2d14:	afd58593          	addi	a1,a1,-1283 # ffff4afd <_end+0xfffedff9>
    2d18:	02b56633          	rem	a2,a0,a1
    2d1c:	7cc0aa23          	sw	a2,2004(ra)

00002d20 <inst_522>:
    2d20:	66666537          	lui	a0,0x66666
    2d24:	66550513          	addi	a0,a0,1637 # 66666665 <_end+0x6665fb61>
    2d28:	0000b5b7          	lui	a1,0xb
    2d2c:	50558593          	addi	a1,a1,1285 # b505 <_end+0x4a01>
    2d30:	02b56633          	rem	a2,a0,a1
    2d34:	7cc0ac23          	sw	a2,2008(ra)

00002d38 <inst_523>:
    2d38:	0000b537          	lui	a0,0xb
    2d3c:	50350513          	addi	a0,a0,1283 # b503 <_end+0x49ff>
    2d40:	00300593          	li	a1,3
    2d44:	02b56633          	rem	a2,a0,a1
    2d48:	7cc0ae23          	sw	a2,2012(ra)

00002d4c <inst_524>:
    2d4c:	0000b537          	lui	a0,0xb
    2d50:	50350513          	addi	a0,a0,1283 # b503 <_end+0x49ff>
    2d54:	555555b7          	lui	a1,0x55555
    2d58:	55558593          	addi	a1,a1,1365 # 55555555 <_end+0x5554ea51>
    2d5c:	02b56633          	rem	a2,a0,a1
    2d60:	7ec0a023          	sw	a2,2016(ra)

00002d64 <inst_525>:
    2d64:	0000b537          	lui	a0,0xb
    2d68:	50350513          	addi	a0,a0,1283 # b503 <_end+0x49ff>
    2d6c:	aaaab5b7          	lui	a1,0xaaaab
    2d70:	aaa58593          	addi	a1,a1,-1366 # aaaaaaaa <_end+0xaaaa3fa6>
    2d74:	02b56633          	rem	a2,a0,a1
    2d78:	7ec0a223          	sw	a2,2020(ra)

00002d7c <inst_526>:
    2d7c:	0000b537          	lui	a0,0xb
    2d80:	50350513          	addi	a0,a0,1283 # b503 <_end+0x49ff>
    2d84:	00500593          	li	a1,5
    2d88:	02b56633          	rem	a2,a0,a1
    2d8c:	7ec0a423          	sw	a2,2024(ra)

00002d90 <inst_527>:
    2d90:	0000b537          	lui	a0,0xb
    2d94:	50350513          	addi	a0,a0,1283 # b503 <_end+0x49ff>
    2d98:	333335b7          	lui	a1,0x33333
    2d9c:	33358593          	addi	a1,a1,819 # 33333333 <_end+0x3332c82f>
    2da0:	02b56633          	rem	a2,a0,a1
    2da4:	7ec0a623          	sw	a2,2028(ra)

00002da8 <inst_528>:
    2da8:	0000b537          	lui	a0,0xb
    2dac:	50350513          	addi	a0,a0,1283 # b503 <_end+0x49ff>
    2db0:	666665b7          	lui	a1,0x66666
    2db4:	66658593          	addi	a1,a1,1638 # 66666666 <_end+0x6665fb62>
    2db8:	02b56633          	rem	a2,a0,a1
    2dbc:	7ec0a823          	sw	a2,2032(ra)

00002dc0 <inst_529>:
    2dc0:	0000b537          	lui	a0,0xb
    2dc4:	50350513          	addi	a0,a0,1283 # b503 <_end+0x49ff>
    2dc8:	ffff55b7          	lui	a1,0xffff5
    2dcc:	afc58593          	addi	a1,a1,-1284 # ffff4afc <_end+0xfffedff8>
    2dd0:	02b56633          	rem	a2,a0,a1
    2dd4:	7ec0aa23          	sw	a2,2036(ra)

00002dd8 <inst_530>:
    2dd8:	0000b537          	lui	a0,0xb
    2ddc:	50350513          	addi	a0,a0,1283 # b503 <_end+0x49ff>
    2de0:	0000b5b7          	lui	a1,0xb
    2de4:	50458593          	addi	a1,a1,1284 # b504 <_end+0x4a00>
    2de8:	02b56633          	rem	a2,a0,a1
    2dec:	7ec0ac23          	sw	a2,2040(ra)

00002df0 <inst_531>:
    2df0:	0000b537          	lui	a0,0xb
    2df4:	50350513          	addi	a0,a0,1283 # b503 <_end+0x49ff>
    2df8:	00200593          	li	a1,2
    2dfc:	02b56633          	rem	a2,a0,a1
    2e00:	7ec0ae23          	sw	a2,2044(ra)
    2e04:	00004097          	auipc	ra,0x4
    2e08:	a4c08093          	addi	ra,ra,-1460 # 6850 <signature_x1_1>

00002e0c <inst_532>:
    2e0c:	0000b537          	lui	a0,0xb
    2e10:	50350513          	addi	a0,a0,1283 # b503 <_end+0x49ff>
    2e14:	555555b7          	lui	a1,0x55555
    2e18:	55458593          	addi	a1,a1,1364 # 55555554 <_end+0x5554ea50>
    2e1c:	02b56633          	rem	a2,a0,a1
    2e20:	00c0a023          	sw	a2,0(ra)

00002e24 <inst_533>:
    2e24:	0000b537          	lui	a0,0xb
    2e28:	50350513          	addi	a0,a0,1283 # b503 <_end+0x49ff>
    2e2c:	00000593          	li	a1,0
    2e30:	02b56633          	rem	a2,a0,a1
    2e34:	00c0a223          	sw	a2,4(ra)

00002e38 <inst_534>:
    2e38:	0000b537          	lui	a0,0xb
    2e3c:	50350513          	addi	a0,a0,1283 # b503 <_end+0x49ff>
    2e40:	00400593          	li	a1,4
    2e44:	02b56633          	rem	a2,a0,a1
    2e48:	00c0a423          	sw	a2,8(ra)

00002e4c <inst_535>:
    2e4c:	0000b537          	lui	a0,0xb
    2e50:	50350513          	addi	a0,a0,1283 # b503 <_end+0x49ff>
    2e54:	333335b7          	lui	a1,0x33333
    2e58:	33258593          	addi	a1,a1,818 # 33333332 <_end+0x3332c82e>
    2e5c:	02b56633          	rem	a2,a0,a1
    2e60:	00c0a623          	sw	a2,12(ra)

00002e64 <inst_536>:
    2e64:	0000b537          	lui	a0,0xb
    2e68:	50350513          	addi	a0,a0,1283 # b503 <_end+0x49ff>
    2e6c:	666665b7          	lui	a1,0x66666
    2e70:	66558593          	addi	a1,a1,1637 # 66666665 <_end+0x6665fb61>
    2e74:	02b56633          	rem	a2,a0,a1
    2e78:	00c0a823          	sw	a2,16(ra)

00002e7c <inst_537>:
    2e7c:	0000b537          	lui	a0,0xb
    2e80:	50350513          	addi	a0,a0,1283 # b503 <_end+0x49ff>
    2e84:	0000b5b7          	lui	a1,0xb
    2e88:	50358593          	addi	a1,a1,1283 # b503 <_end+0x49ff>
    2e8c:	02b56633          	rem	a2,a0,a1
    2e90:	00c0aa23          	sw	a2,20(ra)

00002e94 <inst_538>:
    2e94:	0000b537          	lui	a0,0xb
    2e98:	50350513          	addi	a0,a0,1283 # b503 <_end+0x49ff>
    2e9c:	555555b7          	lui	a1,0x55555
    2ea0:	55658593          	addi	a1,a1,1366 # 55555556 <_end+0x5554ea52>
    2ea4:	02b56633          	rem	a2,a0,a1
    2ea8:	00c0ac23          	sw	a2,24(ra)

00002eac <inst_539>:
    2eac:	0000b537          	lui	a0,0xb
    2eb0:	50350513          	addi	a0,a0,1283 # b503 <_end+0x49ff>
    2eb4:	aaaab5b7          	lui	a1,0xaaaab
    2eb8:	aab58593          	addi	a1,a1,-1365 # aaaaaaab <_end+0xaaaa3fa7>
    2ebc:	02b56633          	rem	a2,a0,a1
    2ec0:	00c0ae23          	sw	a2,28(ra)

00002ec4 <inst_540>:
    2ec4:	0000b537          	lui	a0,0xb
    2ec8:	50350513          	addi	a0,a0,1283 # b503 <_end+0x49ff>
    2ecc:	00600593          	li	a1,6
    2ed0:	02b56633          	rem	a2,a0,a1
    2ed4:	02c0a023          	sw	a2,32(ra)

00002ed8 <inst_541>:
    2ed8:	0000b537          	lui	a0,0xb
    2edc:	50350513          	addi	a0,a0,1283 # b503 <_end+0x49ff>
    2ee0:	333335b7          	lui	a1,0x33333
    2ee4:	33458593          	addi	a1,a1,820 # 33333334 <_end+0x3332c830>
    2ee8:	02b56633          	rem	a2,a0,a1
    2eec:	02c0a223          	sw	a2,36(ra)

00002ef0 <inst_542>:
    2ef0:	0000b537          	lui	a0,0xb
    2ef4:	50350513          	addi	a0,a0,1283 # b503 <_end+0x49ff>
    2ef8:	666665b7          	lui	a1,0x66666
    2efc:	66758593          	addi	a1,a1,1639 # 66666667 <_end+0x6665fb63>
    2f00:	02b56633          	rem	a2,a0,a1
    2f04:	02c0a423          	sw	a2,40(ra)

00002f08 <inst_543>:
    2f08:	0000b537          	lui	a0,0xb
    2f0c:	50350513          	addi	a0,a0,1283 # b503 <_end+0x49ff>
    2f10:	ffff55b7          	lui	a1,0xffff5
    2f14:	afd58593          	addi	a1,a1,-1283 # ffff4afd <_end+0xfffedff9>
    2f18:	02b56633          	rem	a2,a0,a1
    2f1c:	02c0a623          	sw	a2,44(ra)

00002f20 <inst_544>:
    2f20:	0000b537          	lui	a0,0xb
    2f24:	50350513          	addi	a0,a0,1283 # b503 <_end+0x49ff>
    2f28:	0000b5b7          	lui	a1,0xb
    2f2c:	50558593          	addi	a1,a1,1285 # b505 <_end+0x4a01>
    2f30:	02b56633          	rem	a2,a0,a1
    2f34:	02c0a823          	sw	a2,48(ra)

00002f38 <inst_545>:
    2f38:	55555537          	lui	a0,0x55555
    2f3c:	55650513          	addi	a0,a0,1366 # 55555556 <_end+0x5554ea52>
    2f40:	00300593          	li	a1,3
    2f44:	02b56633          	rem	a2,a0,a1
    2f48:	02c0aa23          	sw	a2,52(ra)

00002f4c <inst_546>:
    2f4c:	55555537          	lui	a0,0x55555
    2f50:	55650513          	addi	a0,a0,1366 # 55555556 <_end+0x5554ea52>
    2f54:	555555b7          	lui	a1,0x55555
    2f58:	55558593          	addi	a1,a1,1365 # 55555555 <_end+0x5554ea51>
    2f5c:	02b56633          	rem	a2,a0,a1
    2f60:	02c0ac23          	sw	a2,56(ra)

00002f64 <inst_547>:
    2f64:	55555537          	lui	a0,0x55555
    2f68:	55650513          	addi	a0,a0,1366 # 55555556 <_end+0x5554ea52>
    2f6c:	aaaab5b7          	lui	a1,0xaaaab
    2f70:	aaa58593          	addi	a1,a1,-1366 # aaaaaaaa <_end+0xaaaa3fa6>
    2f74:	02b56633          	rem	a2,a0,a1
    2f78:	02c0ae23          	sw	a2,60(ra)

00002f7c <inst_548>:
    2f7c:	55555537          	lui	a0,0x55555
    2f80:	55650513          	addi	a0,a0,1366 # 55555556 <_end+0x5554ea52>
    2f84:	00500593          	li	a1,5
    2f88:	02b56633          	rem	a2,a0,a1
    2f8c:	04c0a023          	sw	a2,64(ra)

00002f90 <inst_549>:
    2f90:	55555537          	lui	a0,0x55555
    2f94:	55650513          	addi	a0,a0,1366 # 55555556 <_end+0x5554ea52>
    2f98:	333335b7          	lui	a1,0x33333
    2f9c:	33358593          	addi	a1,a1,819 # 33333333 <_end+0x3332c82f>
    2fa0:	02b56633          	rem	a2,a0,a1
    2fa4:	04c0a223          	sw	a2,68(ra)

00002fa8 <inst_550>:
    2fa8:	55555537          	lui	a0,0x55555
    2fac:	55650513          	addi	a0,a0,1366 # 55555556 <_end+0x5554ea52>
    2fb0:	666665b7          	lui	a1,0x66666
    2fb4:	66658593          	addi	a1,a1,1638 # 66666666 <_end+0x6665fb62>
    2fb8:	02b56633          	rem	a2,a0,a1
    2fbc:	04c0a423          	sw	a2,72(ra)

00002fc0 <inst_551>:
    2fc0:	55555537          	lui	a0,0x55555
    2fc4:	55650513          	addi	a0,a0,1366 # 55555556 <_end+0x5554ea52>
    2fc8:	ffff55b7          	lui	a1,0xffff5
    2fcc:	afc58593          	addi	a1,a1,-1284 # ffff4afc <_end+0xfffedff8>
    2fd0:	02b56633          	rem	a2,a0,a1
    2fd4:	04c0a623          	sw	a2,76(ra)

00002fd8 <inst_552>:
    2fd8:	55555537          	lui	a0,0x55555
    2fdc:	55650513          	addi	a0,a0,1366 # 55555556 <_end+0x5554ea52>
    2fe0:	0000b5b7          	lui	a1,0xb
    2fe4:	50458593          	addi	a1,a1,1284 # b504 <_end+0x4a00>
    2fe8:	02b56633          	rem	a2,a0,a1
    2fec:	04c0a823          	sw	a2,80(ra)

00002ff0 <inst_553>:
    2ff0:	55555537          	lui	a0,0x55555
    2ff4:	55650513          	addi	a0,a0,1366 # 55555556 <_end+0x5554ea52>
    2ff8:	555555b7          	lui	a1,0x55555
    2ffc:	55458593          	addi	a1,a1,1364 # 55555554 <_end+0x5554ea50>
    3000:	02b56633          	rem	a2,a0,a1
    3004:	04c0aa23          	sw	a2,84(ra)

00003008 <inst_554>:
    3008:	55555537          	lui	a0,0x55555
    300c:	55650513          	addi	a0,a0,1366 # 55555556 <_end+0x5554ea52>
    3010:	00000593          	li	a1,0
    3014:	02b56633          	rem	a2,a0,a1
    3018:	04c0ac23          	sw	a2,88(ra)

0000301c <inst_555>:
    301c:	55555537          	lui	a0,0x55555
    3020:	55650513          	addi	a0,a0,1366 # 55555556 <_end+0x5554ea52>
    3024:	00400593          	li	a1,4
    3028:	02b56633          	rem	a2,a0,a1
    302c:	04c0ae23          	sw	a2,92(ra)

00003030 <inst_556>:
    3030:	55555537          	lui	a0,0x55555
    3034:	55650513          	addi	a0,a0,1366 # 55555556 <_end+0x5554ea52>
    3038:	333335b7          	lui	a1,0x33333
    303c:	33258593          	addi	a1,a1,818 # 33333332 <_end+0x3332c82e>
    3040:	02b56633          	rem	a2,a0,a1
    3044:	06c0a023          	sw	a2,96(ra)

00003048 <inst_557>:
    3048:	55555537          	lui	a0,0x55555
    304c:	55650513          	addi	a0,a0,1366 # 55555556 <_end+0x5554ea52>
    3050:	666665b7          	lui	a1,0x66666
    3054:	66558593          	addi	a1,a1,1637 # 66666665 <_end+0x6665fb61>
    3058:	02b56633          	rem	a2,a0,a1
    305c:	06c0a223          	sw	a2,100(ra)

00003060 <inst_558>:
    3060:	55555537          	lui	a0,0x55555
    3064:	55650513          	addi	a0,a0,1366 # 55555556 <_end+0x5554ea52>
    3068:	0000b5b7          	lui	a1,0xb
    306c:	50358593          	addi	a1,a1,1283 # b503 <_end+0x49ff>
    3070:	02b56633          	rem	a2,a0,a1
    3074:	06c0a423          	sw	a2,104(ra)

00003078 <inst_559>:
    3078:	55555537          	lui	a0,0x55555
    307c:	55650513          	addi	a0,a0,1366 # 55555556 <_end+0x5554ea52>
    3080:	555555b7          	lui	a1,0x55555
    3084:	55658593          	addi	a1,a1,1366 # 55555556 <_end+0x5554ea52>
    3088:	02b56633          	rem	a2,a0,a1
    308c:	06c0a623          	sw	a2,108(ra)

00003090 <inst_560>:
    3090:	55555537          	lui	a0,0x55555
    3094:	55650513          	addi	a0,a0,1366 # 55555556 <_end+0x5554ea52>
    3098:	aaaab5b7          	lui	a1,0xaaaab
    309c:	aab58593          	addi	a1,a1,-1365 # aaaaaaab <_end+0xaaaa3fa7>
    30a0:	02b56633          	rem	a2,a0,a1
    30a4:	06c0a823          	sw	a2,112(ra)

000030a8 <inst_561>:
    30a8:	55555537          	lui	a0,0x55555
    30ac:	55650513          	addi	a0,a0,1366 # 55555556 <_end+0x5554ea52>
    30b0:	00600593          	li	a1,6
    30b4:	02b56633          	rem	a2,a0,a1
    30b8:	06c0aa23          	sw	a2,116(ra)

000030bc <inst_562>:
    30bc:	55555537          	lui	a0,0x55555
    30c0:	55650513          	addi	a0,a0,1366 # 55555556 <_end+0x5554ea52>
    30c4:	333335b7          	lui	a1,0x33333
    30c8:	33458593          	addi	a1,a1,820 # 33333334 <_end+0x3332c830>
    30cc:	02b56633          	rem	a2,a0,a1
    30d0:	06c0ac23          	sw	a2,120(ra)

000030d4 <inst_563>:
    30d4:	55555537          	lui	a0,0x55555
    30d8:	55650513          	addi	a0,a0,1366 # 55555556 <_end+0x5554ea52>
    30dc:	666665b7          	lui	a1,0x66666
    30e0:	66758593          	addi	a1,a1,1639 # 66666667 <_end+0x6665fb63>
    30e4:	02b56633          	rem	a2,a0,a1
    30e8:	06c0ae23          	sw	a2,124(ra)

000030ec <inst_564>:
    30ec:	55555537          	lui	a0,0x55555
    30f0:	55650513          	addi	a0,a0,1366 # 55555556 <_end+0x5554ea52>
    30f4:	ffff55b7          	lui	a1,0xffff5
    30f8:	afd58593          	addi	a1,a1,-1283 # ffff4afd <_end+0xfffedff9>
    30fc:	02b56633          	rem	a2,a0,a1
    3100:	08c0a023          	sw	a2,128(ra)

00003104 <inst_565>:
    3104:	55555537          	lui	a0,0x55555
    3108:	55650513          	addi	a0,a0,1366 # 55555556 <_end+0x5554ea52>
    310c:	0000b5b7          	lui	a1,0xb
    3110:	50558593          	addi	a1,a1,1285 # b505 <_end+0x4a01>
    3114:	02b56633          	rem	a2,a0,a1
    3118:	08c0a223          	sw	a2,132(ra)

0000311c <inst_566>:
    311c:	aaaab537          	lui	a0,0xaaaab
    3120:	aab50513          	addi	a0,a0,-1365 # aaaaaaab <_end+0xaaaa3fa7>
    3124:	00300593          	li	a1,3
    3128:	02b56633          	rem	a2,a0,a1
    312c:	08c0a423          	sw	a2,136(ra)

00003130 <inst_567>:
    3130:	aaaab537          	lui	a0,0xaaaab
    3134:	aab50513          	addi	a0,a0,-1365 # aaaaaaab <_end+0xaaaa3fa7>
    3138:	555555b7          	lui	a1,0x55555
    313c:	55558593          	addi	a1,a1,1365 # 55555555 <_end+0x5554ea51>
    3140:	02b56633          	rem	a2,a0,a1
    3144:	08c0a623          	sw	a2,140(ra)

00003148 <inst_568>:
    3148:	aaaab537          	lui	a0,0xaaaab
    314c:	aab50513          	addi	a0,a0,-1365 # aaaaaaab <_end+0xaaaa3fa7>
    3150:	aaaab5b7          	lui	a1,0xaaaab
    3154:	aaa58593          	addi	a1,a1,-1366 # aaaaaaaa <_end+0xaaaa3fa6>
    3158:	02b56633          	rem	a2,a0,a1
    315c:	08c0a823          	sw	a2,144(ra)

00003160 <inst_569>:
    3160:	aaaab537          	lui	a0,0xaaaab
    3164:	aab50513          	addi	a0,a0,-1365 # aaaaaaab <_end+0xaaaa3fa7>
    3168:	00500593          	li	a1,5
    316c:	02b56633          	rem	a2,a0,a1
    3170:	08c0aa23          	sw	a2,148(ra)

00003174 <inst_570>:
    3174:	aaaab537          	lui	a0,0xaaaab
    3178:	aab50513          	addi	a0,a0,-1365 # aaaaaaab <_end+0xaaaa3fa7>
    317c:	333335b7          	lui	a1,0x33333
    3180:	33358593          	addi	a1,a1,819 # 33333333 <_end+0x3332c82f>
    3184:	02b56633          	rem	a2,a0,a1
    3188:	08c0ac23          	sw	a2,152(ra)

0000318c <inst_571>:
    318c:	aaaab537          	lui	a0,0xaaaab
    3190:	aab50513          	addi	a0,a0,-1365 # aaaaaaab <_end+0xaaaa3fa7>
    3194:	666665b7          	lui	a1,0x66666
    3198:	66658593          	addi	a1,a1,1638 # 66666666 <_end+0x6665fb62>
    319c:	02b56633          	rem	a2,a0,a1
    31a0:	08c0ae23          	sw	a2,156(ra)

000031a4 <inst_572>:
    31a4:	aaaab537          	lui	a0,0xaaaab
    31a8:	aab50513          	addi	a0,a0,-1365 # aaaaaaab <_end+0xaaaa3fa7>
    31ac:	ffff55b7          	lui	a1,0xffff5
    31b0:	afc58593          	addi	a1,a1,-1284 # ffff4afc <_end+0xfffedff8>
    31b4:	02b56633          	rem	a2,a0,a1
    31b8:	0ac0a023          	sw	a2,160(ra)

000031bc <inst_573>:
    31bc:	aaaab537          	lui	a0,0xaaaab
    31c0:	aab50513          	addi	a0,a0,-1365 # aaaaaaab <_end+0xaaaa3fa7>
    31c4:	0000b5b7          	lui	a1,0xb
    31c8:	50458593          	addi	a1,a1,1284 # b504 <_end+0x4a00>
    31cc:	02b56633          	rem	a2,a0,a1
    31d0:	0ac0a223          	sw	a2,164(ra)

000031d4 <inst_574>:
    31d4:	aaaab537          	lui	a0,0xaaaab
    31d8:	aab50513          	addi	a0,a0,-1365 # aaaaaaab <_end+0xaaaa3fa7>
    31dc:	00200593          	li	a1,2
    31e0:	02b56633          	rem	a2,a0,a1
    31e4:	0ac0a423          	sw	a2,168(ra)

000031e8 <inst_575>:
    31e8:	aaaab537          	lui	a0,0xaaaab
    31ec:	aab50513          	addi	a0,a0,-1365 # aaaaaaab <_end+0xaaaa3fa7>
    31f0:	555555b7          	lui	a1,0x55555
    31f4:	55458593          	addi	a1,a1,1364 # 55555554 <_end+0x5554ea50>
    31f8:	02b56633          	rem	a2,a0,a1
    31fc:	0ac0a623          	sw	a2,172(ra)

00003200 <inst_576>:
    3200:	aaaab537          	lui	a0,0xaaaab
    3204:	aab50513          	addi	a0,a0,-1365 # aaaaaaab <_end+0xaaaa3fa7>
    3208:	00000593          	li	a1,0
    320c:	02b56633          	rem	a2,a0,a1
    3210:	0ac0a823          	sw	a2,176(ra)

00003214 <inst_577>:
    3214:	aaaab537          	lui	a0,0xaaaab
    3218:	aab50513          	addi	a0,a0,-1365 # aaaaaaab <_end+0xaaaa3fa7>
    321c:	00400593          	li	a1,4
    3220:	02b56633          	rem	a2,a0,a1
    3224:	0ac0aa23          	sw	a2,180(ra)

00003228 <inst_578>:
    3228:	aaaab537          	lui	a0,0xaaaab
    322c:	aab50513          	addi	a0,a0,-1365 # aaaaaaab <_end+0xaaaa3fa7>
    3230:	333335b7          	lui	a1,0x33333
    3234:	33258593          	addi	a1,a1,818 # 33333332 <_end+0x3332c82e>
    3238:	02b56633          	rem	a2,a0,a1
    323c:	0ac0ac23          	sw	a2,184(ra)

00003240 <inst_579>:
    3240:	aaaab537          	lui	a0,0xaaaab
    3244:	aab50513          	addi	a0,a0,-1365 # aaaaaaab <_end+0xaaaa3fa7>
    3248:	666665b7          	lui	a1,0x66666
    324c:	66558593          	addi	a1,a1,1637 # 66666665 <_end+0x6665fb61>
    3250:	02b56633          	rem	a2,a0,a1
    3254:	0ac0ae23          	sw	a2,188(ra)

00003258 <inst_580>:
    3258:	aaaab537          	lui	a0,0xaaaab
    325c:	aab50513          	addi	a0,a0,-1365 # aaaaaaab <_end+0xaaaa3fa7>
    3260:	0000b5b7          	lui	a1,0xb
    3264:	50358593          	addi	a1,a1,1283 # b503 <_end+0x49ff>
    3268:	02b56633          	rem	a2,a0,a1
    326c:	0cc0a023          	sw	a2,192(ra)

00003270 <inst_581>:
    3270:	aaaab537          	lui	a0,0xaaaab
    3274:	aab50513          	addi	a0,a0,-1365 # aaaaaaab <_end+0xaaaa3fa7>
    3278:	555555b7          	lui	a1,0x55555
    327c:	55658593          	addi	a1,a1,1366 # 55555556 <_end+0x5554ea52>
    3280:	02b56633          	rem	a2,a0,a1
    3284:	0cc0a223          	sw	a2,196(ra)

00003288 <inst_582>:
    3288:	04000513          	li	a0,64
    328c:	ffc005b7          	lui	a1,0xffc00
    3290:	fff58593          	addi	a1,a1,-1 # ffbfffff <_end+0xffbf94fb>
    3294:	02b56633          	rem	a2,a0,a1
    3298:	0cc0a423          	sw	a2,200(ra)

0000329c <inst_583>:
    329c:	fbf00513          	li	a0,-65
    32a0:	ff800593          	li	a1,-8
    32a4:	02b56633          	rem	a2,a0,a1
    32a8:	0cc0a623          	sw	a2,204(ra)

000032ac <inst_584>:
    32ac:	ffff5537          	lui	a0,0xffff5
    32b0:	afd50513          	addi	a0,a0,-1283 # ffff4afd <_end+0xfffedff9>
    32b4:	800005b7          	lui	a1,0x80000
    32b8:	fff58593          	addi	a1,a1,-1 # 7fffffff <_end+0x7fff94fb>
    32bc:	02b56633          	rem	a2,a0,a1
    32c0:	0cc0a823          	sw	a2,208(ra)

000032c4 <inst_585>:
    32c4:	0000b537          	lui	a0,0xb
    32c8:	50550513          	addi	a0,a0,1285 # b505 <_end+0x4a01>
    32cc:	00800593          	li	a1,8
    32d0:	02b56633          	rem	a2,a0,a1
    32d4:	0cc0aa23          	sw	a2,212(ra)

000032d8 <inst_586>:
    32d8:	ffffc537          	lui	a0,0xffffc
    32dc:	fff50513          	addi	a0,a0,-1 # ffffbfff <_end+0xffff54fb>
    32e0:	000015b7          	lui	a1,0x1
    32e4:	80058593          	addi	a1,a1,-2048 # 800 <inst_80+0xc>
    32e8:	02b56633          	rem	a2,a0,a1
    32ec:	0cc0ac23          	sw	a2,216(ra)

000032f0 <halt>:
    32f0:	0000006f          	j	32f0 <halt>
    32f4:	00000013          	nop
    32f8:	00000013          	nop
    32fc:	00000013          	nop

00003300 <rvtest_code_end>:
    3300:	0000006f          	j	3300 <rvtest_code_end>

Disassembly of section .text:

00003304 <FN_WriteStr>:
    3304:	00008067          	ret

00003308 <FN_WriteNmbr>:
    3308:	00008067          	ret

Disassembly of section .tohost:

00003400 <tohost>:
    3400:	0000                	.insn	2, 0x0000
    3402:	0000                	.insn	2, 0x0000
    3404:	0000                	.insn	2, 0x0000
    3406:	0000                	.insn	2, 0x0000
    3408:	0000                	.insn	2, 0x0000
    340a:	0000                	.insn	2, 0x0000
    340c:	0000                	.insn	2, 0x0000
    340e:	0000                	.insn	2, 0x0000
    3410:	0000                	.insn	2, 0x0000
    3412:	0000                	.insn	2, 0x0000
    3414:	0000                	.insn	2, 0x0000
    3416:	0000                	.insn	2, 0x0000
    3418:	0000                	.insn	2, 0x0000
    341a:	0000                	.insn	2, 0x0000
    341c:	0000                	.insn	2, 0x0000
    341e:	0000                	.insn	2, 0x0000
    3420:	0000                	.insn	2, 0x0000
    3422:	0000                	.insn	2, 0x0000
    3424:	0000                	.insn	2, 0x0000
    3426:	0000                	.insn	2, 0x0000
    3428:	0000                	.insn	2, 0x0000
    342a:	0000                	.insn	2, 0x0000
    342c:	0000                	.insn	2, 0x0000
    342e:	0000                	.insn	2, 0x0000
    3430:	0000                	.insn	2, 0x0000
    3432:	0000                	.insn	2, 0x0000
    3434:	0000                	.insn	2, 0x0000
    3436:	0000                	.insn	2, 0x0000
    3438:	0000                	.insn	2, 0x0000
    343a:	0000                	.insn	2, 0x0000
    343c:	0000                	.insn	2, 0x0000
    343e:	0000                	.insn	2, 0x0000
    3440:	0000                	.insn	2, 0x0000
    3442:	0000                	.insn	2, 0x0000
    3444:	0000                	.insn	2, 0x0000
    3446:	0000                	.insn	2, 0x0000
    3448:	0000                	.insn	2, 0x0000
    344a:	0000                	.insn	2, 0x0000
    344c:	0000                	.insn	2, 0x0000
    344e:	0000                	.insn	2, 0x0000
    3450:	0000                	.insn	2, 0x0000
    3452:	0000                	.insn	2, 0x0000
    3454:	0000                	.insn	2, 0x0000
    3456:	0000                	.insn	2, 0x0000
    3458:	0000                	.insn	2, 0x0000
    345a:	0000                	.insn	2, 0x0000
    345c:	0000                	.insn	2, 0x0000
    345e:	0000                	.insn	2, 0x0000
    3460:	0000                	.insn	2, 0x0000
    3462:	0000                	.insn	2, 0x0000
    3464:	0000                	.insn	2, 0x0000
    3466:	0000                	.insn	2, 0x0000
    3468:	0000                	.insn	2, 0x0000
    346a:	0000                	.insn	2, 0x0000
    346c:	0000                	.insn	2, 0x0000
    346e:	0000                	.insn	2, 0x0000
    3470:	0000                	.insn	2, 0x0000
    3472:	0000                	.insn	2, 0x0000
    3474:	0000                	.insn	2, 0x0000
    3476:	0000                	.insn	2, 0x0000
    3478:	0000                	.insn	2, 0x0000
    347a:	0000                	.insn	2, 0x0000
    347c:	0000                	.insn	2, 0x0000
    347e:	0000                	.insn	2, 0x0000
    3480:	0000                	.insn	2, 0x0000
    3482:	0000                	.insn	2, 0x0000
    3484:	0000                	.insn	2, 0x0000
    3486:	0000                	.insn	2, 0x0000
    3488:	0000                	.insn	2, 0x0000
    348a:	0000                	.insn	2, 0x0000
    348c:	0000                	.insn	2, 0x0000
    348e:	0000                	.insn	2, 0x0000
    3490:	0000                	.insn	2, 0x0000
    3492:	0000                	.insn	2, 0x0000
    3494:	0000                	.insn	2, 0x0000
    3496:	0000                	.insn	2, 0x0000
    3498:	0000                	.insn	2, 0x0000
    349a:	0000                	.insn	2, 0x0000
    349c:	0000                	.insn	2, 0x0000
    349e:	0000                	.insn	2, 0x0000
    34a0:	0000                	.insn	2, 0x0000
    34a2:	0000                	.insn	2, 0x0000
    34a4:	0000                	.insn	2, 0x0000
    34a6:	0000                	.insn	2, 0x0000
    34a8:	0000                	.insn	2, 0x0000
    34aa:	0000                	.insn	2, 0x0000
    34ac:	0000                	.insn	2, 0x0000
    34ae:	0000                	.insn	2, 0x0000
    34b0:	0000                	.insn	2, 0x0000
    34b2:	0000                	.insn	2, 0x0000
    34b4:	0000                	.insn	2, 0x0000
    34b6:	0000                	.insn	2, 0x0000
    34b8:	0000                	.insn	2, 0x0000
    34ba:	0000                	.insn	2, 0x0000
    34bc:	0000                	.insn	2, 0x0000
    34be:	0000                	.insn	2, 0x0000
    34c0:	0000                	.insn	2, 0x0000
    34c2:	0000                	.insn	2, 0x0000
    34c4:	0000                	.insn	2, 0x0000
    34c6:	0000                	.insn	2, 0x0000
    34c8:	0000                	.insn	2, 0x0000
    34ca:	0000                	.insn	2, 0x0000
    34cc:	0000                	.insn	2, 0x0000
    34ce:	0000                	.insn	2, 0x0000
    34d0:	0000                	.insn	2, 0x0000
    34d2:	0000                	.insn	2, 0x0000
    34d4:	0000                	.insn	2, 0x0000
    34d6:	0000                	.insn	2, 0x0000
    34d8:	0000                	.insn	2, 0x0000
    34da:	0000                	.insn	2, 0x0000
    34dc:	0000                	.insn	2, 0x0000
    34de:	0000                	.insn	2, 0x0000
    34e0:	0000                	.insn	2, 0x0000
    34e2:	0000                	.insn	2, 0x0000
    34e4:	0000                	.insn	2, 0x0000
    34e6:	0000                	.insn	2, 0x0000
    34e8:	0000                	.insn	2, 0x0000
    34ea:	0000                	.insn	2, 0x0000
    34ec:	0000                	.insn	2, 0x0000
    34ee:	0000                	.insn	2, 0x0000
    34f0:	0000                	.insn	2, 0x0000
    34f2:	0000                	.insn	2, 0x0000
    34f4:	0000                	.insn	2, 0x0000
    34f6:	0000                	.insn	2, 0x0000
    34f8:	0000                	.insn	2, 0x0000
    34fa:	0000                	.insn	2, 0x0000
    34fc:	0000                	.insn	2, 0x0000
    34fe:	0000                	.insn	2, 0x0000

00003500 <fromhost>:
    3500:	0000                	.insn	2, 0x0000
    3502:	0000                	.insn	2, 0x0000
    3504:	0000                	.insn	2, 0x0000
    3506:	0000                	.insn	2, 0x0000

Disassembly of section .io_buf:

00006000 <begin_signature>:
    6000:	deadbeef          	jal	t4,fffe15ea <_end+0xfffdaae6>
    6004:	deadbeef          	jal	t4,fffe15ee <_end+0xfffdaaea>
    6008:	deadbeef          	jal	t4,fffe15f2 <_end+0xfffdaaee>
    600c:	deadbeef          	jal	t4,fffe15f6 <_end+0xfffdaaf2>
    6010:	deadbeef          	jal	t4,fffe15fa <_end+0xfffdaaf6>
    6014:	deadbeef          	jal	t4,fffe15fe <_end+0xfffdaafa>
    6018:	deadbeef          	jal	t4,fffe1602 <_end+0xfffdaafe>
    601c:	deadbeef          	jal	t4,fffe1606 <_end+0xfffdab02>
    6020:	deadbeef          	jal	t4,fffe160a <_end+0xfffdab06>
    6024:	deadbeef          	jal	t4,fffe160e <_end+0xfffdab0a>
    6028:	deadbeef          	jal	t4,fffe1612 <_end+0xfffdab0e>
    602c:	deadbeef          	jal	t4,fffe1616 <_end+0xfffdab12>
    6030:	deadbeef          	jal	t4,fffe161a <_end+0xfffdab16>
    6034:	deadbeef          	jal	t4,fffe161e <_end+0xfffdab1a>
    6038:	deadbeef          	jal	t4,fffe1622 <_end+0xfffdab1e>
    603c:	deadbeef          	jal	t4,fffe1626 <_end+0xfffdab22>
    6040:	deadbeef          	jal	t4,fffe162a <_end+0xfffdab26>
    6044:	deadbeef          	jal	t4,fffe162e <_end+0xfffdab2a>
    6048:	deadbeef          	jal	t4,fffe1632 <_end+0xfffdab2e>
    604c:	deadbeef          	jal	t4,fffe1636 <_end+0xfffdab32>

00006050 <signature_x1_0>:
    6050:	deadbeef          	jal	t4,fffe163a <_end+0xfffdab36>
    6054:	deadbeef          	jal	t4,fffe163e <_end+0xfffdab3a>
    6058:	deadbeef          	jal	t4,fffe1642 <_end+0xfffdab3e>
    605c:	deadbeef          	jal	t4,fffe1646 <_end+0xfffdab42>
    6060:	deadbeef          	jal	t4,fffe164a <_end+0xfffdab46>
    6064:	deadbeef          	jal	t4,fffe164e <_end+0xfffdab4a>
    6068:	deadbeef          	jal	t4,fffe1652 <_end+0xfffdab4e>
    606c:	deadbeef          	jal	t4,fffe1656 <_end+0xfffdab52>
    6070:	deadbeef          	jal	t4,fffe165a <_end+0xfffdab56>
    6074:	deadbeef          	jal	t4,fffe165e <_end+0xfffdab5a>
    6078:	deadbeef          	jal	t4,fffe1662 <_end+0xfffdab5e>
    607c:	deadbeef          	jal	t4,fffe1666 <_end+0xfffdab62>
    6080:	deadbeef          	jal	t4,fffe166a <_end+0xfffdab66>
    6084:	deadbeef          	jal	t4,fffe166e <_end+0xfffdab6a>
    6088:	deadbeef          	jal	t4,fffe1672 <_end+0xfffdab6e>
    608c:	deadbeef          	jal	t4,fffe1676 <_end+0xfffdab72>
    6090:	deadbeef          	jal	t4,fffe167a <_end+0xfffdab76>
    6094:	deadbeef          	jal	t4,fffe167e <_end+0xfffdab7a>
    6098:	deadbeef          	jal	t4,fffe1682 <_end+0xfffdab7e>
    609c:	deadbeef          	jal	t4,fffe1686 <_end+0xfffdab82>
    60a0:	deadbeef          	jal	t4,fffe168a <_end+0xfffdab86>
    60a4:	deadbeef          	jal	t4,fffe168e <_end+0xfffdab8a>
    60a8:	deadbeef          	jal	t4,fffe1692 <_end+0xfffdab8e>
    60ac:	deadbeef          	jal	t4,fffe1696 <_end+0xfffdab92>
    60b0:	deadbeef          	jal	t4,fffe169a <_end+0xfffdab96>
    60b4:	deadbeef          	jal	t4,fffe169e <_end+0xfffdab9a>
    60b8:	deadbeef          	jal	t4,fffe16a2 <_end+0xfffdab9e>
    60bc:	deadbeef          	jal	t4,fffe16a6 <_end+0xfffdaba2>
    60c0:	deadbeef          	jal	t4,fffe16aa <_end+0xfffdaba6>
    60c4:	deadbeef          	jal	t4,fffe16ae <_end+0xfffdabaa>
    60c8:	deadbeef          	jal	t4,fffe16b2 <_end+0xfffdabae>
    60cc:	deadbeef          	jal	t4,fffe16b6 <_end+0xfffdabb2>
    60d0:	deadbeef          	jal	t4,fffe16ba <_end+0xfffdabb6>
    60d4:	deadbeef          	jal	t4,fffe16be <_end+0xfffdabba>
    60d8:	deadbeef          	jal	t4,fffe16c2 <_end+0xfffdabbe>
    60dc:	deadbeef          	jal	t4,fffe16c6 <_end+0xfffdabc2>
    60e0:	deadbeef          	jal	t4,fffe16ca <_end+0xfffdabc6>
    60e4:	deadbeef          	jal	t4,fffe16ce <_end+0xfffdabca>
    60e8:	deadbeef          	jal	t4,fffe16d2 <_end+0xfffdabce>
    60ec:	deadbeef          	jal	t4,fffe16d6 <_end+0xfffdabd2>
    60f0:	deadbeef          	jal	t4,fffe16da <_end+0xfffdabd6>
    60f4:	deadbeef          	jal	t4,fffe16de <_end+0xfffdabda>
    60f8:	deadbeef          	jal	t4,fffe16e2 <_end+0xfffdabde>
    60fc:	deadbeef          	jal	t4,fffe16e6 <_end+0xfffdabe2>
    6100:	deadbeef          	jal	t4,fffe16ea <_end+0xfffdabe6>
    6104:	deadbeef          	jal	t4,fffe16ee <_end+0xfffdabea>
    6108:	deadbeef          	jal	t4,fffe16f2 <_end+0xfffdabee>
    610c:	deadbeef          	jal	t4,fffe16f6 <_end+0xfffdabf2>
    6110:	deadbeef          	jal	t4,fffe16fa <_end+0xfffdabf6>
    6114:	deadbeef          	jal	t4,fffe16fe <_end+0xfffdabfa>
    6118:	deadbeef          	jal	t4,fffe1702 <_end+0xfffdabfe>
    611c:	deadbeef          	jal	t4,fffe1706 <_end+0xfffdac02>
    6120:	deadbeef          	jal	t4,fffe170a <_end+0xfffdac06>
    6124:	deadbeef          	jal	t4,fffe170e <_end+0xfffdac0a>
    6128:	deadbeef          	jal	t4,fffe1712 <_end+0xfffdac0e>
    612c:	deadbeef          	jal	t4,fffe1716 <_end+0xfffdac12>
    6130:	deadbeef          	jal	t4,fffe171a <_end+0xfffdac16>
    6134:	deadbeef          	jal	t4,fffe171e <_end+0xfffdac1a>
    6138:	deadbeef          	jal	t4,fffe1722 <_end+0xfffdac1e>
    613c:	deadbeef          	jal	t4,fffe1726 <_end+0xfffdac22>
    6140:	deadbeef          	jal	t4,fffe172a <_end+0xfffdac26>
    6144:	deadbeef          	jal	t4,fffe172e <_end+0xfffdac2a>
    6148:	deadbeef          	jal	t4,fffe1732 <_end+0xfffdac2e>
    614c:	deadbeef          	jal	t4,fffe1736 <_end+0xfffdac32>
    6150:	deadbeef          	jal	t4,fffe173a <_end+0xfffdac36>
    6154:	deadbeef          	jal	t4,fffe173e <_end+0xfffdac3a>
    6158:	deadbeef          	jal	t4,fffe1742 <_end+0xfffdac3e>
    615c:	deadbeef          	jal	t4,fffe1746 <_end+0xfffdac42>
    6160:	deadbeef          	jal	t4,fffe174a <_end+0xfffdac46>
    6164:	deadbeef          	jal	t4,fffe174e <_end+0xfffdac4a>
    6168:	deadbeef          	jal	t4,fffe1752 <_end+0xfffdac4e>
    616c:	deadbeef          	jal	t4,fffe1756 <_end+0xfffdac52>
    6170:	deadbeef          	jal	t4,fffe175a <_end+0xfffdac56>
    6174:	deadbeef          	jal	t4,fffe175e <_end+0xfffdac5a>
    6178:	deadbeef          	jal	t4,fffe1762 <_end+0xfffdac5e>
    617c:	deadbeef          	jal	t4,fffe1766 <_end+0xfffdac62>
    6180:	deadbeef          	jal	t4,fffe176a <_end+0xfffdac66>
    6184:	deadbeef          	jal	t4,fffe176e <_end+0xfffdac6a>
    6188:	deadbeef          	jal	t4,fffe1772 <_end+0xfffdac6e>
    618c:	deadbeef          	jal	t4,fffe1776 <_end+0xfffdac72>
    6190:	deadbeef          	jal	t4,fffe177a <_end+0xfffdac76>
    6194:	deadbeef          	jal	t4,fffe177e <_end+0xfffdac7a>
    6198:	deadbeef          	jal	t4,fffe1782 <_end+0xfffdac7e>
    619c:	deadbeef          	jal	t4,fffe1786 <_end+0xfffdac82>
    61a0:	deadbeef          	jal	t4,fffe178a <_end+0xfffdac86>
    61a4:	deadbeef          	jal	t4,fffe178e <_end+0xfffdac8a>
    61a8:	deadbeef          	jal	t4,fffe1792 <_end+0xfffdac8e>
    61ac:	deadbeef          	jal	t4,fffe1796 <_end+0xfffdac92>
    61b0:	deadbeef          	jal	t4,fffe179a <_end+0xfffdac96>
    61b4:	deadbeef          	jal	t4,fffe179e <_end+0xfffdac9a>
    61b8:	deadbeef          	jal	t4,fffe17a2 <_end+0xfffdac9e>
    61bc:	deadbeef          	jal	t4,fffe17a6 <_end+0xfffdaca2>
    61c0:	deadbeef          	jal	t4,fffe17aa <_end+0xfffdaca6>
    61c4:	deadbeef          	jal	t4,fffe17ae <_end+0xfffdacaa>
    61c8:	deadbeef          	jal	t4,fffe17b2 <_end+0xfffdacae>
    61cc:	deadbeef          	jal	t4,fffe17b6 <_end+0xfffdacb2>
    61d0:	deadbeef          	jal	t4,fffe17ba <_end+0xfffdacb6>
    61d4:	deadbeef          	jal	t4,fffe17be <_end+0xfffdacba>
    61d8:	deadbeef          	jal	t4,fffe17c2 <_end+0xfffdacbe>
    61dc:	deadbeef          	jal	t4,fffe17c6 <_end+0xfffdacc2>
    61e0:	deadbeef          	jal	t4,fffe17ca <_end+0xfffdacc6>
    61e4:	deadbeef          	jal	t4,fffe17ce <_end+0xfffdacca>
    61e8:	deadbeef          	jal	t4,fffe17d2 <_end+0xfffdacce>
    61ec:	deadbeef          	jal	t4,fffe17d6 <_end+0xfffdacd2>
    61f0:	deadbeef          	jal	t4,fffe17da <_end+0xfffdacd6>
    61f4:	deadbeef          	jal	t4,fffe17de <_end+0xfffdacda>
    61f8:	deadbeef          	jal	t4,fffe17e2 <_end+0xfffdacde>
    61fc:	deadbeef          	jal	t4,fffe17e6 <_end+0xfffdace2>
    6200:	deadbeef          	jal	t4,fffe17ea <_end+0xfffdace6>
    6204:	deadbeef          	jal	t4,fffe17ee <_end+0xfffdacea>
    6208:	deadbeef          	jal	t4,fffe17f2 <_end+0xfffdacee>
    620c:	deadbeef          	jal	t4,fffe17f6 <_end+0xfffdacf2>
    6210:	deadbeef          	jal	t4,fffe17fa <_end+0xfffdacf6>
    6214:	deadbeef          	jal	t4,fffe17fe <_end+0xfffdacfa>
    6218:	deadbeef          	jal	t4,fffe1802 <_end+0xfffdacfe>
    621c:	deadbeef          	jal	t4,fffe1806 <_end+0xfffdad02>
    6220:	deadbeef          	jal	t4,fffe180a <_end+0xfffdad06>
    6224:	deadbeef          	jal	t4,fffe180e <_end+0xfffdad0a>
    6228:	deadbeef          	jal	t4,fffe1812 <_end+0xfffdad0e>
    622c:	deadbeef          	jal	t4,fffe1816 <_end+0xfffdad12>
    6230:	deadbeef          	jal	t4,fffe181a <_end+0xfffdad16>
    6234:	deadbeef          	jal	t4,fffe181e <_end+0xfffdad1a>
    6238:	deadbeef          	jal	t4,fffe1822 <_end+0xfffdad1e>
    623c:	deadbeef          	jal	t4,fffe1826 <_end+0xfffdad22>
    6240:	deadbeef          	jal	t4,fffe182a <_end+0xfffdad26>
    6244:	deadbeef          	jal	t4,fffe182e <_end+0xfffdad2a>
    6248:	deadbeef          	jal	t4,fffe1832 <_end+0xfffdad2e>
    624c:	deadbeef          	jal	t4,fffe1836 <_end+0xfffdad32>
    6250:	deadbeef          	jal	t4,fffe183a <_end+0xfffdad36>
    6254:	deadbeef          	jal	t4,fffe183e <_end+0xfffdad3a>
    6258:	deadbeef          	jal	t4,fffe1842 <_end+0xfffdad3e>
    625c:	deadbeef          	jal	t4,fffe1846 <_end+0xfffdad42>
    6260:	deadbeef          	jal	t4,fffe184a <_end+0xfffdad46>
    6264:	deadbeef          	jal	t4,fffe184e <_end+0xfffdad4a>
    6268:	deadbeef          	jal	t4,fffe1852 <_end+0xfffdad4e>
    626c:	deadbeef          	jal	t4,fffe1856 <_end+0xfffdad52>
    6270:	deadbeef          	jal	t4,fffe185a <_end+0xfffdad56>
    6274:	deadbeef          	jal	t4,fffe185e <_end+0xfffdad5a>
    6278:	deadbeef          	jal	t4,fffe1862 <_end+0xfffdad5e>
    627c:	deadbeef          	jal	t4,fffe1866 <_end+0xfffdad62>
    6280:	deadbeef          	jal	t4,fffe186a <_end+0xfffdad66>
    6284:	deadbeef          	jal	t4,fffe186e <_end+0xfffdad6a>
    6288:	deadbeef          	jal	t4,fffe1872 <_end+0xfffdad6e>
    628c:	deadbeef          	jal	t4,fffe1876 <_end+0xfffdad72>
    6290:	deadbeef          	jal	t4,fffe187a <_end+0xfffdad76>
    6294:	deadbeef          	jal	t4,fffe187e <_end+0xfffdad7a>
    6298:	deadbeef          	jal	t4,fffe1882 <_end+0xfffdad7e>
    629c:	deadbeef          	jal	t4,fffe1886 <_end+0xfffdad82>
    62a0:	deadbeef          	jal	t4,fffe188a <_end+0xfffdad86>
    62a4:	deadbeef          	jal	t4,fffe188e <_end+0xfffdad8a>
    62a8:	deadbeef          	jal	t4,fffe1892 <_end+0xfffdad8e>
    62ac:	deadbeef          	jal	t4,fffe1896 <_end+0xfffdad92>
    62b0:	deadbeef          	jal	t4,fffe189a <_end+0xfffdad96>
    62b4:	deadbeef          	jal	t4,fffe189e <_end+0xfffdad9a>
    62b8:	deadbeef          	jal	t4,fffe18a2 <_end+0xfffdad9e>
    62bc:	deadbeef          	jal	t4,fffe18a6 <_end+0xfffdada2>
    62c0:	deadbeef          	jal	t4,fffe18aa <_end+0xfffdada6>
    62c4:	deadbeef          	jal	t4,fffe18ae <_end+0xfffdadaa>
    62c8:	deadbeef          	jal	t4,fffe18b2 <_end+0xfffdadae>
    62cc:	deadbeef          	jal	t4,fffe18b6 <_end+0xfffdadb2>
    62d0:	deadbeef          	jal	t4,fffe18ba <_end+0xfffdadb6>
    62d4:	deadbeef          	jal	t4,fffe18be <_end+0xfffdadba>
    62d8:	deadbeef          	jal	t4,fffe18c2 <_end+0xfffdadbe>
    62dc:	deadbeef          	jal	t4,fffe18c6 <_end+0xfffdadc2>
    62e0:	deadbeef          	jal	t4,fffe18ca <_end+0xfffdadc6>
    62e4:	deadbeef          	jal	t4,fffe18ce <_end+0xfffdadca>
    62e8:	deadbeef          	jal	t4,fffe18d2 <_end+0xfffdadce>
    62ec:	deadbeef          	jal	t4,fffe18d6 <_end+0xfffdadd2>
    62f0:	deadbeef          	jal	t4,fffe18da <_end+0xfffdadd6>
    62f4:	deadbeef          	jal	t4,fffe18de <_end+0xfffdadda>
    62f8:	deadbeef          	jal	t4,fffe18e2 <_end+0xfffdadde>
    62fc:	deadbeef          	jal	t4,fffe18e6 <_end+0xfffdade2>
    6300:	deadbeef          	jal	t4,fffe18ea <_end+0xfffdade6>
    6304:	deadbeef          	jal	t4,fffe18ee <_end+0xfffdadea>
    6308:	deadbeef          	jal	t4,fffe18f2 <_end+0xfffdadee>
    630c:	deadbeef          	jal	t4,fffe18f6 <_end+0xfffdadf2>
    6310:	deadbeef          	jal	t4,fffe18fa <_end+0xfffdadf6>
    6314:	deadbeef          	jal	t4,fffe18fe <_end+0xfffdadfa>
    6318:	deadbeef          	jal	t4,fffe1902 <_end+0xfffdadfe>
    631c:	deadbeef          	jal	t4,fffe1906 <_end+0xfffdae02>
    6320:	deadbeef          	jal	t4,fffe190a <_end+0xfffdae06>
    6324:	deadbeef          	jal	t4,fffe190e <_end+0xfffdae0a>
    6328:	deadbeef          	jal	t4,fffe1912 <_end+0xfffdae0e>
    632c:	deadbeef          	jal	t4,fffe1916 <_end+0xfffdae12>
    6330:	deadbeef          	jal	t4,fffe191a <_end+0xfffdae16>
    6334:	deadbeef          	jal	t4,fffe191e <_end+0xfffdae1a>
    6338:	deadbeef          	jal	t4,fffe1922 <_end+0xfffdae1e>
    633c:	deadbeef          	jal	t4,fffe1926 <_end+0xfffdae22>
    6340:	deadbeef          	jal	t4,fffe192a <_end+0xfffdae26>
    6344:	deadbeef          	jal	t4,fffe192e <_end+0xfffdae2a>
    6348:	deadbeef          	jal	t4,fffe1932 <_end+0xfffdae2e>
    634c:	deadbeef          	jal	t4,fffe1936 <_end+0xfffdae32>
    6350:	deadbeef          	jal	t4,fffe193a <_end+0xfffdae36>
    6354:	deadbeef          	jal	t4,fffe193e <_end+0xfffdae3a>
    6358:	deadbeef          	jal	t4,fffe1942 <_end+0xfffdae3e>
    635c:	deadbeef          	jal	t4,fffe1946 <_end+0xfffdae42>
    6360:	deadbeef          	jal	t4,fffe194a <_end+0xfffdae46>
    6364:	deadbeef          	jal	t4,fffe194e <_end+0xfffdae4a>
    6368:	deadbeef          	jal	t4,fffe1952 <_end+0xfffdae4e>
    636c:	deadbeef          	jal	t4,fffe1956 <_end+0xfffdae52>
    6370:	deadbeef          	jal	t4,fffe195a <_end+0xfffdae56>
    6374:	deadbeef          	jal	t4,fffe195e <_end+0xfffdae5a>
    6378:	deadbeef          	jal	t4,fffe1962 <_end+0xfffdae5e>
    637c:	deadbeef          	jal	t4,fffe1966 <_end+0xfffdae62>
    6380:	deadbeef          	jal	t4,fffe196a <_end+0xfffdae66>
    6384:	deadbeef          	jal	t4,fffe196e <_end+0xfffdae6a>
    6388:	deadbeef          	jal	t4,fffe1972 <_end+0xfffdae6e>
    638c:	deadbeef          	jal	t4,fffe1976 <_end+0xfffdae72>
    6390:	deadbeef          	jal	t4,fffe197a <_end+0xfffdae76>
    6394:	deadbeef          	jal	t4,fffe197e <_end+0xfffdae7a>
    6398:	deadbeef          	jal	t4,fffe1982 <_end+0xfffdae7e>
    639c:	deadbeef          	jal	t4,fffe1986 <_end+0xfffdae82>
    63a0:	deadbeef          	jal	t4,fffe198a <_end+0xfffdae86>
    63a4:	deadbeef          	jal	t4,fffe198e <_end+0xfffdae8a>
    63a8:	deadbeef          	jal	t4,fffe1992 <_end+0xfffdae8e>
    63ac:	deadbeef          	jal	t4,fffe1996 <_end+0xfffdae92>
    63b0:	deadbeef          	jal	t4,fffe199a <_end+0xfffdae96>
    63b4:	deadbeef          	jal	t4,fffe199e <_end+0xfffdae9a>
    63b8:	deadbeef          	jal	t4,fffe19a2 <_end+0xfffdae9e>
    63bc:	deadbeef          	jal	t4,fffe19a6 <_end+0xfffdaea2>
    63c0:	deadbeef          	jal	t4,fffe19aa <_end+0xfffdaea6>
    63c4:	deadbeef          	jal	t4,fffe19ae <_end+0xfffdaeaa>
    63c8:	deadbeef          	jal	t4,fffe19b2 <_end+0xfffdaeae>
    63cc:	deadbeef          	jal	t4,fffe19b6 <_end+0xfffdaeb2>
    63d0:	deadbeef          	jal	t4,fffe19ba <_end+0xfffdaeb6>
    63d4:	deadbeef          	jal	t4,fffe19be <_end+0xfffdaeba>
    63d8:	deadbeef          	jal	t4,fffe19c2 <_end+0xfffdaebe>
    63dc:	deadbeef          	jal	t4,fffe19c6 <_end+0xfffdaec2>
    63e0:	deadbeef          	jal	t4,fffe19ca <_end+0xfffdaec6>
    63e4:	deadbeef          	jal	t4,fffe19ce <_end+0xfffdaeca>
    63e8:	deadbeef          	jal	t4,fffe19d2 <_end+0xfffdaece>
    63ec:	deadbeef          	jal	t4,fffe19d6 <_end+0xfffdaed2>
    63f0:	deadbeef          	jal	t4,fffe19da <_end+0xfffdaed6>
    63f4:	deadbeef          	jal	t4,fffe19de <_end+0xfffdaeda>
    63f8:	deadbeef          	jal	t4,fffe19e2 <_end+0xfffdaede>
    63fc:	deadbeef          	jal	t4,fffe19e6 <_end+0xfffdaee2>
    6400:	deadbeef          	jal	t4,fffe19ea <_end+0xfffdaee6>
    6404:	deadbeef          	jal	t4,fffe19ee <_end+0xfffdaeea>
    6408:	deadbeef          	jal	t4,fffe19f2 <_end+0xfffdaeee>
    640c:	deadbeef          	jal	t4,fffe19f6 <_end+0xfffdaef2>
    6410:	deadbeef          	jal	t4,fffe19fa <_end+0xfffdaef6>
    6414:	deadbeef          	jal	t4,fffe19fe <_end+0xfffdaefa>
    6418:	deadbeef          	jal	t4,fffe1a02 <_end+0xfffdaefe>
    641c:	deadbeef          	jal	t4,fffe1a06 <_end+0xfffdaf02>
    6420:	deadbeef          	jal	t4,fffe1a0a <_end+0xfffdaf06>
    6424:	deadbeef          	jal	t4,fffe1a0e <_end+0xfffdaf0a>
    6428:	deadbeef          	jal	t4,fffe1a12 <_end+0xfffdaf0e>
    642c:	deadbeef          	jal	t4,fffe1a16 <_end+0xfffdaf12>
    6430:	deadbeef          	jal	t4,fffe1a1a <_end+0xfffdaf16>
    6434:	deadbeef          	jal	t4,fffe1a1e <_end+0xfffdaf1a>
    6438:	deadbeef          	jal	t4,fffe1a22 <_end+0xfffdaf1e>
    643c:	deadbeef          	jal	t4,fffe1a26 <_end+0xfffdaf22>
    6440:	deadbeef          	jal	t4,fffe1a2a <_end+0xfffdaf26>
    6444:	deadbeef          	jal	t4,fffe1a2e <_end+0xfffdaf2a>
    6448:	deadbeef          	jal	t4,fffe1a32 <_end+0xfffdaf2e>
    644c:	deadbeef          	jal	t4,fffe1a36 <_end+0xfffdaf32>
    6450:	deadbeef          	jal	t4,fffe1a3a <_end+0xfffdaf36>
    6454:	deadbeef          	jal	t4,fffe1a3e <_end+0xfffdaf3a>
    6458:	deadbeef          	jal	t4,fffe1a42 <_end+0xfffdaf3e>
    645c:	deadbeef          	jal	t4,fffe1a46 <_end+0xfffdaf42>
    6460:	deadbeef          	jal	t4,fffe1a4a <_end+0xfffdaf46>
    6464:	deadbeef          	jal	t4,fffe1a4e <_end+0xfffdaf4a>
    6468:	deadbeef          	jal	t4,fffe1a52 <_end+0xfffdaf4e>
    646c:	deadbeef          	jal	t4,fffe1a56 <_end+0xfffdaf52>
    6470:	deadbeef          	jal	t4,fffe1a5a <_end+0xfffdaf56>
    6474:	deadbeef          	jal	t4,fffe1a5e <_end+0xfffdaf5a>
    6478:	deadbeef          	jal	t4,fffe1a62 <_end+0xfffdaf5e>
    647c:	deadbeef          	jal	t4,fffe1a66 <_end+0xfffdaf62>
    6480:	deadbeef          	jal	t4,fffe1a6a <_end+0xfffdaf66>
    6484:	deadbeef          	jal	t4,fffe1a6e <_end+0xfffdaf6a>
    6488:	deadbeef          	jal	t4,fffe1a72 <_end+0xfffdaf6e>
    648c:	deadbeef          	jal	t4,fffe1a76 <_end+0xfffdaf72>
    6490:	deadbeef          	jal	t4,fffe1a7a <_end+0xfffdaf76>
    6494:	deadbeef          	jal	t4,fffe1a7e <_end+0xfffdaf7a>
    6498:	deadbeef          	jal	t4,fffe1a82 <_end+0xfffdaf7e>
    649c:	deadbeef          	jal	t4,fffe1a86 <_end+0xfffdaf82>
    64a0:	deadbeef          	jal	t4,fffe1a8a <_end+0xfffdaf86>
    64a4:	deadbeef          	jal	t4,fffe1a8e <_end+0xfffdaf8a>
    64a8:	deadbeef          	jal	t4,fffe1a92 <_end+0xfffdaf8e>
    64ac:	deadbeef          	jal	t4,fffe1a96 <_end+0xfffdaf92>
    64b0:	deadbeef          	jal	t4,fffe1a9a <_end+0xfffdaf96>
    64b4:	deadbeef          	jal	t4,fffe1a9e <_end+0xfffdaf9a>
    64b8:	deadbeef          	jal	t4,fffe1aa2 <_end+0xfffdaf9e>
    64bc:	deadbeef          	jal	t4,fffe1aa6 <_end+0xfffdafa2>
    64c0:	deadbeef          	jal	t4,fffe1aaa <_end+0xfffdafa6>
    64c4:	deadbeef          	jal	t4,fffe1aae <_end+0xfffdafaa>
    64c8:	deadbeef          	jal	t4,fffe1ab2 <_end+0xfffdafae>
    64cc:	deadbeef          	jal	t4,fffe1ab6 <_end+0xfffdafb2>
    64d0:	deadbeef          	jal	t4,fffe1aba <_end+0xfffdafb6>
    64d4:	deadbeef          	jal	t4,fffe1abe <_end+0xfffdafba>
    64d8:	deadbeef          	jal	t4,fffe1ac2 <_end+0xfffdafbe>
    64dc:	deadbeef          	jal	t4,fffe1ac6 <_end+0xfffdafc2>
    64e0:	deadbeef          	jal	t4,fffe1aca <_end+0xfffdafc6>
    64e4:	deadbeef          	jal	t4,fffe1ace <_end+0xfffdafca>
    64e8:	deadbeef          	jal	t4,fffe1ad2 <_end+0xfffdafce>
    64ec:	deadbeef          	jal	t4,fffe1ad6 <_end+0xfffdafd2>
    64f0:	deadbeef          	jal	t4,fffe1ada <_end+0xfffdafd6>
    64f4:	deadbeef          	jal	t4,fffe1ade <_end+0xfffdafda>
    64f8:	deadbeef          	jal	t4,fffe1ae2 <_end+0xfffdafde>
    64fc:	deadbeef          	jal	t4,fffe1ae6 <_end+0xfffdafe2>
    6500:	deadbeef          	jal	t4,fffe1aea <_end+0xfffdafe6>
    6504:	deadbeef          	jal	t4,fffe1aee <_end+0xfffdafea>
    6508:	deadbeef          	jal	t4,fffe1af2 <_end+0xfffdafee>
    650c:	deadbeef          	jal	t4,fffe1af6 <_end+0xfffdaff2>
    6510:	deadbeef          	jal	t4,fffe1afa <_end+0xfffdaff6>
    6514:	deadbeef          	jal	t4,fffe1afe <_end+0xfffdaffa>
    6518:	deadbeef          	jal	t4,fffe1b02 <_end+0xfffdaffe>
    651c:	deadbeef          	jal	t4,fffe1b06 <_end+0xfffdb002>
    6520:	deadbeef          	jal	t4,fffe1b0a <_end+0xfffdb006>
    6524:	deadbeef          	jal	t4,fffe1b0e <_end+0xfffdb00a>
    6528:	deadbeef          	jal	t4,fffe1b12 <_end+0xfffdb00e>
    652c:	deadbeef          	jal	t4,fffe1b16 <_end+0xfffdb012>
    6530:	deadbeef          	jal	t4,fffe1b1a <_end+0xfffdb016>
    6534:	deadbeef          	jal	t4,fffe1b1e <_end+0xfffdb01a>
    6538:	deadbeef          	jal	t4,fffe1b22 <_end+0xfffdb01e>
    653c:	deadbeef          	jal	t4,fffe1b26 <_end+0xfffdb022>
    6540:	deadbeef          	jal	t4,fffe1b2a <_end+0xfffdb026>
    6544:	deadbeef          	jal	t4,fffe1b2e <_end+0xfffdb02a>
    6548:	deadbeef          	jal	t4,fffe1b32 <_end+0xfffdb02e>
    654c:	deadbeef          	jal	t4,fffe1b36 <_end+0xfffdb032>
    6550:	deadbeef          	jal	t4,fffe1b3a <_end+0xfffdb036>
    6554:	deadbeef          	jal	t4,fffe1b3e <_end+0xfffdb03a>
    6558:	deadbeef          	jal	t4,fffe1b42 <_end+0xfffdb03e>
    655c:	deadbeef          	jal	t4,fffe1b46 <_end+0xfffdb042>
    6560:	deadbeef          	jal	t4,fffe1b4a <_end+0xfffdb046>
    6564:	deadbeef          	jal	t4,fffe1b4e <_end+0xfffdb04a>
    6568:	deadbeef          	jal	t4,fffe1b52 <_end+0xfffdb04e>
    656c:	deadbeef          	jal	t4,fffe1b56 <_end+0xfffdb052>
    6570:	deadbeef          	jal	t4,fffe1b5a <_end+0xfffdb056>
    6574:	deadbeef          	jal	t4,fffe1b5e <_end+0xfffdb05a>
    6578:	deadbeef          	jal	t4,fffe1b62 <_end+0xfffdb05e>
    657c:	deadbeef          	jal	t4,fffe1b66 <_end+0xfffdb062>
    6580:	deadbeef          	jal	t4,fffe1b6a <_end+0xfffdb066>
    6584:	deadbeef          	jal	t4,fffe1b6e <_end+0xfffdb06a>
    6588:	deadbeef          	jal	t4,fffe1b72 <_end+0xfffdb06e>
    658c:	deadbeef          	jal	t4,fffe1b76 <_end+0xfffdb072>
    6590:	deadbeef          	jal	t4,fffe1b7a <_end+0xfffdb076>
    6594:	deadbeef          	jal	t4,fffe1b7e <_end+0xfffdb07a>
    6598:	deadbeef          	jal	t4,fffe1b82 <_end+0xfffdb07e>
    659c:	deadbeef          	jal	t4,fffe1b86 <_end+0xfffdb082>
    65a0:	deadbeef          	jal	t4,fffe1b8a <_end+0xfffdb086>
    65a4:	deadbeef          	jal	t4,fffe1b8e <_end+0xfffdb08a>
    65a8:	deadbeef          	jal	t4,fffe1b92 <_end+0xfffdb08e>
    65ac:	deadbeef          	jal	t4,fffe1b96 <_end+0xfffdb092>
    65b0:	deadbeef          	jal	t4,fffe1b9a <_end+0xfffdb096>
    65b4:	deadbeef          	jal	t4,fffe1b9e <_end+0xfffdb09a>
    65b8:	deadbeef          	jal	t4,fffe1ba2 <_end+0xfffdb09e>
    65bc:	deadbeef          	jal	t4,fffe1ba6 <_end+0xfffdb0a2>
    65c0:	deadbeef          	jal	t4,fffe1baa <_end+0xfffdb0a6>
    65c4:	deadbeef          	jal	t4,fffe1bae <_end+0xfffdb0aa>
    65c8:	deadbeef          	jal	t4,fffe1bb2 <_end+0xfffdb0ae>
    65cc:	deadbeef          	jal	t4,fffe1bb6 <_end+0xfffdb0b2>
    65d0:	deadbeef          	jal	t4,fffe1bba <_end+0xfffdb0b6>
    65d4:	deadbeef          	jal	t4,fffe1bbe <_end+0xfffdb0ba>
    65d8:	deadbeef          	jal	t4,fffe1bc2 <_end+0xfffdb0be>
    65dc:	deadbeef          	jal	t4,fffe1bc6 <_end+0xfffdb0c2>
    65e0:	deadbeef          	jal	t4,fffe1bca <_end+0xfffdb0c6>
    65e4:	deadbeef          	jal	t4,fffe1bce <_end+0xfffdb0ca>
    65e8:	deadbeef          	jal	t4,fffe1bd2 <_end+0xfffdb0ce>
    65ec:	deadbeef          	jal	t4,fffe1bd6 <_end+0xfffdb0d2>
    65f0:	deadbeef          	jal	t4,fffe1bda <_end+0xfffdb0d6>
    65f4:	deadbeef          	jal	t4,fffe1bde <_end+0xfffdb0da>
    65f8:	deadbeef          	jal	t4,fffe1be2 <_end+0xfffdb0de>
    65fc:	deadbeef          	jal	t4,fffe1be6 <_end+0xfffdb0e2>
    6600:	deadbeef          	jal	t4,fffe1bea <_end+0xfffdb0e6>
    6604:	deadbeef          	jal	t4,fffe1bee <_end+0xfffdb0ea>
    6608:	deadbeef          	jal	t4,fffe1bf2 <_end+0xfffdb0ee>
    660c:	deadbeef          	jal	t4,fffe1bf6 <_end+0xfffdb0f2>
    6610:	deadbeef          	jal	t4,fffe1bfa <_end+0xfffdb0f6>
    6614:	deadbeef          	jal	t4,fffe1bfe <_end+0xfffdb0fa>
    6618:	deadbeef          	jal	t4,fffe1c02 <_end+0xfffdb0fe>
    661c:	deadbeef          	jal	t4,fffe1c06 <_end+0xfffdb102>
    6620:	deadbeef          	jal	t4,fffe1c0a <_end+0xfffdb106>
    6624:	deadbeef          	jal	t4,fffe1c0e <_end+0xfffdb10a>
    6628:	deadbeef          	jal	t4,fffe1c12 <_end+0xfffdb10e>
    662c:	deadbeef          	jal	t4,fffe1c16 <_end+0xfffdb112>
    6630:	deadbeef          	jal	t4,fffe1c1a <_end+0xfffdb116>
    6634:	deadbeef          	jal	t4,fffe1c1e <_end+0xfffdb11a>
    6638:	deadbeef          	jal	t4,fffe1c22 <_end+0xfffdb11e>
    663c:	deadbeef          	jal	t4,fffe1c26 <_end+0xfffdb122>
    6640:	deadbeef          	jal	t4,fffe1c2a <_end+0xfffdb126>
    6644:	deadbeef          	jal	t4,fffe1c2e <_end+0xfffdb12a>
    6648:	deadbeef          	jal	t4,fffe1c32 <_end+0xfffdb12e>
    664c:	deadbeef          	jal	t4,fffe1c36 <_end+0xfffdb132>
    6650:	deadbeef          	jal	t4,fffe1c3a <_end+0xfffdb136>
    6654:	deadbeef          	jal	t4,fffe1c3e <_end+0xfffdb13a>
    6658:	deadbeef          	jal	t4,fffe1c42 <_end+0xfffdb13e>
    665c:	deadbeef          	jal	t4,fffe1c46 <_end+0xfffdb142>
    6660:	deadbeef          	jal	t4,fffe1c4a <_end+0xfffdb146>
    6664:	deadbeef          	jal	t4,fffe1c4e <_end+0xfffdb14a>
    6668:	deadbeef          	jal	t4,fffe1c52 <_end+0xfffdb14e>
    666c:	deadbeef          	jal	t4,fffe1c56 <_end+0xfffdb152>
    6670:	deadbeef          	jal	t4,fffe1c5a <_end+0xfffdb156>
    6674:	deadbeef          	jal	t4,fffe1c5e <_end+0xfffdb15a>
    6678:	deadbeef          	jal	t4,fffe1c62 <_end+0xfffdb15e>
    667c:	deadbeef          	jal	t4,fffe1c66 <_end+0xfffdb162>
    6680:	deadbeef          	jal	t4,fffe1c6a <_end+0xfffdb166>
    6684:	deadbeef          	jal	t4,fffe1c6e <_end+0xfffdb16a>
    6688:	deadbeef          	jal	t4,fffe1c72 <_end+0xfffdb16e>
    668c:	deadbeef          	jal	t4,fffe1c76 <_end+0xfffdb172>
    6690:	deadbeef          	jal	t4,fffe1c7a <_end+0xfffdb176>
    6694:	deadbeef          	jal	t4,fffe1c7e <_end+0xfffdb17a>
    6698:	deadbeef          	jal	t4,fffe1c82 <_end+0xfffdb17e>
    669c:	deadbeef          	jal	t4,fffe1c86 <_end+0xfffdb182>
    66a0:	deadbeef          	jal	t4,fffe1c8a <_end+0xfffdb186>
    66a4:	deadbeef          	jal	t4,fffe1c8e <_end+0xfffdb18a>
    66a8:	deadbeef          	jal	t4,fffe1c92 <_end+0xfffdb18e>
    66ac:	deadbeef          	jal	t4,fffe1c96 <_end+0xfffdb192>
    66b0:	deadbeef          	jal	t4,fffe1c9a <_end+0xfffdb196>
    66b4:	deadbeef          	jal	t4,fffe1c9e <_end+0xfffdb19a>
    66b8:	deadbeef          	jal	t4,fffe1ca2 <_end+0xfffdb19e>
    66bc:	deadbeef          	jal	t4,fffe1ca6 <_end+0xfffdb1a2>
    66c0:	deadbeef          	jal	t4,fffe1caa <_end+0xfffdb1a6>
    66c4:	deadbeef          	jal	t4,fffe1cae <_end+0xfffdb1aa>
    66c8:	deadbeef          	jal	t4,fffe1cb2 <_end+0xfffdb1ae>
    66cc:	deadbeef          	jal	t4,fffe1cb6 <_end+0xfffdb1b2>
    66d0:	deadbeef          	jal	t4,fffe1cba <_end+0xfffdb1b6>
    66d4:	deadbeef          	jal	t4,fffe1cbe <_end+0xfffdb1ba>
    66d8:	deadbeef          	jal	t4,fffe1cc2 <_end+0xfffdb1be>
    66dc:	deadbeef          	jal	t4,fffe1cc6 <_end+0xfffdb1c2>
    66e0:	deadbeef          	jal	t4,fffe1cca <_end+0xfffdb1c6>
    66e4:	deadbeef          	jal	t4,fffe1cce <_end+0xfffdb1ca>
    66e8:	deadbeef          	jal	t4,fffe1cd2 <_end+0xfffdb1ce>
    66ec:	deadbeef          	jal	t4,fffe1cd6 <_end+0xfffdb1d2>
    66f0:	deadbeef          	jal	t4,fffe1cda <_end+0xfffdb1d6>
    66f4:	deadbeef          	jal	t4,fffe1cde <_end+0xfffdb1da>
    66f8:	deadbeef          	jal	t4,fffe1ce2 <_end+0xfffdb1de>
    66fc:	deadbeef          	jal	t4,fffe1ce6 <_end+0xfffdb1e2>
    6700:	deadbeef          	jal	t4,fffe1cea <_end+0xfffdb1e6>
    6704:	deadbeef          	jal	t4,fffe1cee <_end+0xfffdb1ea>
    6708:	deadbeef          	jal	t4,fffe1cf2 <_end+0xfffdb1ee>
    670c:	deadbeef          	jal	t4,fffe1cf6 <_end+0xfffdb1f2>
    6710:	deadbeef          	jal	t4,fffe1cfa <_end+0xfffdb1f6>
    6714:	deadbeef          	jal	t4,fffe1cfe <_end+0xfffdb1fa>
    6718:	deadbeef          	jal	t4,fffe1d02 <_end+0xfffdb1fe>
    671c:	deadbeef          	jal	t4,fffe1d06 <_end+0xfffdb202>
    6720:	deadbeef          	jal	t4,fffe1d0a <_end+0xfffdb206>
    6724:	deadbeef          	jal	t4,fffe1d0e <_end+0xfffdb20a>
    6728:	deadbeef          	jal	t4,fffe1d12 <_end+0xfffdb20e>
    672c:	deadbeef          	jal	t4,fffe1d16 <_end+0xfffdb212>
    6730:	deadbeef          	jal	t4,fffe1d1a <_end+0xfffdb216>
    6734:	deadbeef          	jal	t4,fffe1d1e <_end+0xfffdb21a>
    6738:	deadbeef          	jal	t4,fffe1d22 <_end+0xfffdb21e>
    673c:	deadbeef          	jal	t4,fffe1d26 <_end+0xfffdb222>
    6740:	deadbeef          	jal	t4,fffe1d2a <_end+0xfffdb226>
    6744:	deadbeef          	jal	t4,fffe1d2e <_end+0xfffdb22a>
    6748:	deadbeef          	jal	t4,fffe1d32 <_end+0xfffdb22e>
    674c:	deadbeef          	jal	t4,fffe1d36 <_end+0xfffdb232>
    6750:	deadbeef          	jal	t4,fffe1d3a <_end+0xfffdb236>
    6754:	deadbeef          	jal	t4,fffe1d3e <_end+0xfffdb23a>
    6758:	deadbeef          	jal	t4,fffe1d42 <_end+0xfffdb23e>
    675c:	deadbeef          	jal	t4,fffe1d46 <_end+0xfffdb242>
    6760:	deadbeef          	jal	t4,fffe1d4a <_end+0xfffdb246>
    6764:	deadbeef          	jal	t4,fffe1d4e <_end+0xfffdb24a>
    6768:	deadbeef          	jal	t4,fffe1d52 <_end+0xfffdb24e>
    676c:	deadbeef          	jal	t4,fffe1d56 <_end+0xfffdb252>
    6770:	deadbeef          	jal	t4,fffe1d5a <_end+0xfffdb256>
    6774:	deadbeef          	jal	t4,fffe1d5e <_end+0xfffdb25a>
    6778:	deadbeef          	jal	t4,fffe1d62 <_end+0xfffdb25e>
    677c:	deadbeef          	jal	t4,fffe1d66 <_end+0xfffdb262>
    6780:	deadbeef          	jal	t4,fffe1d6a <_end+0xfffdb266>
    6784:	deadbeef          	jal	t4,fffe1d6e <_end+0xfffdb26a>
    6788:	deadbeef          	jal	t4,fffe1d72 <_end+0xfffdb26e>
    678c:	deadbeef          	jal	t4,fffe1d76 <_end+0xfffdb272>
    6790:	deadbeef          	jal	t4,fffe1d7a <_end+0xfffdb276>
    6794:	deadbeef          	jal	t4,fffe1d7e <_end+0xfffdb27a>
    6798:	deadbeef          	jal	t4,fffe1d82 <_end+0xfffdb27e>
    679c:	deadbeef          	jal	t4,fffe1d86 <_end+0xfffdb282>
    67a0:	deadbeef          	jal	t4,fffe1d8a <_end+0xfffdb286>
    67a4:	deadbeef          	jal	t4,fffe1d8e <_end+0xfffdb28a>
    67a8:	deadbeef          	jal	t4,fffe1d92 <_end+0xfffdb28e>
    67ac:	deadbeef          	jal	t4,fffe1d96 <_end+0xfffdb292>
    67b0:	deadbeef          	jal	t4,fffe1d9a <_end+0xfffdb296>
    67b4:	deadbeef          	jal	t4,fffe1d9e <_end+0xfffdb29a>
    67b8:	deadbeef          	jal	t4,fffe1da2 <_end+0xfffdb29e>
    67bc:	deadbeef          	jal	t4,fffe1da6 <_end+0xfffdb2a2>
    67c0:	deadbeef          	jal	t4,fffe1daa <_end+0xfffdb2a6>
    67c4:	deadbeef          	jal	t4,fffe1dae <_end+0xfffdb2aa>
    67c8:	deadbeef          	jal	t4,fffe1db2 <_end+0xfffdb2ae>
    67cc:	deadbeef          	jal	t4,fffe1db6 <_end+0xfffdb2b2>
    67d0:	deadbeef          	jal	t4,fffe1dba <_end+0xfffdb2b6>
    67d4:	deadbeef          	jal	t4,fffe1dbe <_end+0xfffdb2ba>
    67d8:	deadbeef          	jal	t4,fffe1dc2 <_end+0xfffdb2be>
    67dc:	deadbeef          	jal	t4,fffe1dc6 <_end+0xfffdb2c2>
    67e0:	deadbeef          	jal	t4,fffe1dca <_end+0xfffdb2c6>
    67e4:	deadbeef          	jal	t4,fffe1dce <_end+0xfffdb2ca>
    67e8:	deadbeef          	jal	t4,fffe1dd2 <_end+0xfffdb2ce>
    67ec:	deadbeef          	jal	t4,fffe1dd6 <_end+0xfffdb2d2>
    67f0:	deadbeef          	jal	t4,fffe1dda <_end+0xfffdb2d6>
    67f4:	deadbeef          	jal	t4,fffe1dde <_end+0xfffdb2da>
    67f8:	deadbeef          	jal	t4,fffe1de2 <_end+0xfffdb2de>
    67fc:	deadbeef          	jal	t4,fffe1de6 <_end+0xfffdb2e2>
    6800:	deadbeef          	jal	t4,fffe1dea <_end+0xfffdb2e6>
    6804:	deadbeef          	jal	t4,fffe1dee <_end+0xfffdb2ea>
    6808:	deadbeef          	jal	t4,fffe1df2 <_end+0xfffdb2ee>
    680c:	deadbeef          	jal	t4,fffe1df6 <_end+0xfffdb2f2>
    6810:	deadbeef          	jal	t4,fffe1dfa <_end+0xfffdb2f6>
    6814:	deadbeef          	jal	t4,fffe1dfe <_end+0xfffdb2fa>
    6818:	deadbeef          	jal	t4,fffe1e02 <_end+0xfffdb2fe>
    681c:	deadbeef          	jal	t4,fffe1e06 <_end+0xfffdb302>
    6820:	deadbeef          	jal	t4,fffe1e0a <_end+0xfffdb306>
    6824:	deadbeef          	jal	t4,fffe1e0e <_end+0xfffdb30a>
    6828:	deadbeef          	jal	t4,fffe1e12 <_end+0xfffdb30e>
    682c:	deadbeef          	jal	t4,fffe1e16 <_end+0xfffdb312>
    6830:	deadbeef          	jal	t4,fffe1e1a <_end+0xfffdb316>
    6834:	deadbeef          	jal	t4,fffe1e1e <_end+0xfffdb31a>
    6838:	deadbeef          	jal	t4,fffe1e22 <_end+0xfffdb31e>
    683c:	deadbeef          	jal	t4,fffe1e26 <_end+0xfffdb322>
    6840:	deadbeef          	jal	t4,fffe1e2a <_end+0xfffdb326>
    6844:	deadbeef          	jal	t4,fffe1e2e <_end+0xfffdb32a>
    6848:	deadbeef          	jal	t4,fffe1e32 <_end+0xfffdb32e>
    684c:	deadbeef          	jal	t4,fffe1e36 <_end+0xfffdb332>

00006850 <signature_x1_1>:
    6850:	deadbeef          	jal	t4,fffe1e3a <_end+0xfffdb336>
    6854:	deadbeef          	jal	t4,fffe1e3e <_end+0xfffdb33a>
    6858:	deadbeef          	jal	t4,fffe1e42 <_end+0xfffdb33e>
    685c:	deadbeef          	jal	t4,fffe1e46 <_end+0xfffdb342>
    6860:	deadbeef          	jal	t4,fffe1e4a <_end+0xfffdb346>
    6864:	deadbeef          	jal	t4,fffe1e4e <_end+0xfffdb34a>
    6868:	deadbeef          	jal	t4,fffe1e52 <_end+0xfffdb34e>
    686c:	deadbeef          	jal	t4,fffe1e56 <_end+0xfffdb352>
    6870:	deadbeef          	jal	t4,fffe1e5a <_end+0xfffdb356>
    6874:	deadbeef          	jal	t4,fffe1e5e <_end+0xfffdb35a>
    6878:	deadbeef          	jal	t4,fffe1e62 <_end+0xfffdb35e>
    687c:	deadbeef          	jal	t4,fffe1e66 <_end+0xfffdb362>
    6880:	deadbeef          	jal	t4,fffe1e6a <_end+0xfffdb366>
    6884:	deadbeef          	jal	t4,fffe1e6e <_end+0xfffdb36a>
    6888:	deadbeef          	jal	t4,fffe1e72 <_end+0xfffdb36e>
    688c:	deadbeef          	jal	t4,fffe1e76 <_end+0xfffdb372>
    6890:	deadbeef          	jal	t4,fffe1e7a <_end+0xfffdb376>
    6894:	deadbeef          	jal	t4,fffe1e7e <_end+0xfffdb37a>
    6898:	deadbeef          	jal	t4,fffe1e82 <_end+0xfffdb37e>
    689c:	deadbeef          	jal	t4,fffe1e86 <_end+0xfffdb382>
    68a0:	deadbeef          	jal	t4,fffe1e8a <_end+0xfffdb386>
    68a4:	deadbeef          	jal	t4,fffe1e8e <_end+0xfffdb38a>
    68a8:	deadbeef          	jal	t4,fffe1e92 <_end+0xfffdb38e>
    68ac:	deadbeef          	jal	t4,fffe1e96 <_end+0xfffdb392>
    68b0:	deadbeef          	jal	t4,fffe1e9a <_end+0xfffdb396>
    68b4:	deadbeef          	jal	t4,fffe1e9e <_end+0xfffdb39a>
    68b8:	deadbeef          	jal	t4,fffe1ea2 <_end+0xfffdb39e>
    68bc:	deadbeef          	jal	t4,fffe1ea6 <_end+0xfffdb3a2>
    68c0:	deadbeef          	jal	t4,fffe1eaa <_end+0xfffdb3a6>
    68c4:	deadbeef          	jal	t4,fffe1eae <_end+0xfffdb3aa>
    68c8:	deadbeef          	jal	t4,fffe1eb2 <_end+0xfffdb3ae>
    68cc:	deadbeef          	jal	t4,fffe1eb6 <_end+0xfffdb3b2>
    68d0:	deadbeef          	jal	t4,fffe1eba <_end+0xfffdb3b6>
    68d4:	deadbeef          	jal	t4,fffe1ebe <_end+0xfffdb3ba>
    68d8:	deadbeef          	jal	t4,fffe1ec2 <_end+0xfffdb3be>
    68dc:	deadbeef          	jal	t4,fffe1ec6 <_end+0xfffdb3c2>
    68e0:	deadbeef          	jal	t4,fffe1eca <_end+0xfffdb3c6>
    68e4:	deadbeef          	jal	t4,fffe1ece <_end+0xfffdb3ca>
    68e8:	deadbeef          	jal	t4,fffe1ed2 <_end+0xfffdb3ce>
    68ec:	deadbeef          	jal	t4,fffe1ed6 <_end+0xfffdb3d2>
    68f0:	deadbeef          	jal	t4,fffe1eda <_end+0xfffdb3d6>
    68f4:	deadbeef          	jal	t4,fffe1ede <_end+0xfffdb3da>
    68f8:	deadbeef          	jal	t4,fffe1ee2 <_end+0xfffdb3de>
    68fc:	deadbeef          	jal	t4,fffe1ee6 <_end+0xfffdb3e2>
    6900:	deadbeef          	jal	t4,fffe1eea <_end+0xfffdb3e6>
    6904:	deadbeef          	jal	t4,fffe1eee <_end+0xfffdb3ea>
    6908:	deadbeef          	jal	t4,fffe1ef2 <_end+0xfffdb3ee>
    690c:	deadbeef          	jal	t4,fffe1ef6 <_end+0xfffdb3f2>
    6910:	deadbeef          	jal	t4,fffe1efa <_end+0xfffdb3f6>
    6914:	deadbeef          	jal	t4,fffe1efe <_end+0xfffdb3fa>
    6918:	deadbeef          	jal	t4,fffe1f02 <_end+0xfffdb3fe>
    691c:	deadbeef          	jal	t4,fffe1f06 <_end+0xfffdb402>
    6920:	deadbeef          	jal	t4,fffe1f0a <_end+0xfffdb406>
    6924:	deadbeef          	jal	t4,fffe1f0e <_end+0xfffdb40a>
    6928:	deadbeef          	jal	t4,fffe1f12 <_end+0xfffdb40e>
    692c:	0000                	.insn	2, 0x0000
    692e:	0000                	.insn	2, 0x0000

00006930 <end_signature>:
    6930:	0000                	.insn	2, 0x0000
    6932:	0000                	.insn	2, 0x0000
    6934:	0000                	.insn	2, 0x0000
    6936:	0000                	.insn	2, 0x0000
    6938:	0000                	.insn	2, 0x0000
    693a:	0000                	.insn	2, 0x0000
    693c:	0000                	.insn	2, 0x0000
    693e:	0000                	.insn	2, 0x0000
    6940:	0000                	.insn	2, 0x0000
    6942:	0000                	.insn	2, 0x0000
    6944:	0000                	.insn	2, 0x0000
    6946:	0000                	.insn	2, 0x0000
    6948:	0000                	.insn	2, 0x0000
    694a:	0000                	.insn	2, 0x0000
    694c:	0000                	.insn	2, 0x0000
    694e:	0000                	.insn	2, 0x0000
    6950:	0000                	.insn	2, 0x0000
    6952:	0000                	.insn	2, 0x0000
    6954:	0000                	.insn	2, 0x0000
    6956:	0000                	.insn	2, 0x0000
    6958:	0000                	.insn	2, 0x0000
    695a:	0000                	.insn	2, 0x0000
    695c:	0000                	.insn	2, 0x0000
    695e:	0000                	.insn	2, 0x0000
    6960:	0000                	.insn	2, 0x0000
    6962:	0000                	.insn	2, 0x0000
    6964:	0000                	.insn	2, 0x0000
    6966:	0000                	.insn	2, 0x0000
    6968:	0000                	.insn	2, 0x0000
    696a:	0000                	.insn	2, 0x0000
    696c:	0000                	.insn	2, 0x0000
    696e:	0000                	.insn	2, 0x0000
    6970:	0000                	.insn	2, 0x0000
    6972:	0000                	.insn	2, 0x0000
    6974:	0000                	.insn	2, 0x0000
    6976:	0000                	.insn	2, 0x0000
    6978:	0000                	.insn	2, 0x0000
    697a:	0000                	.insn	2, 0x0000
    697c:	0000                	.insn	2, 0x0000
    697e:	0000                	.insn	2, 0x0000
    6980:	0000                	.insn	2, 0x0000
    6982:	0000                	.insn	2, 0x0000
    6984:	0000                	.insn	2, 0x0000
    6986:	0000                	.insn	2, 0x0000
    6988:	0000                	.insn	2, 0x0000
    698a:	0000                	.insn	2, 0x0000
    698c:	0000                	.insn	2, 0x0000
    698e:	0000                	.insn	2, 0x0000
    6990:	0000                	.insn	2, 0x0000
    6992:	0000                	.insn	2, 0x0000
    6994:	0000                	.insn	2, 0x0000
    6996:	0000                	.insn	2, 0x0000
    6998:	0000                	.insn	2, 0x0000
    699a:	0000                	.insn	2, 0x0000
    699c:	0000                	.insn	2, 0x0000
    699e:	0000                	.insn	2, 0x0000
    69a0:	0000                	.insn	2, 0x0000
    69a2:	0000                	.insn	2, 0x0000
    69a4:	0000                	.insn	2, 0x0000
    69a6:	0000                	.insn	2, 0x0000
    69a8:	0000                	.insn	2, 0x0000
    69aa:	0000                	.insn	2, 0x0000
    69ac:	0000                	.insn	2, 0x0000
    69ae:	0000                	.insn	2, 0x0000
    69b0:	0000                	.insn	2, 0x0000
    69b2:	0000                	.insn	2, 0x0000
    69b4:	0000                	.insn	2, 0x0000
    69b6:	0000                	.insn	2, 0x0000
    69b8:	0000                	.insn	2, 0x0000
    69ba:	0000                	.insn	2, 0x0000
    69bc:	0000                	.insn	2, 0x0000
    69be:	0000                	.insn	2, 0x0000
    69c0:	0000                	.insn	2, 0x0000
    69c2:	0000                	.insn	2, 0x0000
    69c4:	0000                	.insn	2, 0x0000
    69c6:	0000                	.insn	2, 0x0000
    69c8:	0000                	.insn	2, 0x0000
    69ca:	0000                	.insn	2, 0x0000
    69cc:	0000                	.insn	2, 0x0000
    69ce:	0000                	.insn	2, 0x0000
    69d0:	0000                	.insn	2, 0x0000
    69d2:	0000                	.insn	2, 0x0000
    69d4:	0000                	.insn	2, 0x0000
    69d6:	0000                	.insn	2, 0x0000
    69d8:	0000                	.insn	2, 0x0000
    69da:	0000                	.insn	2, 0x0000
    69dc:	0000                	.insn	2, 0x0000
    69de:	0000                	.insn	2, 0x0000
    69e0:	0000                	.insn	2, 0x0000
    69e2:	0000                	.insn	2, 0x0000
    69e4:	0000                	.insn	2, 0x0000
    69e6:	0000                	.insn	2, 0x0000
    69e8:	0000                	.insn	2, 0x0000
    69ea:	0000                	.insn	2, 0x0000
    69ec:	0000                	.insn	2, 0x0000
    69ee:	0000                	.insn	2, 0x0000
    69f0:	0000                	.insn	2, 0x0000
    69f2:	0000                	.insn	2, 0x0000
    69f4:	0000                	.insn	2, 0x0000
    69f6:	0000                	.insn	2, 0x0000
    69f8:	0000                	.insn	2, 0x0000
    69fa:	0000                	.insn	2, 0x0000
    69fc:	0000                	.insn	2, 0x0000
    69fe:	0000                	.insn	2, 0x0000

00006a00 <begin_regstate>:
    6a00:	0080                	.insn	2, 0x0080
    6a02:	0000                	.insn	2, 0x0000
    6a04:	0000                	.insn	2, 0x0000
    6a06:	0000                	.insn	2, 0x0000
    6a08:	0000                	.insn	2, 0x0000
    6a0a:	0000                	.insn	2, 0x0000
    6a0c:	0000                	.insn	2, 0x0000
    6a0e:	0000                	.insn	2, 0x0000
    6a10:	0000                	.insn	2, 0x0000
    6a12:	0000                	.insn	2, 0x0000
    6a14:	0000                	.insn	2, 0x0000
    6a16:	0000                	.insn	2, 0x0000
    6a18:	0000                	.insn	2, 0x0000
    6a1a:	0000                	.insn	2, 0x0000
    6a1c:	0000                	.insn	2, 0x0000
    6a1e:	0000                	.insn	2, 0x0000
    6a20:	0000                	.insn	2, 0x0000
    6a22:	0000                	.insn	2, 0x0000
    6a24:	0000                	.insn	2, 0x0000
    6a26:	0000                	.insn	2, 0x0000
    6a28:	0000                	.insn	2, 0x0000
    6a2a:	0000                	.insn	2, 0x0000
    6a2c:	0000                	.insn	2, 0x0000
    6a2e:	0000                	.insn	2, 0x0000
    6a30:	0000                	.insn	2, 0x0000
    6a32:	0000                	.insn	2, 0x0000
    6a34:	0000                	.insn	2, 0x0000
    6a36:	0000                	.insn	2, 0x0000
    6a38:	0000                	.insn	2, 0x0000
    6a3a:	0000                	.insn	2, 0x0000
    6a3c:	0000                	.insn	2, 0x0000
    6a3e:	0000                	.insn	2, 0x0000
    6a40:	0000                	.insn	2, 0x0000
    6a42:	0000                	.insn	2, 0x0000
    6a44:	0000                	.insn	2, 0x0000
    6a46:	0000                	.insn	2, 0x0000
    6a48:	0000                	.insn	2, 0x0000
    6a4a:	0000                	.insn	2, 0x0000
    6a4c:	0000                	.insn	2, 0x0000
    6a4e:	0000                	.insn	2, 0x0000
    6a50:	0000                	.insn	2, 0x0000
    6a52:	0000                	.insn	2, 0x0000
    6a54:	0000                	.insn	2, 0x0000
    6a56:	0000                	.insn	2, 0x0000
    6a58:	0000                	.insn	2, 0x0000
    6a5a:	0000                	.insn	2, 0x0000
    6a5c:	0000                	.insn	2, 0x0000
    6a5e:	0000                	.insn	2, 0x0000
    6a60:	0000                	.insn	2, 0x0000
    6a62:	0000                	.insn	2, 0x0000
    6a64:	0000                	.insn	2, 0x0000
    6a66:	0000                	.insn	2, 0x0000
    6a68:	0000                	.insn	2, 0x0000
    6a6a:	0000                	.insn	2, 0x0000
    6a6c:	0000                	.insn	2, 0x0000
    6a6e:	0000                	.insn	2, 0x0000
    6a70:	0000                	.insn	2, 0x0000
    6a72:	0000                	.insn	2, 0x0000
    6a74:	0000                	.insn	2, 0x0000
    6a76:	0000                	.insn	2, 0x0000
    6a78:	0000                	.insn	2, 0x0000
    6a7a:	0000                	.insn	2, 0x0000
    6a7c:	0000                	.insn	2, 0x0000
    6a7e:	0000                	.insn	2, 0x0000
    6a80:	0000                	.insn	2, 0x0000
    6a82:	0000                	.insn	2, 0x0000
    6a84:	0000                	.insn	2, 0x0000
    6a86:	0000                	.insn	2, 0x0000
    6a88:	0000                	.insn	2, 0x0000
    6a8a:	0000                	.insn	2, 0x0000
    6a8c:	0000                	.insn	2, 0x0000
    6a8e:	0000                	.insn	2, 0x0000
    6a90:	0000                	.insn	2, 0x0000
    6a92:	0000                	.insn	2, 0x0000
    6a94:	0000                	.insn	2, 0x0000
    6a96:	0000                	.insn	2, 0x0000
    6a98:	0000                	.insn	2, 0x0000
    6a9a:	0000                	.insn	2, 0x0000
    6a9c:	0000                	.insn	2, 0x0000
    6a9e:	0000                	.insn	2, 0x0000
    6aa0:	0000                	.insn	2, 0x0000
    6aa2:	0000                	.insn	2, 0x0000
    6aa4:	0000                	.insn	2, 0x0000
    6aa6:	0000                	.insn	2, 0x0000
    6aa8:	0000                	.insn	2, 0x0000
    6aaa:	0000                	.insn	2, 0x0000
    6aac:	0000                	.insn	2, 0x0000
    6aae:	0000                	.insn	2, 0x0000
    6ab0:	0000                	.insn	2, 0x0000
    6ab2:	0000                	.insn	2, 0x0000
    6ab4:	0000                	.insn	2, 0x0000
    6ab6:	0000                	.insn	2, 0x0000
    6ab8:	0000                	.insn	2, 0x0000
    6aba:	0000                	.insn	2, 0x0000
    6abc:	0000                	.insn	2, 0x0000
    6abe:	0000                	.insn	2, 0x0000
    6ac0:	0000                	.insn	2, 0x0000
    6ac2:	0000                	.insn	2, 0x0000
    6ac4:	0000                	.insn	2, 0x0000
    6ac6:	0000                	.insn	2, 0x0000
    6ac8:	0000                	.insn	2, 0x0000
    6aca:	0000                	.insn	2, 0x0000
    6acc:	0000                	.insn	2, 0x0000
    6ace:	0000                	.insn	2, 0x0000
    6ad0:	0000                	.insn	2, 0x0000
    6ad2:	0000                	.insn	2, 0x0000
    6ad4:	0000                	.insn	2, 0x0000
    6ad6:	0000                	.insn	2, 0x0000
    6ad8:	0000                	.insn	2, 0x0000
    6ada:	0000                	.insn	2, 0x0000
    6adc:	0000                	.insn	2, 0x0000
    6ade:	0000                	.insn	2, 0x0000
    6ae0:	0000                	.insn	2, 0x0000
    6ae2:	0000                	.insn	2, 0x0000
    6ae4:	0000                	.insn	2, 0x0000
    6ae6:	0000                	.insn	2, 0x0000
    6ae8:	0000                	.insn	2, 0x0000
    6aea:	0000                	.insn	2, 0x0000
    6aec:	0000                	.insn	2, 0x0000
    6aee:	0000                	.insn	2, 0x0000
    6af0:	0000                	.insn	2, 0x0000
    6af2:	0000                	.insn	2, 0x0000
    6af4:	0000                	.insn	2, 0x0000
    6af6:	0000                	.insn	2, 0x0000
    6af8:	0000                	.insn	2, 0x0000
    6afa:	0000                	.insn	2, 0x0000
    6afc:	0000                	.insn	2, 0x0000
    6afe:	0000                	.insn	2, 0x0000

00006b00 <end_regstate>:
    6b00:	0004                	.insn	2, 0x0004
    6b02:	0000                	.insn	2, 0x0000
