
kmean.riscv:     file format elf32-littleriscv

Sections:
Idx Name          Size      VMA       LMA       File off  Algn
  0 .text.isr     00000104  00000080  00000080  00001080  2**0
                  CONTENTS, ALLOC, LOAD, READONLY, CODE
  1 .text.init    000000a8  00000200  00000200  00001200  2**0
                  CONTENTS, ALLOC, LOAD, READONLY, CODE
  2 .text         000003b0  000002a8  000002a8  000012a8  2**2
                  CONTENTS, ALLOC, LOAD, READONLY, CODE
  3 .text.startup 000000d0  00000658  00000658  00001658  2**2
                  CONTENTS, ALLOC, LOAD, READONLY, CODE
  4 .rodata       00000060  00000728  00000728  00001728  2**2
                  CONTENTS, ALLOC, LOAD, READONLY, DATA
  5 .eh_frame     0000013c  00000788  00000788  00001788  2**2
                  CONTENTS, ALLOC, LOAD, READONLY, DATA
  6 .data         00000028  000008c4  000008c4  000018c4  2**2
                  CONTENTS, ALLOC, LOAD, DATA
  7 .comment      0000001b  00000000  00000000  000018ec  2**0
                  CONTENTS, READONLY
  8 .riscv.attributes 00000037  00000000  00000000  00001907  2**0
                  CONTENTS, READONLY

Disassembly of section .text.isr:

00000080 <isr_entry>:
  80:	00112023          	sw	ra,0(sp)
  84:	fe312e23          	sw	gp,-4(sp)
  88:	fe412c23          	sw	tp,-8(sp)
  8c:	fe512a23          	sw	t0,-12(sp)
  90:	fe612823          	sw	t1,-16(sp)
  94:	fe712623          	sw	t2,-20(sp)
  98:	fe812423          	sw	s0,-24(sp)
  9c:	fe912223          	sw	s1,-28(sp)
  a0:	fea12023          	sw	a0,-32(sp)
  a4:	fcb12e23          	sw	a1,-36(sp)
  a8:	fcc12c23          	sw	a2,-40(sp)
  ac:	fcd12a23          	sw	a3,-44(sp)
  b0:	fce12823          	sw	a4,-48(sp)
  b4:	fcf12623          	sw	a5,-52(sp)
  b8:	fd012423          	sw	a6,-56(sp)
  bc:	fd112223          	sw	a7,-60(sp)
  c0:	fd212023          	sw	s2,-64(sp)
  c4:	fb312e23          	sw	s3,-68(sp)
  c8:	fb412c23          	sw	s4,-72(sp)
  cc:	fb512a23          	sw	s5,-76(sp)
  d0:	fb612823          	sw	s6,-80(sp)
  d4:	fb712623          	sw	s7,-84(sp)
  d8:	fb812423          	sw	s8,-88(sp)
  dc:	fb912223          	sw	s9,-92(sp)
  e0:	fba12023          	sw	s10,-96(sp)
  e4:	f9b12e23          	sw	s11,-100(sp)
  e8:	f9c12c23          	sw	t3,-104(sp)
  ec:	f9d12a23          	sw	t4,-108(sp)
  f0:	f9e12823          	sw	t5,-112(sp)
  f4:	f9f12623          	sw	t6,-116(sp)
  f8:	f8010113          	addi	sp,sp,-128
  fc:	00002573          	csrr	a0,ustatus
 100:	310000ef          	jal	410 <__int_handler>
 104:	08010113          	addi	sp,sp,128
 108:	00012083          	lw	ra,0(sp)
 10c:	ffc12183          	lw	gp,-4(sp)
 110:	ff812203          	lw	tp,-8(sp)
 114:	ff412283          	lw	t0,-12(sp)
 118:	ff012303          	lw	t1,-16(sp)
 11c:	fec12383          	lw	t2,-20(sp)
 120:	fe812403          	lw	s0,-24(sp)
 124:	fe412483          	lw	s1,-28(sp)
 128:	fe012503          	lw	a0,-32(sp)
 12c:	fdc12583          	lw	a1,-36(sp)
 130:	fd812603          	lw	a2,-40(sp)
 134:	fd412683          	lw	a3,-44(sp)
 138:	fd012703          	lw	a4,-48(sp)
 13c:	fcc12783          	lw	a5,-52(sp)
 140:	fc812803          	lw	a6,-56(sp)
 144:	fc412883          	lw	a7,-60(sp)
 148:	fc012903          	lw	s2,-64(sp)
 14c:	fbc12983          	lw	s3,-68(sp)
 150:	fb812a03          	lw	s4,-72(sp)
 154:	fb412a83          	lw	s5,-76(sp)
 158:	fb012b03          	lw	s6,-80(sp)
 15c:	fac12b83          	lw	s7,-84(sp)
 160:	fa812c03          	lw	s8,-88(sp)
 164:	fa412c83          	lw	s9,-92(sp)
 168:	fa012d03          	lw	s10,-96(sp)
 16c:	f9c12d83          	lw	s11,-100(sp)
 170:	f9812e03          	lw	t3,-104(sp)
 174:	f9412e83          	lw	t4,-108(sp)
 178:	f9012f03          	lw	t5,-112(sp)
 17c:	f8c12f83          	lw	t6,-116(sp)
 180:	30200073          	mret

Disassembly of section .text.init:

00000200 <_start>:
 200:	00000093          	li	ra,0
 204:	00000113          	li	sp,0
 208:	00000193          	li	gp,0
 20c:	00000213          	li	tp,0
 210:	00000293          	li	t0,0
 214:	00000313          	li	t1,0
 218:	00000393          	li	t2,0
 21c:	00000413          	li	s0,0
 220:	00000493          	li	s1,0
 224:	00000513          	li	a0,0
 228:	00000593          	li	a1,0
 22c:	00000613          	li	a2,0
 230:	00000693          	li	a3,0
 234:	00000713          	li	a4,0
 238:	00000793          	li	a5,0
 23c:	00000813          	li	a6,0
 240:	00000893          	li	a7,0
 244:	00000913          	li	s2,0
 248:	00000993          	li	s3,0
 24c:	00000a13          	li	s4,0
 250:	00000a93          	li	s5,0
 254:	00000b13          	li	s6,0
 258:	00000b93          	li	s7,0
 25c:	00000c13          	li	s8,0
 260:	00000c93          	li	s9,0
 264:	00000d13          	li	s10,0
 268:	00000d93          	li	s11,0
 26c:	00000e13          	li	t3,0
 270:	00000e93          	li	t4,0
 274:	00000f13          	li	t5,0
 278:	00000f93          	li	t6,0
 27c:	00001197          	auipc	gp,0x1
 280:	e7018193          	addi	gp,gp,-400 # 10ec <__global_pointer$>
 284:	00000217          	auipc	tp,0x0
 288:	6a720213          	addi	tp,tp,1703 # 92b <_end+0x3f>
 28c:	fc027213          	andi	tp,tp,-64
 290:	00e51613          	slli	a2,a0,0xe
 294:	00c20233          	add	tp,tp,a2
 298:	00150113          	addi	sp,a0,1
 29c:	00e11113          	slli	sp,sp,0xe
 2a0:	00410133          	add	sp,sp,tp
 2a4:	3b40006f          	j	658 <main>

Disassembly of section .text:

000002a8 <abs>:
 2a8:	41f55793          	srai	a5,a0,0x1f
 2ac:	00a7c533          	xor	a0,a5,a0
 2b0:	40f50533          	sub	a0,a0,a5
 2b4:	00008067          	ret

000002b8 <distance>:
 2b8:	00052703          	lw	a4,0(a0)
 2bc:	800007b7          	lui	a5,0x80000
 2c0:	00e7a823          	sw	a4,16(a5) # 80000010 <__global_pointer$+0x7fffef24>
 2c4:	0005a683          	lw	a3,0(a1)
 2c8:	80000737          	lui	a4,0x80000
 2cc:	00d72a23          	sw	a3,20(a4) # 80000014 <__global_pointer$+0x7fffef28>
 2d0:	01872503          	lw	a0,24(a4)
 2d4:	00008067          	ret

000002d8 <kmean>:
 2d8:	ff010113          	addi	sp,sp,-16
 2dc:	80000eb7          	lui	t4,0x80000
 2e0:	80000e37          	lui	t3,0x80000
 2e4:	80000337          	lui	t1,0x80000
 2e8:	00812623          	sw	s0,12(sp)
 2ec:	00912423          	sw	s1,8(sp)
 2f0:	09058893          	addi	a7,a1,144
 2f4:	00058493          	mv	s1,a1
 2f8:	01212223          	sw	s2,4(sp)
 2fc:	02050413          	addi	s0,a0,32
 300:	010e8e93          	addi	t4,t4,16 # 80000010 <__global_pointer$+0x7fffef24>
 304:	014e0e13          	addi	t3,t3,20 # 80000014 <__global_pointer$+0x7fffef28>
 308:	01830313          	addi	t1,t1,24 # 80000018 <__global_pointer$+0x7fffef2c>
 30c:	fff00593          	li	a1,-1
 310:	00400f13          	li	t5,4
 314:	00050393          	mv	t2,a0
 318:	00050793          	mv	a5,a0
 31c:	0007a703          	lw	a4,0(a5)
 320:	00878793          	addi	a5,a5,8
 324:	fee7ae23          	sw	a4,-4(a5)
 328:	fe879ae3          	bne	a5,s0,31c <kmean+0x44>
 32c:	00048793          	mv	a5,s1
 330:	00b7a223          	sw	a1,4(a5)
 334:	00050693          	mv	a3,a0
 338:	00000713          	li	a4,0
 33c:	0007a603          	lw	a2,0(a5)
 340:	00868693          	addi	a3,a3,8
 344:	00cea023          	sw	a2,0(t4)
 348:	ff86a603          	lw	a2,-8(a3)
 34c:	00ce2023          	sw	a2,0(t3)
 350:	00032603          	lw	a2,0(t1)
 354:	0047a803          	lw	a6,4(a5)
 358:	01067663          	bgeu	a2,a6,364 <kmean+0x8c>
 35c:	00c7a223          	sw	a2,4(a5)
 360:	00e7a423          	sw	a4,8(a5)
 364:	00170713          	addi	a4,a4,1
 368:	fde71ae3          	bne	a4,t5,33c <kmean+0x64>
 36c:	00c78793          	addi	a5,a5,12
 370:	fcf890e3          	bne	a7,a5,330 <kmean+0x58>
 374:	00050913          	mv	s2,a0
 378:	00000693          	li	a3,0
 37c:	00095803          	lhu	a6,0(s2)
 380:	00295603          	lhu	a2,2(s2)
 384:	00048793          	mv	a5,s1
 388:	00100f93          	li	t6,1
 38c:	0087a703          	lw	a4,8(a5)
 390:	00e69c63          	bne	a3,a4,3a8 <kmean+0xd0>
 394:	0007d283          	lhu	t0,0(a5)
 398:	0027d703          	lhu	a4,2(a5)
 39c:	001f8f93          	addi	t6,t6,1
 3a0:	00580833          	add	a6,a6,t0
 3a4:	00e60633          	add	a2,a2,a4
 3a8:	00c78793          	addi	a5,a5,12
 3ac:	fef890e3          	bne	a7,a5,38c <kmean+0xb4>
 3b0:	03f85833          	divu	a6,a6,t6
 3b4:	00168693          	addi	a3,a3,1
 3b8:	00890913          	addi	s2,s2,8
 3bc:	03f65633          	divu	a2,a2,t6
 3c0:	ff091c23          	sh	a6,-8(s2)
 3c4:	fec91d23          	sh	a2,-6(s2)
 3c8:	fbe69ae3          	bne	a3,t5,37c <kmean+0xa4>
 3cc:	00000713          	li	a4,0
 3d0:	0003a783          	lw	a5,0(t2)
 3d4:	00838393          	addi	t2,t2,8
 3d8:	00fea023          	sw	a5,0(t4)
 3dc:	ffc3a783          	lw	a5,-4(t2)
 3e0:	00fe2023          	sw	a5,0(t3)
 3e4:	00032783          	lw	a5,0(t1)
 3e8:	0027b793          	sltiu	a5,a5,2
 3ec:	0017b793          	seqz	a5,a5
 3f0:	00f76733          	or	a4,a4,a5
 3f4:	fc741ee3          	bne	s0,t2,3d0 <kmean+0xf8>
 3f8:	f0071ee3          	bnez	a4,314 <kmean+0x3c>
 3fc:	00c12403          	lw	s0,12(sp)
 400:	00812483          	lw	s1,8(sp)
 404:	00412903          	lw	s2,4(sp)
 408:	01010113          	addi	sp,sp,16
 40c:	00008067          	ret

00000410 <__int_handler>:
 410:	00251693          	slli	a3,a0,0x2
 414:	00000717          	auipc	a4,0x0
 418:	4b070713          	addi	a4,a4,1200 # 8c4 <isr>
 41c:	00d70733          	add	a4,a4,a3
 420:	00a52793          	slti	a5,a0,10
 424:	00072703          	lw	a4,0(a4)
 428:	00078863          	beqz	a5,438 <__int_handler+0x28>
 42c:	00170793          	addi	a5,a4,1
 430:	00078463          	beqz	a5,438 <__int_handler+0x28>
 434:	00070067          	jr	a4
 438:	00008067          	ret

0000043c <ConnectISR>:
 43c:	00900793          	li	a5,9
 440:	02a7c063          	blt	a5,a0,460 <ConnectISR+0x24>
 444:	00251513          	slli	a0,a0,0x2
 448:	00000797          	auipc	a5,0x0
 44c:	47c78793          	addi	a5,a5,1148 # 8c4 <isr>
 450:	00a787b3          	add	a5,a5,a0
 454:	00b7a023          	sw	a1,0(a5)
 458:	00000513          	li	a0,0
 45c:	00008067          	ret
 460:	fff00513          	li	a0,-1
 464:	00008067          	ret

00000468 <memcpy>:
 468:	00c5e7b3          	or	a5,a1,a2
 46c:	00f567b3          	or	a5,a0,a5
 470:	0037f793          	andi	a5,a5,3
 474:	00c506b3          	add	a3,a0,a2
 478:	02078463          	beqz	a5,4a0 <memcpy+0x38>
 47c:	00c58633          	add	a2,a1,a2
 480:	00050793          	mv	a5,a0
 484:	02d57e63          	bgeu	a0,a3,4c0 <memcpy+0x58>
 488:	0005c703          	lbu	a4,0(a1)
 48c:	00158593          	addi	a1,a1,1
 490:	00178793          	addi	a5,a5,1
 494:	fee78fa3          	sb	a4,-1(a5)
 498:	feb618e3          	bne	a2,a1,488 <memcpy+0x20>
 49c:	00008067          	ret
 4a0:	fed57ee3          	bgeu	a0,a3,49c <memcpy+0x34>
 4a4:	00050793          	mv	a5,a0
 4a8:	0005a703          	lw	a4,0(a1)
 4ac:	00478793          	addi	a5,a5,4
 4b0:	00458593          	addi	a1,a1,4
 4b4:	fee7ae23          	sw	a4,-4(a5)
 4b8:	fed7e8e3          	bltu	a5,a3,4a8 <memcpy+0x40>
 4bc:	00008067          	ret
 4c0:	00008067          	ret

000004c4 <memset>:
 4c4:	00c567b3          	or	a5,a0,a2
 4c8:	0037f793          	andi	a5,a5,3
 4cc:	00050813          	mv	a6,a0
 4d0:	00c50733          	add	a4,a0,a2
 4d4:	02078863          	beqz	a5,504 <memset+0x40>
 4d8:	04e57a63          	bgeu	a0,a4,52c <memset+0x68>
 4dc:	fe010113          	addi	sp,sp,-32
 4e0:	0ff5f593          	zext.b	a1,a1
 4e4:	00112e23          	sw	ra,28(sp)
 4e8:	00a12623          	sw	a0,12(sp)
 4ec:	fd9ff0ef          	jal	4c4 <memset>
 4f0:	00c12803          	lw	a6,12(sp)
 4f4:	01c12083          	lw	ra,28(sp)
 4f8:	00080513          	mv	a0,a6
 4fc:	02010113          	addi	sp,sp,32
 500:	00008067          	ret
 504:	02e57463          	bgeu	a0,a4,52c <memset+0x68>
 508:	0ff5f593          	zext.b	a1,a1
 50c:	00859693          	slli	a3,a1,0x8
 510:	00b686b3          	add	a3,a3,a1
 514:	01069793          	slli	a5,a3,0x10
 518:	00f686b3          	add	a3,a3,a5
 51c:	00050793          	mv	a5,a0
 520:	00478793          	addi	a5,a5,4
 524:	fed7ae23          	sw	a3,-4(a5)
 528:	fee7ece3          	bltu	a5,a4,520 <memset+0x5c>
 52c:	00080513          	mv	a0,a6
 530:	00008067          	ret

00000534 <strlen>:
 534:	00054783          	lbu	a5,0(a0)
 538:	00078e63          	beqz	a5,554 <strlen+0x20>
 53c:	00050793          	mv	a5,a0
 540:	0017c703          	lbu	a4,1(a5)
 544:	00178793          	addi	a5,a5,1
 548:	fe071ce3          	bnez	a4,540 <strlen+0xc>
 54c:	40a78533          	sub	a0,a5,a0
 550:	00008067          	ret
 554:	00000513          	li	a0,0
 558:	00008067          	ret

0000055c <strnlen>:
 55c:	00b506b3          	add	a3,a0,a1
 560:	00050793          	mv	a5,a0
 564:	00059863          	bnez	a1,574 <strnlen+0x18>
 568:	01c0006f          	j	584 <strnlen+0x28>
 56c:	00178793          	addi	a5,a5,1
 570:	00d78663          	beq	a5,a3,57c <strnlen+0x20>
 574:	0007c703          	lbu	a4,0(a5)
 578:	fe071ae3          	bnez	a4,56c <strnlen+0x10>
 57c:	40a78533          	sub	a0,a5,a0
 580:	00008067          	ret
 584:	00000513          	li	a0,0
 588:	00008067          	ret

0000058c <strcmp>:
 58c:	00050713          	mv	a4,a0
 590:	00074783          	lbu	a5,0(a4)
 594:	0005c683          	lbu	a3,0(a1)
 598:	00170713          	addi	a4,a4,1
 59c:	00158593          	addi	a1,a1,1
 5a0:	40d78533          	sub	a0,a5,a3
 5a4:	00078663          	beqz	a5,5b0 <strcmp+0x24>
 5a8:	fed784e3          	beq	a5,a3,590 <strcmp+0x4>
 5ac:	00008067          	ret
 5b0:	00008067          	ret

000005b4 <strcpy>:
 5b4:	00050793          	mv	a5,a0
 5b8:	0005c703          	lbu	a4,0(a1)
 5bc:	00158593          	addi	a1,a1,1
 5c0:	00178793          	addi	a5,a5,1
 5c4:	fee78fa3          	sb	a4,-1(a5)
 5c8:	fe0718e3          	bnez	a4,5b8 <strcpy+0x4>
 5cc:	00008067          	ret

000005d0 <atol>:
 5d0:	00054703          	lbu	a4,0(a0)
 5d4:	02000693          	li	a3,32
 5d8:	00050793          	mv	a5,a0
 5dc:	00d71863          	bne	a4,a3,5ec <atol+0x1c>
 5e0:	0017c703          	lbu	a4,1(a5)
 5e4:	00178793          	addi	a5,a5,1
 5e8:	fed70ce3          	beq	a4,a3,5e0 <atol+0x10>
 5ec:	fd570693          	addi	a3,a4,-43
 5f0:	0fd6f693          	andi	a3,a3,253
 5f4:	04069463          	bnez	a3,63c <atol+0x6c>
 5f8:	0017c683          	lbu	a3,1(a5)
 5fc:	fd370713          	addi	a4,a4,-45
 600:	00173613          	seqz	a2,a4
 604:	04068663          	beqz	a3,650 <atol+0x80>
 608:	00178793          	addi	a5,a5,1
 60c:	00000513          	li	a0,0
 610:	00178793          	addi	a5,a5,1
 614:	fd068593          	addi	a1,a3,-48
 618:	00251713          	slli	a4,a0,0x2
 61c:	0007c683          	lbu	a3,0(a5)
 620:	00a70733          	add	a4,a4,a0
 624:	00171713          	slli	a4,a4,0x1
 628:	00e58533          	add	a0,a1,a4
 62c:	fe0692e3          	bnez	a3,610 <atol+0x40>
 630:	00060463          	beqz	a2,638 <atol+0x68>
 634:	40a00533          	neg	a0,a0
 638:	00008067          	ret
 63c:	0007c683          	lbu	a3,0(a5)
 640:	00000613          	li	a2,0
 644:	fc0694e3          	bnez	a3,60c <atol+0x3c>
 648:	00000513          	li	a0,0
 64c:	00008067          	ret
 650:	00000513          	li	a0,0
 654:	fddff06f          	j	630 <atol+0x60>

Disassembly of section .text.startup:

00000658 <main>:
 658:	f4010113          	addi	sp,sp,-192
 65c:	800007b7          	lui	a5,0x80000
 660:	0a112e23          	sw	ra,188(sp)
 664:	0a812c23          	sw	s0,184(sp)
 668:	02010593          	addi	a1,sp,32
 66c:	75800693          	li	a3,1880
 670:	0007a023          	sw	zero,0(a5) # 80000000 <__global_pointer$+0x7fffef14>
 674:	00058713          	mv	a4,a1
 678:	00068813          	mv	a6,a3
 67c:	72800793          	li	a5,1832
 680:	0007a503          	lw	a0,0(a5)
 684:	0006a603          	lw	a2,0(a3)
 688:	00478793          	addi	a5,a5,4
 68c:	00a71023          	sh	a0,0(a4)
 690:	00c71123          	sh	a2,2(a4)
 694:	00468693          	addi	a3,a3,4
 698:	00c70713          	addi	a4,a4,12
 69c:	ff0792e3          	bne	a5,a6,680 <main+0x28>
 6a0:	00010413          	mv	s0,sp
 6a4:	00010793          	mv	a5,sp
 6a8:	00c58713          	addi	a4,a1,12
 6ac:	00072683          	lw	a3,0(a4)
 6b0:	00878793          	addi	a5,a5,8
 6b4:	01870713          	addi	a4,a4,24
 6b8:	fed7ac23          	sw	a3,-8(a5)
 6bc:	fef598e3          	bne	a1,a5,6ac <main+0x54>
 6c0:	00010513          	mv	a0,sp
 6c4:	c15ff0ef          	jal	2d8 <kmean>
 6c8:	deadc537          	lui	a0,0xdeadc
 6cc:	eef50513          	addi	a0,a0,-273 # deadbeef <__global_pointer$+0xdeadae03>
 6d0:	00000793          	li	a5,0
 6d4:	80000637          	lui	a2,0x80000
 6d8:	000068b7          	lui	a7,0x6
 6dc:	00400813          	li	a6,4
 6e0:	00a62023          	sw	a0,0(a2) # 80000000 <__global_pointer$+0x7fffef14>
 6e4:	00045703          	lhu	a4,0(s0)
 6e8:	00379693          	slli	a3,a5,0x3
 6ec:	00d106b3          	add	a3,sp,a3
 6f0:	00e62023          	sw	a4,0(a2)
 6f4:	00245583          	lhu	a1,2(s0)
 6f8:	00279713          	slli	a4,a5,0x2
 6fc:	00e88733          	add	a4,a7,a4
 700:	00b62023          	sw	a1,0(a2)
 704:	0006a683          	lw	a3,0(a3)
 708:	00178793          	addi	a5,a5,1
 70c:	00840413          	addi	s0,s0,8
 710:	00d72023          	sw	a3,0(a4)
 714:	fd0796e3          	bne	a5,a6,6e0 <main+0x88>
 718:	55aa57b7          	lui	a5,0x55aa5
 71c:	5aa78793          	addi	a5,a5,1450 # 55aa55aa <__global_pointer$+0x55aa44be>
 720:	00f62023          	sw	a5,0(a2)
 724:	0000006f          	j	724 <main+0xcc>

Disassembly of section .rodata:

00000728 <points_x>:
 728:	0000                	.insn	2, 0x0000
 72a:	0000                	.insn	2, 0x0000
 72c:	0001                	.insn	2, 0x0001
 72e:	0000                	.insn	2, 0x0000
 730:	0000                	.insn	2, 0x0000
 732:	0000                	.insn	2, 0x0000
 734:	0000                	.insn	2, 0x0000
 736:	0000                	.insn	2, 0x0000
 738:	0001                	.insn	2, 0x0001
 73a:	0000                	.insn	2, 0x0000
 73c:	0000                	.insn	2, 0x0000
 73e:	0000                	.insn	2, 0x0000
 740:	0005                	.insn	2, 0x0005
 742:	0000                	.insn	2, 0x0000
 744:	0006                	.insn	2, 0x0006
 746:	0000                	.insn	2, 0x0000
 748:	0006                	.insn	2, 0x0006
 74a:	0000                	.insn	2, 0x0000
 74c:	0005                	.insn	2, 0x0005
 74e:	0000                	.insn	2, 0x0000
 750:	0006                	.insn	2, 0x0006
 752:	0000                	.insn	2, 0x0000
 754:	0006                	.insn	2, 0x0006
 756:	0000                	.insn	2, 0x0000

00000758 <points_y>:
 758:	0000                	.insn	2, 0x0000
 75a:	0000                	.insn	2, 0x0000
 75c:	0000                	.insn	2, 0x0000
 75e:	0000                	.insn	2, 0x0000
 760:	0001                	.insn	2, 0x0001
 762:	0000                	.insn	2, 0x0000
 764:	0006                	.insn	2, 0x0006
 766:	0000                	.insn	2, 0x0000
 768:	0006                	.insn	2, 0x0006
 76a:	0000                	.insn	2, 0x0000
 76c:	0005                	.insn	2, 0x0005
 76e:	0000                	.insn	2, 0x0000
 770:	0000                	.insn	2, 0x0000
 772:	0000                	.insn	2, 0x0000
 774:	0000                	.insn	2, 0x0000
 776:	0000                	.insn	2, 0x0000
 778:	0001                	.insn	2, 0x0001
 77a:	0000                	.insn	2, 0x0000
 77c:	0006                	.insn	2, 0x0006
 77e:	0000                	.insn	2, 0x0000
 780:	0006                	.insn	2, 0x0006
 782:	0000                	.insn	2, 0x0000
 784:	0005                	.insn	2, 0x0005
 786:	0000                	.insn	2, 0x0000

Disassembly of section .eh_frame:

00000788 <.eh_frame>:
 788:	0010                	.insn	2, 0x0010
 78a:	0000                	.insn	2, 0x0000
 78c:	0000                	.insn	2, 0x0000
 78e:	0000                	.insn	2, 0x0000
 790:	00527a03          	.insn	4, 0x00527a03
 794:	7c01                	.insn	2, 0x7c01
 796:	0101                	.insn	2, 0x0101
 798:	00020c1b          	.insn	4, 0x00020c1b
 79c:	0010                	.insn	2, 0x0010
 79e:	0000                	.insn	2, 0x0000
 7a0:	0018                	.insn	2, 0x0018
 7a2:	0000                	.insn	2, 0x0000
 7a4:	fb04                	.insn	2, 0xfb04
 7a6:	ffff                	.insn	2, 0xffff
 7a8:	0010                	.insn	2, 0x0010
 7aa:	0000                	.insn	2, 0x0000
 7ac:	0000                	.insn	2, 0x0000
 7ae:	0000                	.insn	2, 0x0000
 7b0:	0010                	.insn	2, 0x0010
 7b2:	0000                	.insn	2, 0x0000
 7b4:	002c                	.insn	2, 0x002c
 7b6:	0000                	.insn	2, 0x0000
 7b8:	fb00                	.insn	2, 0xfb00
 7ba:	ffff                	.insn	2, 0xffff
 7bc:	0020                	.insn	2, 0x0020
 7be:	0000                	.insn	2, 0x0000
 7c0:	0000                	.insn	2, 0x0000
 7c2:	0000                	.insn	2, 0x0000
 7c4:	0024                	.insn	2, 0x0024
 7c6:	0000                	.insn	2, 0x0000
 7c8:	0040                	.insn	2, 0x0040
 7ca:	0000                	.insn	2, 0x0000
 7cc:	fb0c                	.insn	2, 0xfb0c
 7ce:	ffff                	.insn	2, 0xffff
 7d0:	0138                	.insn	2, 0x0138
 7d2:	0000                	.insn	2, 0x0000
 7d4:	4400                	.insn	2, 0x4400
 7d6:	100e                	.insn	2, 0x100e
 7d8:	8858                	.insn	2, 0x8858
 7da:	8901                	.insn	2, 0x8901
 7dc:	4802                	.insn	2, 0x4802
 7de:	0392                	.insn	2, 0x0392
 7e0:	c8010403          	lb	s0,-896(sp)
 7e4:	c944                	.insn	2, 0xc944
 7e6:	d244                	.insn	2, 0xd244
 7e8:	0e44                	.insn	2, 0x0e44
 7ea:	0000                	.insn	2, 0x0000
 7ec:	0018                	.insn	2, 0x0018
 7ee:	0000                	.insn	2, 0x0000
 7f0:	0068                	.insn	2, 0x0068
 7f2:	0000                	.insn	2, 0x0000
 7f4:	fe64                	.insn	2, 0xfe64
 7f6:	ffff                	.insn	2, 0xffff
 7f8:	00d0                	.insn	2, 0x00d0
 7fa:	0000                	.insn	2, 0x0000
 7fc:	4400                	.insn	2, 0x4400
 7fe:	c00e                	.insn	2, 0xc00e
 800:	4c01                	.insn	2, 0x4c01
 802:	0181                	.insn	2, 0x0181
 804:	0288                	.insn	2, 0x0288
 806:	0000                	.insn	2, 0x0000
 808:	0010                	.insn	2, 0x0010
 80a:	0000                	.insn	2, 0x0000
 80c:	0084                	.insn	2, 0x0084
 80e:	0000                	.insn	2, 0x0000
 810:	fc00                	.insn	2, 0xfc00
 812:	ffff                	.insn	2, 0xffff
 814:	002c                	.insn	2, 0x002c
 816:	0000                	.insn	2, 0x0000
 818:	0000                	.insn	2, 0x0000
 81a:	0000                	.insn	2, 0x0000
 81c:	0010                	.insn	2, 0x0010
 81e:	0000                	.insn	2, 0x0000
 820:	0098                	.insn	2, 0x0098
 822:	0000                	.insn	2, 0x0000
 824:	fc18                	.insn	2, 0xfc18
 826:	ffff                	.insn	2, 0xffff
 828:	002c                	.insn	2, 0x002c
 82a:	0000                	.insn	2, 0x0000
 82c:	0000                	.insn	2, 0x0000
 82e:	0000                	.insn	2, 0x0000
 830:	0010                	.insn	2, 0x0010
 832:	0000                	.insn	2, 0x0000
 834:	00ac                	.insn	2, 0x00ac
 836:	0000                	.insn	2, 0x0000
 838:	fc30                	.insn	2, 0xfc30
 83a:	ffff                	.insn	2, 0xffff
 83c:	005c                	.insn	2, 0x005c
 83e:	0000                	.insn	2, 0x0000
 840:	0000                	.insn	2, 0x0000
 842:	0000                	.insn	2, 0x0000
 844:	0018                	.insn	2, 0x0018
 846:	0000                	.insn	2, 0x0000
 848:	00c0                	.insn	2, 0x00c0
 84a:	0000                	.insn	2, 0x0000
 84c:	fc78                	.insn	2, 0xfc78
 84e:	ffff                	.insn	2, 0xffff
 850:	0070                	.insn	2, 0x0070
 852:	0000                	.insn	2, 0x0000
 854:	5c00                	.insn	2, 0x5c00
 856:	200e                	.insn	2, 0x200e
 858:	8148                	.insn	2, 0x8148
 85a:	5001                	.insn	2, 0x5001
 85c:	48c1                	.insn	2, 0x48c1
 85e:	000e                	.insn	2, 0x000e
 860:	0010                	.insn	2, 0x0010
 862:	0000                	.insn	2, 0x0000
 864:	00dc                	.insn	2, 0x00dc
 866:	0000                	.insn	2, 0x0000
 868:	fccc                	.insn	2, 0xfccc
 86a:	ffff                	.insn	2, 0xffff
 86c:	0028                	.insn	2, 0x0028
 86e:	0000                	.insn	2, 0x0000
 870:	0000                	.insn	2, 0x0000
 872:	0000                	.insn	2, 0x0000
 874:	0010                	.insn	2, 0x0010
 876:	0000                	.insn	2, 0x0000
 878:	00f0                	.insn	2, 0x00f0
 87a:	0000                	.insn	2, 0x0000
 87c:	fce0                	.insn	2, 0xfce0
 87e:	ffff                	.insn	2, 0xffff
 880:	0030                	.insn	2, 0x0030
 882:	0000                	.insn	2, 0x0000
 884:	0000                	.insn	2, 0x0000
 886:	0000                	.insn	2, 0x0000
 888:	0010                	.insn	2, 0x0010
 88a:	0000                	.insn	2, 0x0000
 88c:	0104                	.insn	2, 0x0104
 88e:	0000                	.insn	2, 0x0000
 890:	fcfc                	.insn	2, 0xfcfc
 892:	ffff                	.insn	2, 0xffff
 894:	0028                	.insn	2, 0x0028
 896:	0000                	.insn	2, 0x0000
 898:	0000                	.insn	2, 0x0000
 89a:	0000                	.insn	2, 0x0000
 89c:	0010                	.insn	2, 0x0010
 89e:	0000                	.insn	2, 0x0000
 8a0:	0118                	.insn	2, 0x0118
 8a2:	0000                	.insn	2, 0x0000
 8a4:	fd10                	.insn	2, 0xfd10
 8a6:	ffff                	.insn	2, 0xffff
 8a8:	001c                	.insn	2, 0x001c
 8aa:	0000                	.insn	2, 0x0000
 8ac:	0000                	.insn	2, 0x0000
 8ae:	0000                	.insn	2, 0x0000
 8b0:	0010                	.insn	2, 0x0010
 8b2:	0000                	.insn	2, 0x0000
 8b4:	012c                	.insn	2, 0x012c
 8b6:	0000                	.insn	2, 0x0000
 8b8:	fd18                	.insn	2, 0xfd18
 8ba:	ffff                	.insn	2, 0xffff
 8bc:	0088                	.insn	2, 0x0088
 8be:	0000                	.insn	2, 0x0000
 8c0:	0000                	.insn	2, 0x0000
 8c2:	0000                	.insn	2, 0x0000

Disassembly of section .data:

000008c4 <isr>:
 8c4:	ffff                	.insn	2, 0xffff
 8c6:	ffff                	.insn	2, 0xffff
 8c8:	ffff                	.insn	2, 0xffff
 8ca:	ffff                	.insn	2, 0xffff
 8cc:	ffff                	.insn	2, 0xffff
 8ce:	ffff                	.insn	2, 0xffff
 8d0:	ffff                	.insn	2, 0xffff
 8d2:	ffff                	.insn	2, 0xffff
 8d4:	ffff                	.insn	2, 0xffff
 8d6:	ffff                	.insn	2, 0xffff
 8d8:	ffff                	.insn	2, 0xffff
 8da:	ffff                	.insn	2, 0xffff
 8dc:	ffff                	.insn	2, 0xffff
 8de:	ffff                	.insn	2, 0xffff
 8e0:	ffff                	.insn	2, 0xffff
 8e2:	ffff                	.insn	2, 0xffff
 8e4:	ffff                	.insn	2, 0xffff
 8e6:	ffff                	.insn	2, 0xffff
 8e8:	ffff                	.insn	2, 0xffff
 8ea:	ffff                	.insn	2, 0xffff

Disassembly of section .comment:

00000000 <.comment>:
   0:	3a434347          	.insn	4, 0x3a434347
   4:	2820                	.insn	2, 0x2820
   6:	33623167          	.insn	4, 0x33623167
   a:	3630                	.insn	2, 0x3630
   c:	3330                	.insn	2, 0x3330
   e:	6139                	.insn	2, 0x6139
  10:	20293463          	.insn	4, 0x20293463
  14:	3531                	.insn	2, 0x3531
  16:	312e                	.insn	2, 0x312e
  18:	302e                	.insn	2, 0x302e
  1a:	00                	.byte	0x00

Disassembly of section .riscv.attributes:

00000000 <.riscv.attributes>:
   0:	3641                	.insn	2, 0x3641
   2:	0000                	.insn	2, 0x0000
   4:	7200                	.insn	2, 0x7200
   6:	7369                	.insn	2, 0x7369
   8:	01007663          	bgeu	zero,a6,14 <isr_entry-0x6c>
   c:	002c                	.insn	2, 0x002c
   e:	0000                	.insn	2, 0x0000
  10:	1004                	.insn	2, 0x1004
  12:	7205                	.insn	2, 0x7205
  14:	3376                	.insn	2, 0x3376
  16:	6932                	.insn	2, 0x6932
  18:	7032                	.insn	2, 0x7032
  1a:	5f31                	.insn	2, 0x5f31
  1c:	326d                	.insn	2, 0x326d
  1e:	3070                	.insn	2, 0x3070
  20:	7a5f 6369 7273      	.insn	6, 0x727363697a5f
  26:	7032                	.insn	2, 0x7032
  28:	5f30                	.insn	2, 0x5f30
  2a:	6d7a                	.insn	2, 0x6d7a
  2c:	756d                	.insn	2, 0x756d
  2e:	316c                	.insn	2, 0x316c
  30:	3070                	.insn	2, 0x3070
  32:	0800                	.insn	2, 0x0800
  34:	0a01                	.insn	2, 0x0a01
  36:	0b                	.byte	0x0b
