
kmean1.riscv:     file format elf32-littleriscv

Sections:
Idx Name          Size      VMA       LMA       File off  Algn
  0 .text.isr     00000104  00000080  00000080  00001080  2**0
                  CONTENTS, ALLOC, LOAD, READONLY, CODE
  1 .text.init    000000a8  00000200  00000200  00001200  2**0
                  CONTENTS, ALLOC, LOAD, READONLY, CODE
  2 .text         00000438  000002a8  000002a8  000012a8  2**2
                  CONTENTS, ALLOC, LOAD, READONLY, CODE
  3 .text.startup 0000007c  000006e0  000006e0  000016e0  2**2
                  CONTENTS, ALLOC, LOAD, READONLY, CODE
  4 .rodata       00000060  0000075c  0000075c  0000175c  2**2
                  CONTENTS, ALLOC, LOAD, READONLY, DATA
  5 .eh_frame     0000014c  000007bc  000007bc  000017bc  2**2
                  CONTENTS, ALLOC, LOAD, READONLY, DATA
  6 .data         00000028  00000908  00000908  00001908  2**2
                  CONTENTS, ALLOC, LOAD, DATA
  7 .comment      0000001b  00000000  00000000  00001930  2**0
                  CONTENTS, READONLY
  8 .riscv.attributes 00000037  00000000  00000000  0000194b  2**0
                  CONTENTS, READONLY

Disassembly of section .text.isr:

00000080 <isr_entry>:
  80:	00112023          	sw	ra,0(sp)
  84:	fe312e23          	sw	gp,-4(sp)
  88:	fe412c23          	sw	tp,-8(sp)
  8c:	fe512a23          	sw	t0,-12(sp)
  90:	fe612823          	sw	t1,-16(sp)
  94:	fe712623          	sw	t2,-20(sp)
  98:	fe812423          	sw	s0,-24(sp)
  9c:	fe912223          	sw	s1,-28(sp)
  a0:	fea12023          	sw	a0,-32(sp)
  a4:	fcb12e23          	sw	a1,-36(sp)
  a8:	fcc12c23          	sw	a2,-40(sp)
  ac:	fcd12a23          	sw	a3,-44(sp)
  b0:	fce12823          	sw	a4,-48(sp)
  b4:	fcf12623          	sw	a5,-52(sp)
  b8:	fd012423          	sw	a6,-56(sp)
  bc:	fd112223          	sw	a7,-60(sp)
  c0:	fd212023          	sw	s2,-64(sp)
  c4:	fb312e23          	sw	s3,-68(sp)
  c8:	fb412c23          	sw	s4,-72(sp)
  cc:	fb512a23          	sw	s5,-76(sp)
  d0:	fb612823          	sw	s6,-80(sp)
  d4:	fb712623          	sw	s7,-84(sp)
  d8:	fb812423          	sw	s8,-88(sp)
  dc:	fb912223          	sw	s9,-92(sp)
  e0:	fba12023          	sw	s10,-96(sp)
  e4:	f9b12e23          	sw	s11,-100(sp)
  e8:	f9c12c23          	sw	t3,-104(sp)
  ec:	f9d12a23          	sw	t4,-108(sp)
  f0:	f9e12823          	sw	t5,-112(sp)
  f4:	f9f12623          	sw	t6,-116(sp)
  f8:	f8010113          	addi	sp,sp,-128
  fc:	00002573          	csrr	a0,ustatus
 100:	398000ef          	jal	498 <__int_handler>
 104:	08010113          	addi	sp,sp,128
 108:	00012083          	lw	ra,0(sp)
 10c:	ffc12183          	lw	gp,-4(sp)
 110:	ff812203          	lw	tp,-8(sp)
 114:	ff412283          	lw	t0,-12(sp)
 118:	ff012303          	lw	t1,-16(sp)
 11c:	fec12383          	lw	t2,-20(sp)
 120:	fe812403          	lw	s0,-24(sp)
 124:	fe412483          	lw	s1,-28(sp)
 128:	fe012503          	lw	a0,-32(sp)
 12c:	fdc12583          	lw	a1,-36(sp)
 130:	fd812603          	lw	a2,-40(sp)
 134:	fd412683          	lw	a3,-44(sp)
 138:	fd012703          	lw	a4,-48(sp)
 13c:	fcc12783          	lw	a5,-52(sp)
 140:	fc812803          	lw	a6,-56(sp)
 144:	fc412883          	lw	a7,-60(sp)
 148:	fc012903          	lw	s2,-64(sp)
 14c:	fbc12983          	lw	s3,-68(sp)
 150:	fb812a03          	lw	s4,-72(sp)
 154:	fb412a83          	lw	s5,-76(sp)
 158:	fb012b03          	lw	s6,-80(sp)
 15c:	fac12b83          	lw	s7,-84(sp)
 160:	fa812c03          	lw	s8,-88(sp)
 164:	fa412c83          	lw	s9,-92(sp)
 168:	fa012d03          	lw	s10,-96(sp)
 16c:	f9c12d83          	lw	s11,-100(sp)
 170:	f9812e03          	lw	t3,-104(sp)
 174:	f9412e83          	lw	t4,-108(sp)
 178:	f9012f03          	lw	t5,-112(sp)
 17c:	f8c12f83          	lw	t6,-116(sp)
 180:	30200073          	mret

Disassembly of section .text.init:

00000200 <_start>:
 200:	00000093          	li	ra,0
 204:	00000113          	li	sp,0
 208:	00000193          	li	gp,0
 20c:	00000213          	li	tp,0
 210:	00000293          	li	t0,0
 214:	00000313          	li	t1,0
 218:	00000393          	li	t2,0
 21c:	00000413          	li	s0,0
 220:	00000493          	li	s1,0
 224:	00000513          	li	a0,0
 228:	00000593          	li	a1,0
 22c:	00000613          	li	a2,0
 230:	00000693          	li	a3,0
 234:	00000713          	li	a4,0
 238:	00000793          	li	a5,0
 23c:	00000813          	li	a6,0
 240:	00000893          	li	a7,0
 244:	00000913          	li	s2,0
 248:	00000993          	li	s3,0
 24c:	00000a13          	li	s4,0
 250:	00000a93          	li	s5,0
 254:	00000b13          	li	s6,0
 258:	00000b93          	li	s7,0
 25c:	00000c13          	li	s8,0
 260:	00000c93          	li	s9,0
 264:	00000d13          	li	s10,0
 268:	00000d93          	li	s11,0
 26c:	00000e13          	li	t3,0
 270:	00000e93          	li	t4,0
 274:	00000f13          	li	t5,0
 278:	00000f93          	li	t6,0
 27c:	00001197          	auipc	gp,0x1
 280:	eb418193          	addi	gp,gp,-332 # 1130 <__global_pointer$>
 284:	00000217          	auipc	tp,0x0
 288:	6eb20213          	addi	tp,tp,1771 # 96f <_end+0x3f>
 28c:	fc027213          	andi	tp,tp,-64
 290:	00e51613          	slli	a2,a0,0xe
 294:	00c20233          	add	tp,tp,a2
 298:	00150113          	addi	sp,a0,1
 29c:	00e11113          	slli	sp,sp,0xe
 2a0:	00410133          	add	sp,sp,tp
 2a4:	43c0006f          	j	6e0 <main>

Disassembly of section .text:

000002a8 <abs>:
 2a8:	41f55793          	srai	a5,a0,0x1f
 2ac:	00a7c533          	xor	a0,a5,a0
 2b0:	40f50533          	sub	a0,a0,a5
 2b4:	00008067          	ret

000002b8 <sqrt>:
 2b8:	00000693          	li	a3,0
 2bc:	02050463          	beqz	a0,2e4 <sqrt+0x2c>
 2c0:	00300793          	li	a5,3
 2c4:	00100693          	li	a3,1
 2c8:	00a7fe63          	bgeu	a5,a0,2e4 <sqrt+0x2c>
 2cc:	00155793          	srli	a5,a0,0x1
 2d0:	02f55733          	divu	a4,a0,a5
 2d4:	00078693          	mv	a3,a5
 2d8:	00f707b3          	add	a5,a4,a5
 2dc:	0017d793          	srli	a5,a5,0x1
 2e0:	fed7e8e3          	bltu	a5,a3,2d0 <sqrt+0x18>
 2e4:	00068513          	mv	a0,a3
 2e8:	00008067          	ret

000002ec <distance>:
 2ec:	0005d603          	lhu	a2,0(a1)
 2f0:	0025d683          	lhu	a3,2(a1)
 2f4:	00055783          	lhu	a5,0(a0)
 2f8:	00255703          	lhu	a4,2(a0)
 2fc:	40c787b3          	sub	a5,a5,a2
 300:	40d70733          	sub	a4,a4,a3
 304:	41f75693          	srai	a3,a4,0x1f
 308:	41f7d613          	srai	a2,a5,0x1f
 30c:	00e6c733          	xor	a4,a3,a4
 310:	00f647b3          	xor	a5,a2,a5
 314:	40c787b3          	sub	a5,a5,a2
 318:	40d70733          	sub	a4,a4,a3
 31c:	00078693          	mv	a3,a5
 320:	00e7f463          	bgeu	a5,a4,328 <distance+0x3c>
 324:	00070693          	mv	a3,a4
 328:	00669513          	slli	a0,a3,0x6
 32c:	40d50533          	sub	a0,a0,a3
 330:	00251513          	slli	a0,a0,0x2
 334:	40d50533          	sub	a0,a0,a3
 338:	00f77463          	bgeu	a4,a5,340 <distance+0x54>
 33c:	00070793          	mv	a5,a4
 340:	06600713          	li	a4,102
 344:	02e787b3          	mul	a5,a5,a4
 348:	00f50533          	add	a0,a0,a5
 34c:	40855513          	srai	a0,a0,0x8
 350:	00008067          	ret

00000354 <kmean>:
 354:	ff010113          	addi	sp,sp,-16
 358:	00812623          	sw	s0,12(sp)
 35c:	00912423          	sw	s1,8(sp)
 360:	01212223          	sw	s2,4(sp)
 364:	09458f13          	addi	t5,a1,148
 368:	09058613          	addi	a2,a1,144
 36c:	02050f93          	addi	t6,a0,32
 370:	80000eb7          	lui	t4,0x80000
 374:	00400313          	li	t1,4
 378:	3e800e13          	li	t3,1000
 37c:	06600293          	li	t0,102
 380:	00050893          	mv	a7,a0
 384:	00050793          	mv	a5,a0
 388:	0007a703          	lw	a4,0(a5)
 38c:	00878793          	addi	a5,a5,8
 390:	fee7ae23          	sw	a4,-4(a5)
 394:	fff79ae3          	bne	a5,t6,388 <kmean+0x34>
 398:	00458793          	addi	a5,a1,4
 39c:	006ea023          	sw	t1,0(t4) # 80000000 <__global_pointer$+0x7fffeed0>
 3a0:	01c7a023          	sw	t3,0(a5)
 3a4:	00c78793          	addi	a5,a5,12
 3a8:	feff1ae3          	bne	t5,a5,39c <kmean+0x48>
 3ac:	00050913          	mv	s2,a0
 3b0:	00000693          	li	a3,0
 3b4:	00058793          	mv	a5,a1
 3b8:	00000413          	li	s0,0
 3bc:	00000393          	li	t2,0
 3c0:	00000813          	li	a6,0
 3c4:	0087a703          	lw	a4,8(a5)
 3c8:	00d71c63          	bne	a4,a3,3e0 <kmean+0x8c>
 3cc:	0007d483          	lhu	s1,0(a5)
 3d0:	0027d703          	lhu	a4,2(a5)
 3d4:	00180813          	addi	a6,a6,1
 3d8:	009383b3          	add	t2,t2,s1
 3dc:	00e40433          	add	s0,s0,a4
 3e0:	00c78793          	addi	a5,a5,12
 3e4:	fef610e3          	bne	a2,a5,3c4 <kmean+0x70>
 3e8:	00080a63          	beqz	a6,3fc <kmean+0xa8>
 3ec:	0303d3b3          	divu	t2,t2,a6
 3f0:	03045433          	divu	s0,s0,a6
 3f4:	00791023          	sh	t2,0(s2)
 3f8:	00891123          	sh	s0,2(s2)
 3fc:	00168693          	addi	a3,a3,1
 400:	00890913          	addi	s2,s2,8
 404:	fa6698e3          	bne	a3,t1,3b4 <kmean+0x60>
 408:	00000393          	li	t2,0
 40c:	0048d803          	lhu	a6,4(a7)
 410:	0068d683          	lhu	a3,6(a7)
 414:	0008d783          	lhu	a5,0(a7)
 418:	0028d703          	lhu	a4,2(a7)
 41c:	00888893          	addi	a7,a7,8
 420:	410787b3          	sub	a5,a5,a6
 424:	40d70733          	sub	a4,a4,a3
 428:	41f7d813          	srai	a6,a5,0x1f
 42c:	41f75693          	srai	a3,a4,0x1f
 430:	00f847b3          	xor	a5,a6,a5
 434:	00e6c733          	xor	a4,a3,a4
 438:	410787b3          	sub	a5,a5,a6
 43c:	40d70733          	sub	a4,a4,a3
 440:	00078813          	mv	a6,a5
 444:	00078693          	mv	a3,a5
 448:	00e7f463          	bgeu	a5,a4,450 <kmean+0xfc>
 44c:	00070813          	mv	a6,a4
 450:	00681793          	slli	a5,a6,0x6
 454:	410787b3          	sub	a5,a5,a6
 458:	00279793          	slli	a5,a5,0x2
 45c:	410787b3          	sub	a5,a5,a6
 460:	00d77463          	bgeu	a4,a3,468 <kmean+0x114>
 464:	00070693          	mv	a3,a4
 468:	025686b3          	mul	a3,a3,t0
 46c:	00d787b3          	add	a5,a5,a3
 470:	4087d793          	srai	a5,a5,0x8
 474:	00f037b3          	snez	a5,a5
 478:	00f3e3b3          	or	t2,t2,a5
 47c:	f91f98e3          	bne	t6,a7,40c <kmean+0xb8>
 480:	f00390e3          	bnez	t2,380 <kmean+0x2c>
 484:	00c12403          	lw	s0,12(sp)
 488:	00812483          	lw	s1,8(sp)
 48c:	00412903          	lw	s2,4(sp)
 490:	01010113          	addi	sp,sp,16
 494:	00008067          	ret

00000498 <__int_handler>:
 498:	00251693          	slli	a3,a0,0x2
 49c:	00000717          	auipc	a4,0x0
 4a0:	46c70713          	addi	a4,a4,1132 # 908 <isr>
 4a4:	00d70733          	add	a4,a4,a3
 4a8:	00a52793          	slti	a5,a0,10
 4ac:	00072703          	lw	a4,0(a4)
 4b0:	00078863          	beqz	a5,4c0 <__int_handler+0x28>
 4b4:	00170793          	addi	a5,a4,1
 4b8:	00078463          	beqz	a5,4c0 <__int_handler+0x28>
 4bc:	00070067          	jr	a4
 4c0:	00008067          	ret

000004c4 <ConnectISR>:
 4c4:	00900793          	li	a5,9
 4c8:	02a7c063          	blt	a5,a0,4e8 <ConnectISR+0x24>
 4cc:	00251513          	slli	a0,a0,0x2
 4d0:	00000797          	auipc	a5,0x0
 4d4:	43878793          	addi	a5,a5,1080 # 908 <isr>
 4d8:	00a787b3          	add	a5,a5,a0
 4dc:	00b7a023          	sw	a1,0(a5)
 4e0:	00000513          	li	a0,0
 4e4:	00008067          	ret
 4e8:	fff00513          	li	a0,-1
 4ec:	00008067          	ret

000004f0 <memcpy>:
 4f0:	00c5e7b3          	or	a5,a1,a2
 4f4:	00f567b3          	or	a5,a0,a5
 4f8:	0037f793          	andi	a5,a5,3
 4fc:	00c506b3          	add	a3,a0,a2
 500:	02078463          	beqz	a5,528 <memcpy+0x38>
 504:	00c58633          	add	a2,a1,a2
 508:	00050793          	mv	a5,a0
 50c:	02d57e63          	bgeu	a0,a3,548 <memcpy+0x58>
 510:	0005c703          	lbu	a4,0(a1)
 514:	00158593          	addi	a1,a1,1
 518:	00178793          	addi	a5,a5,1
 51c:	fee78fa3          	sb	a4,-1(a5)
 520:	feb618e3          	bne	a2,a1,510 <memcpy+0x20>
 524:	00008067          	ret
 528:	fed57ee3          	bgeu	a0,a3,524 <memcpy+0x34>
 52c:	00050793          	mv	a5,a0
 530:	0005a703          	lw	a4,0(a1)
 534:	00478793          	addi	a5,a5,4
 538:	00458593          	addi	a1,a1,4
 53c:	fee7ae23          	sw	a4,-4(a5)
 540:	fed7e8e3          	bltu	a5,a3,530 <memcpy+0x40>
 544:	00008067          	ret
 548:	00008067          	ret

0000054c <memset>:
 54c:	00c567b3          	or	a5,a0,a2
 550:	0037f793          	andi	a5,a5,3
 554:	00050813          	mv	a6,a0
 558:	00c50733          	add	a4,a0,a2
 55c:	02078863          	beqz	a5,58c <memset+0x40>
 560:	04e57a63          	bgeu	a0,a4,5b4 <memset+0x68>
 564:	fe010113          	addi	sp,sp,-32
 568:	0ff5f593          	zext.b	a1,a1
 56c:	00112e23          	sw	ra,28(sp)
 570:	00a12623          	sw	a0,12(sp)
 574:	fd9ff0ef          	jal	54c <memset>
 578:	00c12803          	lw	a6,12(sp)
 57c:	01c12083          	lw	ra,28(sp)
 580:	00080513          	mv	a0,a6
 584:	02010113          	addi	sp,sp,32
 588:	00008067          	ret
 58c:	02e57463          	bgeu	a0,a4,5b4 <memset+0x68>
 590:	0ff5f593          	zext.b	a1,a1
 594:	00859693          	slli	a3,a1,0x8
 598:	00b686b3          	add	a3,a3,a1
 59c:	01069793          	slli	a5,a3,0x10
 5a0:	00f686b3          	add	a3,a3,a5
 5a4:	00050793          	mv	a5,a0
 5a8:	00478793          	addi	a5,a5,4
 5ac:	fed7ae23          	sw	a3,-4(a5)
 5b0:	fee7ece3          	bltu	a5,a4,5a8 <memset+0x5c>
 5b4:	00080513          	mv	a0,a6
 5b8:	00008067          	ret

000005bc <strlen>:
 5bc:	00054783          	lbu	a5,0(a0)
 5c0:	00078e63          	beqz	a5,5dc <strlen+0x20>
 5c4:	00050793          	mv	a5,a0
 5c8:	0017c703          	lbu	a4,1(a5)
 5cc:	00178793          	addi	a5,a5,1
 5d0:	fe071ce3          	bnez	a4,5c8 <strlen+0xc>
 5d4:	40a78533          	sub	a0,a5,a0
 5d8:	00008067          	ret
 5dc:	00000513          	li	a0,0
 5e0:	00008067          	ret

000005e4 <strnlen>:
 5e4:	00b506b3          	add	a3,a0,a1
 5e8:	00050793          	mv	a5,a0
 5ec:	00059863          	bnez	a1,5fc <strnlen+0x18>
 5f0:	01c0006f          	j	60c <strnlen+0x28>
 5f4:	00178793          	addi	a5,a5,1
 5f8:	00d78663          	beq	a5,a3,604 <strnlen+0x20>
 5fc:	0007c703          	lbu	a4,0(a5)
 600:	fe071ae3          	bnez	a4,5f4 <strnlen+0x10>
 604:	40a78533          	sub	a0,a5,a0
 608:	00008067          	ret
 60c:	00000513          	li	a0,0
 610:	00008067          	ret

00000614 <strcmp>:
 614:	00050713          	mv	a4,a0
 618:	00074783          	lbu	a5,0(a4)
 61c:	0005c683          	lbu	a3,0(a1)
 620:	00170713          	addi	a4,a4,1
 624:	00158593          	addi	a1,a1,1
 628:	40d78533          	sub	a0,a5,a3
 62c:	00078663          	beqz	a5,638 <strcmp+0x24>
 630:	fed784e3          	beq	a5,a3,618 <strcmp+0x4>
 634:	00008067          	ret
 638:	00008067          	ret

0000063c <strcpy>:
 63c:	00050793          	mv	a5,a0
 640:	0005c703          	lbu	a4,0(a1)
 644:	00158593          	addi	a1,a1,1
 648:	00178793          	addi	a5,a5,1
 64c:	fee78fa3          	sb	a4,-1(a5)
 650:	fe0718e3          	bnez	a4,640 <strcpy+0x4>
 654:	00008067          	ret

00000658 <atol>:
 658:	00054703          	lbu	a4,0(a0)
 65c:	02000693          	li	a3,32
 660:	00050793          	mv	a5,a0
 664:	00d71863          	bne	a4,a3,674 <atol+0x1c>
 668:	0017c703          	lbu	a4,1(a5)
 66c:	00178793          	addi	a5,a5,1
 670:	fed70ce3          	beq	a4,a3,668 <atol+0x10>
 674:	fd570693          	addi	a3,a4,-43
 678:	0fd6f693          	andi	a3,a3,253
 67c:	04069463          	bnez	a3,6c4 <atol+0x6c>
 680:	0017c683          	lbu	a3,1(a5)
 684:	fd370713          	addi	a4,a4,-45
 688:	00173613          	seqz	a2,a4
 68c:	04068663          	beqz	a3,6d8 <atol+0x80>
 690:	00178793          	addi	a5,a5,1
 694:	00000513          	li	a0,0
 698:	00178793          	addi	a5,a5,1
 69c:	fd068593          	addi	a1,a3,-48
 6a0:	00251713          	slli	a4,a0,0x2
 6a4:	0007c683          	lbu	a3,0(a5)
 6a8:	00a70733          	add	a4,a4,a0
 6ac:	00171713          	slli	a4,a4,0x1
 6b0:	00e58533          	add	a0,a1,a4
 6b4:	fe0692e3          	bnez	a3,698 <atol+0x40>
 6b8:	00060463          	beqz	a2,6c0 <atol+0x68>
 6bc:	40a00533          	neg	a0,a0
 6c0:	00008067          	ret
 6c4:	0007c683          	lbu	a3,0(a5)
 6c8:	00000613          	li	a2,0
 6cc:	fc0694e3          	bnez	a3,694 <atol+0x3c>
 6d0:	00000513          	li	a0,0
 6d4:	00008067          	ret
 6d8:	00000513          	li	a0,0
 6dc:	fddff06f          	j	6b8 <atol+0x60>

Disassembly of section .text.startup:

000006e0 <main>:
 6e0:	f4010113          	addi	sp,sp,-192
 6e4:	800007b7          	lui	a5,0x80000
 6e8:	0a112e23          	sw	ra,188(sp)
 6ec:	02010593          	addi	a1,sp,32
 6f0:	78c00693          	li	a3,1932
 6f4:	0007a023          	sw	zero,0(a5) # 80000000 <__global_pointer$+0x7fffeed0>
 6f8:	00058713          	mv	a4,a1
 6fc:	00068813          	mv	a6,a3
 700:	75c00793          	li	a5,1884
 704:	0007a503          	lw	a0,0(a5)
 708:	0006a603          	lw	a2,0(a3)
 70c:	00478793          	addi	a5,a5,4
 710:	00a71023          	sh	a0,0(a4)
 714:	00c71123          	sh	a2,2(a4)
 718:	00468693          	addi	a3,a3,4
 71c:	00c70713          	addi	a4,a4,12
 720:	ff0792e3          	bne	a5,a6,704 <main+0x24>
 724:	00010793          	mv	a5,sp
 728:	00c58713          	addi	a4,a1,12
 72c:	00072683          	lw	a3,0(a4)
 730:	00878793          	addi	a5,a5,8
 734:	01870713          	addi	a4,a4,24
 738:	fed7ac23          	sw	a3,-8(a5)
 73c:	fef598e3          	bne	a1,a5,72c <main+0x4c>
 740:	00010513          	mv	a0,sp
 744:	c11ff0ef          	jal	354 <kmean>
 748:	000107b7          	lui	a5,0x10
 74c:	fff78793          	addi	a5,a5,-1 # ffff <__global_pointer$+0xeecf>
 750:	80000737          	lui	a4,0x80000
 754:	00f72023          	sw	a5,0(a4) # 80000000 <__global_pointer$+0x7fffeed0>
 758:	0000006f          	j	758 <main+0x78>
